0024 0000                      		.i8080
0025 0000                      		.include "opcodes.inc"
0003 0000                      		OPCODE_NOP     = 000h
0004 0000                      		OPCODE_STAX_D  = 012h
0005 0000                      		OPCODE_LDAX_D  = 01Ah
0006 0000                      		OPCODE_CMA     = 02Fh
0007 0000                      		OPCODE_MVI_M   = 036h
0008 0000                      		OPCODE_MOV_A_M = 07Eh
0009 0000                      		OPCODE_MOV_M_A = 077h
0010 0000                      		OPCODE_ANA_B   = 0A0h
0011 0000                      		OPCODE_ANA_M   = 0A6h
0012 0000                      		OPCODE_XRA_A   = 0AFh
0013 0000                      		OPCODE_ORA_B   = 0B0h
0014 0000                      		OPCODE_ORA_M   = 0B6h
0015 0000                      		OPCODE_RET     = 0C9h
0016 0000                      		OPCODE_ANI     = 0E6h
0017 0000                      		OPCODE_XCHG    = 0EBh
0018 0000                      		OPCODE_ORI     = 0F6h
0047 0000                      		org 234
0048 00EA                      		fileStart:
0049 00EA 4C 56 4F             		.db 4ch, 56h, 4fh, 56h, 2fh, 32h, 2eh, 30h, 2fh, 0d0h, "TETRIS"
0050 00FA 00 01                		.dw entry
0051 00FC 57 96                		.dw end1
0052 00FE 00 01                		.dw entry
0056 0100                      		entry:
0058 0100 31 00 01             		    lxi sp, 100h
0061 0103 D3 F8                		    out 0F8h
0062 0105 D3 B9                		    out 0B9h
0065 0107 CD A2 84             		    call intro
0068 010A AF                   		    xra  a
0069 010B 32 4B 06             		    sta  palette
0072 010E                      		restartGame:
0073 010E CD 53 05             		    call tetris
0076 0111 21 36 00             		    lxi  h, OPCODE_MVI_M
0077 0114 CD AF 06             		    call copyImageTo
0078 0117 21 78 DF             		    lxi  h, 0FFFFh - 135 - (32 * 256)
0079 011A 01 1E 12             		    lxi  b, 18 * 256 + 30 ; width * 256 + height
0080 011D 11 00 00             		    lxi  d, 0
0081 0120 CD C5 06             		    call copyImage
0084 0123 3E 02                		    mvi  a, 2
0085 0125 CD 0B 02             		    call setTextColor
0086 0128 21 3C 01             		    lxi  h, gameOverText
0087 012B CD AF 01             		    call drawText
0090 012E                      		entry_1:
0091 012E CD CC 07             		    call rand
0092 0131 CD 12 FC             		    call inkey_FC12
0093 0134 FE 0D                		    cpi  13
0094 0136 C2 2E 01             		    jnz  entry_1
0097 0139 C3 0E 01             		    jmp  restartGame
0101 013C                      		gameOverText:
0102 013C 09 14 47             		    db 9,20,"GAME OVER",0
0106 0148                      		pressAnyKey:
0108 0148                      		pressAnyKey_1:
0109 0148 CD 12 FC             		    call inkey_FC12
0110 014B FE FF                		    cpi  0FFh
0111 014D C2 48 01             		    jnz  pressAnyKey_1
0112 0150                      		pressAnyKey_2:
0113 0150 CD CC 07             		    call rand
0114 0153 CD 12 FC             		    call inkey_FC12
0115 0156 FE FF                		    cpi  0FFh
0116 0158 CA 50 01             		    jz   pressAnyKey_2
0117 015B C9                   		    ret
0121 015C                      		.include "fn.inc"
0005 015C                      		memcpy8back:
0006 015C 1A                   		    ldax d
0007 015D 77                   		    mov m, a
0008 015E 1B                   		    dcx d
0009 015F 2B                   		    dcx h
0010 0160 0B                   		    dcx b
0011 0161 79                   		    mov a, c
0012 0162 B0                   		    ora b
0013 0163 C2 5C 01             		    jnz memcpy8back
0014 0166 C9                   		    ret
0018 0167                      		memcpy8:
0019 0167 7E                   		    mov  a, m
0020 0168 12                   		    stax d
0021 0169 13                   		    inx  d
0022 016A 23                   		    inx  h
0023 016B 0D                   		    dcr  c
0024 016C C2 67 01             		    jnz  memcpy8
0025 016F C9                   		    ret
0029 0170                      		memset8:
0030 0170 77                   		    mov  m, a
0031 0171 23                   		    inx  h
0032 0172 0D                   		    dcr  c
0033 0173 C2 70 01             		    jnz  memset8
0034 0176 C9                   		    ret
0038 0177                      		delay8000:
0039 0177 11 00 80             		    lxi  d, 08000h
0040 017A                      		delay:
0041 017A 1B                   		    dcx  d
0042 017B 7A                   		    mov  a, d
0043 017C B3                   		    ora  e
0044 017D C2 7A 01             		    jnz  delay
0045 0180 C9                   		    ret
0050 0181                      		div16:
0051 0181 7C                   		    MOV  A,H
0052 0182 B5                   		    ORA  L
0053 0183 C8                   		    RZ
0054 0184 01 00 00             		    LXI  B,0000
0055 0187 C5                   		    PUSH B
0056 0188                      		div16_1:
0057 0188 7B                   		    MOV  A,E
0058 0189 95                   		    SUB  L
0059 018A 7A                   		    MOV  A,D
0060 018B 9C                   		    SBB  H
0061 018C DA 94 01             		    JC   div16_2
0062 018F E5                   		    PUSH H
0063 0190 29                   		    DAD  H
0064 0191 D2 88 01             		    JNC  div16_1
0065 0194                      		div16_2:
0066 0194 21 00 00             		    LXI  H,0000
0067 0197                      		div16_3:
0068 0197 C1                   		    POP  B
0069 0198 78                   		    MOV  A, B
0070 0199 B1                   		    ORA  C
0071 019A C8                   		    RZ
0072 019B 29                   		    DAD  H
0073 019C D5                   		    PUSH D
0074 019D 7B                   		    MOV  A, E
0075 019E 91                   		    SUB  C
0076 019F 5F                   		    MOV  E, A
0077 01A0 7A                   		    MOV  A, D
0078 01A1 98                   		    SBB  B
0079 01A2 57                   		    MOV  D, A
0080 01A3 DA AB 01             		    JC   div16_4
0081 01A6 23                   		    INX  H
0082 01A7 C1                   		    POP  B
0083 01A8 C3 97 01             		    JMP  div16_3
0084 01AB                      		div16_4:
0085 01AB D1                   		    POP  D
0086 01AC C3 97 01             		    JMP  div16_3
0122 01AF                      		.include "text.inc"
0003 01AF                      		FONT_HEIGHT      = 12
0004 01AF                      		FONT_LINE_HEIGHT = 14
0008 01AF                      		drawText:
0009 01AF CD B6 01             		    call drawText2
0010 01B2 C2 AF 01             		    jnz  drawText
0011 01B5 C9                   		    ret
0013 01B6                      		drawText2:
0014 01B6 7E                   		    mov  a, m
0015 01B7 B7                   		    ora  a
0016 01B8 C8                   		    rz
0017 01B9 23                   		    inx  h
0018 01BA FE 20                		    cpi  32
0019 01BC D2 D2 01             		    jnc  drawText_1
0020 01BF 5F                   		    mov  e, a
0021 01C0 87                   		    add  a ; *2
0022 01C1 83                   		    add  e ; *3
0023 01C2 87                   		    add  a ; *6
0024 01C3 83                   		    add  e ; *7
0025 01C4 87                   		    add  a ; *14
0026 01C5 2F                   		    cma
0027 01C6 32 EA 01             		    sta  drawCharAddr
0028 01C9 3E FF                		    mvi  a, 0FFh
0029 01CB 96                   		    sub  m
0030 01CC 23                   		    inx  h
0031 01CD 32 EB 01             		    sta  drawCharAddr+1
0032 01D0 7E                   		    mov  a, m
0033 01D1 23                   		    inx  h
0034 01D2                      		drawText_1:
0035 01D2 E5                   		    push h
0036 01D3 CD DB 01             		    call drawChar
0037 01D6 35                   		    dcr  m
0038 01D7 E1                   		    pop  h
0039 01D8 AF                   		    xra  a ; return nz
0040 01D9 3C                   		    inr  a
0041 01DA C9                   		    ret
0045 01DB                      		drawChar:
0048 01DB 6F                   		    mov  l, a
0049 01DC 26 00                		    mvi  h, 0
0050 01DE 29                   		    dad  h ; *2
0051 01DF 29                   		    dad  h ; *4
0052 01E0 54                   		    mov  d, h
0053 01E1 5D                   		    mov  e, l
0054 01E2 29                   		    dad  h ; *8
0055 01E3 19                   		    dad  d ; *12
0056 01E4 11 5E 80             		    lxi  d, font - (' ' * 12)
0057 01E7 19                   		    dad  d
0058 01E8 EB                   		    xchg
0061 01E9                      		drawCharAddr = $+1
0062 01E9 21 00 D0             		    lxi  h, 0D000h
0065 01EC 0E 0C                		    mvi  c, FONT_HEIGHT
0066 01EE                      		drawChar_1:
0067 01EE C5                   		    push b
0070 01EF 46                   		    mov  b, m
0071 01F0 1A                   		    ldax d
0072 01F1                      		drawChar_cma1:
0073 01F1 2F                   		    cma    ; nop
0074 01F2 A0                   		    ana  b ; ora b
0075 01F3 4F                   		    mov  c, a
0078 01F4 E5                   		    push h
0079 01F5 7C                   		    mov  a, h
0080 01F6 DE 40                		    sbi  40h
0081 01F8 67                   		    mov  h, a
0084 01F9 46                   		    mov  b, m
0085 01FA 1A                   		    ldax d
0086 01FB                      		drawChar_cma2:
0087 01FB 2F                   		    cma    ; nop
0088 01FC A0                   		    ana  b ; ora b
0091 01FD 77                   		    mov  m, a
0092 01FE E1                   		    pop  h
0093 01FF 71                   		    mov  m, c
0096 0200 23                   		    inx  h
0097 0201 13                   		    inx  d
0100 0202 C1                   		    pop  b
0101 0203 0D                   		    dcr  c
0102 0204 C2 EE 01             		    jnz  drawChar_1
0105 0207 21 EB 01             		    lxi h, drawCharAddr+1
0106 020A C9                   		    ret
0110 020B                      		setTextColor:
0111 020B 21 2F A0             		    lxi  h, OPCODE_CMA + (OPCODE_ANA_B * 256)
0112 020E 11 00 B0             		    lxi  d, OPCODE_NOP + (OPCODE_ORA_B * 256)
0113 0211                      		setTextColor1:
0114 0211 0F                   		    rrc
0115 0212 D2 17 02             		    jnc  setTextColor_1
0116 0215 EB                   		    xchg
0117 0216 2F                   		    cma
0118 0217                      		setTextColor_1:
0119 0217 22 F1 01             		    shld drawChar_cma1
0120 021A 0F                   		    rrc
0121 021B D2 1F 02             		    jnc  setTextColor_2
0122 021E EB                   		    xchg
0123 021F                      		setTextColor_2:
0124 021F 22 FB 01             		    shld drawChar_cma2
0125 0222 C9                   		    ret
0123 0223                      		.include "tetris.inc"
0003 0223 00 00 00             		map  db 232 dup(0)
0006 030B                      		WIDTH     = 10
0007 030B                      		HEIGHT    = 20
0008 030B                      		BPL       = WIDTH+1
0009 030B                      		START     = 1
0010 030B                      		MAP_SIZE  = (START + (BPL * (HEIGHT + 1)))
0014 030B 64 37 1E             		speeds         db 200/2,110/2,60/2,40/2,30/2,15/2 ; Скорости для каждого уровня
0015 0311 00                   		timer          db 0
0016 0312 00                   		lastPressedKey db 0
0017 0313 00                   		figureA        db 0
0018 0314 00                   		figureO        db 0 ;  O+С должны быть подряд
0019 0315 00                   		figureC        db 0
0020 0316 00                   		nextO          db 0 ;  O+С должны быть подряд
0021 0317 00                   		nextC          db 0
0022 0318 00 00                		score          dw 0
0023 031A 00 00                		bestScore      dw 0
0024 031C 00                   		level          db 0
0025 031D 00                   		gameOverFlag   db 0
0030 031E                      		redrawAll:
0031 031E CD D8 05             		    call drawBackgrond
0032 0321 CD C2 07             		    call invalidatePlayfield
0033 0324 CD 93 06             		    call redrawNewFigure
0034 0327 CD 94 07             		    call redrawMap
0035 032A CD 62 06             		    call redrawScore
0036 032D CD 40 06             		    call paletteShow
0037 0330 C9                   		    ret
0041 0331                      		checkFigure:
0043 0331 7E                   		    mov a, m
0044 0332 B7                   		    ora a
0045 0333 C9                   		    ret
0052 0334                      		drawFigure:
0053 0334 3A 15 03             		    lda  figureC
0054 0337 77                   		    mov  m, a
0055 0338 AF                   		    xra  a ; return z
0056 0339 C9                   		    ret
0060 033A                      		clearFigure:
0061 033A 36 00                		    mvi m, 0
0062 033C AF                   		    xra a ; return z
0063 033D C9                   		    ret
0073 033E                      		decodeFigure2:
0074 033E 6F                   		    mov  l, a
0075 033F E6 03                		    ani  3
0076 0341 57                   		    mov  d, a ; d - это X
0077 0342 7D                   		    mov  a, l
0078 0343 0F                   		    rrc
0079 0344 0F                   		    rrc
0080 0345 E6 03                		    ani  3
0081 0347 5F                   		    mov  e, a ; e - это Y
0082 0348 87                   		    add  a ; *2
0083 0349 87                   		    add  a ; *4
0084 034A 83                   		    add  e ; *5
0085 034B 87                   		    add  a ; *10
0086 034C 83                   		    add  e ; *11
0087 034D 82                   		    add  d
0088 034E 47                   		    mov  b, a
0089 034F 3A 13 03             		    lda  figureA
0090 0352 80                   		    add  b
0091 0353 26 00                		    mvi  h, 0
0092 0355 6F                   		    mov  l, a
0093 0356 01 24 02             		    lxi  b, map + START
0094 0359 09                   		    dad  b
0097 035A                      		decodeFigure3 = $+1
0098 035A C3 00 00             		    jmp 0
0103 035D                      		decodeFigure1:
0104 035D 6F                   		    mov  l, a
0105 035E E5                   		    push h
0106 035F CD 3E 03             		    call decodeFigure2
0107 0362 E1                   		    pop  h
0108 0363 C0                   		    rnz
0109 0364 7D                   		    mov  a, l
0110 0365 0F                   		    rrc
0111 0366 0F                   		    rrc
0112 0367 0F                   		    rrc
0113 0368 0F                   		    rrc
0114 0369 C3 3E 03             		    jmp  decodeFigure2
0119 036C                      		figures:
0120 036C 51 84 10             		    db 81,132,16,101,81,132,16,101,64,149,84,33,64,149,84,33,81,217,84,118
0121 0380 51 D9 54             		    db 81,217,84,118,16,84,16,84,16,84,16,84,65,101,64,88,16,82,81,73,64
0122 0395 98 10 42             		    db 152,16,66,16,149,84,38,81,137,64,101,16,132,16,98
0124 03A4                      		decodeFigure:
0125 03A4 3A 14 03             		    lda  figureO
0127 03A7                      		decodeFigureEx:
0128 03A7 22 5B 03             		    shld decodeFigure3
0131 03AA 6F                   		    mov  l, a
0132 03AB 26 00                		    mvi  h, 0
0133 03AD 11 6C 03             		    lxi  d, figures
0134 03B0 19                   		    dad  d
0135 03B1 7E                   		    mov  a, m
0136 03B2 E5                   		    push h
0137 03B3 CD 5D 03             		    call decodeFigure1
0138 03B6 E1                   		    pop  h
0139 03B7 C0                   		    rnz
0142 03B8 23                   		    inx  h
0143 03B9 7E                   		    mov  a, m
0144 03BA C3 5D 03             		    jmp  decodeFigure1
0148 03BD                      		gen:
0150 03BD CD CC 07             		    call rand
0151 03C0                      		gen_2:
0152 03C0 DE 07                		    sbi  7
0153 03C2 D2 C0 03             		    jnc  gen_2
0154 03C5 C6 07                		    adi  7
0156 03C7 87                   		    add  a
0157 03C8 87                   		    add  a
0158 03C9 87                   		    add  a
0159 03CA 32 16 03             		    sta  nextO
0162 03CD CD CC 07             		    call rand
0163 03D0                      		gen_3:
0164 03D0 DE 03                		    sbi  3
0165 03D2 D2 D0 03             		    jnc  gen_3
0166 03D5 C6 03                		    adi  3
0167 03D7 3C                   		    inr  a
0168 03D8 32 17 03             		    sta  nextC
0169 03DB C9                   		    ret
0173 03DC                      		newFigureEx:
0175 03DC 2A 16 03             		    lhld nextO
0176 03DF 22 14 03             		    shld figureO
0179 03E2 3E 04                		    mvi  a, 4
0180 03E4 32 13 03             		    sta  figureA
0183 03E7 21 31 03             		    lxi  h, checkFigure
0184 03EA CD A4 03             		    call decodeFigure
0185 03ED CA F5 03             		    jz   newFigure_1
0186 03F0 3E 01                		    mvi  a, 1
0187 03F2 32 1D 03             		    sta  gameOverFlag
0188 03F5                      		newFigure_1:
0191 03F5 21 34 03             		    lxi  h, drawFigure
0192 03F8 CD A4 03             		    call decodeFigure
0195 03FB C3 BD 03             		    jmp gen
0199 03FE                      		newFigure:
0200 03FE CD DC 03             		    call newFigureEx
0203 0401 CD 93 06             		    call redrawNewFigure
0206 0404 C3 94 07             		    jmp  redrawMap
0210 0407                      		move:
0212 0407 C5                   		    push b
0213 0408 21 3A 03             		    lxi  h, clearFigure
0214 040B CD A4 03             		    call decodeFigure
0215 040E C1                   		    pop  b
0218 040F 3A 13 03             		    lda figureA
0219 0412 F5                   		    push psw
0220 0413 81                   		    add c
0221 0414 32 13 03             		    sta figureA
0224 0417 3A 14 03             		    lda  figureO
0225 041A F5                   		    push psw
0228 041B 05                   		    dcr b
0229 041C C2 2C 04             		    jnz move_1
0231 041F 47                   		    mov b, a
0232 0420 3C                   		    inr a
0233 0421 3C                   		    inr a
0234 0422 E6 06                		    ani 6
0235 0424 4F                   		    mov c, a
0236 0425 78                   		    mov a, b
0237 0426 E6 F9                		    ani 0F9h
0238 0428 81                   		    add c
0239 0429 32 14 03             		    sta figureO
0241 042C                      		move_1:
0244 042C 21 31 03             		    lxi  h, checkFigure
0245 042F CD A4 03             		    call decodeFigure
0246 0432 CA 45 04             		    jz   move_2
0250 0435 F1                   		    pop psw
0251 0436 32 14 03             		    sta figureO
0252 0439 F1                   		    pop psw
0253 043A 32 13 03             		    sta figureA
0256 043D 21 34 03             		    lxi  h, drawFigure
0257 0440 CD A4 03             		    call decodeFigure
0260 0443 AF                   		    xra a
0261 0444 C9                   		    ret
0263 0445                      		move_2:
0265 0445 F1                   		    pop psw
0266 0446 F1                   		    pop psw
0269 0447 21 34 03             		    lxi  h, drawFigure
0270 044A CD A4 03             		    call decodeFigure
0273 044D CD 94 07             		    call redrawMap
0276 0450 AF                   		    xra a
0277 0451 3C                   		    inr a
0278 0452 C9                   		    ret
0284 0453                      		deleteLine:
0285 0453 3E 07                		    mvi  a, 7
0286 0455                      		deleteLine_1:
0287 0455 F5                   		    push psw
0288 0456 E5                   		    push h
0289 0457 0E 0A                		    mvi  c, WIDTH
0290 0459 D3 B0                		    out  0B0h
0291 045B CD 70 01             		    call memset8
0292 045E CD 94 07             		    call redrawMap
0293 0461 E1                   		    pop  h
0294 0462 F1                   		    pop  psw
0295 0463 3D                   		    dcr  a
0296 0464 C2 55 04             		    jnz  deleteLine_1
0300 0467 2B                   		    dcx  h
0303 0468 54                   		    mov  d, h
0304 0469 5D                   		    mov  e, l
0305 046A 01 0B 00             		    lxi  b, BPL
0306 046D 09                   		    dad  b
0309 046E                      		deleteLine_1:
0310 046E 1A                   		    ldax d
0311 046F 1B                   		    dcx  d
0312 0470 77                   		    mov  m, a
0313 0471 2B                   		    dcx  h
0316 0472 7B                   		    mov  a, e
0317 0473 D6 23                		    sui  map
0318 0475 7A                   		    mov  a, d
0319 0476 DE 02                		    sbi  (map/256)
0320 0478 D2 6E 04             		    jnc  deleteLine_1
0323 047B 21 24 02             		    lxi  h, map + START
0324 047E AF                   		    xra  a
0325 047F 0E 0A                		    mvi  c, WIDTH
0326 0481 CD 70 01             		    call memset8
0330 0484 C3 94 07             		    jmp  redrawMap
0335 0487                      		clearLine:
0340 0487 06 0A                		    mvi  b, WIDTH
0341 0489                      		clearLine_1:
0342 0489 36 00                		    mvi  m, 0
0343 048B 23                   		    inx  h
0344 048C 05                   		    dcr  b
0345 048D C2 89 04             		    jnz  clearLine_1
0346 0490 C9                   		    ret
0350 0491                      		newGame:
0351 0491 CD BD 03             		    call gen
0352 0494 AF                   		    xra  a
0353 0495 32 1C 03             		    sta  level
0354 0498 32 18 03             		    sta  score + 0
0355 049B 32 19 03             		    sta  score + 1
0356 049E 32 1D 03             		    sta  gameOverFlag
0361 04A1 21 23 02             		    lxi  h, map
0362 04A4 0E 14                		    mvi  c, HEIGHT
0363 04A6                      		newGame_1:
0364 04A6 36 01                		    mvi  m, 1
0365 04A8 23                   		    inx  h
0366 04A9 CD 87 04             		    call clearLine
0367 04AC 0D                   		    dcr  c
0368 04AD C2 A6 04             		    jnz  newGame_1
0369 04B0 0E 0C                		    mvi  c, BPL + 1
0370 04B2                      		newGame_1a:
0371 04B2 36 01                		    mvi  m, 1
0372 04B4 23                   		    inx  h
0373 04B5 0D                   		    dcr  c
0374 04B6 C2 B2 04             		    jnz  newGame_1a
0377 04B9 CD DC 03             		    call  newFigureEx
0379 04BC CD 1E 03             		    call  redrawAll
0381 04BF C9                   		    ret
0385 04C0                      		checkLine:
0389 04C0 0E 0A                		    mvi  c, WIDTH
0390 04C2                      		checkLine_1:
0391 04C2 7E                   		    mov  a, m
0392 04C3 B7                   		    ora  a
0393 04C4 C8                   		    rz
0394 04C5 23                   		    inx  h
0395 04C6 0D                   		    dcr  c
0396 04C7 C2 C2 04             		    jnz  checkLine_1
0399 04CA AF                   		    xra a
0400 04CB 3C                   		    inr a
0401 04CC C9                   		    ret
0417 04CD                      		checkLines:
0418 04CD 3E C9                		    mvi  a, 0C9h
0419 04CF 32 0B 05             		    sta  checkLines_3
0422 04D2 21 F5 02             		    lxi h, map + START + (BPL * (HEIGHT - 1))
0423 04D5                      		checkLines_1:
0427 04D5 E5                   		    push h
0428 04D6 CD C0 04             		    call checkLine
0429 04D9 E1                   		    pop  h
0430 04DA CA FE 04             		    jz checkLines_2
0432 04DD E5                   		    push h
0433 04DE CD 53 04             		    call deleteLine
0435 04E1 2A 18 03             		    lhld score
0436 04E4 23                   		    inx  h
0437 04E5 22 18 03             		    shld score
0439 04E8 EB                   		    xchg
0440 04E9 2A 1A 03             		    lhld bestScore
0441 04EC 7D                   		    mov  a, l
0442 04ED 93                   		    sub  e
0443 04EE 7C                   		    mov  a, h
0444 04EF                      		    sbc  d
0445 04EF D2 F6 04             		    jnc checkLines_4
0446 04F2 EB                   		    xchg
0447 04F3 22 1A 03             		    shld bestScore
0448 04F6                      		checkLines_4:
0450 04F6 AF                   		    xra  a
0451 04F7 32 0B 05             		    sta  checkLines_3
0452 04FA E1                   		    pop  h
0454 04FB C3 D5 04             		    jmp checkLines_1
0455 04FE                      		checkLines_2:
0458 04FE 11 F5 FF             		    lxi d, 65536-BPL
0459 0501 19                   		    dad d
0461 0502 7D                   		    mov a, l
0462 0503 D6 25                		    sui (map + START + 1)
0463 0505 7C                   		    mov a, h
0464 0506 DE 02                		    sbi (map + START + 1) / 256
0465 0508 D2 D5 04             		    jnc checkLines_1
0467 050B                      		checkLines_3:
0468 050B C9                   		    ret
0470 050C CD 62 06             		    call redrawScore
0472 050F 2A 18 03             		    lhld score
0473 0512 EB                   		    xchg
0474 0513 21 1E 00             		    lxi  h, 30
0475 0516 CD 81 01             		    call div16
0476 0519 7D                   		    mov  a, l
0477 051A                      		setLevel1:
0479 051A 2A 1C 03             		    lhld level
0480 051D BD                   		    cmp  l
0481 051E C8                   		    rz
0482 051F D8                   		    rc
0484 0520 FE 06                		    cpi  LEVELS_COUNT
0485 0522 D0                   		    rnc
0486 0523 32 1C 03             		    sta  level
0487 0526 C3 1E 03             		    jmp  redrawAll
0491 0529                      		nextLevel:
0492 0529 3A 1C 03             		    lda  level
0493 052C 3C                   		    inr  a
0494 052D CD 1A 05             		    call setLevel1
0495 0530 C3 56 05             		    jmp  gameLoop
0499 0533                      		tick:
0501 0533 01 0B 00             		    lxi  b, BPL
0502 0536 CD 07 04             		    call move
0504 0539 C0                   		    rnz
0507 053A CD CD 04             		    call checkLines
0510 053D CD FE 03             		    call newFigure
0513 0540 C9                   		    ret
0516 0541                      		down:
0518 0541 01 0B 00             		    lxi  b, BPL
0519 0544 CD 07 04             		    call move
0521 0547 C2 41 05             		    jnz  down
0524 054A CD CD 04             		    call checkLines
0527 054D CD FE 03             		    call newFigure
0531 0550 C3 56 05             		    jmp gameLoop
0535 0553                      		tetris:
0536 0553 CD 91 04             		    call newGame
0538 0556                      		gameLoop:
0539 0556 3A 1D 03             		    lda  gameOverFlag
0540 0559 B7                   		    ora  a
0541 055A C0                   		    rnz
0543 055B 3A 11 03             		    lda  timer
0544 055E 3D                   		    dcr  a
0545 055F C2 6F 05             		    jnz  gameLoop_2
0547 0562 CD 33 05             		    call tick
0549 0565 2A 1C 03             		    lhld level ; 0..5
0550 0568 26 00                		    mvi  h, 0
0551 056A 11 0B 03             		    lxi  d, speeds
0552 056D 19                   		    dad  d
0553 056E 7E                   		    mov  a, m
0555 056F                      		gameLoop_2:
0556 056F 32 11 03             		    sta  timer ; by level
0559 0572 CD CC 07             		    call rand
0562 0575 CD 12 FC             		    call inkey_FC12
0565 0578 2A 12 03             		    lhld lastPressedKey
0566 057B BD                   		    cmp  l
0567 057C C2 84 05             		    jnz  gameLoop_1a
0568 057F 3E FF                		    mvi  a, 0FFh
0569 0581 C3 87 05             		    jmp  gameLoop_2a
0570 0584                      		gameLoop_1a:
0571 0584 32 12 03             		    sta  lastPressedKey
0572 0587                      		gameLoop_2a:
0574 0587                      		gameLoop_185:
0576 0587 FE 88                		    cpi  136
0577 0589 C2 95 05             		    jnz  gameLoop_16
0578 058C 01 00 01             		    lxi  b, 100h
0579 058F CD 07 04             		    call move
0580 0592 C3 56 05             		    jmp  gameLoop
0581 0595                      		gameLoop_16:
0582 0595 FE 31                		    cpi  '1'
0583 0597 CA 29 05             		    jz   nextLevel
0586 059A FE 82                		    cpi  130
0587 059C CA 41 05             		    jz   down
0590 059F FE 84                		    cpi  132
0591 05A1 C2 AA 05             		    jnz  gameLoop_18
0592 05A4 01 FF 00             		    lxi  b, 0FFh
0593 05A7 CD 07 04             		    call move
0594 05AA                      		gameLoop_18:
0596 05AA FE 86                		    cpi  134
0597 05AC C2 B8 05             		    jnz  gameLoop_19
0598 05AF 01 01 00             		    lxi  b, 01h
0599 05B2 CD 07 04             		    call move
0600 05B5 C3 56 05             		    jmp  gameLoop
0601 05B8                      		gameLoop_19:
0602 05B8 01 00 00             		    lxi  b, 0
0603 05BB CD 07 04             		    call move
0604 05BE C3 56 05             		    jmp  gameLoop
0124 05C1                      		.include "bios.inc"
0004 05C1                      		PALETTE_WHITE        = 0
0005 05C1                      		PALETTE_CYAN         = 1
0006 05C1                      		PALETTE_MAGENTA      = 2
0007 05C1                      		PALETTE_BLUE         = 3
0008 05C1                      		PALETTE_YELLOW       = 4
0009 05C1                      		PALETTE_GREEN        = 5
0010 05C1                      		PALETTE_RED          = 6
0011 05C1                      		PALETTE_XXX          = 7
0012 05C1                      		PALETTE_DARK_GRAY    = 8
0013 05C1                      		PALETTE_DARK_CYAN    = 9
0014 05C1                      		PALETTE_DARK_MAGENTA = 10
0015 05C1                      		PALETTE_DARK_BLUE    = 11
0016 05C1                      		PALETTE_DARK_YELLOW  = 12
0017 05C1                      		PALETTE_DARK_GREEN   = 13
0018 05C1                      		PALETTE_DARK_RED     = 14
0019 05C1                      		PALETTE_BLACK        = 15
0022 05C1                      		IO_PALETTE_0         = 90h
0023 05C1                      		IO_PALETTE_1         = 91h
0024 05C1                      		IO_PALETTE_2         = 92h
0025 05C1                      		IO_PALETTE_3         = 93h
0028 05C1                      		VIDEO_PAGE_0         = 0D000h
0029 05C1                      		VIDEO_PAGE_1         = 09000h
0030 05C1                      		VIDEO_WIDTH          = 384
0031 05C1                      		VIDEO_HEIGHT         = 256
0041 05C1                      		inkey_FC12           = 0FC12h
0125 05C1                      		.include "graph.inc"
0003 05C1                      		SYS_BACKUP_FROM = 0C800h
0004 05C1                      		SYS_BACKUP_SIZE = 80h
0005 05C1                      		SYS_BACKUP_TO   = 3h
0007 05C1                      		NEW_BACKUP_FROM = 0C000h
0008 05C1                      		SCO_BACKUP_FROM = 0C000h + (7 * 48 * 2)
0013 05C1                      		clearScreen:
0014 05C1 CD D1 05             		    call clearScreen1
0019 05C4                      		clearScreen2:
0020 05C4 21 00 90             		    lxi  h, VIDEO_PAGE_1
0021 05C7 3E C0                		    mvi  a, 0C0h
0026 05C9                      		clearMem:
0027 05C9 36 00                		    mvi  m, 0
0028 05CB 23                   		    inx  h
0029 05CC BC                   		    cmp  h
0030 05CD C2 C9 05             		    jnz  clearMem
0031 05D0 C9                   		    ret
0036 05D1                      		clearScreen1:
0037 05D1 21 00 D0             		    lxi  h, VIDEO_PAGE_0
0038 05D4 AF                   		    xra  a
0039 05D5 C3 C9 05             		    jmp  clearMem
0044 05D8                      		drawBackgrond:
0046 05D8 11 7F C8             		    lxi  d, SYS_BACKUP_FROM + SYS_BACKUP_SIZE - 1
0047 05DB 21 82 00             		    lxi  h, SYS_BACKUP_TO + SYS_BACKUP_SIZE - 1
0048 05DE 01 80 00             		    lxi  b, SYS_BACKUP_SIZE
0049 05E1 CD 5C 01             		    call memcpy8back
0052 05E4 06 08                		    mvi  b, 8
0053 05E6 CD 4A 06             		    call setPaletteEx
0054 05E9 CD 77 01             		    call delay8000
0055 05EC 3E 0F                		    mvi  a, PALETTE_BLACK
0056 05EE D3 90                		    out  IO_PALETTE_0
0057 05F0 D3 91                		    out  IO_PALETTE_1
0058 05F2 D3 92                		    out  IO_PALETTE_2
0059 05F4 D3 93                		    out  IO_PALETTE_3
0062 05F6 3A 1C 03             		    lda  level
0063 05F9 57                   		    mov  d, a
0064 05FA 87                   		    add  a ;*2
0065 05FB 87                   		    add  a ;*4
0066 05FC 82                   		    add  d ;*5
0067 05FD 16 00                		    mvi  d, 0
0068 05FF 5F                   		    mov  e, a
0069 0600 21 A7 08             		    lxi  h, levels
0070 0603 19                   		    dad  d
0071 0604 5E                   		    mov  e, m
0072 0605 23                   		    inx  h
0073 0606 56                   		    mov  d, m
0074 0607 23                   		    inx  h
0075 0608 7E                   		    mov  a, m ; Цвет фигуры и текста
0076 0609 32 FA 06             		    sta  redrawNewFigure1_1
0077 060C 23                   		    inx  h
0078 060D 22 4B 06             		    shld palette ; Палитра
0080 0610 D5                   		    push d
0081 0611 CD 0B 02             		    call setTextColor
0082 0614 D1                   		    pop  d
0085 0615 01 00 90             		    lxi  b, VIDEO_PAGE_1
0086 0618 CD D7 07             		    call unmlz
0089 061B 21 FF FF             		    lxi  h, 0FFFFh
0090 061E 11 FF EF             		    lxi  d, 0EFFFh
0091 0621 01 00 30             		    lxi  b, 03000h
0092 0624 CD 5C 01             		    call memcpy8back
0096 0627 11 82 00             		    lxi  d, SYS_BACKUP_TO + SYS_BACKUP_SIZE - 1
0097 062A 21 7F C8             		    lxi  h, SYS_BACKUP_FROM + SYS_BACKUP_SIZE - 1
0098 062D 01 80 00             		    lxi  b, SYS_BACKUP_SIZE
0099 0630 CD 5C 01             		    call memcpy8back
0101 0633 CD AC 06             		    call copyImageFromScreen
0102 0636 CD BC 06             		    call copyNewFigureBackground
0103 0639 CD A0 06             		    call copyScoreBackground
0104 063C CD B6 06             		    call copyImageToScreen
0106 063F C9                   		    ret
0110 0640                      		paletteShow:
0111 0640 06 08                		    mvi  b, 8
0112 0642 CD 4A 06             		    call setPaletteEx
0113 0645 CD 77 01             		    call delay8000
0114 0648 06 00                		    mvi  b, 0
0115 064A                      		setPaletteEx:
0116 064A                      		palette = $+1
0117 064A 21 00 00             		    lxi  h, 0
0118 064D AF                   		    xra  a
0119 064E B5                   		    ora  l
0120 064F C8                   		    rz
0122 0650 3E 0F                		    mvi  a, 15
0123 0652 B0                   		    ora  b
0124 0653 D3 90                		    out  IO_PALETTE_0
0126 0655 7E                   		    mov  a, m
0127 0656 B0                   		    ora  b
0128 0657 D3 91                		    out  IO_PALETTE_1
0129 0659 23                   		    inx  h
0130 065A 7E                   		    mov  a, m
0131 065B B0                   		    ora  b
0132 065C D3 92                		    out  IO_PALETTE_2
0134 065E 78                   		    mov  a, b
0135 065F D3 93                		    out  IO_PALETTE_3
0136 0661 C9                   		    ret
0141 0662                      		redrawScore:
0142 0662 CD A0 06             		    call copyScoreBackground
0144 0665 21 E7 D2             		    lxi  h, 0FFFFh-24-(45*256)
0145 0668 22 EA 01             		    shld drawCharAddr
0146 066B 2A 18 03             		    lhld score
0147 066E CD 7D 06             		    call drawNumber
0149 0671 21 D7 D2             		    lxi  h, 0FFFFh-40-(45*256)
0150 0674 22 EA 01             		    shld drawCharAddr
0151 0677 2A 1A 03             		    lhld bestScore
0152 067A C3 7D 06             		    jmp  drawNumber
0157 067D                      		drawNumber:
0158 067D EB                   		    xchg
0159 067E                      		redrawScore_1:
0161 067E 21 0A 00             		    lxi  h, 10
0162 0681 CD 81 01             		    call div16
0164 0684 E5                   		    push h
0165 0685 7B                   		    mov  a, e
0166 0686 C6 30                		    adi  '0'
0167 0688 CD DB 01             		    call drawChar
0168 068B 34                   		    inr  m
0169 068C D1                   		    pop  d
0171 068D 7A                   		    mov  a, d
0172 068E B3                   		    ora  e
0173 068F C2 7E 06             		    jnz redrawScore_1
0174 0692 C9                   		    ret
0179 0693                      		redrawNewFigure:
0181 0693 CD BC 06             		    call copyNewFigureBackground
0185 0696 3A 16 03             		    lda  nextO
0186 0699 21 E7 06             		    lxi  h, redrawNewFigure1
0187 069C CD A7 03             		    call decodeFigureEx
0188 069F C9                   		    ret
0192 06A0                      		copyScoreBackground:
0193 06A0 01 28 05             		    lxi  b, 5 * 256 + 40
0194 06A3 11 A0 C2             		    lxi  d, SCO_BACKUP_FROM
0195 06A6 21 D7 D2             		    lxi  h, 0FFFFh-40-(45*256)
0196 06A9 C3 C5 06             		    jmp  copyImage
0200 06AC                      		copyImageFromScreen:
0202 06AC 21 7E 12             		    lxi  h, OPCODE_MOV_A_M + (256 * OPCODE_STAX_D)
0203 06AF                      		copyImageTo:
0204 06AF 22 D2 06             		    shld copyImage_o1
0205 06B2 22 D7 06             		    shld copyImage_o2
0206 06B5 C9                   		    ret
0211 06B6                      		copyImageToScreen:
0212 06B6 21 1A 77             		    lxi  h, OPCODE_LDAX_D + (256 * OPCODE_MOV_M_A)
0213 06B9 C3 AF 06             		    jmp  copyImageTo
0218 06BC                      		copyNewFigureBackground:
0219 06BC 01 30 07             		    lxi  b, 7 * 256 + 48
0220 06BF 11 00 C0             		    lxi  d, NEW_BACKUP_FROM
0221 06C2 21 C8 F8             		    lxi  h, 0F8F8h - 48
0226 06C5                      		copyImage:
0228 06C5 7C                   		    mov  a, h
0229 06C6 32 D1 06             		    sta  copyImage_h1
0230 06C9 D6 40                		    sui  040h
0231 06CB 32 D6 06             		    sta  copyImage_h2
0232 06CE E5                   		    push h
0233 06CF C5                   		    push b
0235 06D0                      		copyImage_4:
0237 06D0                      		copyImage_h1 = $+1
0238 06D0 26 D0                		    mvi  h, 0D0h
0239 06D2                      		copyImage_o1:
0240 06D2 7E                   		    mov  a, m
0241 06D3 12                   		    stax d
0242 06D4 13                   		    inx  d
0244 06D5                      		copyImage_h2 = $+1
0245 06D5 26 90                		    mvi  h, 90h
0246 06D7                      		copyImage_o2:
0247 06D7 7E                   		    mov  a, m
0248 06D8 12                   		    stax d
0249 06D9 13                   		    inx  d
0251 06DA 2C                   		    inr  l
0253 06DB 0D                   		    dcr  c
0254 06DC C2 D0 06             		    jnz  copyImage_4
0255 06DF C1                   		    pop  b
0256 06E0 E1                   		    pop  h
0258 06E1 24                   		    inr  h
0260 06E2 05                   		    dcr  b
0261 06E3 C2 C5 06             		    jnz  copyImage
0262 06E6 C9                   		    ret
0267 06E7                      		redrawNewFigure1:
0268 06E7 E5                   		    push h
0269 06E8 D5                   		    push d
0270 06E9 C5                   		    push b
0273 06EA 7B                   		    mov  a, e
0274 06EB 87                   		    add  a
0275 06EC 87                   		    add  a
0276 06ED 5F                   		    mov  e, a
0277 06EE 87                   		    add  a
0278 06EF 83                   		    add  e
0279 06F0 5F                   		    mov  e, a
0280 06F1 3E F7                		    mvi  a, 0F7h
0281 06F3 93                   		    sub  e
0282 06F4 4F                   		    mov  c, a
0285 06F5 7A                   		    mov  a, d
0286 06F6 C6 0A                		    adi  10
0287 06F8 47                   		    mov  b, a
0290 06F9                      		redrawNewFigure1_1 = $+1
0291 06F9 3E 00                		    mvi  a, 0
0292 06FB CD 3B 07             		    call drawCell
0294 06FE C1                   		    pop  b
0295 06FF D1                   		    pop  d
0296 0700 E1                   		    pop  h
0299 0701 AF                   		    xra  a
0300 0702 C9                   		    ret
0126 0703                      		.include "playfieldgraph.inc"
0003 0703                      		map2 = 3h ; Тут будет массив размером WIDTH * HEIGHT = 10 * 20 = 200 байт
0005 0703                      		PLAYFIELD_Y = 8
0013 0703                      		cellOff:
0014 0703 F0 3F FF             		    db 240- 0,03Fh,0FFh,000h ; 00111111,11111111,00000000
0015 0707 EE FF FC             		    db 240- 2,0FFh,0FCh,000h ; 11111111,11111100,00000000
0016 070B ED 03 FF             		    db 240- 3,003h,0FFh,0F0h ; 00000011,11111111,11110000
0017 070F EB 0F FF             		    db 240- 5,00Fh,0FFh,0C0h ; 00001111,11111111,11000000
0018 0713 E9 3F FF             		    db 240- 7,03Fh,0FFh,000h ; 00111111,11111111,00000000
0019 0717 E7 FF FC             		    db 240- 9,0FFh,0FCh,000h ; 11111111,11111100,00000000
0020 071B E6 03 FF             		    db 240-10,003h,0FFh,0F0h ; 00000011,11111111,11110000
0021 071F E4 0F FF             		    db 240-12,00Fh,0FFh,0C0h ; 00001111,11111111,11000000
0022 0723 E2 3F FF             		    db 240-14,03Fh,0FFh,000h ; 00111111,11111111,00000000
0023 0727 E0 FF FC             		    db 240-16,0FFh,0FCh,000h ; 11111111,11111100,00000000
0025 072B FE FF FC             		    db 254- 0,0FFh,0FCh,000h ; 11111111,11111100,00000000
0026 072F FD 03 FF             		    db 254- 1,003h,0FFh,0F0h ; 00000011,11111111,11110000
0027 0733 FB 0F FF             		    db 254- 3,00Fh,0FFh,0C0h ; 00001111,11111111,11000000
0028 0737 F9 3F FF             		    db 254- 5,03Fh,0FFh,000h ; 00111111,11111111,00000000
0030 073B                      		drawCell:
0032 073B 0F                   		    rrc
0033 073C 21 F6 00             		    lxi  h, OPCODE_ORI + (OPCODE_NOP * 256)
0034 073F 11 E6 2F             		    lxi  d, OPCODE_ANI + (OPCODE_CMA * 256)
0035 0742 DA 47 07             		    jc  drawCell_1
0036 0745 EB                   		    xchg
0037 0746 2F                   		    cma
0038 0747                      		drawCell_1:
0039 0747 F5                   		    push psw
0040 0748 7C                   		    mov  a, h
0041 0749 32 6E 07             		    sta  drawColumn_cma1
0042 074C 22 7F 07             		    shld drawColumn_op1
0043 074F F1                   		    pop psw
0046 0750 0F                   		    rrc
0047 0751 DA 55 07             		    jc  drawCell_2
0048 0754 EB                   		    xchg
0049 0755                      		drawCell_2:
0050 0755 7C                   		    mov  a, h
0051 0756 32 73 07             		    sta  drawColumn_cma2
0052 0759 22 84 07             		    shld drawColumn_op2
0057 075C 21 03 07             		    lxi  h, cellOff
0058 075F 58                   		    mov  e, b
0059 0760 16 00                		    mvi  d, 0
0060 0762 19                   		    dad  d
0061 0763 19                   		    dad  d
0062 0764 19                   		    dad  d
0063 0765 19                   		    dad  d
0064 0766 56                   		    mov  d, m
0065 0767 59                   		    mov  e, c
0068 0768 06 03                		    mvi  b, 3
0069 076A                      		drawColumn_6:
0072 076A 23                   		    inx  h
0074 076B E5                   		    push h
0075 076C D5                   		    push d
0078 076D 7E                   		    mov  a, m
0079 076E                      		drawColumn_cma1:
0080 076E 2F                   		    cma
0081 076F 32 80 07             		    sta drawColumn_op1 + 1
0084 0772 7E                   		    mov  a, m
0085 0773                      		drawColumn_cma2:
0086 0773 2F                   		    cma
0087 0774 32 85 07             		    sta drawColumn_op2 + 1
0090 0777 7A                   		    mov  a, d
0091 0778 D6 40                		    sui  40h
0092 077A 67                   		    mov  h, a
0093 077B 6B                   		    mov  l, e
0096 077C 0E 0C                		    mvi  c, 12
0097 077E                      		drawColumn_2:
0100 077E 1A                   		    ldax d
0101 077F                      		drawColumn_op1 = $
0102 077F E6 55                		    ani  55h
0103 0781 12                   		    stax d
0104 0782 1D                   		    dcr  e
0107 0783 7E                   		    mov  a, m
0108 0784                      		drawColumn_op2 = $
0109 0784 E6 55                		    ani  55h
0110 0786 77                   		    mov  m, a
0111 0787 2D                   		    dcr  l
0114 0788 0D                   		    dcr  c
0115 0789 C2 7E 07             		    jnz  drawColumn_2
0117 078C D1                   		    pop  d
0118 078D E1                   		    pop  h
0121 078E 15                   		    dcr  d
0124 078F 05                   		    dcr  b
0125 0790 C2 6A 07             		    jnz  drawColumn_6
0127 0793 C9                   		    ret
0132 0794                      		redrawMap:
0134 0794 11 24 02             		    lxi d, map + START ;b
0135 0797 21 03 00             		    lxi h, map2
0138 079A 0E F7                		    mvi c, 0FFh - PLAYFIELD_Y ;e
0139 079C                      		redrawMap_1:
0142 079C 06 00                		    mvi b, 0 ; d
0143 079E                      		redrawMap_2:
0148 079E 1A                   		    ldax d ; b
0149 079F BE                   		    cmp  m
0150 07A0 C4 B7 07             		    cnz  redrawMap_4
0152 07A3 04                   		    inr  b ; d
0153 07A4 13                   		    inx  d ; b
0154 07A5 23                   		    inx  h
0155 07A6 78                   		    mov  a, b ; d
0156 07A7 FE 0A                		    cpi  WIDTH
0157 07A9 C2 9E 07             		    jnz  redrawMap_2
0159 07AC 13                   		    inx  d ; b
0160 07AD 79                   		    mov  a, c ; e
0161 07AE D6 0C                		    sui  12
0162 07B0 4F                   		    mov  c, a ; e
0163 07B1 FE 07                		    cpi  0FFh - PLAYFIELD_Y - (HEIGHT * 12)
0164 07B3 C2 9C 07             		    jnz  redrawMap_1
0165 07B6 C9                   		    ret
0169 07B7                      		redrawMap_4:
0170 07B7 77                   		    mov  m, a
0171 07B8 C5                   		    push b
0172 07B9 D5                   		    push d
0173 07BA E5                   		    push h
0174 07BB CD 3B 07             		    call drawCell
0175 07BE E1                   		    pop  h
0176 07BF D1                   		    pop  d
0177 07C0 C1                   		    pop  b
0178 07C1 C9                   		    ret
0183 07C2                      		invalidatePlayfield:
0184 07C2 21 03 00             		    lxi  h, map2
0185 07C5 3E FF                		    mvi  a, 0FFh
0186 07C7 0E C8                		    mvi  c, (WIDTH * HEIGHT)
0187 07C9 C3 70 01             		    jmp  memset8
0127 07CC                      		.include "rand.inc"
0003 07CC                      		rand:
0004 07CC                      		rand_seed = $+1
0005 07CC 3E 0D                		    mvi  a, 13
0006 07CE 5F                   		    mov  e, a
0007 07CF 87                   		    add  a
0008 07D0 87                   		    add  a
0009 07D1 83                   		    add  e
0010 07D2 3C                   		    inr  a
0011 07D3 32 CD 07             		    sta  rand_seed
0012 07D6 C9                   		    ret
0128 07D7                      		.include "unmlz.inc"
0003 07D7 3E 80                		unmlz:  mvi    a, 80h
0004 07D9                      		UNLD:
0005 07D9 32 ED 07             		        sta    unmlz_1
0006 07DC 1A                   		        ldax   d
0007 07DD 13                   		        inx    d
0008 07DE C3 EA 07             		        jmp    UNSTA
0012 07E1 7E                   		UNST3:  mov    a, m
0013 07E2 23                   		        inx    h
0014 07E3 02                   		        stax   b
0015 07E4 03                   		        inx    b
0017 07E5 7E                   		UNST2:  mov    a, m
0018 07E6 23                   		        inx    h
0019 07E7 02                   		        stax   b
0020 07E8 03                   		        inx    b
0022 07E9 7E                   		UNST1:  mov    a, m
0024 07EA 02                   		UNSTA:  stax   b
0025 07EB 03                   		        inx    b
0027 07EC                      		unmlz_1 = $+1
0028 07EC                      		ULOOP:
0029 07EC 3E 00                		        mvi    a, 0
0030 07EE 87                   		        add    a
0031 07EF C2 F5 07             		        jnz    L1
0032 07F2 1A                   		        ldax   d
0033 07F3 13                   		        inx    d
0034 07F4 17                   		        ral
0036 07F5 DA D9 07             		L1:     jc     UNLD
0037 07F8 87                   		        add    a
0038 07F9 C2 FF 07             		        jnz    L3
0039 07FC 1A                   		        ldax   d
0040 07FD 13                   		        inx    d
0041 07FE 17                   		        ral
0043 07FF DA 25 08             		L3:     jc     UN2
0044 0802 87                   		        add    a
0045 0803 C2 09 08             		        jnz    L2
0046 0806 1A                   		        ldax   d
0047 0807 13                   		        inx    d
0048 0808 17                   		        ral
0050 0809 DA 19 08             		L2:     jc     UN1
0051 080C 21 FF 3F             		        lxi    h, 3FFFh
0052 080F CD 70 08             		        call   GETBITS
0053 0812 32 ED 07             		        sta    unmlz_1
0054 0815 09                   		        dad    b
0055 0816 C3 E9 07             		        jmp    UNST1
0059 0819 32 ED 07             		UN1:    sta    unmlz_1
0060 081C 1A                   		        ldax    d
0061 081D 13                   		        inx    d
0062 081E 6F                   		        mov    l, a
0063 081F 26 FF                		        mvi    h, 0FFh
0064 0821 09                   		        dad    b
0065 0822 C3 E5 07             		        jmp    UNST2
0069 0825 87                   		UN2:    add    a
0070 0826 C2 2C 08             		        jnz    L4
0071 0829 1A                   		        ldax    d
0072 082A 13                   		        inx    d
0073 082B 17                   		        ral
0075 082C DA 36 08             		L4:     jc    UN3
0076 082F CD 85 08             		        call    GETBIGD
0077 0832 09                   		        dad    b
0078 0833 C3 E1 07             		        jmp    UNST3
0082 0836 26 00                		UN3:    mvi    h, 0
0084 0838 24                   		UN3A:   inr    h
0085 0839 87                   		        add    a
0086 083A C2 40 08             		        jnz    L5
0087 083D 1A                   		        ldax   d
0088 083E 13                   		        inx    d
0089 083F 17                   		        ral
0091 0840 D2 38 08             		L5:     jnc    UN3A
0092 0843 F5                   		        push   psw
0093 0844 7C                   		        mov    a, h
0094 0845 FE 08                		        cpi    8
0095 0847 D2 6E 08             		        jnc    UNEXIT
0096 084A 3E 00                		        mvi    a, 0
0098 084C 1F                   		L5B:    rar
0099 084D 25                   		        dcr    h
0100 084E C2 4C 08             		        jnz    L5B
0101 0851 67                   		        mov    h, a
0102 0852 2E 01                		        mvi    l, 1
0103 0854 F1                   		        pop    psw
0104 0855 CD 70 08             		        call   GETBITS
0105 0858 23                   		        inx    h
0106 0859 23                   		        inx    h
0107 085A E5                   		        push   h
0108 085B CD 85 08             		        call   GETBIGD
0109 085E EB                   		        xchg
0110 085F E3                   		        xthl
0111 0860 EB                   		        xchg
0112 0861 09                   		        dad    b
0114 0862 7E                   		LDIR:   mov    a, m
0115 0863 23                   		        inx    h
0116 0864 02                   		        stax   b
0117 0865 03                   		        inx    b
0118 0866 1D                   		        dcr    e
0119 0867 C2 62 08             		        jnz    LDIR
0120 086A D1                   		        pop    d
0121 086B C3 EC 07             		        jmp    ULOOP
0125 086E F1                   		UNEXIT: pop    psw
0126 086F C9                   		        ret
0130 0870                      		GETBITS:
0131 0870 87                   		        add    a
0132 0871 C2 77 08             		        jnz    L7
0133 0874 1A                   		        ldax   d
0134 0875 13                   		        inx    d
0135 0876 17                   		        ral
0136 0877 DA 7F 08             		L7:     jc     GETB1
0137 087A 29                   		        dad    h
0138 087B D8                   		        rc
0139 087C C3 70 08             		        jmp    GETBITS
0143 087F 29                   		GETB1:  dad    h
0144 0880 2C                   		        inr    l
0145 0881 D8                   		        rc
0146 0882 C3 70 08             		        jmp    GETBITS
0150 0885                      		GETBIGD:
0151 0885 87                   		        add    a
0152 0886 C2 8C 08             		        jnz    L8
0153 0889 1A                   		        ldax   d
0154 088A 13                   		        inx    d
0155 088B 17                   		        ral
0157 088C DA 98 08             		L8:     jc     GETBD1
0158 088F 32 ED 07             		        sta    unmlz_1
0159 0892 1A                   		        ldax   d
0160 0893 13                   		        inx    d
0161 0894 6F                   		        mov    l, a
0162 0895 26 FF                		        mvi    h, 0FFh
0163 0897 C9                   		        ret
0167 0898 21 FF 1F             		GETBD1: lxi    h, 1FFFh
0168 089B CD 70 08             		        call   GETBITS
0169 089E 32 ED 07             		        sta    unmlz_1
0170 08A1 65                   		        mov    h, l
0171 08A2 25                   		        dcr    h
0172 08A3 1A                   		        ldax   d
0173 08A4 13                   		        inx    d
0174 08A5 6F                   		        mov    l, a
0175 08A6 C9                   		        ret
0132 08A7                      		LEVELS_COUNT = 6
0134 08A7 C5 08                		levels dw level1
0135 08A9 00 06 01             		       db PALETTE_WHITE, PALETTE_RED, PALETTE_CYAN
0136 08AC 36 16                		       dw level2
0137 08AE 00 02 01             		       db PALETTE_WHITE, PALETTE_MAGENTA, PALETTE_CYAN
0138 08B1 DF 27                		       dw level3
0139 08B3 00 06 05             		       db PALETTE_WHITE, PALETTE_RED, PALETTE_GREEN
0140 08B6 ED 42                		       dw level4
0141 08B8 00 06 01             		       db PALETTE_WHITE, PALETTE_RED, PALETTE_CYAN
0142 08BB 33 5C                		       dw level5
0143 08BD 00 06 01             		       db PALETTE_WHITE, PALETTE_RED, PALETTE_CYAN
0144 08C0 D3 6F                		       dw level6
0145 08C2 06 06 01             		       db PALETTE_RED, PALETTE_RED, PALETTE_CYAN
0147 08C5                      		level1:
0148 08C5                      		.include "graph/level1.inc"
0002 08C5 FF C7 80             		  .db 255,199,128,254,19,8,239,29,137,191,248,220,251,243,163,80,162,156,82,252,3,211,8,112,28,215,170,119,105,221,254,79,250,181,74,29,42,140,55,212,252,229,238,0,187,255,17,221,255,64,131,15,62,249,224,128,34,22,232,29,226,232,252,40,7
0003 0906 F4 08 10             		  .db 244,8,16,236,96,128,0,125,255,128,143,192,224,178,96,68,254,241,176,203,93,49,255,180,0,221,32,119,170,85,46,254,0,8,10,220,0,99,239,128,150,83,166,252,115,0,81,42,198,80,40,255,3,7,31,124,242,194,130,2,24,88,186,229,156
0004 0947 27 FE 11             		  .db 39,254,17,229,1,6,246,8,16,32,192,40,7,255,224,240,120,188,94,175,87,171,115,146,213,234,246,245,250,253,254,163,254,126,252,236,248,224,128,29,92,0,9,238,237,46,131,250,249,36,11,208,248,252,248,239,239,170,117,96,0,223,171,16,252
0005 0988 19 26 FC             		  .db 25,38,252,83,0,69,170,123,254,168,64,255,161,7,15,62,248,226,202,27,222,106,155,254,129,154,152,226,0,248,104,126,249,2,4,24,32,64,216,46,7,64,32,144,19,174,255,151,171,120,41,8,253,8,255,78,255,127,191,95,255,188,244,254,158
0006 09C9 F8 57 AF             		  .db 248,87,175,92,184,188,192,193,184,0,207,6,248,215,223,250,169,86,7,2,5,25,169,252,198,236,83,0,21,168,100,63,254,16,160,3,15,63,124,253,249,230,153,38,217,102,8,254,146,93,153,219,216,50,255,80,169,178,52,168,127,84,0,140,132
0007 0A0A FC A5 31             		  .db 252,165,49,42,170,255,250,155,230,6,127,45,8,245,127,169,250,255,254,127,122,254,125,64,130,236,248,240,192,26,223,0,220,253,249,169,80,140,168,102,252,1,248,216,6,116,171,219,191,250,250,181,112,160,208,25,169,252,156,0,206,85,162,254,21
0008 0A4B C2 7C FC             		  .db 194,124,252,165,18,213,82,97,2,3,84,192,255,1,135,31,126,252,242,193,6,185,25,0,181,164,189,255,21,175,13,174,179,249,168,241,229,110,14,248,46,245,251,0,99,254,206,8,50,255,126,242,219,223,244,87,175,94,184,112,216,224,192,53,246
0009 0A8C 00 D5 97             		  .db 0,213,151,88,127,27,8,176,252,191,74,49,42,93,154,153,252,207,0,84,10,244,14,241,3,12,15,11,239,0,1,254,15,250,12,3,14,240,8,223,234,63,254,248,247,227,134,25,239,45,255,69,159,0,227,201,156,63,42,70,0,158,0,93,6
0010 0ACD 67 F9 00             		  .db 103,249,0,252,242,109,228,246,230,66,228,254,79,209,243,188,8,248,248,240,160,96,192,128,236,28,60,0,89,105,38,190,115,0,81,40,252,71,56,96,152,120,232,123,0,192,254,127,120,152,96,184,7,8,133,255,192,240,248,62,31,199,97,152,9
0011 0B0E CE FF 50             		  .db 206,255,80,168,252,93,255,239,0,196,144,56,124,57,248,254,174,120,35,14,4,89,252,102,8,103,30,242,232,106,228,65,0,161,234,255,127,63,58,21,26,13,15,184,7,255,193,173,0,220,184,169,248,201,51,252,185,0,68,156,169,252,66,164,8
0012 0B4F A5 42 05             		  .db 165,66,5,42,220,5,129,5,251,159,71,145,100,152,189,0,222,114,255,84,219,255,0,143,39,115,248,168,1,5,52,132,213,243,254,60,8,220,12,143,232,209,240,10,231,31,15,0,11,3,1,96,193,239,0,93,252,249,168,185,81,254,0,129,113
0013 0B90 D9 00 B9             		  .db 217,0,185,252,20,219,67,252,107,3,198,2,1,106,252,98,252,0,129,40,8,255,133,224,240,252,62,31,135,97,238,152,110,153,57,254,0,173,163,45,255,127,121,0,135,39,102,228,248,118,235,0,87,235,4,200,38,254,219,204,250,255,7,248,95
0014 0BD1 9D 1F 09             		  .db 157,31,9,0,1,131,102,111,0,213,243,144,51,255,16,218,181,112,168,216,25,169,252,137,112,0,79,34,5,130,225,115,5,71,81,246,96,88,102,89,204,254,64,127,8,25,179,16,255,8,115,255,5,6,28,199,53,3,215,10,8,242,0,175,0
0015 0C12 22 EC F6             		  .db 34,236,246,18,250,245,234,222,250,114,8,255,223,223,248,215,235,253,62,7,176,1,33,181,0,173,241,82,23,10,29,154,153,252,207,0,20,10,132,224,254,248,252,63,31,199,193,192,56,167,255,253,189,140,0,236,51,0,176,14,178,6,61,16,161
0016 0C53 F4 7B BB             		  .db 244,123,187,16,111,251,149,106,213,171,215,253,254,127,104,254,109,229,248,255,244,117,62,15,3,96,181,137,0,10,32,100,172,248,252,33,231,0,64,128,192,25,169,252,156,0,115,5,241,240,143,246,254,188,6,255,119,247,0,247,27,0,163,12,8
0017 0C94 E3 04 02             		  .db 227,4,2,182,252,53,2,184,254,255,228,245,1,15,5,3,10,21,27,45,26,140,29,19,199,254,248,13,14,174,7,142,24,193,222,223,0,92,126,124,40,84,72,254,0,80,116,40,92,252,237,49,16,51,252,36,0,99,244,26,220,90,255,222,123
0018 0CD5 1B FF F1             		  .db 27,255,241,91,90,0,94,164,127,232,179,27,29,56,96,24,6,235,239,2,83,255,25,48,92,98,48,0,62,80,248,14,179,40,47,255,32,142,46,19,3,29,248,41,97,19,216,238,15,104,0,93,98,96,121,139,255,9,21,48,0,63,76,0,15
0019 0D16 D3 00 03             		  .db 211,0,3,244,0,192,253,48,0,63,76,0,15,211,0,3,244,0,192,253,48,0,63,76,0,15,211,0,3,244,0,192,253,48,0,63,76,0,15,211,0,3,244,0,192,253,48,0,63,94,0,240,247,4,228,62,244,132,49,255,96,118,54,248,247
0020 0D57 F0 81 00             		  .db 240,129,0,196,98,230,248,7,235,248,248,243,248,83,163,80,162,82,144,0,160,115,64,208,150,114,252,25,35,248,2,227,3,0,10,124,252,98,162,99,160,105,163,252,48,248,83,9,169,252,129,82,115,106,240,55,252,115,26,240,172,232,114,180,216
0021 0D98 03 0C 02             		  .db 3,12,2,82,130,124,145,120,34,241,35,32,142,255,48,50,60,51,64,17,176,230,168,31,152,248,219,0,63,191,233,85,170,213,254,0,10,247,5,221,235,252,119,223,252,173,90,55,42,29,25,169,252,169,236,186,228,74,205,54,228,236,145,65,15
0022 0DD9 89 52 99             		  .db 137,82,153,96,252,1,170,81,248,65,194,108,192,121,242,248,0,153,98,240,113,252,25,32,191,2,1,0,129,66,161,240,208,105,50,25,37,1,244,150,252,14,34,15,5,10,37,25,24,252,42,113,251,133,126,240,13,168,28,30,85,0,128,90,255
0023 0E1A 99 FC AB             		  .db 153,252,171,0,222,52,228,221,0,68,255,6,137,86,153,102,156,96,157,106,254,243,29,32,9,6,30,129,255,64,160,208,104,52,90,13,86,252,163,69,128,65,160,80,203,254,0,239,82,254,50,246,3,244,236,168,80,8,128,0,151,171,24,248,66
0024 0E5B FC 66 86             		  .db 252,102,134,0,39,0,254,25,38,25,44,8,128,144,8,211,170,34,84,68,4,254,95,166,24,64,30,244,64,246,26,144,246,234,114,252,193,193,0,252,31,84,168,164,85,254,1,40,221,20,117,252,114,46,118,239,120,28,84,7,2,5,205,76,252
0025 0E9C D5 10 AB             		  .db 213,16,171,148,228,102,25,0,95,16,241,70,163,77,136,184,170,76,168,223,169,65,163,71,175,141,15,79,198,174,78,54,242,64,4,96,0,162,255,133,75,254,0,58,126,93,254,215,236,0,213,112,140,58,212,252,205,108,0,202,149,211,228,119,0
0026 0EDD 80 48 04             		  .db 128,72,4,62,8,22,67,69,64,63,74,68,72,24,64,15,254,202,133,128,206,16,32,254,80,42,140,34,143,192,0,42,184,32,254,128,246,53,88,246,42,58,128,0,142,238,18,8,248,217,248,255,222,170,117,28,196,189,74,198,42,93,106,252,103
0027 0F1E 72 00 5A             		  .db 114,0,90,205,55,228,1,0,1,103,151,130,49,28,3,2,241,6,4,254,8,9,24,16,0,49,252,192,2,253,44,250,81,86,1,96,69,113,0,146,190,108,4,98,198,228,230,0,31,24,85,56,244,0,47,81,169,80,168,27,1,248,10,217,4
0028 0F5F 70 0B D8             		  .db 112,11,216,94,66,10,253,216,222,169,191,25,16,134,228,103,154,0,30,255,243,3,192,224,199,240,248,182,252,125,255,248,240,224,192,128,129,28,0,111,210,0,219,227,54,126,27,252,242,171,25,224,0,44,227,228,63,228,0,23,177,166,39,255,254
0029 0FA0 18 F0 60             		  .db 24,240,96,70,172,0,9,238,181,0,88,28,234,103,207,0,4,26,38,153,133,128,170,203,85,162,139,20,31,255,232,85,171,80,160,9,143,249,247,131,255,108,0,189,49,186,0,212,0,153,253,254,10,17,170,21,168,140,151,0,156,145,250,194,84
0030 0FE1 28 19 81             		  .db 40,25,129,5,219,0,249,47,161,0,95,113,153,0,187,252,241,85,64,128,192,154,153,252,222,0,101,25,228,184,0,192,70,153,155,69,224,138,22,79,0,2,6,42,21,10,236,0,3,1,26,254,0,73,255,16,255,98,111,248,0,248,240,163,89
0031 1022 6B 11 58             		  .db 107,17,88,133,1,113,162,7,129,181,170,123,254,10,192,106,64,85,254,192,193,240,86,26,74,115,213,17,221,98,79,154,14,8,16,224,180,192,214,58,3,7,60,15,123,31,150,255,191,134,255,79,241,255,127,63,246,31,159,72,254,236,241,127,255
0032 1063 17 4C FF             		  .db 23,76,255,112,0,90,225,139,41,28,44,254,15,127,192,64,106,254,177,127,177,0,187,106,247,159,17,228,1,86,168,16,187,160,252,250,184,186,187,178,255,223,6,127,31,15,135,67,244,161,80,168,84,188,255,213,234,117,58,29,26,13,14,220,5
0033 10A4 06 FE FD             		  .db 6,254,253,4,8,3,7,31,127,131,168,0,240,249,9,254,129,6,16,46,10,8,252,128,240,14,140,20,243,254,31,254,0,48,192,151,254,193,56,254,2,0,50,31,1,86,172,24,161,251,67,135,23,55,247,79,159,14,6,7,81,0,84,41,218
0034 10E5 C2 F5 F7             		  .db 194,245,247,122,29,14,7,121,2,81,227,255,244,121,254,63,248,168,80,163,71,159,127,96,222,0,103,131,248,108,16,246,2,248,10,8,171,254,248,8,125,0,3,238,12,51,140,16,254,246,60,204,32,1,34,17,132,15,254,36,24,61,85,169,160
0035 1126 E1 CF CA             		  .db 225,207,202,13,251,6,7,129,110,8,107,229,250,252,242,2,3,220,254,130,254,215,7,134,67,196,216,15,63,54,123,0,252,248,119,4,0,93,0,32,85,7,171,111,255,16,160,15,168,8,106,254,177,15,55,0,192,64,32,30,16,225,255,249,218
0036 1167 40 C0 7F             		  .db 64,192,127,252,4,19,185,76,0,10,211,64,2,254,0,255,140,66,141,204,143,0,171,32,103,254,234,253,62,127,134,250,100,249,250,183,143,244,115,161,71,143,174,31,48,233,100,71,0,127,54,139,42,189,0,84,91,183,128,225,0,246,110,254,98
0037 11A8 0E 00 F0             		  .db 14,0,240,14,67,89,10,46,254,67,14,240,200,240,246,23,16,160,254,255,179,150,0,213,223,12,179,1,60,248,22,106,53,254,59,242,220,246,1,129,65,196,254,161,187,162,117,183,67,190,183,95,159,63,88,93,56,249,0,105,201,178,255,255,196
0038 11E9 1C 00 07             		  .db 28,0,7,56,97,219,86,2,189,254,130,97,56,7,191,32,244,204,94,4,254,130,252,48,27,84,168,64,235,0,207,82,251,161,81,160,24,178,10,252,0,204,227,242,205,232,15,228,253,200,53,63,230,149,202,197,226,224,240,113,255,131,98,0,168
0039 122A C7 B9 00             		  .db 199,185,0,1,35,8,220,4,255,37,249,245,165,168,11,192,4,254,161,0,254,237,217,255,33,95,0,68,52,42,70,38,121,8,177,10,239,232,10,13,6,5,60,230,129,192,224,117,77,194,252,254,131,15,123,0,249,168,81,132,254,48,7,155,254
0040 126B BB 10 FC             		  .db 187,16,252,6,4,85,254,252,132,28,0,91,0,232,50,196,51,254,230,0,2,16,231,254,0,127,82,101,36,0,212,251,204,155,161,254,65,66,12,51,111,51,250,253,248,192,139,96,224,106,9,96,207,214,0,94,109,0,128,249,0,7,218,172,4
0041 12AC AC FE 07             		  .db 172,254,7,117,0,48,219,12,51,146,254,0,76,126,214,154,16,170,77,8,48,159,5,164,85,2,0,212,224,64,202,8,202,223,159,130,7,14,253,13,30,53,42,117,234,121,252,203,254,106,51,223,248,244,58,13,195,249,176,254,33,245,0,224,218
0042 12ED 2A 20 AC             		  .db 42,32,172,254,224,89,0,64,106,255,111,135,0,125,16,184,250,192,30,64,193,53,16,198,238,68,49,170,252,252,249,224,128,26,245,6,212,168,80,241,2,173,128,13,254,188,248,189,254,26,251,141,195,240,252,255,2,39,32,0,246,63,160,32,171
0043 132E FE 3F 16             		  .db 254,63,22,91,0,248,27,247,146,0,12,42,97,12,93,125,4,162,83,1,84,255,250,95,0,26,241,143,255,151,1,252,249,251,254,243,230,237,202,221,218,213,213,254,205,252,234,229,246,243,249,252,123,254,7,123,122,0,126,124,40,84,0,254,213
0044 136F FE 01 80             		  .db 254,1,128,42,197,8,254,0,11,198,254,24,93,217,14,97,180,1,53,255,73,0,34,12,224,1,26,222,187,250,106,24,6,70,229,113,121,245,255,127,131,161,255,177,16,129,242,248,241,0,239,40,168,242,175,160,255,32,44,14,167,248,32,224,15
0045 13B0 6A 00 11             		  .db 106,0,17,24,254,29,199,255,152,11,169,0,129,250,0,96,126,152,0,31,166,0,7,233,0,129,250,0,96,126,152,0,31,166,0,7,233,0,129,250,0,96,126,152,0,31,166,0,7,233,0,129,250,0,96,126,152,0,31,166,0,7,233,0,129
0046 13F1 FA 00 1B             		  .db 250,0,27,247,4,143,5,245,145,133,255,1,96,117,59,248,132,135,240,80,0,140,92,248,192,253,120,248,248,240,80,163,211,160,252,0,16,102,28,12,252,255,83,18,187,34,88,248,3,118,252,143,208,211,21,38,252,192,255,195,32,24,240,243,194
0047 1432 B0 43 31             		  .db 176,67,49,252,180,0,63,126,21,170,149,152,254,0,42,192,80,128,254,6,207,254,10,192,106,64,106,254,180,192,49,238,129,228,255,130,85,128,254,64,64,137,136,200,178,48,186,125,92,242,254,133,72,136,249,192,224,112,56,24,250,254,96,48,88
0048 1473 08 10 00             		  .db 8,16,0,128,209,255,248,106,255,182,192,88,255,255,41,152,255,87,224,240,219,1,28,237,127,192,64,86,254,127,198,236,42,228,110,0,227,68,3,140,110,204,51,53,14,127,8,16,140,195,228,113,56,28,255,142,199,99,49,216,12,22,3,239,13
0049 14B4 00 01 F8             		  .db 0,1,248,234,70,255,31,196,18,255,7,255,192,131,48,0,192,254,221,0,2,201,140,19,0,254,136,76,118,8,224,115,97,8,132,102,255,14,8,0,252,251,84,168,150,254,0,198,254,238,44,248,10,8,213,254,248,106,236,98,102,228,111,246,0
0050 14F5 83 E4 EE             		  .db 131,228,238,8,6,3,1,205,22,8,140,4,120,0,188,255,69,196,63,44,128,237,15,168,8,86,254,15,60,228,110,0,239,135,67,1,253,16,4,142,44,25,128,76,255,193,204,0,148,248,254,248,17,176,248,54,252,28,128,128,220,254,216,236,197
0051 1536 8D E4 C0             		  .db 141,228,192,0,88,1,225,9,220,27,33,248,71,199,98,66,89,132,51,2,43,133,0,241,177,255,185,236,139,27,228,153,0,9,20,32,255,154,96,255,224,71,255,240,143,248,252,29,132,134,36,14,93,0,198,80,169,137,168,1,93,6,1,54,252
0052 1577 AB 01 CB             		  .db 171,1,203,28,168,20,227,20,60,228,197,75,0,158,220,120,56,24,15,61,199,179,255,7,31,216,63,127,18,34,0,255,208,69,216,52,195,206,50,0,28,3,194,1,48,8,12,17,131,45,193,159,255,0,135,14,28,56,246,227,231,239,63,56,84
0053 15B8 60 FF D6             		  .db 96,255,214,0,29,243,0,16,12,218,48,204,110,55,224,12,56,8,14,16,7,173,129,157,255,0,131,7,124,255,150,115,228,55,230,246,15,253,0,97,205,223,0,150,0,168,0,48,53,24,249,0,7,10,108,255,35,244,228,6,12,156,118,179,102
0054 15F9 D7 01 83             		  .db 215,1,131,104,236,239,255,193,251,182,0,248,95,68,0,111,208,0,123,63,160,32,85,254,63,177,236,137,25,228,153,0,140,204,213,0,198,6,135,245,254,7,176,255,241,244,131,195,99,211,0,128,192,193,240,248,96,213,182,242,1
0149 1636                      		level2:
0150 1636                      		.include "graph/level2.inc"
0002 1636 30 1E 20             		  .db 48,30,32,152,255,64,1,210,0,255,24,79,3,251,129,6,3,62,2,80,127,248,116,72,153,217,156,191,226,28,30,143,127,39,75,125,124,249,254,126,143,127,255,22,63,47,159,15,227,31,14,219,243,193,90,0,225,240,51,15,180,128,255,155,241
0003 1677 E8 76 3F             		  .db 232,118,63,236,103,199,232,251,127,191,223,32,194,249,231,224,252,203,183,230,33,32,65,185,16,23,66,1,7,240,8,2,13,18,190,34,69,138,85,170,193,13,254,42,77,252,10,21,237,244,213,234,33,250,186,33,254,246,140,245,3,12,94,178,247
0004 16B8 F6 F0 F1             		  .db 246,240,241,49,253,143,249,253,248,248,244,236,237,221,241,189,229,125,21,63,255,56,72,146,0,128,8,22,192,33,62,255,73,18,38,133,1,8,68,4,227,10,0,112,127,25,240,125,53,252,254,180,255,246,179,63,241,152,67,79,125,252,50,55,216
0005 16F9 AD FF FB             		  .db 173,255,251,127,247,207,228,246,255,59,79,133,7,3,11,131,69,27,227,241,199,251,255,139,252,240,255,228,194,132,8,66,44,24,16,241,1,0,32,137,94,255,209,1,74,74,130,11,254,20,136,153,4,179,34,97,242,209,242,245,254,149,49,145,204
0006 173A EF FD FA             		  .db 239,253,250,254,79,238,125,250,213,140,234,19,111,216,250,117,70,180,185,255,255,247,227,251,253,254,230,126,190,4,187,63,183,175,207,31,215,219,241,237,238,239,247,254,112,60,226,160,249,15,231,222,61,255,248,240,224,242,232,3,194,4,255,124,248
0007 177B C0 F1 E7             		  .db 192,241,231,224,246,63,22,60,79,217,144,62,3,159,18,248,58,68,194,127,255,27,241,225,76,230,243,253,248,139,250,158,251,63,127,191,207,247,128,172,61,166,254,159,252,195,232,128,8,132,226,0,147,36,225,2,32,108,101,136,16,63,254,84,147
0008 17BC 2A B6 00             		  .db 42,182,0,64,251,3,96,226,125,255,57,255,221,227,235,253,234,103,170,245,218,174,87,226,255,93,250,48,140,0,221,255,191,159,223,255,207,239,231,7,139,227,247,143,243,245,253,249,252,254,192,240,255,206,53,223,252,239,15,251,126,254,196,128,51
0009 17FD F4 1F 18             		  .db 244,31,24,228,223,44,240,207,251,63,221,68,230,158,227,216,244,243,7,252,79,30,144,31,216,3,60,15,143,195,239,31,253,14,207,124,148,185,185,247,95,102,93,242,78,222,252,63,143,14,206,254,17,255,143,240,224,63,255,193,176,97,2,69,97
0010 183E C9 02 38             		  .db 201,2,56,196,10,152,0,241,6,125,192,12,243,248,158,0,127,254,135,250,119,251,247,186,118,133,87,234,17,25,176,108,197,63,207,248,72,94,95,159,175,255,183,215,235,243,249,141,252,48,158,71,61,215,239,236,50,244,156,252,78,7,195,176,71
0011 187F 05 C0 F7             		  .db 5,192,247,251,187,63,184,28,119,231,69,41,2,231,240,1,6,38,15,63,115,59,192,102,12,49,253,252,127,31,221,62,242,119,0,243,159,14,207,64,180,194,146,254,255,145,115,127,16,159,201,103,135,222,185,254,101,251,63,159,95,167,81,13,22
0012 18C0 06 EA AE             		  .db 6,234,174,0,162,213,130,126,1,112,9,128,249,254,88,126,170,255,253,78,151,88,238,221,194,51,168,20,87,190,79,187,244,119,241,228,216,77,223,181,56,71,179,28,252,222,254,224,41,127,115,79,223,138,30,121,249,12,99,159,187,112,215,3,231
0013 1901 90 C6 00             		  .db 144,198,0,194,248,6,9,24,32,1,240,3,4,252,31,62,65,63,127,39,92,231,129,108,252,159,33,127,65,98,168,64,4,192,94,245,127,236,163,131,57,245,10,174,179,246,87,162,3,32,8,245,0,16,128,252,230,102,50,255,166,190,214,174,93
0014 1942 C2 65 00             		  .db 194,101,0,207,170,202,231,208,87,1,78,95,15,120,245,255,230,247,252,254,248,4,158,230,142,250,1,247,254,191,223,127,143,239,247,47,67,232,166,207,204,127,31,0,206,127,205,225,248,240,0,128,64,144,92,31,129,2,32,192,9,132,255,208,128
0015 1983 01 53 A7             		  .db 1,83,167,15,7,87,255,34,125,134,25,6,137,118,0,246,95,47,147,77,26,253,10,251,28,112,10,218,0,254,63,242,197,171,32,49,0,4,18,142,88,97,226,255,119,88,204,70,162,73,56,159,25,108,202,224,159,51,243,96,99,249,82,97,7
0016 19C4 E1 77 E6             		  .db 225,119,230,231,254,240,59,31,248,224,254,253,119,196,21,10,251,231,240,248,204,63,147,159,228,225,240,250,120,224,2,227,159,70,231,243,92,254,239,152,56,224,217,28,254,76,251,9,106,15,6,28,32,80,3,200,3,194,152,34,96,135,189,12,125
0017 1A05 EE AE EE             		  .db 238,174,238,48,10,123,154,128,158,153,207,27,64,1,254,176,250,151,113,0,227,188,31,15,195,225,221,178,243,160,75,87,191,85,226,15,249,50,231,207,152,67,239,79,184,25,248,87,135,122,252,127,205,31,162,215,199,195,143,159,22,120,28,63,18
0018 1A46 FD 6D 00             		  .db 253,109,0,231,126,195,225,230,255,255,248,224,232,216,208,4,0,30,195,124,65,95,246,137,2,5,97,254,87,18,184,56,238,245,187,15,223,48,21,166,4,253,40,0,68,100,159,125,113,129,140,60,255,213,191,215,186,70,18,255,0,231,200,26,76
0019 1A87 64 48 F1             		  .db 100,72,241,0,101,230,16,159,196,57,235,243,230,41,254,114,103,62,60,192,15,31,118,254,143,206,34,157,129,124,121,63,4,249,129,31,0,192,205,3,7,221,127,122,227,250,243,196,64,190,21,249,185,18,192,255,172,144,88,187,2,117,254,254,93
0020 1AC8 2A 57 37             		  .db 42,87,55,213,186,221,198,174,215,255,245,234,95,251,85,239,113,42,255,21,128,96,24,126,251,245,255,99,159,0,129,119,85,176,190,137,160,249,252,19,79,231,124,24,115,112,250,159,255,60,253,63,135,145,163,244,188,38,226,248,207,12,192,8,141
0021 1B09 64 C1 F0             		  .db 100,193,240,195,224,231,207,44,39,173,96,155,231,198,64,38,172,252,115,25,226,200,2,29,48,139,32,19,237,133,11,119,64,199,219,191,191,217,254,253,250,244,224,64,94,249,97,182,124,8,87,0,81,171,79,174,247,235,245,49,180,190,127,251,87
0022 1B4A AB 55 BA             		  .db 171,85,186,25,131,45,131,171,6,50,119,244,12,208,134,202,118,238,251,93,254,17,104,254,254,215,142,243,126,14,252,112,151,189,144,246,173,241,217,190,249,3,159,252,199,63,115,137,50,34,227,1,255,228,74,199,163,208,42,54,207,205,40,121,57
0023 1B8B 1E DF 8F             		  .db 30,223,143,79,103,222,232,244,241,27,192,194,254,248,253,127,15,31,131,72,19,150,235,95,159,252,11,199,227,253,247,250,253,254,252,160,134,124,250,159,162,252,80,128,17,139,202,220,231,184,223,17,171,223,235,225,125,186,85,13,168,249,1,33,24
0024 1BCC 00 7F 82             		  .db 0,127,130,136,31,244,158,213,111,119,234,125,161,170,19,253,71,30,3,240,255,79,170,66,247,76,105,136,170,38,16,63,0,198,15,225,136,159,31,248,242,121,230,124,243,254,143,153,255,231,89,44,76,255,206,158,15,241,124,136,156,214,57,31,25
0025 1C0D 3B 7C A1             		  .db 59,124,161,248,248,19,199,3,207,16,195,45,63,126,120,15,191,95,167,251,209,224,64,128,215,159,132,123,189,222,199,171,245,209,233,245,251,126,253,63,95,175,190,74,195,111,127,0,186,16,8,4,160,7,252,221,223,255,255,171,117,254,215,175,191
0026 1C4E F5 DF 2A             		  .db 245,223,42,128,176,124,57,1,243,28,25,143,119,159,171,153,125,162,175,238,141,95,5,159,128,130,6,3,68,15,222,29,47,109,174,239,150,110,206,63,83,250,73,127,141,81,83,224,105,121,126,99,110,103,248,80,127,65,99,172,165,255,124,57,252
0027 1C8F 73 7E 4F             		  .db 115,126,79,235,129,114,113,163,112,244,53,227,89,2,79,78,226,247,95,103,22,121,124,121,191,79,71,99,250,67,232,235,78,196,87,71,1,59,232,67,65,64,129,255,123,66,69,106,85,13,17,254,98,252,96,64,75,112,167,182,178,119,126,125,0
0028 1CD0 68 6A 5E             		  .db 104,106,94,122,95,107,93,20,117,12,94,110,129,250,107,103,177,208,104,81,191,95,98,80,110,87,123,137,127,85,133,111,122,33,210,22,212,50,160,95,0,254,0,254,27,239,61,177,173,192,239,127,255,177,61,239,27,254,0,255,45,0,12,254,14
0029 1D11 F3 FF CC             		  .db 243,255,204,9,76,0,192,253,48,0,63,76,0,15,211,0,3,244,0,192,253,48,0,63,76,0,15,211,0,3,244,0,192,253,48,0,63,76,0,15,211,0,3,244,0,192,253,48,0,63,76,0,15,211,0,3,244,0,192,253,126,0,127,216,247
0030 1D52 BC 8D B5             		  .db 188,141,181,192,239,124,255,141,188,247,216,127,248,0,253,254,234,94,162,124,14,126,194,206,158,24,2,254,142,50,78,242,11,17,88,255,62,146,235,126,213,250,114,228,206,134,6,197,97,3,143,10,138,129,130,134,24,76,6,34,126,10,86,170,195
0031 1D93 F4 FE 22             		  .db 244,254,34,226,175,2,146,126,130,150,234,246,170,214,150,254,86,10,76,254,169,255,255,255,253,11,95,252,254,63,25,226,153,207,112,135,201,248,194,252,135,255,243,226,185,255,159,130,127,213,255,231,224,128,60,124,50,212,255,159,252,135,206,231,192
0032 1DD4 CF 3F E2             		  .db 207,63,226,56,127,96,24,205,254,249,128,220,6,240,40,0,1,65,8,252,95,24,64,168,85,170,97,235,254,138,4,251,0,16,32,129,248,87,144,191,245,254,24,176,236,81,61,254,162,133,159,175,252,195,12,199,200,252,73,4,57,132,36,63,181
0033 1E15 FF 5C 07             		  .db 255,92,7,254,251,78,244,249,63,131,89,244,42,3,243,105,253,15,252,232,231,206,63,206,228,30,62,14,143,127,246,206,159,224,60,192,143,1,10,198,84,170,97,106,122,21,207,64,240,81,251,5,160,7,128,15,145,168,251,60,238,223,239,213,75
0034 1E56 55 05 81             		  .db 85,5,129,0,34,224,21,143,207,112,39,56,120,255,204,3,63,240,231,12,155,126,137,207,65,24,26,146,158,249,24,188,253,204,253,0,143,236,252,195,206,224,232,152,228,255,1,252,114,30,127,135,239,250,247,57,62,223,255,15,205,120,183,128,90
0035 1E97 A0 A0 AC             		  .db 160,160,172,248,10,151,36,202,209,234,183,213,90,242,65,63,230,168,81,162,69,138,21,185,42,244,149,250,202,229,242,112,186,125,246,232,128,48,248,239,23,175,103,92,221,254,186,213,140,238,193,92,0,120,255,170,67,63,31,199,252,1,31,16,192
0036 1ED8 30 78 EF             		  .db 48,120,239,135,254,206,250,135,52,52,243,20,250,240,219,160,233,53,252,243,207,159,1,251,39,241,79,252,255,72,240,31,134,32,16,243,231,255,248,159,237,239,187,79,183,95,218,135,80,139,164,44,203,46,219,242,69,0,71,238,213,226,113,198,254
0037 1F19 5F C4 D7             		  .db 95,196,215,186,68,14,224,79,238,69,128,0,34,45,218,191,218,0,207,186,253,172,175,87,171,95,218,140,2,77,194,123,187,147,252,140,254,125,107,221,5,112,0,31,245,176,15,249,252,255,254,156,14,112,100,241,71,135,229,127,231,206,33,154,255
0038 1F5A 8E F9 C9             		  .db 142,249,201,248,254,15,242,223,231,213,67,78,17,255,62,147,9,63,225,48,7,239,255,246,31,161,84,168,21,138,69,119,217,46,191,32,194,5,40,239,138,241,184,238,188,251,215,131,34,108,162,5,145,220,202,141,80,81,215,160,69,119,14,252,250
0039 1F9B 3F 18 55             		  .db 63,24,85,234,213,162,145,2,246,4,56,192,31,201,147,127,254,128,191,55,247,175,87,96,176,0,94,153,255,200,95,127,252,240,132,248,1,194,56,49,3,99,231,197,143,248,241,159,204,15,255,3,106,225,143,57,63,144,248,255,27,127,232,63,243
0040 1FDC 38 6C CF             		  .db 56,108,207,132,24,224,158,223,131,60,63,206,192,230,30,193,0,237,10,107,24,84,253,38,37,239,253,167,159,30,250,40,80,125,38,21,40,6,191,253,238,201,223,190,95,209,14,162,175,5,37,16,222,130,168,216,67,206,208,62,162,239,125,175,127
0041 201D BD 04 D7             		  .db 189,4,215,27,63,42,255,64,1,16,0,193,254,247,191,51,236,117,226,175,106,80,96,176,0,199,127,63,143,79,10,255,41,39,15,168,249,252,230,32,141,16,17,226,231,7,65,230,63,39,232,9,52,15,55,114,32,198,63,222,223,143,45,255,255
0042 205E 01 27 5B             		  .db 1,39,91,236,252,15,63,194,207,179,96,44,248,199,10,31,230,7,38,8,70,78,240,2,69,10,21,174,125,255,177,250,245,234,244,212,168,17,34,240,95,236,95,250,245,131,5,11,31,183,165,126,228,69,215,203,14,126,214,160,64,2,17,54,65
0043 209F F0 BB 96             		  .db 240,187,150,187,239,223,251,95,78,24,87,254,11,68,103,177,224,190,127,239,203,87,174,240,5,163,254,127,119,35,58,115,19,223,232,15,62,241,255,251,247,230,63,204,208,129,196,160,128,27,159,175,255,144,207,224,239,255,236,222,191,255,121,250,184
0044 20E0 38 4F C9             		  .db 56,79,201,249,63,29,171,206,195,49,254,249,231,67,254,240,135,241,32,127,192,168,139,8,3,153,4,197,129,253,151,2,253,255,34,161,67,250,143,31,43,95,63,247,74,250,247,238,203,221,186,24,82,254,255,248,1,135,159,95,228,53,246,81,213
0045 2121 FA FF F8             		  .db 250,255,248,10,5,128,208,127,54,153,119,190,83,104,80,168,119,24,250,48,25,254,60,161,31,248,118,31,2,84,252,1,64,168,83,175,207,104,143,246,223,190,232,243,47,199,243,253,79,235,3,171,63,248,33,197,81,95,51,237,83,209,99,14,8
0046 2162 89 FE 19             		  .db 137,254,25,187,96,19,245,63,254,206,63,192,253,224,64,65,138,54,0,197,221,0,185,42,18,65,255,163,23,131,7,15,31,30,125,27,93,58,187,53,203,16,255,14,0,3,31,255,245,123,222,21,224,218,216,246,54,177,87,190,31,24,54,127,212
0047 21A3 00 3E 1F             		  .db 0,62,31,236,213,251,212,192,208,224,240,92,127,139,223,15,231,242,60,63,121,210,227,249,243,126,60,214,127,199,30,250,235,78,245,39,127,231,16,223,254,192,240,102,4,254,0,14,18,7,60,255,115,223,92,212,254,228,240,93,12,160,108,36,181
0048 21E4 FE C2 FC             		  .db 254,194,252,233,4,250,149,250,18,199,240,253,0,127,236,128,1,198,0,64,255,19,7,5,2,240,184,212,255,141,253,247,90,131,163,93,226,7,147,0,60,255,183,145,159,245,203,69,137,206,169,29,252,46,105,255,227,94,28,33,251,28,69,111,248
0049 2225 F8 07 FC             		  .db 248,7,252,243,255,239,223,1,231,255,230,242,134,252,248,18,0,131,15,254,227,5,207,249,172,129,223,63,238,15,64,168,59,8,77,46,252,250,55,80,34,69,248,43,95,126,253,254,205,179,8,2,253,0,128,64,160,120,174,247,40,74,251,95,227
0050 2266 0E 07 76             		  .db 14,7,118,0,223,175,121,52,95,191,63,14,112,254,30,223,239,215,4,247,47,157,250,29,159,211,249,241,8,103,220,218,31,127,107,228,251,195,255,199,77,3,124,0,16,12,27,255,120,127,62,193,195,227,235,104,243,151,59,156,231,206,252,255,196
0051 22A7 E4 87 30             		  .db 228,135,48,1,67,243,255,141,156,225,16,15,8,56,33,2,107,118,52,221,14,108,244,241,168,64,129,7,255,29,171,21,10,5,2,255,1,0,255,138,209,239,245,254,39,2,167,213,171,174,95,176,24,121,93,0,231,143,38,19,63,241,199,227,3
0052 22E8 CF E4 7F             		  .db 207,228,127,193,143,225,241,249,255,240,224,136,231,252,63,163,255,248,222,194,224,240,244,248,255,142,56,18,120,247,112,9,244,204,30,3,198,230,142,31,218,18,239,159,155,200,159,127,63,249,198,252,143,239,128,224,144,255,218,232,130,0,143,128,192
0053 2329 1F ED E2             		  .db 31,237,226,179,197,203,152,171,20,71,232,255,16,128,253,112,184,92,174,127,191,110,22,190,107,252,93,108,34,31,17,254,48,233,32,255,64,140,1,129,100,132,240,251,48,129,99,3,231,2,80,248,116,72,254,153,217,156,191,28,30,143,39,55,75
0054 236A 7D FB FC             		  .db 125,251,252,249,254,126,127,188,221,47,159,15,239,62,7,219,205,122,112,79,243,242,159,191,143,23,243,232,249,246,255,253,127,199,0,69,239,246,44,5,91,255,247,246,198,240,241,49,253,249,255,253,248,244,236,237,221,30,189,60,125,122,124,126,255
0055 23AB 38 48 92             		  .db 56,72,146,0,128,8,44,192,79,16,33,73,18,248,38,133,1,8,68,255,138,128,112,24,25,255,240,125,53,252,254,180,246,187,255,191,251,154,91,79,125,178,183,241,216,237,255,251,226,247,97,245,246,46,48,53,45,157,255,247,251,253,70,55,190
0056 23EC 63 04 BB             		  .db 99,4,187,241,183,175,207,255,215,219,237,238,239,247,31,112,60,224,226,160,249,255,231,222,61,248,240,224,242,255,234,3,202,4,124,248,192,241,252,231,230,246,63,224,252,248,217,255,254,190,191,225,176,50,139,255,71,17,255,207,239,226,231,7,227
0057 242D E3 F7 F3             		  .db 227,247,243,245,245,249,252,165,30,165,99,108,77,252,239,26,251,143,31,51,126,31,235,24,231,223,94,246,207,251,63,221,165,106,239,44,244,12,215,255,63,207,243,248,253,94,95,159,175,255,183,215,235,243,249,141,252,48,199,71,127,227,215,239,236
0058 246E 2A 44 4A             		  .db 42,68,74,253,234,135,211,240,254,220,247,251,7,63,251,186,82,76,232,13,117,255,127,123,244,119,241,190,228,152,233,223,181,56,71,179,27,252,254,78,96,33,223,239,110,30,121,195,241,3,92,4,248,1,143,251,180,252,240,239,83,247,6,248,241
0059 24AF 04 9E E6             		  .db 4,158,230,250,192,63,247,191,223,127,143,239,141,247,255,96,115,45,255,254,33,18,248,218,224,254,108,36,38,6,169,24,129,250,255,96,126,152,255,31,166,255,7,233,255,129,250,255,176,63,63,74,255,127,14,3,12,48,128,132,96,119,190,255,128
0060 24F0 30 0C 03             		  .db 48,12,3,0,217,255,255,1,129,220,255,121,13,138,152,0,31,166,0,7,233,0,129,250,0,96,126,152,0,31,166,0,7,233,0,129,250,0,96,126,152,0,31,166,0,7,233,0,129,250,0,96,126,152,0,31,166,0,7,233,0,129,250,0,96
0061 2531 7E 98 00             		  .db 126,152,0,31,175,0,192,48,12,1,176,33,59,222,255,1,12,48,192,145,3,252,241,248,92,24,31,42,255,255,97,255,235,95,48,63,27,255,253,175,7,213,127,63,154,240,176,31,109,108,128,254,213,21,94,167,224,223,191,127,229,248,15,146,20
0062 2572 D9 CF F3             		  .db 217,207,243,45,223,193,15,239,224,252,251,247,239,43,213,240,249,127,194,3,239,247,176,248,111,254,126,170,127,199,209,221,243,216,90,172,238,249,231,159,78,170,254,35,231,0,241,239,37,237,231,249,254,188,140,60,251,116,11,31,128,0,237,39,31
0063 25B3 3F 01 83             		  .db 63,1,131,101,31,0,226,131,179,255,245,191,99,193,50,216,73,253,254,239,31,149,235,167,193,223,242,135,120,127,143,243,183,253,29,35,22,243,15,148,219,199,252,248,254,241,245,237,219,6,0,252,193,239,150,250,239,55,184,248,57,242,63,89,194
0064 25F4 2F 6D 67             		  .db 47,109,103,248,167,91,247,223,63,159,35,240,225,199,143,63,217,124,6,111,221,252,253,248,227,215,135,159,199,8,130,255,35,250,1,157,246,191,208,248,131,203,2,127,63,30,79,62,10,47,61,15,139,110,244,198,63,222,223,143,44,255,104,188,189
0065 2635 30 D7 FD             		  .db 48,215,253,151,111,95,191,0,127,175,190,245,254,189,185,115,103,83,25,15,248,241,246,229,195,167,15,222,22,128,207,215,227,6,255,252,241,224,7,17,6,193,176,240,122,251,6,253,35,58,223,115,19,125,242,15,62,193,57,33,223,73,191,254,251
0066 2676 5C 74 04             		  .db 92,116,4,100,55,92,57,254,248,184,56,79,201,249,63,59,31,31,180,43,249,240,241,227,215,207,159,219,34,27,238,23,255,189,22,244,1,135,191,204,237,253,249,231,153,231,207,220,31,15,176,128,125,55,3,99,91,248,118,248,2,84,113,0,254
0067 26B7 03 07 8F             		  .db 3,7,143,175,48,182,223,190,232,153,175,0,253,254,135,235,171,252,63,33,193,81,95,51,118,20,123,174,124,188,252,216,225,227,163,151,135,124,15,31,115,24,95,142,63,74,18,255,238,239,0,7,215,224,187,251,31,224,248,246,2,31,11,250,227
0068 26F8 6C FF EC             		  .db 108,255,236,213,212,192,209,227,240,104,240,90,118,45,236,216,50,126,214,254,199,254,250,235,243,244,24,248,188,200,187,241,255,247,105,220,253,207,191,118,79,149,249,191,145,240,209,131,4,64,5,254,19,7,15,3,240,248,252,192,150,188,238,127,236
0069 2739 04 FB FD             		  .db 4,251,253,199,37,94,28,1,196,187,251,159,124,41,248,7,252,243,236,239,223,1,105,193,159,95,24,111,241,200,254,120,99,199,47,95,202,255,204,2,0,128,236,192,176,248,8,70,22,223,191,141,92,139,254,240,14,215,23,173,16,250,93,4,103
0070 277A DF 1F E3             		  .db 223,31,227,72,238,251,255,195,199,77,3,124,0,16,12,135,26,127,255,62,193,199,227,235,104,151,187,177,156,147,169,126,182,12,224,24,253,224,193,7,123,8,31,15,31,3,1,131,64,206,176,241,40,171,232,191,31,222,194,199,224,240,164,248,255
0071 27BB 38 70 93             		  .db 56,112,147,247,112,9,192,244,204,199,3,230,135,238,218,236,18,239,155,45,212,160,31,117,189,161,16,192,122,10,254,192,136,48,29,8
0151 27DF                      		level3:
0152 27DF                      		.include "graph/level3.inc"
0002 27DF C0 FF 98             		  .db 192,255,152,67,80,48,8,4,247,62,255,119,231,15,14,255,63,254,215,27,253,238,27,229,250,247,181,106,85,170,61,254,84,144,128,0,148,255,129,37,8,110,244,123,230,5,7,208,10,4,236,72,16,124,64,2,3,27,1,84,225,2,25,38,234
0003 2820 B9 03 F6             		  .db 185,3,246,33,60,237,136,87,255,255,234,63,131,56,252,216,238,110,233,60,23,10,169,255,203,119,200,227,97,167,223,2,76,226,249,22,248,185,172,236,10,172,6,231,182,39,228,32,184,36,3,145,2,248,63,128,32,129,193,136,216,255,220,191,62
0004 2861 78 0C 15             		  .db 120,12,21,2,16,216,3,255,126,255,255,33,191,126,251,230,128,243,17,199,15,8,15,240,153,255,56,25,7,187,127,42,223,243,78,231,189,250,213,211,251,254,172,64,47,248,253,16,8,214,34,130,4,247,61,37,230,64,44,255,180,8,72,226,6
0005 28A2 58 B1 0C             		  .db 88,177,12,113,63,48,131,200,60,240,199,243,2,22,63,218,254,40,37,222,64,253,150,163,188,64,250,220,172,223,247,148,4,185,217,64,32,96,251,227,3,4,7,255,128,35,63,188,92,40,243,157,8,216,2,203,135,175,0,133,186,169,106,255,85
0006 28E3 A3 F7 3F             		  .db 163,247,63,248,240,214,243,255,103,71,72,6,192,119,90,177,198,95,171,255,251,156,127,223,255,125,249,234,107,239,250,168,80,128,136,127,237,14,144,91,90,132,6,212,104,32,252,182,129,100,91,96,232,35,8,176,16,200,177,224,192,133,12,70,111
0007 2924 E4 F3 20             		  .db 228,243,32,227,111,48,5,31,183,255,63,60,252,200,6,17,19,5,159,128,238,64,242,252,237,13,191,219,212,174,8,4,121,158,12,36,16,24,144,44,248,191,164,133,136,130,3,118,129,253,14,160,24,220,192,156,205,111,79,253,135,175,0,250,245
0008 2965 EF 55 FF             		  .db 239,85,255,175,107,181,104,84,46,87,59,255,252,240,248,193,128,230,145,30,198,1,33,227,26,23,14,102,190,85,225,254,62,237,202,215,239,252,96,254,80,168,31,254,169,90,160,88,67,254,244,86,63,254,170,108,144,106,64,189,112,97,6,198,31
0009 29A6 03 03 F8             		  .db 3,3,248,243,154,222,109,126,32,199,197,155,222,248,127,189,44,34,25,224,2,15,3,13,14,23,33,128,230,48,231,252,255,248,231,127,240,244,209,240,216,249,246,248,188,115,96,0,48,164,221,13,192,124,16,208,191,203,240,163,72,25,95,186,235
0010 29E7 02 05 01             		  .db 2,5,1,255,218,20,54,7,38,48,254,4,193,121,120,225,250,240,150,157,255,8,39,255,122,22,171,48,191,74,129,11,87,163,198,95,175,63,239,252,128,130,8,35,255,2,24,254,28,63,255,225,207,135,191,250,175,245,49,248,119,254,10,8,1
0011 2A28 B5 24 E7             		  .db 181,36,231,241,192,60,4,255,176,1,173,31,207,206,111,247,29,58,168,127,27,1,77,11,2,252,232,35,226,8,54,242,247,120,243,120,191,127,63,196,224,103,156,250,125,229,179,237,139,6,203,222,3,253,253,65,32,19,30,253,64,10,4,226,194
0012 2A69 FD E8 20             		  .db 253,232,32,183,105,233,64,242,244,14,224,63,249,248,247,216,251,255,36,50,255,254,253,28,247,50,90,157,72,131,53,83,76,98,126,252,111,116,16,195,6,199,0,31,252,91,246,243,223,247,175,95,239,254,237,218,209,189,242,216,204,254,234,213,182
0013 2AAA FE 5C 00             		  .db 254,92,0,21,93,158,8,101,199,184,124,124,248,246,126,248,201,110,142,251,124,22,229,231,79,170,35,185,1,184,104,9,92,69,143,7,12,245,124,206,248,240,253,46,247,114,49,189,240,249,19,254,248,253,35,133,52,118,255,255,250,8,155,169,94
0014 2AEB 19 15 B7             		  .db 25,21,183,121,8,19,51,132,164,243,192,2,64,196,6,4,107,186,138,56,243,13,5,70,255,250,253,230,38,173,90,55,94,167,106,255,165,91,157,74,183,83,134,164,248,94,188,120,224,0,223,200,195,192,128,227,141,199,5,248,243,207,127,135,131
0015 2B2C 18 9F 8F             		  .db 24,159,143,255,134,239,47,51,25,159,127,75,249,246,41,52,184,2,106,237,255,63,240,134,188,55,118,255,31,151,127,253,32,178,7,197,201,237,64,12,2,77,74,125,61,14,248,24,3,240,248,252,236,81,128,130,205,9,64,19,40,115,157,244,36
0016 2B6D 90 60 FE             		  .db 144,96,254,115,144,160,246,18,56,8,152,2,22,68,70,181,142,194,154,230,13,11,170,255,254,243,240,111,255,26,172,84,171,74,165,66,181,255,11,133,43,213,42,172,82,165,255,75,181,203,245,215,229,210,175,248,219,180,91,212,111,63,178,99,137
0017 2BAE 07 BF F6             		  .db 7,191,246,253,204,240,64,156,61,231,24,128,17,250,193,20,255,27,156,142,190,247,191,255,222,232,59,254,136,231,255,224,52,248,65,79,31,3,32,128,4,253,48,249,168,79,31,255,119,155,187,87,18,223,245,147,127,151,255,126,232,224,113,240,252
0018 2BEF 51 80 F8             		  .db 81,128,248,168,246,252,195,123,249,255,208,238,142,179,242,219,248,253,27,240,224,235,216,250,201,229,202,234,158,2,96,199,245,242,244,240,254,70,246,81,232,111,196,171,90,254,85,158,175,62,187,239,196,215,79,48,215,241,8,131,159,241,79,141,115
0019 2C30 3F EC 06             		  .db 63,236,6,172,255,229,16,64,56,224,248,80,124,241,127,219,168,89,173,83,58,186,19,21,0,146,192,131,91,255,127,152,255,211,218,253,235,255,74,82,162,194,13,127,183,249,254,192,0,128,30,255,190,248,144,210,247,126,43,222,124,122,224,200,221
0020 2C71 45 C0 FB             		  .db 69,192,251,49,255,224,3,19,231,178,6,21,191,215,140,26,216,55,17,45,255,135,1,35,255,129,132,202,199,56,12,131,128,167,64,255,96,48,152,31,204,134,252,4,42,85,170,64,10,75,171,40,203,188,62,97,254,47,83,191,17,234,74,251,85
0021 2CB2 49 10 27             		  .db 73,16,39,51,223,200,152,251,4,31,144,135,243,255,196,222,220,130,248,212,175,13,6,31,176,213,224,191,35,132,92,59,90,228,63,95,127,254,91,191,2,25,0,63,143,30,28,30,31,99,255,15,244,143,79,7,255,254,3,65,160,88,189,126,254
0022 2CF3 C9 F7 6D             		  .db 201,247,109,244,136,193,178,31,159,206,191,95,42,213,106,197,155,84,254,245,105,210,181,234,215,175,15,173,77,83,252,3,239,157,14,0,204,110,129,192,127,23,48,193,6,251,7,63,255,47,11,92,60,53,249,127,5,132,141,10,128,72,168,244,20
0023 2D34 AB 15 AA             		  .db 171,21,170,254,133,191,85,143,248,253,30,237,88,253,16,14,1,241,225,248,151,255,240,49,255,225,224,255,192,208,160,76,25,58,216,57,186,203,103,191,87,226,170,85,74,255,213,162,252,126,61,1,199,159,195,22,254,245,175,92,241,34,0,3,12
0024 2D75 FF 06 78             		  .db 255,6,120,244,191,255,25,27,190,254,248,252,121,192,193,207,123,226,128,74,191,218,223,176,130,227,4,127,242,245,225,66,133,124,201,181,252,163,44,254,9,161,255,63,105,255,26,175,215,107,183,240,123,53,59,245,191,117,235,87,47,223,63,25,0
0025 2DB6 EE FF AB             		  .db 238,255,171,149,218,233,229,219,53,61,252,135,255,131,124,12,158,56,243,56,227,7,122,126,117,253,43,0,165,63,18,15,134,183,193,249,242,249,103,12,228,7,51,189,237,231,240,48,117,8,32,86,225,199,175,7,253,185,112,17,33,3,207,129,28
0026 2DF7 10 D8 1F             		  .db 16,216,31,223,131,255,207,213,226,202,205,221,255,206,199,195,211,220,223,222,60,241,219,198,193,105,207,255,143,211,223,248,192,199,216,217,222,163,65,210,129,193,206,226,207,192,204,76,219,228,222,155,227,210,192,81,255,206,199,207,204,208,216,200,214
0027 2E38 59 DE D0             		  .db 89,222,208,182,193,1,233,198,3,193,199,16,229,241,195,217,178,129,10,255,218,3,251,202,192,0,140,253,14,243,255,128,9,49,35,0,3,244,0,192,253,48,0,63,76,0,15,211,0,3,244,0,192,253,48,0,63,76,0,15,211,0,3,244,0
0028 2E79 C0 FD 30             		  .db 192,253,48,0,63,76,0,15,211,0,3,244,0,192,253,48,0,63,86,0,95,7,227,0,175,85,96,125,63,0,191,85,170,245,248,187,254,83,171,203,251,147,195,35,60,19,194,251,3,248,219,99,107,203,27,160,52,71,255,27,3,195,123,196,59
0029 2EBA BB 8E B3             		  .db 187,142,179,4,243,56,227,226,11,11,198,19,43,217,171,83,9,254,11,252,159,211,250,107,219,187,243,140,59,123,225,251,51,3,32,255,70,244,55,200,227,35,250,251,197,187,96,71,177,255,192,223,143,0,86,181,82,243,174,244,234,245,247,50,195
0030 2EFB FD 41 C3             		  .db 253,65,195,60,126,255,241,195,51,221,182,62,254,124,236,65,0,16,143,224,212,216,48,103,243,129,211,241,60,131,63,97,255,102,15,172,69,168,81,170,85,106,254,211,69,154,250,255,245,249,234,92,175,78,238,187,217,47,64,191,154,199,14,1,225
0031 2F3C 1F 60 7B             		  .db 31,96,123,96,32,225,122,15,213,43,85,82,254,239,255,255,209,255,127,1,129,2,255,215,93,175,191,255,235,83,32,1,130,7,254,128,248,224,188,247,251,246,23,191,127,162,239,17,8,1,63,65,247,252,8,143,245,55,128,65,159,137,64,80,150
0032 2F7D A0 D0 53             		  .db 160,208,83,254,99,168,2,62,128,38,127,23,138,69,90,13,51,28,220,1,2,212,156,192,255,240,224,104,64,226,127,248,24,120,216,252,112,193,63,238,49,48,148,140,127,140,183,42,74,12,63,7,105,254,15,7,216,67,14,35,20,200,133,249,4
0033 2FBE F9 47 8F             		  .db 249,71,143,15,127,31,231,24,86,13,239,0,83,34,245,46,255,31,30,41,124,40,184,196,176,233,3,207,211,238,125,254,251,117,248,209,168,0,32,204,255,55,16,160,64,26,84,120,16,10,21,138,216,42,149,30,1,106,33,2,191,232,4,0,65
0034 2FFF 7F 0A 81             		  .db 127,10,129,65,2,85,128,33,244,254,64,60,108,56,120,130,145,213,24,56,62,7,14,223,49,15,6,128,48,141,35,18,241,231,195,255,238,255,143,124,167,237,152,192,254,246,17,3,18,6,0,54,135,221,198,8,56,244,25,32,105,224,246,156,129
0035 3040 FD 40 C0             		  .db 253,64,192,15,49,19,112,62,255,79,15,230,254,31,199,71,127,96,215,255,251,85,170,17,248,255,131,152,195,68,64,125,191,194,143,199,252,252,255,127,46,95,2,1,127,159,158,93,250,187,80,242,252,128,254,190,12,190,24,228,4,69,108,132,192
0036 3081 E2 18 34             		  .db 226,24,52,16,47,196,38,66,46,230,23,255,66,255,14,64,67,255,78,32,127,128,122,31,245,54,15,90,104,187,16,183,250,68,123,205,168,32,254,128,11,29,19,231,141,253,148,239,131,240,54,174,64,223,176,143,191,31,224,136,254,248,18,162,235
0037 30C2 E4 BC 0C             		  .db 228,188,12,40,48,31,190,199,216,2,219,215,191,236,162,220,254,235,63,123,214,219,191,12,15,0,193,240,217,247,206,31,56,119,219,102,41,143,253,63,7,11,1,64,12,34,71,28,125,15,3,243,42,85,223,14,106,254,250,81,160,9,112,145,232
0038 3103 30 38 12             		  .db 48,56,18,8,80,152,58,192,33,80,255,238,1,171,48,159,192,210,8,64,56,193,19,32,104,193,1,128,27,80,2,227,5,0,65,112,34,14,30,78,47,128,40,7,16,71,91,255,253,255,157,59,12,20,3,29,194,0,21,137,112,90,11,132,6
0039 3144 8C 20 DB             		  .db 140,32,219,191,176,7,60,205,27,115,129,47,11,107,243,190,1,76,254,63,126,128,24,31,3,9,95,229,234,131,7,126,253,1,13,15,63,23,127,193,107,159,214,183,103,241,3,200,243,96,56,254,244,155,190,155,20,142,3,78,141,15,4,250,2
0040 3185 80 70 FE             		  .db 128,112,254,86,55,8,109,0,128,5,251,237,64,174,32,114,231,170,192,224,71,191,68,96,95,46,95,58,211,162,129,244,66,7,241,6,10,4,64,188,32,20,39,55,255,228,48,6,36,1,74,70,160,242,23,67,12,80,178,120,217,90,64,8,135
0041 31C6 F9 48 80             		  .db 249,72,128,39,252,183,50,80,142,16,115,248,35,40,11,15,7,64,33,104,171,174,4,181,199,222,140,18,96,110,190,8,83,239,128,150,136,8,251,2,224,132,207,254,5,110,255,235,5,192,124,127,156,206,238,143,239,126,209,113,187,62,226,126,136
0042 3207 76 8A 41             		  .db 118,138,65,171,103,0,24,44,80,141,235,238,82,192,249,215,11,128,244,129,21,1,106,232,249,13,29,24,115,44,75,246,6,80,64,34,220,205,159,34,28,70,164,248,89,222,40,129,34,244,96,128,3,40,159,182,8,1,19,68,252,70,27,64,134
0043 3248 AA 81 4C             		  .db 170,129,76,2,136,30,128,160,32,115,180,25,10,234,14,20,235,132,24,2,168,159,223,191,155,68,243,128,7,76,252,211,3,227,224,1,14,118,246,15,57,10,92,230,254,1,132,112,2,248,187,155,7,253,251,156,161,160,136,39,251,112,48,14,208
0044 3289 BA 91 0E             		  .db 186,145,14,117,44,213,167,0,34,20,160,160,0,107,239,252,224,33,35,243,225,192,2,1,140,80,230,241,76,64,136,237,231,12,20,44,18,226,27,196,215,222,64,183,22,2,129,4,223,123,238,135,158,1,30,45,242,193,2,12,187,9,244,223,17
0045 32CA AF FD 08             		  .db 175,253,8,82,6,11,46,4,249,212,127,238,229,12,47,244,159,241,212,1,69,192,3,248,13,31,7,14,2,52,28,236,255,8,96,230,195,231,113,126,206,96,154,0,243,0,198,216,159,250,251,137,185,32,154,88,156,25,255,56,4,64,12,255,65
0046 330B 3F 59 1E             		  .db 63,89,30,248,242,193,194,178,209,31,2,162,80,160,84,32,52,31,193,100,60,38,144,66,132,11,201,249,72,21,240,76,16,132,42,11,57,222,31,2,14,6,1,34,228,28,20,255,251,10,33,72,208,192,224,160,128,0,53,145,167,132,205,248,48
0047 334C 61 81 E9             		  .db 97,129,233,201,22,167,125,207,121,227,4,100,120,49,213,248,137,192,29,101,191,232,24,128,194,8,30,254,232,177,1,216,244,26,24,161,215,99,30,14,254,240,231,193,49,0,213,91,154,129,95,223,214,131,3,91,14,160,132,112,31,242,135,7,63
0048 338D 7F C6 BA             		  .db 127,198,186,247,250,125,206,21,2,149,216,4,223,128,208,169,66,168,234,0,67,131,245,231,64,251,95,62,77,241,9,70,32,129,94,72,72,241,6,28,64,34,4,180,89,223,4,116,71,7,142,3,113,213,136,48,229,56,229,250,239,255,199,176,240
0049 33CE 60 F3 FC             		  .db 96,243,252,13,24,218,2,4,235,252,8,16,145,4,184,105,36,242,33,95,19,253,142,63,123,103,48,131,10,24,18,18,188,181,177,7,222,57,124,204,190,15,196,32,253,253,196,10,128,28,48,126,134,242,193,63,220,0,29,134,192,249,2,10,47
0050 340F 27 10 72             		  .db 39,16,114,40,89,60,230,103,20,27,237,175,96,45,21,174,91,227,32,14,31,123,23,10,21,42,144,254,20,167,16,252,10,5,38,231,60,240,129,91,3,6,237,2,3,1,54,206,151,236,16,155,6,240,216,201,56,161,69,220,185,34,224,32,199
0051 3450 13 0C FF             		  .db 19,12,255,1,195,24,135,145,141,124,0,244,42,50,230,137,207,104,216,162,38,1,4,152,12,128,127,192,6,7,51,237,12,194,134,31,232,144,48,66,128,132,250,10,16,3,6,64,79,215,12,252,185,7,13,150,48,146,10,29,0,252,246,125,7
0052 3491 83 89 88             		  .db 131,137,136,120,8,228,0,201,255,144,255,139,14,192,39,202,194,200,39,251,235,144,148,54,255,164,136,255,160,252,161,33,49,121,112,255,227,48,52,184,252,186,8,206,137,3,76,233,46,127,14,15,16,32,30,36,61,52,0,250,126,225,231,84,209
0053 34D2 30 F7 AA             		  .db 48,247,170,255,40,56,28,204,32,24,12,176,160,103,245,11,229,24,201,216,96,212,92,234,21,123,207,130,192,105,247,251,108,20,253,241,45,33,246,1,128,106,13,38,212,191,7,130,175,252,192,162,96,180,134,87,222,3,182,157,240,130,10,12,0
0054 3513 8B 89 7D             		  .db 139,137,125,73,72,232,255,64,251,68,66,145,255,82,227,81,136,150,251,210,66,255,212,60,180,120,100,249,102,214,255,158,86,254,22,66,18,247,96,129,198,192,114,47,13,41,255,129,32,132,2,192,184,225,135,92,31,192,144,199,17,4,70,80,234
0055 3554 FF 41 3F             		  .db 255,65,63,243,9,7,5,128,47,206,36,229,250,6,127,143,71,7,18,191,4,206,193,44,233,198,131,126,237,32,80,192,223,200,4,15,31,94,92,235,88,56,62,255,194,124,17,129,68,193,96,167,170,0,84,198,56,16,130,190,135,94,126,254,126
0056 3595 56 2C 96             		  .db 86,44,150,42,48,62,34,68,190,20,41,21,169,85,153,254,83,171,252,123,254,161,21,107,244,54,22,191,84,71,55,80,72,8,249,32,208,128,33,64,200,200,12,65,227,55,165,154,226,97,212,181,192,19,95,234,43,157,53,13,144,230,52,234,32
0057 35D6 02 1C E7             		  .db 2,28,231,207,68,132,199,249,9,53,243,14,215,13,100,13,54,235,204,80,158,243,15,47,59,44,15,223,238,254,86,237,96,166,255,187,31,60,171,247,251,207,127,140,24,240,241,156,0,90,121,3,126,147,7,31,59,123,86,133,245,255,2,87,171
0058 3617 D5 AF FF             		  .db 213,175,255,122,40,244,214,2,212,244,174,255,252,95,254,125,239,245,251,246,142,127,217,218,238,248,85,171,87,234,119,153,93,235,199,163,127,197,21,180,70,253,232,150,227,224,43,46,200,208,200,194,161,64,246,93,192,213,235,26,221,96,163,238,64
0059 3658 EA 38 93             		  .db 234,56,147,170,253,73,254,186,112,232,64,4,198,251,255,96,179,106,0,252,255,12,31,127,140,185,254,245,159,198,230,199,251,248,70,132,255,32,171,253,75,182,15,126,75,251,213,186,119,174,87,34,38,10,81,125,187,49,237,169,235,126,67,239,221
0060 3699 AA D7 BF             		  .db 170,215,191,119,0,201,224,127,8,244,65,87,187,117,222,0,231,220,255,215,232,171,93,141,191,187,48,234,95,160,125,8,0,95,239,119,251,159,255,13,150,138,218,254,253,11,4,18,177,155,186,36,203,224,67,173,191,71,205,91,20,238,245,141,235
0061 36DA EA 85 D5             		  .db 234,133,213,247,166,170,218,187,119,155,218,213,190,5,119,0,128,152,172,255,64,0,12,1,192,7,15,57,255,143,252,249,183,251,255,136,229,227,206,224,124,96,132,99,125,48,0,195,135,63,179,81,250,221,58,87,42,85,124,85,93,175,87,174,95
0062 371B 60 0C FA             		  .db 96,12,250,170,3,242,191,192,245,186,226,171,223,239,59,255,61,174,213,138,21,106,63,85,197,250,183,75,29,240,59,21,58,125,35,245,76,253,200,190,201,57,215,250,247,113,187,148,137,207,215,175,8,117,234,247,111,242,248,179,190,8,23,117,191
0063 375C F7 8C FA             		  .db 247,140,250,220,20,70,139,137,239,175,247,85,190,95,171,125,224,130,168,0,207,89,239,51,73,160,67,252,1,200,0,132,3,15,120,127,247,121,207,129,231,248,224,241,232,97,126,0,1,3,19,63,127,219,238,76,80,253,251,44,2,252,9,201,71
0064 379D FE 8F EB             		  .db 254,143,235,254,98,169,118,207,173,86,241,254,249,224,140,252,124,199,12,225,14,1,95,0,144,161,49,8,31,7,95,122,85,255,173,107,247,155,87,175,111,255,130,63,144,210,223,89,20,52,71,183,0,191,50,200,213,24,159,185,127,238,119,186,87
0065 37DE DD AE 5D             		  .db 221,174,93,220,252,187,215,3,151,245,119,147,10,244,117,234,38,232,234,95,87,224,152,139,43,125,252,246,23,254,0,64,190,114,2,12,128,179,70,15,29,63,91,220,253,231,1,227,192,240,0,30,48,64,246,15,47,53,90,135,95,233,62,190,243
0066 381F EE FD 2F             		  .db 238,253,47,247,27,195,23,207,254,254,51,223,35,49,128,148,125,15,12,0,192,154,228,36,186,239,195,175,255,187,243,214,253,221,182,213,231,36,58,245,244,37,223,191,31,255,189,63,255,127,29,252,187,237,247,239,223,185,242,234,76,250,251,127,37
0067 3860 C7 B7 7E             		  .db 199,183,126,212,170,186,169,114,254,238,87,254,7,125,174,253,176,187,85,146,246,253,116,245,239,128,80,136,70,32,172,16,113,59,195,1,3,249,155,255,60,230,255,224,228,164,73,28,96,72,240,31,49,131,241,23,39,199,15,226,7,165,255,159,198
0068 38A1 43 CB 75             		  .db 67,203,117,191,208,72,239,60,56,71,130,125,63,9,129,7,62,27,112,4,133,207,46,255,27,6,72,199,64,159,125,158,157,215,74,234,245,220,207,113,154,22,152,247,181,247,240,47,255,248,82,255,252,255,254,242,255,55,20,221,236,186,212,129,234
0069 38E2 FF AF F5             		  .db 255,175,245,181,102,247,227,139,198,221,53,188,174,211,125,254,254,216,223,255,44,120,248,174,98,126,136,168,88,172,92,162,72,55,80,136,64,137,160,177,255,11,1,3,7,95,127,31,55,64,17,255,120,159,251,62,52,136,204,124,127,75,112,63,255
0070 3923 10 D0 CC             		  .db 16,208,204,255,230,128,33,67,135,15,255,158,189,81,78,125,255,250,254,15,249,67,200,153,0,197,228,128,134,224,127,202,78,168,252,235,119,234,225,95,170,87,90,93,106,221,171,199,221,128,170,93,234,109,159,60,4,245,238,117,190,71,110,179,175
0071 3964 BE CA C1             		  .db 190,202,193,193,255,254,127,157,240,243,244,254,169,248,84,170,64,160,88,218,96,178,206,115,169,81,7,64,161,193,198,224,212,255,208,171,217,163,80,131,65,207,255,13,28,119,252,192,0,81,10,253,149,174,86,171,85,190,105,11,127,59,222,251,245
0072 39A5 E4 63 71             		  .db 228,99,113,65,159,51,33,199,15,93,43,192,222,64,95,171,87,251,21,191,178,54,15,60,31,127,175,87,171,95,71,239,248,3,22,103,241,126,234,117,8,0,86,171,188,222,128,238,193,252,255,143,44,240,72,143,227,90,40,232,183,196,171,252,88
0073 39E6 00 71 B0             		  .db 0,113,176,65,68,62,48,133,42,86,45,20,253,241,181,93,235,191,40,64,160,210,140,192,251,128,217,187,254,190,203,198,78,52,57,192,203,223,187,195,5,36,199,250,226,29,138,0,146,96,65,44,255,127,131,255,26,31,217,36,64,6,29,213,249
0074 3A27 F2 80 48             		  .db 242,128,72,2,21,0,247,160,0,193,135,95,77,2,212,245,60,63,191,245,231,52,247,84,239,247,102,23,205,64,11,96,69,57,255,135,1,5,255,143,129,9,10,0,196,74,255,98,106,214,4,113,7,64,10,44,171,189,210,11,175,254,239,19,189
0075 3A68 2A EA FC             		  .db 42,234,252,64,0,246,79,220,200,255,220,116,219,119,103,4,187,224,248,111,12,132,0,33,253,4,7,15,99,36,171,87,186,187,44,161,159,214,189,63,215,193,99,253,159,10,192,134,125,0,63,158,30,92,28,105,112,202,104,7,127,255,3,65,160
0076 3AA9 58 BD 7E             		  .db 88,189,126,254,100,251,109,240,128,178,193,199,82,46,42,85,26,49,185,239,193,255,2,149,10,215,175,245,168,69,255,195,84,0,192,160,85,243,247,255,122,63,128,223,207,62,249,248,143,192,176,159,84,2,234,231,252,255,132,235,123,254,238,95,191
0077 3AEA 4F 6D AD             		  .db 79,109,173,39,7,167,233,170,230,197,192,237,255,253,59,2,1,1,241,187,225,79,121,212,110,224,255,255,192,208,160,76,25,58,57,177,186,149,103,191,95,84,10,0,255,18,72,3,193,198,254,56,60,250,192,67,156,245,175,175,88,168,81,242,252
0078 3B2B F9 82 0B             		  .db 249,130,11,64,0,230,97,63,1,2,132,43,87,47,255,17,234,85,42,245,187,223,175,27,190,215,245,174,221,255,247,241,185,236,252,133,255,255,129,52,255,45,87,63,26,175,255,87,43,23,155,197,203,21,139,141,133,87,49,56,191,147,238,215,43
0079 3B6C FF 15 0A             		  .db 255,21,10,17,48,32,232,194,252,250,33,124,131,247,99,158,50,28,248,30,128,149,86,0,198,24,254,239,215,254,126,252,249,72,39,134,141,152,255,251,27,248,205,2,1,23,125,117,88,44,19,235,255,31,17,79,255,15,24,5,4,0,227,17,24
0080 3BAD 1C E3 13             		  .db 28,227,19,30,0,12,4,104,31,128,199,16,152,12,16,30,28,7,6,1,81,160,29,192,30,241,17,16,31,19,8,219,216,1,25,4,210,108,14,29,68,250,192,15,18,241,30,11,23,7,144,214,248,254,18,26,21,11,197,242,4,178,24,54,4
0081 3BEE 7A FF 03             		  .db 122,255,3,90,255,44,0,0,15,115,255,18,48,0,63,76,0,15,211,0,3,244,0,192,253,48,0,63,76,0,15,211,0,3,244,0,192,253,48,0,63,76,0,15,211,0,3,244,0,192,253,48,0,63,76,0,15,211,0,3,245,0,95,96,126
0082 3C2F 36 00 AF             		  .db 54,0,175,85,7,211,0,191,85,243,170,117,248,16,246,240,132,120,12,216,124,232,104,19,250,32,241,152,144,48,224,127,112,168,88,184,216,248,45,241,208,255,184,24,146,255,200,231,185,24,240,144,241,32,200,8,192,128,16,62,136,80,168,55,232
0083 3C70 F0 F8 8C             		  .db 240,248,140,112,192,160,73,255,192,255,0,255,2,21,3,4,65,0,32,28,11,254,249,255,255,224,207,129,2,14,60,204,255,34,73,195,1,165,238,221,254,228,253,175,255,252,240,222,239,221,251,160,191,177,100,255,207,197,2,192,255,8,15,31,115
0084 3CB1 F0 31 11             		  .db 240,49,17,1,249,0,168,87,170,85,254,159,175,250,213,235,95,191,198,127,255,45,252,219,198,252,240,255,142,231,75,255,255,2,37,255,8,158,7,108,128,200,142,247,244,199,31,195,255,8,4,9,7,192,196,255,190,206,95,171,56,127,250,81,0
0085 3CF2 FE 7D FE             		  .db 254,125,254,200,227,253,16,221,24,139,192,129,192,31,224,128,51,255,198,250,240,253,96,160,120,243,85,186,15,0,2,234,245,250,24,137,194,253,140,254,4,221,78,117,235,87,190,248,88,192,18,111,255,7,152,224,129,26,231,152,29,79,63,193,107
0086 3D33 30 2C F9             		  .db 48,44,249,243,131,4,20,141,251,170,141,117,87,19,95,239,52,0,215,252,192,127,187,133,190,235,187,245,247,244,223,160,202,203,80,171,226,161,222,245,246,141,215,117,209,175,93,218,4,244,175,247,144,206,196,45,175,139,161,247,0,243,18,230,2
0087 3D74 BF 93 F2             		  .db 191,147,242,175,174,85,2,71,18,243,228,147,227,251,210,93,0,76,171,95,203,171,175,216,7,87,0,0,1,239,207,7,252,249,187,191,194,255,240,127,124,248,3,0,192,249,1,170,230,250,127,56,119,171,245,234,213,235,26,251,221,210,175,39,18
0088 3DB5 56 15 3B             		  .db 86,21,59,162,223,226,241,28,254,254,171,221,175,119,174,253,138,49,212,250,235,223,254,127,224,13,58,203,4,157,228,224,215,219,37,5,207,32,187,198,251,215,63,252,155,223,238,117,234,140,119,77,172,208,247,178,232,234,2,247,150,93,187,117,120
0089 3DF6 D6 96 C8             		  .db 214,150,200,195,255,198,96,200,0,255,254,62,230,138,225,199,1,7,255,36,153,15,0,128,192,171,92,178,187,139,227,236,14,134,255,63,252,6,193,131,30,226,95,6,68,190,104,100,121,198,28,11,31,186,213,174,93,245,171,87,187,215,255,48,247
0090 3E37 8F F9 8B             		  .db 143,249,139,19,234,117,255,170,95,28,231,143,63,191,87,198,171,247,10,159,21,251,167,161,10,219,28,16,125,251,226,34,221,191,99,235,247,7,190,9,162,174,253,135,26,186,170,215,95,182,247,85,235,245,251,126,140,93,113,198,175,95,161,223,48
0091 3E78 67 70 00             		  .db 103,112,0,75,152,15,63,55,159,199,1,31,32,249,144,227,255,85,170,52,216,247,191,163,134,241,47,249,147,179,23,174,196,14,207,242,85,26,171,209,10,133,255,245,247,40,3,11,85,116,22,72,221,68,46,15,155,69,139,103,250,191,55,138,117
0092 3EB9 EA E0 FE             		  .db 234,224,254,30,119,154,87,186,142,184,39,44,250,222,231,151,128,123,52,159,174,20,127,242,31,190,93,46,119,251,223,3,63,175,240,123,191,39,190,63,235,253,169,93,171,127,133,239,255,148,191,12,134,254,83,171,87,174,85,155,125,193,163,199,0
0093 3EFA 78 83 80             		  .db 120,131,128,241,103,49,17,16,255,129,207,230,255,221,170,95,128,16,111,175,213,171,255,179,235,159,215,87,42,69,40,16,137,35,58,73,40,190,242,139,248,42,240,111,227,254,252,60,149,35,7,42,153,16,62,213,62,254,252,247,175,143,15,7,251
0094 3F3B 5A F2 B2             		  .db 90,242,178,254,251,127,2,215,100,206,18,117,207,216,119,239,83,191,255,223,207,124,156,92,186,81,174,79,224,236,119,187,87,159,254,222,245,63,189,234,141,213,244,248,187,119,255,95,191,159,174,93,130,213,186,52,158,125,206,96,207,191,208,143,253
0095 3F7C 07 4C FB             		  .db 7,76,251,100,0,2,140,127,252,109,237,216,72,254,139,218,127,51,252,60,224,34,84,162,48,97,15,18,174,245,239,253,196,168,192,225,55,15,223,192,245,125,112,209,238,129,188,191,119,191,95,239,247,230,254,222,226,5,206,197,10,213,142,46,246
0096 3FBD B4 5F AF             		  .db 180,95,175,208,2,74,228,35,122,213,162,112,226,85,120,188,21,144,31,14,154,11,23,255,220,191,159,251,104,147,165,175,210,235,115,202,238,247,214,242,221,159,132,208,132,22,216,134,48,188,255,57,39,96,0,127,68,70,12,223,99,124,140,255,247
0097 3FFE FA E5 FE             		  .db 250,229,254,117,128,68,203,241,85,138,21,106,184,186,83,174,31,235,144,41,64,43,227,87,191,93,124,221,170,253,251,209,74,213,125,238,63,239,55,225,254,119,46,212,226,255,197,138,115,203,221,214,233,186,144,27,33,77,31,249,223,53,11,245,187
0098 403F AE EB FF             		  .db 174,235,255,15,249,242,224,130,7,42,23,175,10,229,0,174,117,240,126,227,207,186,224,7,248,249,234,205,245,235,190,95,107,230,93,238,91,142,27,215,187,192,87,190,96,197,239,252,63,128,0,64,139,225,48,245,212,168,93,235,251,60,187,24,255
0099 4080 8C F5 FA             		  .db 140,245,250,253,255,234,252,162,71,139,69,8,21,3,68,42,226,117,190,87,77,81,60,232,106,250,238,23,175,125,249,255,127,186,115,248,199,184,96,163,213,93,254,242,212,190,125,36,2,231,60,231,211,245,218,219,243,119,154,239,207,28,87,109,12
0100 40C1 76 1C FE             		  .db 118,28,254,47,202,69,168,198,5,162,253,170,93,154,95,236,126,27,237,233,161,62,226,87,234,237,250,213,113,196,239,253,172,215,25,61,2,243,227,121,63,0,255,15,33,40,30,29,26,21,62,254,14,31,171,55,108,254,63,93,255,62,2,58,7
0101 4102 1C 0E 0F             		  .db 28,14,15,252,0,8,21,202,245,34,64,143,208,7,10,3,30,1,39,5,139,157,152,238,57,245,171,113,56,171,36,139,60,33,176,93,178,60,90,61,190,255,111,191,175,247,251,240,173,219,127,187,7,127,99,244,223,171,143,178,247,29,99,160,13
0102 4143 2A 75 84             		  .db 42,117,132,214,34,24,19,10,234,219,133,253,179,41,246,226,238,254,247,234,213,251,95,171,87,193,155,181,2,17,137,14,136,255,153,8,255,16,255,159,144,255,136,132,146,192,199,168,202,134,200,153,234,144,148,255,199,164,165,21,35,255,160,241,161
0103 4184 21 31 E7             		  .db 33,49,231,112,255,48,52,143,184,186,254,8,238,137,131,9,233,46,63,14,143,208,227,160,32,36,254,52,246,166,63,237,22,85,180,225,211,247,96,61,250,127,240,229,226,211,254,15,175,255,40,168,7,223,174,153,255,251,250,185,252,68,168,212,245
0104 41C5 10 57 DF             		  .db 16,87,223,252,19,97,235,195,43,179,131,157,187,248,86,139,87,170,245,203,156,20,187,119,254,172,234,224,5,239,253,127,213,234,87,183,119,238,93,92,230,17,131,53,177,208,138,137,251,73,200,72,159,255,192,64,68,66,194,24,199,255,82,142,81
0105 4206 22 59 FB             		  .db 34,89,251,210,8,255,212,241,180,227,100,230,102,214,255,86,127,254,22,66,18,81,130,65,255,168,17,163,215,232,69,40,21,3,93,169,250,85,43,117,185,221,253,40,251,122,64,254,17,54,173,247,141,246,171,255,93,234,222,238,245,226,250,248,126
0106 4247 80 B6 BB             		  .db 128,182,187,149,88,238,42,117,88,244,184,27,187,223,94,32,173,13,255,214,110,87,170,69,150,174,14,70,170,112,253,177,190,247,182,117,251,12,218,0,90,101,253,186,215,171,213,235,87,90,124,117,0,67,17,248,10,61,205,116,126,5,230,45,114
0107 4288 11 FF FB             		  .db 17,255,251,218,191,247,245,191,197,136,16,128,214,84,130,218,80,234,24,213,1,66,255,113,248,205,177,123,231,87,127,186,253,191,225,131,128,11,124,224,243,129,162,117,235,178,223,123,58,127,238,105,143,250,254,122,245,250,254,241,234,125,171,85,251
0108 42C9 5F FA 95             		  .db 95,250,149,242,132,223,129,230,247,198,213,6,205,106,200,159,216,164,127,79,202,199,216,4,250,85,200,235,213,114,236,24,234,236,192,32
0153 42ED                      		level4:
0154 42ED                      		.include "graph/level4.inc"
0002 42ED 00 7A FF             		  .db 0,122,255,16,63,32,96,64,3,1,7,251,79,223,159,55,119,147,255,247,255,251,108,255,227,255,254,252,237,253,250,159,254,245,234,209,128,160,241,21,0,136,68,65,206,28,224,198,2,5,0,199,250,18,65,10,32,1,235,196,20,232,241,226,255
0003 432E 1F E0 79             		  .db 31,224,121,193,209,197,255,243,5,4,0,3,225,1,56,251,32,31,226,167,235,63,129,220,255,111,54,24,141,199,163,80,168,141,84,128,179,0,26,255,32,16,123,254,80,160,85,170,8,16,254,69,56,65,2,64,223,0,46,117,254,255,34,113,13
0004 436F EA 92 D5             		  .db 234,146,213,254,234,195,115,254,52,120,7,12,28,24,0,167,38,255,65,67,63,30,31,148,255,15,255,231,71,167,87,254,171,83,27,81,169,140,85,126,205,84,82,106,40,68,115,20,128,31,254,2,230,12,16,0,25,224,63,50,193,240,133,16,63
0005 43B0 C9 C0 FE             		  .db 201,192,254,253,25,9,169,1,170,175,8,4,48,12,192,59,104,251,160,126,49,96,196,138,21,42,231,139,213,106,53,251,88,231,255,1,221,71,255,173,85,251,227,31,0,160,99,64,128,6,98,254,65,99,81,170,49,198,76,10,5,127,187,8,129
0006 43F1 00 95 EB             		  .db 0,149,235,253,241,255,127,234,247,9,255,252,95,103,44,171,57,71,0,16,154,8,255,4,76,255,2,255,1,179,255,126,236,205,255,105,173,149,4,161,8,41,6,32,77,37,226,4,1,31,192,19,17,241,13,128,253,125,73,110,253,229,129,161,133
0007 4432 FF EE 01             		  .db 255,238,1,4,16,208,56,29,248,63,192,223,233,221,128,223,254,2,71,162,64,98,31,177,28,229,245,255,75,123,71,255,87,170,253,144,63,239,242,84,1,134,53,5,199,36,152,254,201,50,123,193,144,104,254,31,32,203,37,215,255,125,97,3,251
0008 4473 B4 76 FF             		  .db 180,118,255,239,253,234,26,191,0,128,192,224,240,248,252,145,254,189,68,8,1,227,240,210,224,255,192,202,47,255,50,157,125,155,82,241,106,34,65,40,188,128,56,192,32,73,176,196,196,184,8,33,67,2,128,186,97,185,184,19,188,253,3,209,75
0009 44B4 0B FF 91             		  .db 11,255,145,248,194,13,23,29,125,230,191,211,2,254,117,160,4,218,215,167,51,255,162,165,252,160,31,181,178,224,173,18,64,158,121,116,186,125,209,254,250,254,244,233,210,165,74,149,42,197,11,74,191,168,8,65,120,55,255,240,101,244,224,178,217
0010 44F5 0B FF EA             		  .db 11,255,234,12,158,0,1,3,7,15,61,13,35,255,29,251,61,125,253,254,115,255,33,169,127,56,255,63,191,222,159,31,158,77,156,207,169,149,69,241,13,34,128,63,33,31,124,15,55,32,71,10,255,250,2,8,7,51,64,159,16,222,223,255,1
0011 4536 E9 07 47             		  .db 233,7,71,23,255,128,226,0,35,16,191,208,184,224,96,248,150,190,159,2,207,7,194,28,89,168,83,32,232,197,250,217,201,213,74,254,193,51,197,222,99,171,87,174,93,7,112,41,82,27,22,37,189,18,254,138,141,5,87,207,158,93,254,26,85
0012 4577 18 FF 40             		  .db 24,255,64,0,88,128,224,240,208,236,219,250,175,165,90,175,207,135,189,0,93,9,180,71,236,14,7,210,255,3,255,1,155,85,170,84,37,209,80,241,84,106,2,0,164,64,14,105,23,209,207,130,144,252,34,8,2,76,199,96,80,63,17,10,1
0013 45B8 FE 92 FF             		  .db 254,146,255,253,200,227,1,198,178,231,26,46,8,120,4,251,253,254,123,128,53,104,212,144,186,156,160,21,255,254,72,148,248,20,212,208,84,158,254,227,180,80,22,251,0,21,42,117,127,63,154,159,220,26,141,70,163,81,145,168,129,153,136,76,42
0014 45F9 10 8A 3F             		  .db 16,138,63,168,112,240,246,249,255,227,251,127,191,7,253,95,86,61,248,95,175,93,135,61,0,219,4,6,119,8,20,38,217,64,128,127,237,102,61,209,171,149,69,40,114,84,127,188,1,60,16,31,12,4,212,160,11,128,68,167,1,205,136,28,8
0015 463A FE DC FF             		  .db 254,220,255,3,252,15,14,46,146,255,32,175,212,193,142,173,241,234,96,255,222,108,49,27,142,69,130,65,214,162,225,164,237,170,237,60,186,187,141,210,160,100,116,43,255,216,10,4,40,80,41,81,33,26,161,228,254,89,177,8,119,76,84,10,5
0016 467B FD 87 94             		  .db 253,135,148,0,67,1,223,223,10,38,253,4,171,193,31,111,0,70,13,129,21,183,236,252,64,199,209,84,106,162,250,1,8,64,0,126,246,1,115,15,14,18,30,22,57,26,20,122,112,143,31,248,254,7,20,35,253,31,228,28,93,92,255,241,201
0017 46BC 90 40 84             		  .db 144,64,132,132,225,81,128,24,124,0,216,129,30,95,62,6,35,81,200,104,49,191,224,0,247,1,127,0,210,157,213,254,146,149,162,254,144,246,255,212,210,49,237,238,211,5,90,232,6,30,10,229,202,201,227,254,249,246,213,45,240,55,28,162,255
0018 46FD 45 80 14             		  .db 69,128,20,58,134,10,148,160,95,10,60,2,190,87,175,176,236,236,0,254,60,1,255,186,11,219,167,8,243,244,224,217,192,128,191,2,6,149,7,2,68,128,218,1,134,254,33,8,219,240,206,6,34,254,185,1,63,227,60,189,188,11,129,237,1
0019 473E 15 28 50             		  .db 21,40,80,254,32,63,72,71,24,69,10,84,142,64,35,189,71,181,255,58,21,138,133,130,129,85,191,76,1,131,56,45,0,238,44,255,42,195,255,159,237,254,15,160,85,10,225,96,119,27,71,190,189,156,255,222,31,221,186,254,181,106,84,169,82
0020 477F A5 4B 0B             		  .db 165,75,11,245,226,84,255,43,87,186,127,239,93,250,125,88,113,114,254,213,195,163,0,247,254,13,205,29,61,255,109,235,255,237,37,255,239,50,255,238,254,6,254,253,50,206,157,245,242,112,145,240,244,226,252,99,204,224,199,128,214,192,4,26,12
0021 47C0 7B 1C 30             		  .db 123,28,48,231,241,7,240,255,15,124,63,56,186,184,97,121,130,6,250,255,189,2,255,34,208,66,130,253,148,248,241,238,231,254,30,224,40,87,172,255,115,207,63,253,171,254,129,119,31,116,67,133,60,189,54,255,173,97,255,5,238,200,191,128,29
0022 4801 BF 1B BB             		  .db 191,27,187,64,55,247,30,231,242,255,121,122,119,183,91,171,10,249,20,139,71,163,83,254,234,161,80,160,237,187,139,254,12,107,62,242,0,224,23,194,123,12,96,224,192,110,152,73,242,15,241,255,217,122,253,22,63,81,254,255,247,234,142,159,28
0023 4842 8F 7C 0C             		  .db 143,124,12,222,126,0,204,128,47,184,16,160,171,191,150,33,253,163,1,20,251,31,11,10,76,255,74,138,128,254,230,255,250,1,86,237,246,227,0,63,157,178,253,87,172,81,5,7,0,111,158,4,3,251,16,235,11,90,154,130,216,90,170,132,207
0024 4883 E7 8B 5B             		  .db 231,139,91,155,254,64,165,3,176,81,251,163,0,133,29,76,223,255,45,21,138,69,162,127,88,189,39,153,254,27,6,165,64,255,32,35,255,16,190,235,242,238,235,231,119,169,80,168,105,248,149,212,127,106,10,6,128,5,241,2,248,0,223,176,71
0025 48C4 03 F8 89             		  .db 3,248,137,1,32,217,7,80,60,193,8,17,238,16,57,95,191,9,127,112,116,26,118,60,6,124,246,247,125,23,20,38,255,148,253,149,5,21,60,247,244,7,240,247,90,248,211,228,125,113,30,5,168,173,252,45,225,15,240,206,234,3,166,160,21
0026 4905 EF 5F 2D             		  .db 239,95,45,106,94,250,17,42,81,139,254,17,2,10,157,196,229,213,44,12,157,176,0,88,2,0,73,1,252,11,99,59,6,32,253,59,209,231,240,170,178,201,209,246,68,173,34,107,211,36,4,67,25,238,25,132,191,9,224,232,225,143,237,13,31
0027 4946 EC EF 1F             		  .db 236,239,31,47,40,123,255,41,42,112,253,14,232,47,192,69,238,93,225,178,0,19,139,215,255,20,253,119,128,63,192,31,64,251,4,11,21,160,5,187,254,1,16,251,168,20,0,221,238,223,255,237,218,53,234,213,166,42,254,202,21,16,209,10,61
0028 4987 2E 1D 3A             		  .db 46,29,58,61,44,254,117,19,203,0,76,5,243,255,48,215,15,138,162,64,245,0,80,2,240,249,58,248,54,194,192,144,235,146,196,1,163,209,69,32,194,152,249,194,252,255,76,1,226,234,127,10,26,216,223,31,95,80,115,255,81,82,161,84,253
0029 49C8 F8 E5 D0             		  .db 248,229,208,223,0,237,217,252,219,7,80,51,180,0,235,255,139,148,250,236,254,111,142,168,129,42,1,228,254,170,35,110,129,59,240,128,46,233,230,93,255,173,86,43,149,74,165,82,169,119,132,254,96,177,251,0,192,17,113,255,213,202,197,132,110
0030 4A09 FE 82 CB             		  .db 254,130,203,7,200,193,192,140,212,36,222,57,198,228,165,194,224,193,201,219,208,243,20,146,238,32,253,116,248,194,218,255,65,1,154,187,191,194,196,200,136,249,228,43,67,222,102,180,197,208,68,179,148,221,182,237,100,173,158,212,15,203,120,243,203
0031 4A4A D6 CC D2             		  .db 214,204,210,9,254,201,0,128,136,193,97,254,21,108,0,95,98,96,120,17,255,11,139,152,0,31,166,0,7,233,0,129,250,0,96,126,152,0,31,166,0,7,233,0,129,250,0,96,126,152,0,31,166,0,7,233,0,129,250,0,96,126,152,0,31
0032 4A8B A6 00 07             		  .db 166,0,7,233,0,129,250,0,96,126,152,0,31,169,0,3,255,217,171,83,104,254,211,56,3,11,209,35,48,59,51,81,248,17,255,244,228,252,228,129,187,251,28,13,123,115,195,255,240,243,75,255,19,148,255,147,253,120,247,157,240,235,115,131,5
0033 4ACC DD 64 BB             		  .db 221,100,187,172,11,163,187,135,255,176,131,123,70,234,121,254,201,174,115,249,98,44,254,235,211,176,252,87,91,254,80,12,0,255,84,178,245,144,254,106,124,169,4,0,68,109,208,216,235,227,40,217,250,32,16,252,159,136,254,118,170,221,223,3,255
0034 4B0D E0 E3 E8             		  .db 224,227,232,225,237,199,13,210,108,111,255,104,246,255,105,106,80,253,252,12,111,96,227,238,112,127,255,1,126,3,84,234,53,42,198,21,154,253,138,77,174,69,128,118,204,255,0,119,1,191,192,21,174,77,154,85,226,186,53,106,109,234,213,159,146
0035 4B4E 0A F0 FF             		  .db 10,240,255,31,128,131,183,163,227,215,166,87,50,158,121,93,255,247,235,44,186,73,234,246,96,170,254,110,0,179,168,16,235,181,126,86,32,0,160,5,67,105,210,63,2,226,34,137,3,249,48,242,192,236,110,128,254,188,200,152,1,226,234,255,10
0036 4B8F 02 18 F8             		  .db 2,24,248,5,197,69,149,108,255,199,37,69,159,133,250,117,197,53,245,248,199,63,255,248,7,214,4,75,174,64,13,167,173,255,160,29,224,237,31,240,10,152,236,84,169,25,171,83,15,243,174,77,128,159,1,93,225,136,87,95,2,23,222,125,254
0037 4BD0 6C E1 FC             		  .db 108,225,252,69,11,5,31,55,191,141,146,251,18,254,19,5,197,0,80,152,235,131,90,171,226,0,168,64,225,128,135,73,7,251,226,192,2,1,220,3,17,217,2,15,20,79,8,251,231,1,193,209,199,197,213,250,21,20,16,28,3,252,231,130,72
0038 4C11 04 44 FD             		  .db 4,68,253,68,253,199,36,68,159,132,250,23,240,7,247,39,253,76,193,63,217,224,21,14,172,168,6,86,144,255,88,189,120,7,252,1,150,146,253,21,226,188,23,162,84,6,223,242,96,20,44,45,22,60,125,74,245,255,14,5,138,1,158,96,136
0039 4C52 64 FF F6             		  .db 100,255,246,50,77,255,239,253,117,130,185,0,159,248,2,173,57,80,2,40,248,20,192,255,1,254,33,132,44,10,192,251,48,114,28,96,101,253,120,4,60,234,131,163,139,171,107,43,250,234,255,232,233,48,4,1,101,2,64,2,255,254,254,7,116
0040 4C93 83 77 F7             		  .db 131,119,247,224,31,189,253,252,178,130,29,170,84,1,171,61,255,174,129,63,128,147,255,232,42,197,120,47,218,69,168,0,245,198,8,16,238,197,175,127,8,16,191,14,206,137,121,128,152,132,247,247,79,247,254,239,85,171,96,170,0,103,254,2,82
0041 4CD4 0A 73 13             		  .db 10,115,19,17,32,64,3,46,19,142,31,248,1,22,30,20,8,152,40,206,95,96,191,62,128,95,182,32,15,1,43,235,8,224,1,193,228,127,196,193,56,144,6,241,244,182,4,95,255,36,232,253,224,205,189,253,10,100,129,149,79,255,87,192,31
0042 4D15 D8 EF 07             		  .db 216,239,7,248,2,125,238,138,241,94,139,81,179,225,92,40,230,14,72,172,205,247,229,2,191,40,254,190,248,244,2,119,15,85,175,95,187,96,173,230,0,127,224,2,169,235,5,2,226,44,243,28,8,4,250,160,195,16,138,64,242,132,1,8,21
0043 4D56 16 78 BA             		  .db 22,120,186,191,94,254,7,71,23,137,255,239,12,255,3,254,63,124,129,16,128,1,20,97,91,233,170,121,247,61,255,7,118,193,55,175,182,253,129,42,237,164,128,21,223,254,241,80,7,126,1,143,234,21,226,60,229,23,34,20,227,163,225,162,1
0044 4D97 E5 80 41             		  .db 229,128,65,79,11,239,255,195,119,39,3,185,207,247,127,235,191,87,175,227,8,48,90,227,0,59,253,2,84,106,0,56,16,32,128,252,62,240,4,132,28,2,68,47,226,9,123,3,128,12,245,160,92,2,254,246,2,231,1,127,219,2,130,218,136
0045 4DD8 80 99 04             		  .db 128,153,4,95,254,1,167,58,250,244,131,127,246,253,240,5,225,168,16,129,10,2,150,72,226,163,253,203,73,58,253,64,128,105,254,160,80,254,81,255,168,17,40,16,252,204,243,203,204,255,253,9,188,238,138,67,126,107,0,223,186,76,221,23,76
0046 4E19 FE E5 F1             		  .db 254,229,241,21,116,4,112,5,227,239,3,140,124,60,25,1,24,28,248,3,6,96,108,4,191,48,24,225,254,1,159,238,234,252,15,143,47,75,255,32,103,19,18,8,26,208,2,24,248,189,52,241,16,28,154,6,250,20,126,255,148,212,231,240,115
0047 4E5A 81 B7 1D             		  .db 129,183,29,168,62,254,0,249,248,252,37,224,46,225,128,99,253,4,136,119,8,20,40,49,254,21,42,155,251,227,8,76,249,32,48,157,255,245,11,159,235,253,87,168,80,175,194,95,191,128,171,88,232,54,32,0,213,250,10,130,5,8,247,14,1
0048 4E9B 03 0C 19             		  .db 3,12,25,37,55,32,41,227,40,238,3,205,32,151,4,255,57,1,14,46,174,255,236,160,128,182,245,255,180,204,251,54,246,124,6,254,115,253,62,253,192,247,251,253,126,0,160,169,28,254,253,113,35,247,192,238,220,16,168,254,6,240,224,255,83
0049 4EDC 52 A4 82             		  .db 82,164,130,26,128,157,164,65,162,69,62,254,80,224,144,8,30,237,251,22,251,119,234,93,99,111,6,212,0,106,30,53,21,128,99,15,80,68,250,133,248,152,59,102,192,2,254,78,124,87,32,8,224,252,207,237,251,1,31,28,93,158,92,255,64
0050 4F1D 02 50 6E             		  .db 2,80,110,255,94,50,255,223,248,222,223,15,240,255,197,7,248,95,215,228,0,189,190,255,6,151,171,227,5,112,126,255,14,240,253,251,7,32,85,255,34,213,66,229,162,232,223,220,143,60,0,236,168,5,160,140,31,248,254,82,165,83,167,253,75
0051 4F5E 9D 4F 9F             		  .db 157,79,159,47,85,183,172,238,234,27,208,0,181,126,90,8,1,0,16,2,239,28,200,71,184,255,253,5,0,13,16,14,87,224,249,30,15,96,124,13,65,209,1,252,37,193,1,133,227,65,3,40,233,168,175,255,47,102,32,248,239,85,192,220,228
0052 4F9F FD E7 03             		  .db 253,231,3,220,223,255,31,128,104,169,41,241,237,254,32,255,127,138,64,159,123,94,253,187,194,251,106,3,128,0,44,233,88,109,185,168,2,159,5,254,11,29,254,253,216,126,117,52,160,0,90,204,5,2,20,101,188,40,6,8,15,4,38,1,160
0053 4FE0 0F 80 52             		  .db 15,128,82,191,8,208,1,130,231,79,4,254,6,23,63,56,227,186,184,187,243,131,7,116,255,119,113,255,156,248,117,184,9,254,255,128,222,31,160,123,247,61,239,183,163,2,126,196,190,26,222,63,6,16,170,167,17,254,0,248,206,144,207,255,182
0054 5021 55 02 B5             		  .db 85,2,181,142,126,171,255,21,100,226,254,1,32,5,37,7,0,219,236,155,168,254,84,6,207,200,0,165,109,252,4,0,5,192,10,232,235,224,80,136,159,47,10,16,192,4,104,255,20,8,32,224,0,240,230,6,239,216,223,7,12,1,47,130,2
0055 5062 A2 D8 13             		  .db 162,216,19,163,219,254,35,64,254,135,15,28,59,1,20,42,135,41,47,48,63,31,15,128,255,79,175,71,0,1,34,81,162,56,254,80,9,80,169,60,161,0,17,168,224,24,21,162,248,10,64,32,133,211,144,16,74,242,164,80,169,82,14,35,44
0056 50A3 0C C1 AD             		  .db 12,193,173,0,210,231,42,173,1,0,130,84,17,84,71,108,240,247,131,253,242,192,252,14,18,15,224,245,165,237,123,3,127,120,140,122,86,255,182,32,8,5,60,254,146,10,252,216,115,35,20,170,48,80,88,21,10,160,239,187,31,206,40,0,254
0057 50E4 16 11 2A             		  .db 22,17,42,181,18,41,140,20,255,191,222,204,255,30,78,254,8,128,103,78,21,82,40,80,191,32,76,92,73,255,165,249,98,37,34,117,210,252,94,96,190,10,155,244,136,68,76,241,19,30,5,38,191,251,255,142,93,254,223,254,190,213,14,247,47
0058 5125 04 02 D3             		  .db 4,2,211,47,248,176,244,28,3,64,126,95,99,123,224,255,139,159,31,63,251,63,129,220,111,54,245,24,77,135,67,235,34,216,57,154,48,114,255,240,61,255,131,123,255,85,138,222,4,136,126,118,19,114,0,12,28,173,24,227,253,148,136,86,72
0059 5166 9D 63 87             		  .db 157,99,135,96,150,229,55,93,84,168,245,107,116,105,78,2,64,40,111,2,20,206,232,4,14,15,155,39,3,248,31,131,55,15,7,238,184,239,140,129,1,249,252,100,225,134,142,252,254,127,255,127,223,59,197,198,251,255,0,49,96,192,142,10,53
0060 51A7 2A 7E FF             		  .db 42,126,255,36,43,24,231,255,1,221,104,255,245,13,1,241,31,168,139,192,244,224,255,232,225,241,251,255,193,164,0,255,71,250,16,148,8,255,76,227,68,10,22,108,21,43,185,165,97,49,160,153,239,205,5,128,4,8,140,0,228,24,60,31,146
0061 51E8 F0 E0 99             		  .db 240,224,153,248,206,207,255,253,236,125,254,240,56,183,238,51,32,127,1,16,160,224,136,204,95,214,249,220,1,255,63,192,254,58,251,128,223,255,2,13,135,66,95,2,175,81,226,2,224,255,90,123,63,255,3,0,252,63,64,128,192,85,168,49,255
0062 5229 07 E3 0F             		  .db 7,227,15,218,127,24,255,52,159,0,102,101,191,69,94,33,140,4,183,115,42,108,254,113,235,161,245,179,0,2,64,227,34,65,40,34,233,175,252,50,49,4,170,55,39,84,81,253,63,31,218,6,7,43,188,72,235,180,255,225,28,2,242,71,254
0063 526A F3 FF 9E             		  .db 243,255,158,243,253,228,128,18,125,47,49,96,202,212,132,10,28,9,189,230,171,80,0,1,167,209,255,160,29,207,252,182,181,170,29,11,80,232,227,116,186,124,94,125,254,3,250,245,251,235,215,175,95,63,6,2,0,246,39,160,64,227,254,18,239
0064 52AB 06 18 04             		  .db 6,24,4,7,196,6,28,117,92,0,254,164,69,67,1,155,250,35,34,222,227,192,16,32,64,127,22,232,61,233,120,226,195,219,224,16,52,205,64,16,255,63,211,35,28,64,7,57,22,79,190,230,176,239,19,35,250,2,184,65,250,148,189,160,193
0065 52EC 98 FF 2C             		  .db 152,255,44,118,252,103,239,171,87,0,174,84,253,41,83,43,19,39,23,236,254,31,143,127,223,221,193,195,30,199,60,207,118,9,95,0,94,45,214,2,69,8,140,37,235,174,16,163,108,233,106,168,18,40,229,49,170,149,169,107,80,240,91,63,17
0066 532D 79 00 27             		  .db 121,0,39,16,131,252,49,187,213,54,159,176,75,175,223,246,199,234,191,192,113,1,111,231,128,32,252,242,126,219,226,248,251,1,162,0,67,123,254,53,104,212,164,74,149,106,210,139,48,152,172,255,254,145,148,241,20,212,131,180,84,99,254,144,22
0067 536E DF 00 E7             		  .db 223,0,231,136,155,153,79,207,130,193,215,224,240,6,191,96,179,251,0,64,255,39,4,248,134,66,162,65,161,196,8,246,246,6,16,40,77,203,117,229,51,235,107,253,2,40,0,160,188,252,21,32,20,191,127,108,159,140,65,126,205,235,195,11,1
0068 53AF D3 AE 03             		  .db 211,174,3,0,255,183,4,17,251,243,248,127,255,249,75,31,238,219,222,108,49,27,253,142,133,66,161,83,226,221,148,82,183,241,186,187,3,252,153,18,131,159,84,198,15,14,124,120,30,112,95,255,72,224,248,229,7,131,39,89,0,204,254,84,40
0069 53F0 BF FE 22             		  .db 191,254,34,108,59,236,2,193,227,240,218,162,1,89,236,249,214,248,224,176,193,226,192,56,1,205,205,122,6,234,71,50,64,94,222,133,144,164,248,80,159,83,191,126,159,1,223,129,30,95,246,0,6,3,161,69,242,48,95,224,198,209,1,127,227
0070 5431 00 D5 D2             		  .db 0,213,210,118,214,149,146,139,254,144,216,255,212,214,243,215,255,7,255,159,95,63,127,191,223,15,231,189,203,255,215,82,241,176,127,93,227,0,144,254,0,155,232,61,188,242,246,205,132,211,128,13,2,68,180,127,15,144,12,246,121,243,217,227,95
0071 5472 FF 9F 76             		  .db 255,159,118,254,240,248,204,1,129,128,99,255,1,218,21,40,160,254,32,127,72,71,24,69,10,84,64,30,5,255,127,38,53,26,141,134,131,129,0,160,191,1,48,56,128,165,238,255,42,152,255,115,237,254,15,255,80,170,5,96,119,27,160,190,30
0072 54B3 9C F4 FF             		  .db 156,244,255,222,127,221,186,181,106,92,239,119,217,248,26,223,199,247,135,220,143,31,255,216,63,127,116,0,91,254,119,24,2,174,23,6,223,245,119,71,215,102,138,133,23,132,130,53,238,3,180,4,235,238,135,222,231,240,91,189,239,195,24,171,213
0073 54F4 82 80 18             		  .db 130,128,24,230,255,6,250,255,2,61,226,144,255,148,2,241,238,255,254,30,224,15,160,87,172,115,253,207,63,252,3,254,129,83,202,67,60,10,189,108,255,173,194,255,11,238,191,175,128,252,149,27,187,64,55,247,123,231,211,255,239,255,119,255,183
0074 5535 5B AB 54             		  .db 91,171,84,43,148,203,231,165,243,255,241,118,223,252,201,48,255,231,173,213,62,6,211,223,48,101,226,193,2,21,92,17,26,168,190,238,196,255,245,6,145,1,4,196,21,183,199,231,241,7,51,127,6,59,15,13,0,40,1,99,20,251,246,11,10
0075 5576 CA 43 FF             		  .db 202,67,255,10,250,149,1,237,61,231,0,63,167,126,178,87,172,81,0,7,79,254,255,4,3,16,252,235,11,26,90,138,202,105,74,254,142,10,27,218,210,203,219,126,255,192,234,229,240,241,227,23,133,29,76,123,255,45,149,242,202,229,242,249,26
0076 55B7 C1 5F BF             		  .db 193,95,191,0,20,128,144,130,64,255,66,68,74,36,170,101,162,85,141,146,178,128,73,236,59,32,77,251,174,10,126,254,0,64,8,4,128,235,63,32,80,22,8,191,160,124,192,220,120,248,253,251,246,62,211,198,192,174,193,241,166,6,255,246,247
0077 55F8 3F 17 14             		  .db 63,23,20,148,183,149,109,255,21,244,41,190,1,219,254,0,223,190,168,173,31,45,225,204,15,240,234,3,250,168,161,10,85,106,227,144,183,197,49,142,59,175,239,127,31,191,95,209,15,215,255,119,9,190,126,176,254,92,222,0,68,160,102,254,65
0078 5639 FE 00 E9             		  .db 254,0,233,98,138,73,168,88,162,190,215,6,31,244,210,244,232,191,254,192,255,243,56,116,131,98,231,213,154,23,239,255,247,250,253,102,5,186,1,8,1,13,99,255,236,239,168,89,240,43,14,255,232,47,192,232,27,230,18,0,32,180,159,36,20
0079 567A 77 80 3F             		  .db 119,128,63,192,191,31,204,238,223,84,147,160,119,218,221,238,191,255,237,218,53,234,213,43,227,215,47,223,199,63,93,25,233,51,39,7,255,15,176,159,79,251,0,58,78,136,227,29,58,19,106,162,90,80,183,2,208,6,31,108,59,129,61,95,253
0080 56BB 01 3F DF             		  .db 1,63,223,15,103,7,113,240,204,1,2,10,231,255,26,216,85,95,80,30,87,200,114,255,208,223,0,237,236,237,252,7,80,211,180,235,255,139,148,250,236,254,111,134,168,188,131,5,62,255,130,145,34,64,46,250,127,230,93,173,86,171,213,234,245
0081 56FC DD FA FD             		  .db 221,250,253,230,253,10,158,249,125,108,28,10,211,254,139,118,76,235,148,237,1,205,240,8,252,20,181,35,32,1,113,31,30,28,68,23,15,24,45,253,154,236,2,26,86,255,24,205,114,244,14,144,255,145,0,241,154,0,253,108,180,192,5,16,4
0082 573D 4E 1D 01             		  .db 78,29,1,30,140,237,147,158,69,164,7,251,48,71,163,4,179,129,29,31,96,182,255,106,0,176,0,61,140,255,88,0,192,253,48,0,63,76,0,15,211,0,3,244,0,192,253,48,0,63,76,0,15,211,0,3,244,0,192,253,48,0,63,76,0
0083 577E 0F D3 00             		  .db 15,211,0,3,244,0,192,253,48,0,63,76,0,15,211,0,3,244,0,192,253,83,0,16,245,168,80,102,12,254,238,8,89,32,251,162,128,248,24,250,245,224,159,240,152,160,248,176,198,208,168,178,128,148,190,240,255,143,16,144,100,36,255,16,240
0084 57BF F1 EB 70             		  .db 241,235,112,128,248,194,21,146,172,238,8,160,184,122,255,0,56,128,120,51,234,212,254,0,209,142,112,27,6,243,255,69,0,10,37,56,84,249,148,254,152,42,90,4,182,68,207,27,40,192,228,26,249,254,239,175,251,253,209,247,123,30,21,42,186
0085 5800 EC 08 01             		  .db 236,8,1,13,105,255,108,111,255,104,30,107,200,115,255,104,111,96,238,112,143,127,1,255,126,3,84,234,53,42,21,154,27,138,77,247,174,69,128,118,48,255,0,119,6,255,192,21,174,77,154,85,186,53,137,106,234,182,213,127,146,10,240,255,31
0086 5841 80 B7 F7             		  .db 128,183,247,131,244,241,31,243,255,96,218,255,55,129,21,125,2,150,2,76,237,84,32,93,160,5,51,231,4,2,252,3,129,34,1,254,208,251,139,247,131,15,3,131,242,52,100,1,2,10,255,79,24,248,245,253,26,133,62,101,229,200,127,255,133
0087 5882 75 C5 35             		  .db 117,197,53,245,199,63,227,255,248,7,89,4,46,174,64,13,173,159,255,160,29,224,31,240,182,10,96,236,84,169,112,171,83,166,60,174,77,128,159,199,1,221,241,223,211,195,199,236,207,27,206,0,253,49,80,150,2,94,239,0,109,168,64,191,177
0088 58C3 1C C0 E6             		  .db 28,192,230,252,24,142,255,127,251,212,254,240,128,176,71,237,16,4,20,64,255,177,28,227,220,188,226,252,61,254,227,228,236,53,121,255,23,240,7,247,253,62,211,193,63,224,21,200,116,172,168,6,86,255,133,88,120,236,7,252,1,207,254,148,226
0089 5904 BC B7 F6             		  .db 188,183,246,254,255,193,216,255,196,127,2,5,226,0,80,2,237,32,20,127,23,30,255,192,243,55,207,63,255,251,126,23,159,191,239,223,131,1,120,235,32,8,40,104,194,252,152,144,38,60,156,207,190,239,253,247,223,231,219,254,228,255,254,135,116
0090 5945 FA 83 77             		  .db 250,131,119,247,224,31,246,253,252,130,200,116,170,84,1,171,255,246,174,129,63,128,79,254,232,42,197,120,111,237,186,169,193,224,255,196,63,2,2,94,10,23,17,32,140,64,93,25,239,252,20,105,212,230,255,208,232,48,224,0,128,1,129,219,64
0091 5986 21 08 01             		  .db 33,8,1,255,159,224,25,227,34,32,255,60,231,255,63,241,7,247,244,220,5,4,6,111,232,253,224,205,188,253,223,203,18,64,153,167,255,87,192,31,247,216,7,248,2,191,238,138,241,222,219,251,255,96,248,255,103,255,2,1,0,175,5,157,254
0092 59C7 FA 04 08             		  .db 250,4,8,63,250,160,16,184,220,194,255,226,94,219,250,127,123,247,62,63,230,128,10,166,1,234,64,16,60,80,128,254,23,12,3,255,255,127,124,135,28,144,1,16,49,255,241,102,72,143,14,126,190,247,198,252,238,23,244,228,62,254,135,118,193
0093 5A08 37 D7 DB             		  .db 55,215,219,253,129,42,118,164,128,21,239,248,254,80,7,126,1,199,234,21,226,230,60,55,54,172,127,59,7,195,0,59,229,2,34,221,33,90,6,119,167,250,20,248,48,7,252,186,106,191,247,255,103,79,117,175,71,14,127,174,2,64,66,2,144
0094 5A49 93 0A E1             		  .db 147,10,225,241,2,255,130,143,129,193,192,14,56,243,137,2,252,204,127,195,217,231,85,208,243,96,244,52,224,250,26,131,127,246,253,240,5,225,168,16,129,10,2,150,72,194,163,253,197,73,52,253,192,255,142,224,236,209,189,249,255,131,167,153,246
0095 5A8A 80 02 17             		  .db 128,2,23,87,242,192,2,107,194,6,93,127,27,8,194,143,131,251,157,237,207,7,1,119,4,128,208,32,160,254,42,68,79,229,64,254,146,14,26,252,27,24,68,192,227,4,95,120,32,157,60,241,30,19,31,53,189,63,28,20,23,219,226,228,7
0096 5ACB 00 03 C0             		  .db 0,3,192,100,253,113,184,169,196,204,253,12,140,97,111,60,75,255,63,255,51,236,2,31,199,0,96,130,5,134,8,212,22,125,27,88,226,182,188,34,220,191,125,253,252,222,96,0,169,234,198,255,125,209,182,29,133,168,255,82,24,64,130,212,128
0097 5B0C C7 DC C3             		  .db 199,220,195,231,255,96,65,39,0,42,35,21,128,135,64,80,108,93,241,56,76,243,127,226,238,159,0,223,119,31,3,29,163,236,65,64,70,255,27,219,143,192,64,198,224,160,12,39,107,140,5,160,101,227,248,167,87,251,175,79,159,95,191,35,150
0098 5B4D F0 3F 0D             		  .db 240,63,13,233,0,21,6,196,8,1,128,16,34,244,90,64,224,254,32,216,126,227,249,80,56,97,176,5,129,198,69,8,79,1,31,123,94,253,225,187,251,106,1,0,88,158,44,142,80,254,189,237,3,143,7,15,200,28,34,249,1,48,105,93,0
0099 5B8E 0A EB 3B             		  .db 10,235,59,20,248,8,159,252,32,198,168,243,224,191,220,240,123,221,251,254,176,24,70,63,130,128,140,255,16,169,134,85,218,2,84,248,140,175,254,173,134,147,226,254,126,5,0,104,2,135,159,192,224,199,240,248,216,252,254,54,125,0,90,18,2
0100 5BCF 42 06 B9             		  .db 66,6,185,160,98,80,133,136,128,255,66,138,145,155,247,171,215,231,254,223,31,51,12,25,49,6,193,48,1,6,17,168,112,144,21,162,60,10,64,160,133,105,208,16,249,234,244,240,249,250,13,199,253,254,96,237,223,0,130,0,168,1,33,0,68
0101 5C10 54 6F CA             		  .db 84,111,202,48,3,89,253,13,102,75,130,228,77,194,83,254,23,253,214,56,207,255,57,60,61,62,29,218,254,29,131,222,24,253,4
0155 5C33                      		level5:
0156 5C33                      		.include "graph/level5.inc"
0002 5C33 00 8F 80             		  .db 0,143,128,135,241,208,143,163,155,124,148,191,252,240,255,254,192,236,248,120,188,176,178,220,130,0,255,188,6,250,131,222,56,250,7,140,98,240,192,227,5,110,255,143,1,192,63,254,195,128,130,2,152,255,241,0,46,211,163,190,198,183,200,208,64
0003 5C74 D6 84 E7             		  .db 214,132,231,47,112,198,50,192,255,76,128,161,176,171,224,12,120,241,251,254,126,127,176,63,255,6,207,252,248,162,251,224,236,62,185,199,31,99,255,60,247,194,253,119,253,111,191,95,171,85,170,187,254,234,149,161,106,254,248,96,214,254,227,0,29
0004 5CB5 0E 71 3C             		  .db 14,113,60,63,61,133,143,15,51,23,27,31,32,255,120,159,63,29,255,28,223,222,95,110,156,110,254,20,238,63,124,255,103,253,255,190,248,28,111,155,252,189,30,206,195,191,73,254,248,190,245,209,255,30,28,243,206,49,57,126,194,2,255,177,79
0005 5CF6 FF FD AF             		  .db 255,253,175,127,15,143,4,95,95,191,63,223,139,29,31,144,159,240,98,251,126,240,236,0,24,3,48,112,215,27,7,134,230,55,239,99,194,123,48,158,247,249,172,216,125,230,189,127,173,84,154,118,222,253,95,249,96,220,0,141,1,40,252,192,144
0006 5D37 82 62 E0             		  .db 130,98,224,48,72,128,246,129,143,40,6,13,225,163,235,31,32,3,255,29,7,57,238,240,207,255,255,127,67,63,149,168,95,213,255,175,111,33,157,189,125,231,252,150,24,205,190,231,95,20,106,245,255,131,73,204,129,40,152,96,144,252,24,19,76
0007 5D78 1E 38 1C             		  .db 30,56,28,15,224,108,246,124,255,126,251,27,81,249,216,56,248,243,128,204,152,192,204,224,19,230,238,32,3,11,221,236,175,85,171,77,118,250,131,183,186,54,254,245,13,239,0,224,126,219,255,31,223,243,224,127,222,247,227,251,124,235,240,208,191
0008 5DB9 FA 3E FF             		  .db 250,62,255,110,31,227,204,191,112,229,128,96,167,30,228,61,55,220,31,0,13,175,2,129,240,3,255,59,63,254,184,240,0,216,80,196,132,168,152,217,2,48,208,36,221,248,246,1,231,227,2,18,244,36,5,25,164,242,255,14,2,76,249,93,62
0009 5DFA 07 3D FF             		  .db 7,61,255,23,41,97,183,237,231,255,253,139,63,157,193,251,118,108,8,98,141,2,239,213,235,249,95,6,246,0,91,111,124,97,95,51,223,55,52,0,243,224,18,3,7,255,15,255,6,211,30,230,223,174,255,248,255,39,217,103,57,31,63,0,28
0010 5E3B B9 03 1E             		  .db 185,3,30,192,28,40,8,241,136,64,254,198,240,230,231,223,244,254,60,238,95,246,214,255,159,193,247,191,143,252,125,253,200,234,240,16,192,36,220,236,218,48,4,251,239,17,32,141,64,80,231,168,252,255,255,250,125,133,253,245,198,234,213,8,68
0011 5E7C FA 62 8E             		  .db 250,98,142,122,234,255,83,40,62,171,87,174,93,3,43,199,0,206,122,165,150,90,254,11,136,0,64,255,52,191,217,156,248,19,255,246,255,13,107,231,235,240,252,238,255,137,188,232,245,192,254,217,219,221,64,176,12,122,32,128,20,240,120,192,127
0012 5EBD 10 38 CF             		  .db 16,56,207,231,88,255,174,87,170,128,131,252,223,241,199,127,63,248,255,191,1,11,159,48,3,248,13,243,207,95,192,49,142,45,252,192,235,255,187,248,176,242,224,217,111,255,7,31,127,255,175,239,134,217,217,255,221,2,117,202,127,128,42,245,114
0013 5EFE A9 74 AB             		  .db 169,116,171,117,215,186,125,62,167,215,170,245,175,213,220,0,110,243,127,246,207,2,168,193,112,0,183,47,136,23,15,3,254,13,11,18,32,1,6,39,0,224,127,7,23,15,31,189,47,127,255,246,255,123,238,143,126,252,249,255,248,241,129,0,128
0014 5F3F 60 B8 5C             		  .db 96,184,92,182,171,239,209,104,15,226,143,227,179,227,75,171,80,121,3,35,130,1,14,225,160,129,128,103,162,33,23,131,132,18,3,213,11,32,29,239,249,26,132,2,18,198,96,50,255,106,113,126,35,94,103,150,175,227,151,191,157,116,215,218,213
0015 5F80 FE E3 55             		  .db 254,227,85,234,69,103,101,50,254,225,48,141,224,234,180,53,83,254,235,252,106,247,27,244,110,198,218,117,137,245,189,11,181,223,215,175,213,203,225,97,5,254,95,0,2,204,49,16,80,45,144,96,220,46,194,132,4,255,8,200,1,184,31,247,113
0016 5FC1 D7 8F FE             		  .db 215,143,254,119,250,133,230,123,172,87,31,4,77,245,250,253,186,94,209,249,143,127,191,95,43,104,72,254,122,31,15,126,92,94,51,248,46,167,89,175,95,248,63,94,27,174,74,245,232,160,253,65,148,82,12,1,32,58,174,120,104,228,236,216,255
0017 6002 7F FC 70             		  .db 127,252,112,1,234,217,117,235,15,254,85,3,53,50,141,49,1,224,56,57,52,126,8,25,16,17,80,81,126,254,18,5,142,85,174,50,96,252,117,138,13,109,241,42,44,46,36,183,32,41,35,255,40,192,42,115,254,34,37,114,254,170,22,138,5
0018 6043 42 FE E8             		  .db 66,254,232,53,18,21,254,88,246,33,154,0,62,255,25,24,27,30,70,127,249,161,32,162,169,172,94,252,215,79,223,77,195,66,111,102,163,45,175,239,55,174,53,99,254,181,170,80,171,252,47,245,202,80,233,252,81,225,65,193,1,33,41,161,253
0019 6084 38 FE 5A             		  .db 56,254,90,162,194,227,170,82,113,168,18,34,133,239,2,0,65,255,254,37,8,4,230,32,2,64,245,192,41,254,105,128,194,113,130,1,190,5,194,69,202,197,115,254,74,133,254,10,204,132,8,254,20,75,16,103,254,0,20,2,108,254,129,4,5
0020 60C5 7A FE 85             		  .db 122,254,133,141,252,57,181,170,184,84,254,193,99,248,0,242,220,188,4,6,14,124,31,63,124,191,158,238,88,25,42,79,254,89,254,64,1,68,252,5,4,192,6,198,142,92,132,12,127,77,0,85,10,110,254,68,226,254,255,34,128,45,44,146,5
0021 6106 00 10 8B             		  .db 0,16,139,1,144,15,194,8,31,208,40,26,80,22,0,1,101,77,64,9,28,254,8,255,68,107,149,122,191,247,239,251,248,243,156,237,255,190,194,255,120,232,192,130,97,223,254,178,253,119,252,80,198,160,64,248,74,173,10,69,170,217,234,245,231
0022 6147 C0 FA 5D             		  .db 192,250,93,217,64,42,28,0,228,168,0,5,9,59,80,5,255,98,0,5,7,173,71,34,122,175,124,68,86,63,240,231,221,183,92,254,248,202,192,154,96,189,62,8,115,254,64,168,115,254,208,232,201,240,248,252,79,27,2,5,228,130,10,9,254
0023 6188 53 FC 49             		  .db 83,252,73,198,201,74,143,202,168,48,253,41,188,165,173,74,137,97,126,128,208,120,148,192,191,75,129,255,250,112,182,221,50,239,205,121,3,229,251,219,255,191,115,7,238,252,41,159,157,253,43,253,236,252,199,124,80,165,10,241,21,175,87,171,161
0024 61C9 2A 59 00             		  .db 42,89,0,91,0,235,160,0,21,182,152,130,11,134,0,215,52,7,48,127,56,102,224,248,249,227,243,91,162,101,87,191,24,128,228,132,197,4,133,8,17,40,10,120,81,98,94,61,207,0,124,120,1,53,240,84,168,191,20,55,125,191,223,141,255
0025 620A 8F FF F7             		  .db 143,255,247,127,30,38,155,0,153,65,245,5,3,2,1,224,254,129,19,28,9,255,35,77,64,196,160,1,56,159,241,63,255,199,127,247,207,47,91,167,79,39,15,71,15,129,61,127,77,255,95,63,44,147,253,129,122,167,226,168,2,81,175,108,27
0026 624B 80 15 67             		  .db 128,21,103,53,0,234,124,225,238,117,77,213,170,105,190,230,252,9,61,0,213,184,187,133,6,255,7,135,206,43,80,113,222,247,248,159,239,255,193,157,154,254,191,184,231,159,47,111,143,10,8,228,0,129,2,12,194,211,83,57,254,238,219,210,255
0027 628C C0 90 11             		  .db 192,144,17,98,117,114,112,176,227,146,211,159,254,62,127,121,248,243,194,58,220,187,4,72,8,229,1,107,176,197,251,241,237,234,107,213,191,123,125,253,183,254,200,190,20,141,212,45,209,160,199,8,224,130,192,4,194,85,125,179,93,195,153,229,252
0028 62CD C4 31 FE             		  .db 196,49,254,182,64,64,0,245,235,213,234,125,188,233,215,250,221,136,246,49,6,51,254,187,113,125,137,254,175,215,247,170,72,188,0,140,17,214,0,32,150,51,211,129,133,89,3,2,143,7,18,144,10,252,7,248,128,1,132,134,44,28,63,116,12
0029 630E 3F 14 04             		  .db 63,20,4,148,86,252,21,108,16,160,129,10,40,24,15,18,212,21,255,156,252,7,1,14,97,99,6,255,130,5,253,60,140,184,24,231,143,52,19,237,118,7,249,39,231,206,28,238,200,249,3,143,199,253,251,82,60,255,127,126,60,94,236,159,155
0030 634F 04 F5 4F             		  .db 4,245,79,121,37,247,248,255,243,27,15,31,127,110,183,254,31,253,222,7,250,101,35,60,26,36,245,188,232,117,239,48,176,2,52,111,124,0,221,239,93,250,223,74,119,233,202,192,8,1,107,207,189,202,123,231,223,127,113,63,127,175,251,8,197
0031 6390 2C BA 3C             		  .db 44,186,60,250,117,176,196,65,127,0,11,218,1,4,16,224,236,28,92,232,235,112,174,239,76,255,238,255,232,114,252,6,231,237,228,242,229,8,235,177,231,78,245,227,236,49,243,236,234,226,224,241,255,199,71,205,184,200,231,236,230,162,11,226,5
0032 63D1 20 FF E1             		  .db 32,255,225,78,224,251,227,228,99,252,229,133,224,0,199,255,225,8,80,72,229,37,247,192,206,144,210,165,221,249,226,30,153,197,207,237,234,254,224,233,226,48,254,229,64,112,178,153,249,136,225,192,55,196,250,10,207,166,52,206,104,147,230,228,209
0033 6412 5E D4 CA             		  .db 94,212,202,10,231,88,218,116,254,191,10,191,0,3,7,1,0,255,28,86,7,121,255,28,12,0,246,1,254,240,192,7,208,0,5,86,52,7,210,0,252,168,92,192,250,3,0,246,216,254,126,31,79,0,10,12,127,89,96,125,28,0,245,96,125
0034 6453 3D 00 D6             		  .db 61,0,214,245,249,246,129,244,0,150,192,248,7,222,241,0,223,31,172,127,15,190,199,0,127,96,125,254,0,248,108,246,15,15,188,227,0,236,252,176,62,152,0,21,25,22,178,7,223,88,0,31,185,0,246,172,234,242,236,7,210,0,129,192,253
0035 6494 CE 00 BF             		  .db 206,0,191,63,51,3,237,0,125,254,254,155,202,192,215,231,246,60,214,88,198,105,250,6,4,99,250,182,115,246,198,134,144,230,237,204,250,6,52,254,73,255,54,240,30,118,147,231,22,253,54,68,249,218,227,6,166,38,64,102,123,255,230,134,44
0036 64D5 D8 A2 FF             		  .db 216,162,255,11,180,230,140,54,81,255,217,16,254,198,112,17,244,228,255,233,184,182,148,140,179,242,255,108,235,86,166,24,221,254,167,87,160,207,0,229,119,207,15,63,255,13,253,63,31,7,137,61,95,235,223,255,254,176,240,127,158,255,123,247,191
0037 6516 9F FE 1F             		  .db 159,254,31,216,152,144,128,0,16,47,136,9,8,255,3,6,96,19,207,248,224,225,26,32,39,115,252,249,248,231,243,111,31,95,251,94,223,193,213,113,31,28,30,227,0,220,32,255,7,28,230,241,254,159,223,127,140,230,247,164,190,249,239,192,251
0038 6557 DE 9C FC             		  .db 222,156,252,220,251,253,3,234,143,10,238,9,245,241,239,248,191,247,179,251,127,242,3,229,222,221,255,217,163,145,253,191,141,127,95,150,175,108,13,79,254,32,48,129,0,199,132,192,139,193,78,255,8,12,68,54,13,73,11,28,230,135,207,231,109
0039 6598 C7 51 2F             		  .db 199,81,47,4,27,108,255,241,248,240,142,224,47,192,200,9,254,131,6,0,19,15,24,1,96,21,128,253,124,7,115,143,255,179,255,63,252,254,254,126,64,128,96,170,84,115,230,60,198,241,31,113,237,53,249,191,207,244,173,4,64,12,121,143,27
0040 65D9 EE A9 CE             		  .db 238,169,206,207,184,17,251,191,99,233,253,248,243,189,239,247,253,59,255,237,127,141,111,179,57,155,87,171,114,96,224,254,208,0,239,103,189,93,251,253,255,248,224,232,130,0,137,249,192,211,185,15,4,251,119,229,59,118,243,84,127,249,63,207,21
0041 661A C0 DA 68             		  .db 192,218,104,253,242,99,52,120,113,248,112,184,68,23,240,241,207,252,62,200,47,55,23,248,31,19,30,25,17,255,35,207,113,189,86,115,61,254,0,31,31,251,158,121,206,198,231,248,126,208,8,197,63,254,246,67,180,130,61,2,248,185,178,247,193
0042 665B 0E FD FE             		  .db 14,253,254,60,238,143,163,159,191,215,249,167,87,175,8,33,201,22,201,14,170,254,16,90,123,231,254,61,223,209,249,126,106,241,233,222,248,246,15,254,63,84,31,49,27,6,177,141,131,238,63,251,185,191,156,239,255,159,183,236,249,127,190,119,15
0043 669C 47 3F 8D             		  .db 71,63,141,123,188,248,126,252,192,128,0,221,224,120,174,170,61,138,23,159,16,144,231,146,131,240,255,112,32,241,64,160,86,170,191,2,0,112,224,16,200,141,48,216,249,13,246,233,28,122,234,227,242,251,250,116,253,255,175,148,76,0,215,174,176
0044 66DD CD 7C 7F             		  .db 205,124,127,254,67,225,103,99,229,183,251,93,110,30,111,255,47,77,248,25,31,215,15,7,241,239,43,231,227,6,221,127,248,91,107,157,223,191,254,221,95,12,174,5,192,46,121,241,63,247,241,183,99,242,248,226,195,3,2,187,243,93,211,59,213
0045 671E FE FA E0             		  .db 254,250,224,245,234,117,64,0,211,192,31,187,79,163,185,84,160,10,252,240,122,191,15,255,189,111,190,99,94,46,241,87,169,95,175,157,209,29,60,94,171,85,90,134,249,51,7,211,4,253,0,249,107,255,18,254,123,63,207,152,79,30,125,191,247
0046 675F BB BF F8             		  .db 187,191,248,0,255,32,136,57,56,111,124,226,128,3,231,224,248,7,239,251,31,3,103,255,15,127,230,27,63,59,3,159,15,188,55,3,141,12,14,252,27,45,95,47,91,169,247,54,221,170,93,146,254,179,175,188,51,159,0,223,128,83,188,69,233
0047 67A0 8C 05 0C             		  .db 140,5,12,254,76,218,132,77,51,254,168,72,254,169,255,104,137,106,129,98,141,68,133,59,254,64,161,204,130,8,39,0,6,3,207,151,111,44,251,1,253,251,127,56,17,3,1,2,238,200,222,62,8,64,224,161,55,240,243,248,10,242,1,244,231
0048 67E1 59 25 5D             		  .db 89,37,93,254,45,82,220,46,86,254,248,26,18,206,211,207,223,9,229,203,197,43,243,101,75,71,73,254,87,228,185,85,187,254,35,254,191,215,83,190,110,246,40,66,254,84,233,16,9,130,156,234,44,252,9,135,254,128,248,230,173,241,191,93,112
0049 6822 15 1F 3F             		  .db 21,31,63,143,195,243,241,244,224,31,136,128,29,3,0,134,64,52,129,120,131,255,7,135,231,227,160,248,224,165,202,197,74,216,10,149,218,21,138,110,254,8,16,82,254,40,254,32,113,254,17,33,160,41,66,42,114,254,10,231,254,145,138,69,181
0050 6863 8B 6E FE             		  .db 139,110,254,66,176,88,156,93,19,43,0,1,190,7,63,127,187,196,2,250,211,77,19,53,11,238,199,252,248,152,254,255,249,145,126,203,227,79,253,228,243,231,239,155,111,119,216,230,226,231,206,7,112,2,4,2,114,254,132,22,68,162,228,254,84
0051 68A4 2A D4 E8             		  .db 42,212,232,0,223,234,116,168,0,208,139,127,241,246,130,1,2,6,142,254,98,38,226,55,162,230,194,198,164,212,159,84,254,228,145,96,149,230,102,130,98,254,192,192,135,127,0,0,159,223,192,97,129,156,132,145,1,7,152,143,21,225,216,27,31
0052 68E5 F1 0F 67             		  .db 241,15,103,63,254,1,3,145,99,253,43,7,213,248,96,172,10,240,192,97,127,237,203,235,254,247,217,238,205,255,246,231,210,240,8,204,199,196,4,142,5,120,252,0,129,130,55,42,150,179,151,53,163,175,255,10,179,218,1,31,10,84,233,168,80
0053 6926 A0 C1 08             		  .db 160,193,8,250,111,245,127,223,183,222,180,31,239,99,201,223,8,151,254,221,238,181,234,20,186,33,33,245,48,125,127,0,15,6,1,24,14,121,57,193,236,152,252,13,247,223,175,179,220,248,79,246,96,48,192,164,249,255,58,122,243,250,248,224,236
0054 6967 FC 1F DD             		  .db 252,31,221,127,207,254,179,66,123,15,111,224,131,135,251,215,156,184,240,63,7,247,122,251,222,192,40,176,250,241,126,63,255,47,42,44,48,34,21,13,163,175,84,248,63,197,121,205,249,192,128,63,255,130,133,170,149,168,2,160,63,137,143,254,87
0055 69A8 03 89 EE             		  .db 3,137,238,198,241,192,141,159,143,240,142,199,254,174,255,239,118,59,191,241,251,3,175,119,15,125,187,96,246,0,120,255,251,19,129,135,220,224,176,27,190,95,68,99,152,125,251,124,152,247,223,240,63,49,25,57,126,224,16,240,208,63,47,56,62
0056 69E9 7F FC E1             		  .db 127,252,225,246,247,174,252,187,99,73,254,31,188,123,55,218,249,92,205,60,241,227,158,199,255,96,128,248,124,251,226,5,10,21,251,173,255,0,32,159,188,222,222,191,185,253,248,238,198,156,251,28,97,251,227,167,139,233,17,0,245,254,234,181,202
0057 6A2A A3 56 6B             		  .db 163,86,107,213,171,34,197,48,124,254,0,2,254,69,48,143,248,239,224,127,119,99,255,28,6,31,63,230,15,96,224,253,111,231,127,159,247,14,158,135,134,137,255,7,239,190,31,79,55,30,105,231,127,254,224,32,128,219,231,251,255,123,216,15,54
0058 6A6B FF 98 00             		  .db 255,152,0,192,133,254,249,157,153,226,159,187,143,141,133,159,205,250,183,15,222,199,207,231,223,248,6,0,8,31,13,15,16,44,3,131,104,129,188,128,135,64,111,231,48,251,143,254,127,190,199,255,140,111,184,63,1,129,191,255,15,31,243,231,143
0059 6AAC F7 83 9F             		  .db 247,131,159,254,129,199,227,134,255,253,250,113,254,213,106,155,49,118,234,117,169,245,254,213,70,254,13,127,0,227,7,127,131,66,15,130,13,41,67,8,144,71,247,64,133,7,12,7,131,111,240,63,27,207,55,248,31,108,255,248,96,248,199,5,221
0060 6AED F9 31 50             		  .db 249,49,80,127,124,247,15,51,24,207,4,240,68,124,30,28,228,31,7,57,49,111,6,206,241,61,7,55,143,146,223,1,0,75,247,187,84,255,1,159,254,253,129,128,135,224,252,192,131,231,176,253,143,110,255,191,199,47,14,239,7,204,56,60,229
0061 6B2E 3F 8F CA             		  .db 63,143,202,241,135,99,115,207,1,27,138,195,97,7,248,59,63,127,254,253,203,35,134,63,207,212,175,114,247,186,117,175,174,164,226,254,245,176,254,93,88,0,255,17,37,255,101,228,166,129,7,185,255,165,88,241,30,238,1,191,85,186,108,254,245
0062 6B6F 0F 65 00             		  .db 15,101,0,239,251,247,216,250,95,19,79,0,111,15,143,47,96,170,165,241,87,106,85,171,48,174,93,25,158,0,212,127,167,152,206,62,157,11,25,255,223,250,245,63,207,231,89,27,28,128,4,212,163,63,14,119,171,117,55,101,170,69,240,0,1
0063 6BB0 82 11 B8             		  .db 130,17,184,245,175,213,140,147,227,177,229,2,176,252,125,71,0,254,253,126,152,96,184,92,171,174,109,209,254,59,84,79,198,171,83,176,243,156,26,151,255,191,173,255,223,19,255,239,255,231,141,247,115,227,225,112,224,44,189,9,254,232,114,250,247
0064 6BF1 07 F5 EE             		  .db 7,245,238,223,165,255,254,191,43,254,175,189,238,42,5,0,131,203,5,251,241,251,119,149,230,123,172,171,42,21,58,254,2,13,106,0,64,143,18,64,43,104,151,254,122,25,41,38,29,107,195,223,143,253,7,23,27,11,9,1,248,241,54,36,235
0065 6C32 43 FE 55             		  .db 67,254,85,3,3,114,185,248,186,1,248,249,116,29,12,93,92,63,254,88,81,82,5,206,85,141,174,142,73,254,138,254,248,125,58,61,63,53,219,49,59,152,255,58,56,47,94,255,55,255,143,175,143,114,255,23,240,255,17,223,216,37,158,18,49
0066 6C73 AF 3F E9             		  .db 175,63,233,91,95,223,254,195,141,67,103,253,227,109,239,119,238,117,229,254,121,101,232,252,79,254,202,80,233,81,253,225,65,193,1,113,241,235,255,250,71,255,248,240,242,32,255,88,253,135,166,196,252,255,248,79,227,226,241,226,229,237,194,197,202
0067 6CB4 1E FE 85             		  .db 30,254,133,138,132,136,54,8,20,55,16,9,17,104,254,237,0,20,2,144,254,4,46,5,99,254,130,133,0,95,244,123,181,254,204,255,22,255,24,243,253,225,229,197,194,130,129,212,78,220,25,42,254,159,89,254,64,1,76,13,252,20,192,30,238
0068 6CF5 AE 2E FD             		  .db 174,46,253,254,14,77,8,85,10,185,254,19,226,254,162,140,96,129,222,166,248,240,224,63,234,237,10,227,69,170,5,98,21,0,38,248,64,42,200,230,0,252,0,84,234,152,190,56,121,0,167,233,143,224,255,232,15,200,0,232,8,64,168,254,125
0069 6D36 78 28 30             		  .db 120,40,48,8,16,72,48,5,252,100,10,9,139,254,11,189,203,255,239,122,255,231,61,195,2,244,97,191,254,248,245,138,21,160,84,97,18,42,89,0,91,0,221,224,0,43,172,131,7,158,255,0,247,228,197,244,240,224,133,185,10,120,86,144,168
0070 6D77 5E 94 FC             		  .db 94,148,252,34,252,248,225,202,251,240,84,168,65,31,4,167,149,248,2,81,115,160,128,21,17,151,246,230,4,6,120,12,247,231,239,255,202,136,224,193,130,119,241,252,83,2,173,251,28,103,249,242,245,107,247,4,167,152,240,5,138,119,44,4,64
0071 6DB8 09 6C 2F             		  .db 9,108,47,0,120,90,241,202,213,216,214,223,10,206,160,240,2,85,192,252,175,0,248,249,250,94,170,17,131,162,131,0,192,239,49,255,211,0,3,244,0,192,253,48,0,63,76,0,15,211,0,3,244,0,192,253,48,0,63,76,0,15,211,0,3
0072 6DF9 F4 00 C0             		  .db 244,0,192,253,48,0,63,76,0,15,211,0,3,244,0,192,253,48,0,63,76,0,15,211,0,3,245,0,254,96,119,172,255,255,20,155,255,191,63,129,255,0,192,245,126,255,127,159,103,170,84,0,192,235,99,13,223,143,248,159,23,31,27,129,255
0073 6E3A 2F CF 73             		  .db 47,207,115,189,86,171,85,141,170,254,176,1,58,126,15,209,250,158,242,230,121,174,87,6,228,254,138,46,159,16,223,59,223,234,63,71,161,86,170,27,130,248,96,106,49,5,251,241,254,243,242,227,195,51,48,91,93,174,223,6,42,21,2,5,10
0074 6E7B 81 45 00             		  .db 129,69,0,27,192,31,62,226,63,79,163,84,230,235,10,240,192,211,99,3,15,7,115,31,47,95,254,169,251,94,171,221,170,93,199,254,19,84,160,27,168,81,79,0,223,128,83,188,244,69,140,5,12,254,239,204,197,205,109,254,237,235,81,255,227
0075 6EBC EE C5 03             		  .db 238,197,3,255,247,96,81,251,34,63,31,145,95,27,249,39,19,3,255,244,11,91,45,93,254,222,86,46,254,255,30,22,206,215,239,247,15,231,250,203,199,43,103,107,116,254,75,87,187,254,189,191,254,190,93,246,185,40,254,84,11,16,139,176,199
0076 6EFD 2E FF 19             		  .db 46,255,25,254,143,252,248,59,255,240,224,156,255,229,202,197,237,254,138,149,31,254,8,16,9,17,10,252,18,40,19,45,21,36,105,37,254,198,17,41,189,42,254,10,115,254,145,138,218,69,139,182,254,226,241,6,167,99,3,240,244,248,244,242,254
0077 6F3E FB 62 84             		  .db 251,98,132,130,68,162,147,254,84,254,42,226,85,2,21,124,20,168,0,208,127,95,241,130,1,2,189,6,254,230,180,226,90,254,245,38,255,241,255,226,140,255,12,47,227,233,247,243,139,228,193,197,133,249,246,240,225,130,5,4,127,107,0,80,184
0078 6F7F 00 80 FF             		  .db 0,128,255,201,226,252,255,241,129,10,84,168,80,160,1,176,63,55,115,254,191,143,31,63,253,47,42,44,56,34,21,125,252,255,250,218,248,0,91,164,252,248,253,226,197,170,149,168,131,129,193,101,242,199,216,19,251,16,10,21,241,170,85,255,0
0079 6FC0 98 1E EF             		  .db 152,30,239,255,239,204,200,205,138,207,19,2,168,77,192,253,48,255,8
0157 6FD3                      		level6:
0158 6FD3                      		.include "graph/level6.inc"
0002 6FD3 2B C7 07             		  .db 43,199,7,127,241,238,243,63,14,176,191,23,255,103,187,207,223,190,243,248,72,220,254,253,252,191,216,237,248,224,255,131,215,158,18,247,20,242,0,224,63,255,253,212,241,98,115,236,228,199,204,252,252,164,244,160,224,176,120,63,144,80,112,0,115
0003 7014 FF B0 06             		  .db 255,176,6,156,12,251,96,128,115,251,1,154,8,246,2,66,238,140,160,192,243,31,56,11,4,15,9,255,88,192,64,28,0,124,176,128,224,252,160,182,231,24,60,233,180,16,240,221,128,10,4,6,249,248,236,200,252,104,241,243,168,152,136,121,163
0004 7055 FB FF 5C             		  .db 251,255,92,39,6,248,115,14,223,178,250,254,4,246,36,24,68,190,132,243,37,33,135,137,248,152,252,100,168,239,255,251,127,139,128,254,5,0,250,8,183,249,31,255,239,191,170,85,138,150,81,143,30,63,255,124,158,123,60,40,19,255,14,167,211
0005 7096 DC E0 57             		  .db 220,224,87,251,124,152,191,169,244,184,203,159,224,19,16,246,210,193,126,190,131,223,215,197,191,31,255,13,196,199,2,141,131,19,171,255,175,75,159,7,47,135,23,103,23,109,252,255,54,202,204,200,152,28,128,224,243,144,49,24,195,77,60,10,97
0006 70D7 24 06 AF             		  .db 36,6,175,179,133,238,88,231,48,1,224,21,240,128,68,245,161,131,96,128,255,192,32,208,8,127,153,24,191,252,0,72,16,73,136,102,195,232,108,252,164,224,192,244,219,247,199,47,252,225,249,195,211,248,94,231,247,248,223,216,229,128,255,241,249
0007 7118 D1 DD F4             		  .db 209,221,244,174,144,173,224,161,253,246,7,124,194,233,227,253,240,123,117,126,238,255,201,12,251,253,110,250,63,200,95,175,87,171,85,60,3,42,2,13,107,5,15,64,1,124,31,52,112,96,192,112,63,163,86,187,239,255,123,227,118,128,5,248,129
0008 7159 13 BC 39             		  .db 19,188,57,159,109,112,69,11,1,254,18,6,3,8,201,61,5,24,223,225,176,16,32,96,242,103,121,222,1,27,70,37,255,28,8,31,255,167,252,126,127,131,225,39,207,191,210,85,182,251,242,252,128,48,102,6,16,12,88,224,24,88,134,63,130
0009 719A 6E 76 06             		  .db 110,118,6,215,244,150,158,55,99,0,56,4,188,70,184,1,16,63,84,106,97,12,56,255,197,100,238,192,233,76,214,255,238,186,243,187,112,46,111,127,184,191,203,31,207,250,119,251,189,223,42,253,252,51,137,247,243,50,127,241,35,63,188,253,46
0010 71DB EF FB 81             		  .db 239,251,129,101,13,254,162,10,183,54,191,93,135,8,10,21,10,236,5,2,1,49,253,9,8,139,63,232,129,26,158,151,31,213,241,143,175,107,191,113,54,14,254,29,31,120,25,48,71,76,191,4,253,63,36,64,163,32,199,67,127,192,195,236,175
0011 721C 91 40 3C             		  .db 145,64,60,241,128,225,140,251,61,250,132,249,239,43,105,123,255,29,192,24,187,1,148,255,18,134,6,222,160,0,12,140,255,37,18,123,29,3,19,4,12,63,13,0,25,144,44,35,15,16,224,255,213,47,107,255,123,19,117,108,255,195,0,184,112
0012 725D 46 43 3F             		  .db 70,67,63,6,248,7,128,125,37,205,60,124,183,121,79,179,51,209,239,241,254,231,223,253,15,23,249,247,146,224,56,231,208,124,245,126,242,241,250,163,16,254,47,219,28,95,175,79,188,18,10,186,170,193,65,255,120,227,102,13,55,127,2,31,47
0013 729E 72 2E A8             		  .db 114,46,168,67,153,100,44,64,238,79,3,16,104,48,192,235,224,128,208,171,48,193,63,127,137,96,148,134,11,28,147,152,255,81,252,248,222,251,147,182,103,103,255,3,71,91,162,203,152,196,218,248,21,96,128,2,233,63,8,51,185,216,24,255,174
0014 72DF F9 A8 A0             		  .db 249,168,160,163,244,126,189,255,44,148,97,196,82,6,243,205,65,67,191,71,142,8,236,128,195,255,243,248,127,99,78,192,24,131,245,224,103,255,122,223,59,251,238,108,70,7,245,134,195,181,247,192,233,33,59,237,249,191,214,20,254,64,12,103,6
0015 7320 0C D7 2B             		  .db 12,215,43,21,196,20,95,20,97,10,10,4,195,103,2,60,212,236,255,248,224,208,253,182,215,246,172,254,27,255,189,30,128,212,32,129,14,9,8,240,24,240,225,131,15,250,48,120,194,248,202,230,245,12,191,217,55,102,95,202,249,126,98,241,99
0016 7361 51 C4 5D             		  .db 81,196,93,219,255,195,50,169,5,66,9,11,28,254,111,123,63,163,252,230,243,55,143,165,167,207,193,244,61,63,250,220,242,139,113,135,230,173,4,211,255,55,252,220,238,95,142,120,122,255,48,247,235,253,252,127,207,158,139,188,251,254,247,248,254
0017 73A2 9B B9 E9             		  .db 155,185,233,255,5,147,162,19,191,213,14,190,25,196,14,12,95,22,122,12,5,88,254,239,216,20,35,123,245,77,87,255,223,43,130,209,3,50,93,155,255,135,0,226,100,234,242,175,47,255,207,157,141,13,126,62,28,129,226,3,135,7,131,52,240
0018 73E3 60 70 E1             		  .db 96,112,225,131,63,14,31,62,127,119,249,255,90,80,216,13,180,132,143,134,255,230,5,26,224,103,225,205,253,159,254,48,218,126,109,231,231,127,86,255,35,199,152,193,103,243,159,121,53,222,199,254,231,26,127,120,255,241,247,207,94,255,239,198,253
0019 7424 E6 18 CF             		  .db 230,24,207,223,29,189,47,249,246,237,44,252,255,30,113,16,167,209,28,16,221,46,94,34,127,88,42,55,191,255,27,114,223,238,63,255,197,208,6,233,209,98,35,241,192,228,65,1,3,9,69,232,252,2,226,248,247,244,188,130,223,249,225,231,207
0020 7465 9D F0 3E             		  .db 157,240,62,124,184,96,51,195,129,232,29,227,6,31,223,251,61,127,252,244,152,54,63,191,95,61,243,253,227,248,131,212,240,43,241,179,54,166,17,251,127,1,70,111,212,58,220,227,127,159,95,53,13,18,85,106,16,66,14,157,193,16,18,89,108
0021 74A6 CB B6 80             		  .db 203,182,128,56,223,198,157,149,242,156,239,110,145,205,254,214,127,250,119,160,232,248,180,255,152,249,56,240,126,238,230,117,167,175,52,253,223,11,190,220,199,249,1,100,18,174,227,191,89,252,124,86,107,246,42,205,22,83,43,235,20,10,205,254,126
0022 74E7 22 C1 47             		  .db 34,193,71,143,66,15,16,64,30,32,60,16,126,8,0,4,61,2,133,195,155,13,253,34,55,219,251,117,117,118,31,231,87,245,94,21,245,95,57,77,228,254,247,239,34,126,188,0,184,24,72,94,14,60,202,26,149,254,85,212,80,26,121,254,121
0023 7528 3C 18 FE             		  .db 60,24,254,108,26,183,1,48,50,132,211,208,16,5,8,230,16,139,198,32,29,49,205,98,161,52,54,252,74,47,203,252,31,46,222,254,7,171,23,43,2,82,254,85,254,21,219,200,80,254,188,185,95,250,230,181,31,246,86,2,198,115,107,192,29
0024 7569 87 0B A8             		  .db 135,11,168,32,127,48,236,155,237,136,140,254,36,94,209,16,250,176,36,192,21,207,49,87,132,207,113,118,66,244,112,59,11,255,253,64,120,41,118,63,230,181,26,121,207,158,64,248,252,20,36,68,196,204,180,255,4,177,255,27,252,138,128,64,32
0025 75AA 90 88 37             		  .db 144,136,55,11,255,245,17,48,249,203,86,44,4,50,230,96,204,255,188,255,252,143,13,89,11,32,223,40,123,8,16,8,225,4,2,33,99,34,35,139,42,143,46,39,52,246,40,255,199,41,47,160,44,247,48,43,32,46,3,32,64,248,81,248,170
0026 75EB C1 1C 3B             		  .db 193,28,59,6,220,216,250,128,72,254,180,2,89,250,130,75,236,15,140,252,101,204,1,98,77,234,136,8,199,254,47,246,132,37,240,174,4,148,228,1,132,167,110,173,190,4,133,254,244,133,134,254,7,225,255,121,71,129,250,0,96,126,152,0,31
0027 762C A5 00 7E             		  .db 165,0,126,26,252,248,240,192,249,110,0,31,15,163,22,3,247,204,0,15,151,0,240,224,192,96,125,101,252,164,152,73,31,38,0,95,88,2,31,189,0,96,126,245,0,129,251,214,0,7,239,88,0,31,189,0,96,126,245,0,129,251,214,0,7
0028 766D EF 58 00             		  .db 239,88,0,31,38,0,95,182,3,46,32,9,47,255,34,36,40,48,3,0,96,248,144,10,4,8,16,0,203,224,253,13,27,254,254,2,64,255,12,149,236,160,40,252,168,250,243,254,14,9,200,255,63,254,3,7,14,156,88,0,192,92,4,90,96
0029 76AE A6 FF DC             		  .db 166,255,220,1,2,165,253,64,129,130,132,136,128,171,255,136,132,97,48,254,237,212,159,144,0,255,91,128,163,255,192,212,225,127,74,113,226,197,138,149,170,141,85,0,176,128,217,200,64,251,32,16,8,4,2,111,75,0,64,253,59,105,246,206,224
0030 76EF 88 60 E0             		  .db 136,96,224,246,45,0,52,179,253,191,84,54,253,252,47,231,162,27,160,160,153,33,24,150,129,129,8,19,128,254,60,252,132,254,238,6,141,254,128,65,228,230,248,244,32,17,8,5,106,96,192,254,99,79,255,192,193,198,250,199,253,15,137,31,17
0031 7730 7A 07 FF             		  .db 122,7,255,208,0,196,51,209,213,99,217,188,120,153,54,135,255,173,244,16,151,255,20,32,252,18,23,254,253,225,191,216,114,60,172,255,48,167,73,28,6,4,119,26,223,26,84,172,249,31,67,140,191,17,48,188,193,221,8,16,100,251,18,224,240
0032 7771 F8 78 58             		  .db 248,120,88,152,144,32,241,64,237,128,251,246,31,102,24,7,194,0,12,59,25,14,34,223,207,244,242,164,99,151,124,76,8,176,132,196,126,124,198,214,81,64,36,235,96,133,143,63,192,248,191,143,231,5,4,8,255,16,17,199,33,34,143,68,73
0033 77B2 C7 89 12             		  .db 199,137,18,246,4,96,160,40,48,255,110,0,216,61,8,171,222,168,232,246,120,24,12,4,115,83,248,127,252,15,131,32,12,7,3,97,32,48,3,127,182,248,22,67,134,15,62,7,235,224,254,255,243,11,129,255,130,31,2,4,29,255,249,49,235
0034 77F3 11 C4 08             		  .db 17,196,8,66,254,194,181,255,1,175,83,36,245,145,253,216,127,3,139,150,255,25,54,252,31,191,245,204,159,224,253,255,163,252,255,20,253,21,32,131,69,158,249,249,100,113,85,121,79,217,195,45,251,88,255,234,170,240,186,49,122,146,197,15,250
0035 7834 0A 38 FF             		  .db 10,56,255,130,66,3,8,224,246,161,130,0,37,253,179,218,66,102,204,110,254,255,126,32,28,243,44,172,77,150,204,101,113,207,106,197,158,216,242,199,125,38,64,97,137,41,132,60,171,191,8,251,154,127,175,16,81,230,4,254,24,250,92,254,182
0036 7875 07 76 F6             		  .db 7,118,246,15,255,244,34,144,228,63,252,192,252,87,142,160,255,196,63,101,253,247,252,24,255,62,219,249,5,42,216,80,128,159,217,195,185,206,177,249,108,216,180,254,136,236,30,15,62,112,196,39,163,15,155,63,252,3,241,171,128,197,112,15,196
0037 78B6 F0 FF 64             		  .db 240,255,100,127,19,80,160,179,64,140,209,25,245,233,1,175,2,179,252,204,128,243,67,12,5,168,255,155,191,151,48,12,31,62,241,120,241,227,35,132,8,13,31,7,146,230,245,10,21,42,85,125,104,84,168,132,6,120,11,252,229,178,64,180,66
0038 78F7 C2 4C 8E             		  .db 194,76,142,62,207,203,167,61,89,192,246,112,28,7,1,255,232,98,223,120,109,251,248,8,12,176,184,195,156,48,248,251,76,127,109,190,254,142,190,2,48,4,155,235,41,227,248,48,120,189,245,3,174,152,71,36,255,127,7,15,97,18,172,128,196
0039 7938 96 B1 80             		  .db 150,177,128,62,76,44,221,60,189,233,255,129,120,255,192,247,251,185,239,252,23,248,174,21,171,0,42,214,138,198,41,7,48,0,15,127,191,95,175,253,83,45,82,44,2,5,167,128,204,96,113,158,0,10,248,173,87,43,85,42,211,2,254,21,216
0040 7979 00 11 6F             		  .db 0,17,111,198,94,36,163,254,57,56,112,65,135,15,31,68,255,157,7,250,63,127,129,14,10,51,12,87,254,171,156,85,10,10,69,146,254,12,8,174,149,190,9,205,139,47,15,255,0,252,252,254,62,124,188,120,248,124,224,192,69,174,72,208,200
0041 79BA E3 C1 F5             		  .db 227,193,245,9,191,238,127,175,95,86,8,42,127,227,10,81,2,17,0,68,26,21,208,8,201,179,78,4,146,0,127,142,62,60,24,240,229,203,147,251,40,88,184,123,251,7,37,13,223,120,32,106,167,20,12,254,12,119,175,28,69,17,12,14,24
0042 79FB AD 98 E1             		  .db 173,152,225,37,191,0,253,126,62,28,129,195,224,231,207,159,255,124,249,242,229,203,151,47,216,95,191,43,117,250,170,168,191,12,239,204,156,87,152,171,40,43,82,9,14,246,12,0,81,80,18,10,102,42,19,96,154,0,255,241,99,35,1,16,128
0043 7A3C E0 41 0F             		  .db 224,65,15,3,7,25,61,145,2,11,19,135,61,234,254,252,249,243,147,248,248,31,241,159,99,223,175,176,243,253,10,95,3,119,191,47,254,233,46,254,92,58,104,12,49,20,20,175,17,248,22,204,42,157,23,2,190,71,8,143,192,96,136,224,11
0044 7A7D 3C DF C2             		  .db 60,223,194,47,169,0,26,64,251,248,92,255,250,255,102,23,79,255,248,3,113,120,60,30,15,153,7,181,193,174,97,103,196,32,91,80,91,78,45,12,58,56,51,247,72,10,104,14,189,81,20,20,119,152,36,93,246,24,239,16,176,112,216,56,255
0045 7ABE 2C 3C 56             		  .db 44,60,86,142,11,23,37,67,255,134,9,17,34,68,137,19,38,234,76,152,48,108,150,18,116,0,191,253,0,140,248,32,64,58,44,60,87,215,58,239,32,246,119,102,63,175,18,87,242,20,59,22,139,72,98,78,46,132,60,172,37,2,82,28,20
0046 7AFF FC 04 CD             		  .db 252,4,205,221,72,1,133,87,69,207,240,88,16,92,150,14,255,27,39,69,135,10,17,33,66,225,132,8,16,241,226,52,248,255,65,130,132,136,80,97,254,34,36,24,16,9,10,4,57,148,176,3,134,204,230,227,60,248,130,229,244,191,160,236,102
0047 7B40 E9 E8 5F             		  .db 233,232,95,8,140,239,110,250,191,25,0,32,93,32,16,110,15,87,47,189,66,46,10,14,5,11,13,254,24,34,249,114,18,5,136,26,254,182,86,50,88,24,1,151,236,38,2,103,49,107,64,237,128,12,255,106,84,77,4,12,156,66,17,144,97
0048 7B81 3F 24 28             		  .db 63,36,40,16,17,232,10,12,255,54,167,168,32,111,230,231,19,247,0,215,251,185,223,33,238,231,119,187,127,255,63,95,224,175,125,111,79,110,250,119,191,87,149,159,32,193,112,40,85,26,66,34,62,32,3,64,10,0,48,2,253,80,15,16,216
0049 7BC2 15 2F 1E             		  .db 21,47,30,69,243,76,250,84,245,28,4,138,250,62,2,194,233,71,59,16,189,32,255,255,66,252,244,194,98,56,50,54,101,64,1,29,132,190,181,187,23,66,164,97,5,6,64,3,112,44,75,65,254,66,182,136,214,27,53,5,128,34,5,41,4
0050 7C03 C0 9D 91             		  .db 192,157,145,147,146,64,185,252,255,124,101,14,255,242,156,92,196,111,138,128,253,192,224,112,120,88,72,37,255,200,253,170,249,120,4,104,121,232,253,227,112,96,64,199,192,178,128,127,195,12,78,255,15,252,4,51,28,89,67,4,166,0,25,226,240
0051 7C44 01 C5 8D             		  .db 1,197,141,242,222,71,64,32,80,16,227,254,150,0,64,132,0,242,121,254,175,109,191,85,126,224,241,254,242,163,170,220,41,8,240,241,120,124,126,95,241,93,92,197,199,85,81,244,88,94,95,87,255,199,86,80,160,83,247,48,84,32,81,3,95
0052 7C85 40 F8 48             		  .db 64,248,72,248,126,92,88,112,96,191,248,4,30,8,226,255,49,44,177,70,166,253,96,80,8,252,172,92,201,254,175,254,167,95,248,220,108,60,15,140,52,214,120,240,152,252,76,0,216,224,96,211,254,228,98,128,229,221,254,98,164,231,250,225,46
0053 7CC6 E3 63 E4             		  .db 227,99,228,221,236,224,208,111,239,254,7,27,212,12,236,242,106,2,200,35,147,254,224,244,107,75,254,99,32,254,203,118,240,107,225,97,97,254,184,226,7,37,176,239,254,140,176,102,238,103,38,101,254,232,22,226,97,217,254,230,222,99,225,230,63
0054 7D07 5E E4 69             		  .db 94,228,105,227,103,239,224,110,236,104,49,163,36,35,208,198,170,24,30,10,255,85,243,164,3,244,0,192,253,48,0,63,78,0,190,46,248,240,192,249,40,0,42,33,48,22,63,124,0,192,249,59,0,12,219,15,163,0,232,31,192,249,63,0,173
0055 7D48 02 8C 00             		  .db 2,140,0,15,222,176,0,63,122,0,192,253,235,0,3,247,172,0,15,222,176,0,63,122,0,192,253,235,0,3,247,172,0,15,149,0,128,191,69,0,248,33,32,63,42,49,140,17,220,254,34,53,40,255,250,1,96,145,10,5,8,25,251,40,121
0056 7D89 E8 39 68             		  .db 232,57,104,13,29,254,255,2,3,224,254,51,96,49,254,110,156,63,254,100,53,106,177,103,244,191,110,254,183,102,77,254,99,53,134,129,200,49,55,39,191,37,63,3,7,14,156,241,88,0,192,1,64,236,11,18,34,117,255,98,128,162,194,244,255
0057 7DCA 20 7F 01             		  .db 32,127,1,2,4,8,131,16,64,246,129,130,132,136,235,255,132,9,145,254,128,246,159,144,128,255,45,128,209,255,192,234,225,63,74,113,226,197,138,149,198,170,85,216,0,128,108,200,252,64,32,16,8,4,2,180,5,64,255,64,44,238,175,31,228
0058 7E0B D1 E0 F0             		  .db 209,224,240,248,208,47,204,90,243,224,45,255,225,23,52,128,131,210,227,168,84,170,71,86,220,194,252,223,108,178,110,193,110,243,239,128,68,34,19,153,152,254,129,203,64,33,250,20,109,254,128,65,158,248,32,17,8,5,140,106,24,12,254,105,255
0059 7E4C C0 FF C1             		  .db 192,255,193,199,251,253,255,15,29,249,189,145,7,255,106,255,106,226,233,1,2,85,250,170,15,160,21,247,213,1,143,255,24,33,185,178,224,231,218,151,255,227,220,0,53,82,255,17,254,20,240,250,57,136,68,192,111,246,114,15,43,255,48,41,73
0060 7E8D 1C E5 06             		  .db 28,229,6,7,3,248,178,7,31,208,255,220,224,209,0,222,92,199,139,31,64,79,255,192,240,140,131,189,129,255,193,203,177,141,246,102,245,109,27,199,220,139,4,6,5,82,252,193,217,8,16,100,249,15,121,16,170,255,240,60,224,120,192,245,128
0061 7ECE EB 18 1F             		  .db 235,24,31,48,7,205,82,0,176,0,62,47,132,100,92,239,70,69,64,255,250,112,76,67,71,249,187,245,176,108,27,101,42,2,175,124,233,129,192,64,160,84,155,143,252,124,30,76,45,120,97,132,136,253,124,141,172,81,64,72,235,140,89,63,118
0062 7F0F FF C0 F8             		  .db 255,192,248,255,115,255,95,239,253,119,251,253,250,252,248,137,160,255,253,124,192,128,170,213,249,67,0,126,222,191,217,238,153,184,255,251,250,218,120,56,60,255,251,250,249,184,15,24,136,224,112,43,252,240,185,192,124,120,188,222,239,126,135,241,254
0063 7F50 EC 7E 91             		  .db 236,126,145,15,3,0,4,131,193,48,129,1,12,219,127,248,35,67,8,176,121,246,7,224,254,206,116,3,191,87,250,250,195,252,253,151,159,255,163,239,123,220,119,249,143,63,55,50,255,247,255,244,236,249,122,121,89,255,127,46,255,15,246,254,227
0064 7F91 FF DE 19             		  .db 255,222,25,3,128,188,63,37,24,123,196,199,124,204,126,191,255,223,6,156,186,187,25,252,146,254,207,135,107,62,182,108,110,163,224,49,249,79,216,21,32,51,31,0,215,30,27,251,186,247,170,85,199,36,255,58,111,122,15,99,241,23,87,193,71
0065 7FD2 91 87 F4             		  .db 145,135,244,67,166,7,3,127,191,0,194,56,246,40,100,13,18,253,223,252,203,153,145,3,194,255,129,1,166,210,213,252,242,128,255,52,254,163,175,64,144,251,85,47,204,79,144,121,179,3,132,249,118,237,237,158,182,172,199,125,38,64,97,137,41
0066 8013 84 3C AB             		  .db 132,60,171,191,8,249,154,127,175,101,127,219,72,252,67,252,0,37,99,53,115,119,97,30,254,216,61,123,78,254,182,120,125,246,48,0,7,255,224,219,18,1,255,224,158,87,174,63,95,171,38,191,252,238,248,12,31,254,15,7,208,255,167,4,255
0067 8054 C4 F7 84             		  .db 196,247,132,63,142,255,14,20,193,227,222,0,5,42,95,159,115,98,175,87,254,171,16,147,92,254,84,43,60,250,21,138,84,217,254,11,79,254,252,251,68,27,141,4,20,1,236,254,139,116,182,252,124,254,255,254,139,212,203,179,224,95,254,0,65
0068 8095 0F 1E 38             		  .db 15,30,56,227,96,144,16,255,18,9,85,136,21,40,81,214,168,5,62,137,95,63,0,192,48,44,67,141,230,3,76,12,240,255,22,143,126,240,206,61,3,250,161,82,164,72,144,195,162,36,103,193,155,75,233,62,46,5,42,82,173,55,165,66,149
0069 80D6 FF AA D1             		  .db 255,170,209,136,69,42,84,34,17,86,72,180,4,193,121,253,126,56,68,96,24,15,246,8,143,255,136,104,24,14,183,9,114,244,216,247,61,51,59,29,194,156,183,249,10,21,40,252,5,194,240,126,223,191,95,248,241,226,33,24,79,120,62,31,7
0070 8117 68 E3 FF             		  .db 104,227,255,24,39,92,179,96,197,138,21,175,42,141,134,84,181,169,251,248,24,48,82,90,227,229,63,181,146,2,250,88,96,49,16,69,4,246,27,4,233,28,159,150,167,235,89,128,181,250,240,155,124,15,1,254,42,23,9,17,33,245,76,152,48
0071 8158 60 16 83             		  .db 96,22,131,207,223,65,162,69,11,251,22,44,88,177,98,111,246,248,4,225,30,23,172,72,2,57,197,248,8,138,243,124,112,24,218,22,17,222,76,144,203,60,244,4,200,49,215,113,190,9,221,190,95,205,253,71,65,97,232,153,239,139,4,9,19
0072 8199 76 81 EC             		  .db 118,129,236,32,250,148,202,117,18,9,241,146,246,127,157,118,255,248,49,98,120,7,96,237,123,245,3,37,42,62,219,41,40,172,255,46,149,244,54,24,4,75,243,127,47,10,199,21,63,177,31,114,49,211,250,22,197,54,2,230,235,62,76,176,128
0073 81DA F2 EC E9             		  .db 242,236,233,2
0159 81DE                      		font:
0160 81DE                      		.include "graph/font.inc"
0001 81DE 00 00 00             		  .db   0,  0,  0,  0,  0,  0,  0,  0,  0,  0,  0,  0 ; 20h
0002 81EA C0 C0 00             		  .db 192,192,  0, 96, 96,112, 48, 56, 56, 60, 28, 30 ; 21h !
0003 81F6 00 00 00             		  .db   0,  0,  0,  0,  0,  0,  0,  0,  0, 72,108,126 ; 22h "
0004 8202 00 6C 6C             		  .db   0,108,108,254,108,108,108,254,108,108,  0,  0 ; 23h #
0005 820E 10 3C 76             		  .db  16, 60,118, 22,  6, 60, 96,104,110, 60,  8,  0 ; 24h $
0006 821A C4 CE 64             		  .db 196,206,100, 96, 48, 48, 24, 24, 12, 76,230, 70 ; 25h %
0007 8226 76 C6 CC             		  .db 118,198,204,204, 88,120, 48, 56,108,108,108, 56 ; 26h &
0008 8232 00 00 00             		  .db   0,  0,  0,  0,  0,  0,  0,  0,  0, 64, 96,112 ; 27h '
0009 823E 0C 18 18             		  .db  12, 24, 24, 24, 24, 24, 24, 24, 24, 24, 24, 12 ; 28h (
0010 824A 60 30 30             		  .db  96, 48, 48, 48, 48, 48, 48, 48, 48, 48, 48, 96 ; 29h )
0011 8256 00 00 00             		  .db   0,  0,  0,  0, 36, 24,126, 24, 36,  0,  0,  0 ; 2Ah *
0012 8262 00 00 00             		  .db   0,  0,  0, 24, 24,126,126, 24, 24,  0,  0,  0 ; 2Bh +
0013 826E 40 60 70             		  .db  64, 96,112,  0,  0,  0,  0,  0,  0,  0,  0,  0 ; 2Ch ,
0014 827A 00 00 00             		  .db   0,  0,  0,  0,  0,126,126,  0,  0,  0,  0,  0 ; 2Dh -
0015 8286 20 70 20             		  .db  32,112, 32,  0,  0,  0,  0,  0,  0,  0,  0,  0 ; 2Eh .
0016 8292 C0 C0 60             		  .db 192,192, 96, 96, 48, 48, 24, 24, 12, 12,  6,  6 ; 2Fh /
0017 829E 7C C6 C6             		  .db 124,198,198,198,198,198,198,198,198,198,198,124 ; 30h 0
0018 82AA 3C 18 18             		  .db  60, 24, 24, 24, 24, 24, 24, 24, 24, 24, 56, 24 ; 31h 1
0019 82B6 FE C6 C6             		  .db 254,198,198,192,192,192,192,124,  6,198,198,124 ; 32h 2
0020 82C2 7C C6 C6             		  .db 124,198,198,198,  6,  6,  6, 28,  6,198,198,124 ; 33h 3
0021 82CE 06 06 06             		  .db   6,  6,  6,  6,  6,  6,  6,126,198,198,198,198 ; 34h 4
0022 82DA 7C C6 C6             		  .db 124,198,198,198,  6,  6,  6,252,192,192,198,254 ; 35h 5
0023 82E6 7C C6 C6             		  .db 124,198,198,198,198,198,198,252,192,198,198,124 ; 36h 6
0024 82F2 06 06 06             		  .db   6,  6,  6,  6,  6,  6,  6,  6,  6,198,198,124 ; 37h 7
0025 82FE 7C C6 C6             		  .db 124,198,198,198,198,198,198,124,198,198,198,124 ; 38h 8
0026 830A 7C C6 C6             		  .db 124,198,198,  6,  6,  6,  6,126,198,198,198,124 ; 39h 9
0027 8316 00 20 70             		  .db   0, 32,112, 32,  0,  0, 32,112, 32,  0,  0,  0 ; 3Ah :
0028 8322 40 60 70             		  .db  64, 96,112,  0,  0,  0, 32,112, 32,  0,  0,  0 ; 3Bh ;
0029 832E 00 00 0C             		  .db   0,  0, 12, 24, 48, 96, 96, 48, 24, 12,  0,  0 ; 3Ch <
0030 833A 00 00 00             		  .db   0,  0,  0,126,126,  0,  0,126,126,  0,  0,  0 ; 3Dh =
0031 8346 00 00 60             		  .db   0,  0, 96, 48, 24, 12, 12, 24, 48, 96,  0,  0 ; 3Eh >
0032 8352 18 18 00             		  .db  24, 24,  0, 24, 24, 24, 24, 12,  6,198,198,124 ; 3Fh ?
0033 835E 7C C6 C6             		  .db 124,198,198,192,222,246,246,246,222,198,198,124 ; 40h @
0034 836A C6 C6 C6             		  .db 198,198,198,198,198,198,198,254,198,198,198,124 ; 41h A
0035 8376 FC C6 C6             		  .db 252,198,198,198,198,198,198,252,198,198,198,252 ; 42h B
0036 8382 7C C6 C6             		  .db 124,198,198,192,192,192,192,192,192,198,198,124 ; 43h C
0037 838E FC C6 C6             		  .db 252,198,198,198,198,198,198,198,198,198,204,248 ; 44h D
0038 839A 7C C6 C6             		  .db 124,198,198,192,192,192,192,240,192,198,198,124 ; 45h E
0039 83A6 C0 C0 C0             		  .db 192,192,192,192,192,192,192,240,192,198,198,124 ; 46h F
0040 83B2 7C C6 C6             		  .db 124,198,198,198,206,192,192,192,192,198,198,124 ; 47h G
0041 83BE C6 C6 C6             		  .db 198,198,198,198,198,198,198,254,198,198,198,198 ; 48h H
0042 83CA 3C 18 18             		  .db  60, 24, 24, 24, 24, 24, 24, 24, 24, 24, 24, 60 ; 49h I
0043 83D6 7C C6 C6             		  .db 124,198,198,198,198,  6,  6,  6,  6,  6,  6,  6 ; 4Ah J
0044 83E2 C6 C6 C6             		  .db 198,198,198,198,198,198,204,248,204,198,198,198 ; 4Bh K
0045 83EE 7C C6 C6             		  .db 124,198,198,192,192,192,192,192,192,192,192,192 ; 4Ch L
0046 83FA C6 C6 C6             		  .db 198,198,198,198,198,198,198,214,214,238,198,130 ; 4Dh M
0047 8406 C6 C6 C6             		  .db 198,198,198,198,198,198,198,206,222,246,230,198 ; 4Eh N
0048 8412 7C C6 C6             		  .db 124,198,198,198,198,198,198,198,198,198,198,124 ; 4Fh O
0049 841E C0 C0 C0             		  .db 192,192,192,192,192,192,192,252,198,198,198,252 ; 50h P
0050 842A 76 CC DA             		  .db 118,204,218,198,198,198,198,198,198,198,198,124 ; 51h Q
0051 8436 C6 C6 C6             		  .db 198,198,198,198,198,198,204,248,204,198,198,252 ; 52h R
0052 8442 7C C6 C6             		  .db 124,198,198,198,  6,  6,  6,124,192,192,198,124 ; 53h S
0053 844E 18 18 18             		  .db  24, 24, 24, 24, 24, 24, 24, 24, 24, 24, 24,126 ; 54h T
0054 845A 7C C6 C6             		  .db 124,198,198,198,198,198,198,198,198,198,198,198 ; 55h U
0055 8466 10 38 6C             		  .db  16, 56,108,198,198,198,198,198,198,198,198,198 ; 56h V
0056 8472 44 EE D6             		  .db  68,238,214,214,198,198,198,198,198,198,198,198 ; 57h W
0057 847E C6 C6 C6             		  .db 198,198,198,198,198,198,108, 56,108,198,198,198 ; 58h X
0058 848A 7C C6 C6             		  .db 124,198,198,  6,  6,  6,  6,126,198,198,198,198 ; 59h Y
0059 8496 FE C0 C0             		  .db 254,192,192,192,192,192,192,124,  6,  6,  6,254 ; 5Ah Z
0164 84A2                      		.include "intro.inc"
0003 84A2                      		LOGO_WIDTH  = 320
0004 84A2                      		LOGO_HEIGHT = 166
0005 84A2                      		LOGO_SIZE   = (LOGO_WIDTH / 8 * LOGO_HEIGHT)
0006 84A2                      		LOGO_DEST   = (VIDEO_PAGE_0 + ((VIDEO_WIDTH - LOGO_WIDTH) / 2 / 8 * 256) - 16)
0008 84A2                      		PLANE_WIDTH      = 19
0009 84A2                      		PLANE_HEIGHT     = 12
0010 84A2                      		PLANE_SIZE_1     = (PLANE_WIDTH * PLANE_HEIGHT * 3)
0011 84A2                      		PLANE_SIZE_2     = ((PLANE_WIDTH + 1) * PLANE_HEIGHT * 3)
0013 84A2                      		PACKED_LOGO_SIZE = 2034
0015 84A2                      		packedLogo2      = 0C000h
0016 84A2                      		PLANE_BUFFER_2   = 0C880h ; 19*12*2 = 456 байт
0017 84A2                      		PLANE_BUFFER     = (PLANE_BUFFER_2 + (19*12*2)) ; 48*12*2 = 1152 байт
0019 84A2                      		Y_MULTIPLIER = 256
0024 84A2                      		intro:
0026 84A2 21 65 8E             		    lxi  h, packedLogo
0027 84A5 11 00 C0             		    lxi  d, packedLogo2
0028 84A8 06 00                		    mvi  b, 0
0029 84AA CD 98 85             		    call memcpyq
0030 84AD EB                   		    xchg
0031 84AE 21 65 92             		    lxi  h, packedLogo + 1024
0032 84B1 CD 98 85             		    call memcpyq
0034 84B4 3E 02                		    mvi a, 2
0035 84B6 CD 0B 02             		    call setTextColor
0038 84B9 3E 0F                		    mvi  a, PALETTE_BLACK
0039 84BB D3 90                		    out  IO_PALETTE_0
0040 84BD D3 91                		    out  IO_PALETTE_1
0041 84BF D3 92                		    out  IO_PALETTE_2
0042 84C1 D3 93                		    out  IO_PALETTE_3
0045 84C3 CD C1 05             		    call clearScreen
0048 84C6 21 33 88             		    lxi  h, introText
0049 84C9 CD AF 01             		    call drawText
0052 84CC CD 26 86             		    call paletteOn
0057 84CF CD 48 01             		    call pressAnyKey
0060 84D2                      		introExit:
0061 84D2 00                   		    nop
0062 84D3 3E C9                		    mvi  a, OPCODE_RET
0063 84D5 32 D2 84             		    sta  introExit
0066 84D8                      		introOff:
0067 84D8 CD 34 86             		    call paletteOff
0069 84DB CD C1 05             		    call clearScreen
0072 84DE 11 00 C0             		    lxi  d, packedLogo2
0073 84E1 01 F0 D3             		    lxi  b, LOGO_DEST
0074 84E4 CD D7 07             		    call unmlz
0077 84E7 11 E0 ED             		    lxi  d, LOGO_DEST + LOGO_SIZE
0078 84EA 21 F0 FB             		    lxi  h, LOGO_DEST + (LOGO_WIDTH / 8 * VIDEO_HEIGHT)
0079 84ED 06 28                		    mvi  b, 40
0080 84EF                      		intro_1:
0081 84EF 0E A6                		    mvi  c, LOGO_HEIGHT
0082 84F1                      		intro_2:
0083 84F1 1B                   		    dcx  d
0084 84F2 1A                   		    ldax d
0085 84F3 2B                   		    dcx  h
0086 84F4 77                   		    mov  m, a
0087 84F5 0D                   		    dcr  c
0088 84F6 C2 F1 84             		    jnz  intro_2
0089 84F9 0E 5A                		    mvi  c, VIDEO_HEIGHT - LOGO_HEIGHT
0090 84FB AF                   		    xra  a
0091 84FC                      		intro_3:
0092 84FC 2B                   		    dcx  h
0093 84FD 77                   		    mov  m, a
0094 84FE 0D                   		    dcr  c
0095 84FF C2 FC 84             		    jnz  intro_3
0096 8502 05                   		    dcr  b
0097 8503 C2 EF 84             		    jnz  intro_1
0100 8506 CD 26 86             		    call paletteOn
0103 8509 21 77 86             		    lxi  h, introText2
0104 850C                      		intro_4:
0105 850C CD 12 FC             		    call inkey_FC12
0106 850F FE FF                		    cpi  0FFh
0107 8511 C2 34 86             		    jnz  paletteOff
0108 8514 11 00 20             		    lxi  d, 2000h
0109 8517 CD 7A 01             		    call delay
0110 851A 7E                   		    mov  a, m
0111 851B FE 21                		    cpi  '!'
0112 851D CA F7 85             		    jz   intro_5
0113 8520 CD B6 01             		    call drawText2
0114 8523 C2 0C 85             		    jnz  intro_4
0117 8526                      		fly:
0119 8526 CD AC 06             		    call copyImageFromScreen
0120 8529 21 90 D0             		    lxi  h, 0D090h
0121 852C 01 0C 30             		    lxi  b, 48 * 256 + PLANE_HEIGHT ; width * 256 + height
0122 852F 11 48 CA             		    lxi  d, PLANE_BUFFER ; to
0123 8532 CD C5 06             		    call copyImage
0124 8535 CD B6 06             		    call copyImageToScreen
0126 8538                      		fly_0:
0128 8538 21 90 BE             		    lxi  h, 0D090h - ((PLANE_WIDTH - 1) * Y_MULTIPLIER)
0129 853B 22 62 85             		    shld fly_a1
0132 853E 21 98 C8             		    lxi  h, PLANE_BUFFER - ((PLANE_WIDTH - 1) * PLANE_HEIGHT * 2)
0133 8541 22 51 85             		    shld fly_a2
0136 8544                      		fly_1:
0138 8544 06 08                		    mvi  b, 8
0139 8546                      		fly_2:
0140 8546 C5                   		    push b
0143 8547 21 45 89             		    lxi  h, plane
0144 854A CD CD 85             		    call shiftImage
0147 854D 21 45 89             		    lxi  h, plane
0148 8550                      		fly_a2 = $+1
0149 8550 01 48 CA             		    lxi  b, PLANE_BUFFER
0150 8553 11 80 C8             		    lxi  d, PLANE_BUFFER_2
0151 8556 3E E4                		    mvi  a, PLANE_WIDTH * PLANE_HEIGHT
0152 8558 CD B5 85             		    call copyMaskedImageToBuffer
0155 855B 01 0C 13             		    lxi  b, PLANE_WIDTH * 256 + PLANE_HEIGHT ; width * 256 + height
0156 855E 11 80 C8             		    lxi  d, PLANE_BUFFER_2 ; to
0157 8561                      		fly_a1 = $+1
0158 8561 21 90 D0             		    lxi  h, 0D090h ; from
0159 8564 CD 50 86             		    call copyImageSafe
0161 8567 C1                   		    pop b
0164 8568 CD 12 FC             		    call inkey_FC12
0165 856B FE FF                		    cpi  0FFh
0166 856D C2 34 86             		    jnz  paletteOff
0168 8570 05                   		    dcr b
0169 8571 C2 46 85             		    jnz fly_2
0172 8574 21 69 89             		    lxi  h, plane + (PLANE_HEIGHT * 3)
0173 8577 11 45 89             		    lxi  d, plane
0174 857A 06 AB                		    mvi  b, PLANE_SIZE_1 / 4
0175 857C CD 98 85             		    call memcpyq
0178 857F 2A 51 85             		    lhld fly_a2
0179 8582 11 18 00             		    lxi  d, PLANE_HEIGHT * 2
0180 8585 19                   		    dad  d
0181 8586 22 51 85             		    shld fly_a2
0184 8589 2A 62 85             		    lhld fly_a1
0185 858C 24                   		    inr  h
0186 858D 22 62 85             		    shld fly_a1
0189 8590 7C                   		    mov  a, h
0190 8591 B7                   		    ora  a
0191 8592 C2 44 85             		    jnz  fly_1
0194 8595 C3 38 85             		    jmp  fly_0
0198 8598                      		memcpyq:
0200 8598 E5                   		    push h
0201 8599 21 02 00             		    lxi  h, 2
0202 859C 39                   		    dad  sp
0203 859D 22 B2 85             		    shld memcpyq_2
0204 85A0 E1                   		    pop  h
0205 85A1 F9                   		    sphl
0206 85A2 EB                   		    xchg
0207 85A3                      		memcpyq_1:
0208 85A3 D1                   		    pop  d
0209 85A4 73                   		    mov  m, e
0210 85A5 23                   		    inx  h
0211 85A6 72                   		    mov  m, d
0212 85A7 23                   		    inx  h
0213 85A8 D1                   		    pop  d
0214 85A9 73                   		    mov  m, e
0215 85AA 23                   		    inx  h
0216 85AB 72                   		    mov  m, d
0217 85AC 23                   		    inx  h
0218 85AD 05                   		    dcr  b
0219 85AE C2 A3 85             		    jnz  memcpyq_1
0220 85B1                      		memcpyq_2 = $+1
0221 85B1 31 00 00             		    lxi  sp, 0
0222 85B4 C9                   		    ret
0227 85B5                      		copyMaskedImageToBuffer:
0228 85B5                      		copyImage91_1:
0229 85B5 F5                   		    push psw
0231 85B6 0A                   		    ldax b
0232 85B7 03                   		    inx  b
0233 85B8 A6                   		    ana  m
0234 85B9 23                   		    inx  h
0235 85BA B6                   		    ora  m
0236 85BB 2B                   		    dcx  h
0237 85BC 12                   		    stax d
0238 85BD 13                   		    inx  d
0240 85BE 0A                   		    ldax b
0241 85BF 03                   		    inx  b
0242 85C0 A6                   		    ana  m
0243 85C1 23                   		    inx  h
0244 85C2 23                   		    inx  h
0245 85C3 B6                   		    ora  m
0246 85C4 23                   		    inx  h
0247 85C5 12                   		    stax d
0248 85C6 13                   		    inx  d
0250 85C7 F1                   		    pop  psw
0251 85C8 3D                   		    dcr  a
0252 85C9 C2 B5 85             		    jnz  copyImage91_1
0253 85CC C9                   		    ret
0259 85CD                      		shiftImage:
0260 85CD 1E 24                		    mvi  e, PLANE_HEIGHT * 3 ; всего строк и плоскостей
0261 85CF                      		shiftImage_1:
0262 85CF E5                   		    push h
0263 85D0 01 88 02             		    lxi  b, (PLANE_WIDTH - 1) * PLANE_HEIGHT * 3 ; шаг в 12 пикселей
0264 85D3 09                   		    dad  b
0265 85D4 7E                   		    mov  a, m
0266 85D5 17                   		    ral
0267 85D6 E1                   		    pop  h
0269 85D7 01 24 00             		    lxi  b, PLANE_HEIGHT * 3 ; шаг
0270 85DA 16 09                		    mvi  d, PLANE_WIDTH / 2 ; всего столбцов
0271 85DC E5                   		    push h
0272 85DD                      		intro_34:
0274 85DD 7E                   		    mov  a, m
0275 85DE 17                   		    ral
0276 85DF 77                   		    mov  m, a
0278 85E0 9F                   		    sbb  a
0279 85E1 09                   		    dad  b
0280 85E2 0F                   		    rrc
0282 85E3 7E                   		    mov  a, m
0283 85E4 17                   		    ral
0284 85E5 77                   		    mov  m, a
0286 85E6 9F                   		    sbb  a
0287 85E7 09                   		    dad  b
0288 85E8 0F                   		    rrc
0290 85E9 15                   		    dcr  d
0291 85EA C2 DD 85             		    jnz  intro_34
0293 85ED 7E                   		    mov  a, m
0294 85EE 17                   		    ral
0295 85EF 77                   		    mov  m, a
0297 85F0 E1                   		    pop  h
0298 85F1 23                   		    inx  h
0299 85F2 1D                   		    dcr  e
0300 85F3 C2 CF 85             		    jnz  shiftImage_1
0301 85F6 C9                   		    ret
0306 85F7                      		intro_5:
0308 85F7 E5                   		    push h
0310 85F8 06 0E                		    mvi  b, 14 
0311 85FA                      		intro_6:
0312 85FA C5                   		    push b
0314 85FB 11 2A B9             		    lxi  d, 0BFFFh - (15*14) - (6*256) - 3
0315 85FE D5                   		    push d
0316 85FF E1                   		    pop  h
0318 8600 06 24                		    mvi  b, 36
0319 8602                      		scroll_0:
0320 8602 D5                   		    push d
0321 8603 E5                   		    push h
0323 8604 0E 1A                		    mvi  c, 26
0324 8606                      		scroll_1:
0325 8606 2B                   		    dcx  h
0326 8607 7E                   		    mov  a, m
0327 8608 12                   		    stax d
0328 8609 1B                   		    dcx  d
0329 860A 0D                   		    dcr  c
0330 860B C2 06 86             		    jnz  scroll_1
0331 860E E1                   		    pop  h
0332 860F D1                   		    pop  d
0334 8610 25                   		    dcr  h
0335 8611 15                   		    dcr  d
0337 8612 05                   		    dcr  b
0338 8613 C2 02 86             		    jnz  scroll_0
0339 8616 C1                   		    pop  b
0341 8617 05                   		    dcr  b
0342 8618 C2 FA 85             		    jnz  intro_6
0344 861B 21 11 F9             		    lxi  h, 0FFFFh - (17*14) - (6*256)
0345 861E 22 EA 01             		    shld drawCharAddr
0347 8621 E1                   		    pop  h    
0349 8622 23                   		    inx  h
0350 8623 C3 0C 85             		    jmp  intro_4
0355 8626                      		paletteOn:
0356 8626 CD 42 86             		    call paletteLoadDark
0357 8629 CD 77 01             		    call delay8000
0358 862C 3E 01                		    mvi  a, PALETTE_CYAN
0359 862E 01 00 06             		    lxi  b, PALETTE_RED * 256 + PALETTE_WHITE
0360 8631 C3 47 86             		    jmp paletteLoad
0365 8634                      		paletteOff:
0366 8634 CD 42 86             		    call paletteLoadDark
0367 8637 CD 77 01             		    call delay8000
0368 863A 3E 0F                		    mvi  a, PALETTE_BLACK
0369 863C 01 0F 0F             		    lxi  b, PALETTE_BLACK * 256 + PALETTE_BLACK
0370 863F C3 47 86             		    jmp paletteLoad
0375 8642                      		paletteLoadDark:
0376 8642 3E 09                		    mvi  a, PALETTE_DARK_CYAN
0377 8644 01 08 0E             		    lxi  b, PALETTE_DARK_RED * 256 + PALETTE_DARK_GRAY
0378 8647                      		paletteLoad:
0379 8647 D3 91                		    out  IO_PALETTE_1
0380 8649 78                   		    mov  a, b
0381 864A D3 92                		    out  IO_PALETTE_2
0382 864C 79                   		    mov  a, c
0383 864D D3 93                		    out  IO_PALETTE_3
0384 864F C9                   		    ret
0389 8650                      		copyImageSafe:
0391 8650 7C                   		    mov  a, h
0392 8651 D6 D0                		    sui  0D0h
0393 8653 DA 6A 86             		    jc   copyImageSafe_2
0398 8656 7C                   		    mov  a, h
0399 8657 80                   		    add  b
0400 8658 3D                   		    dcr  a
0401 8659 FE D0                		    cpi  0D0h
0402 865B D2 C5 06             		    jnc  copyImage
0404 865E 3C                   		    inr  a
0405 865F D5                   		    push d
0406 8660 57                   		    mov  d, a
0407 8661 78                   		    mov  a, b
0408 8662 92                   		    sub  d
0409 8663 47                   		    mov  b, a
0410 8664 D1                   		    pop  d
0411 8665 C8                   		    rz
0412 8666 D8                   		    rc
0413 8667 C3 C5 06             		    jmp  copyImage
0418 866A                      		copyImageSafe_2:
0420 866A C5                   		    push b
0421 866B EB                   		    xchg
0422 866C 06 00                		    mvi  b, 0
0423 866E 09                   		    dad  b
0424 866F 09                   		    dad  b
0425 8670 EB                   		    xchg
0426 8671 C1                   		    pop  b
0428 8672 05                   		    dcr  b
0430 8673 24                   		    inr  h
0432 8674 C3 50 86             		    jmp  copyImageSafe
0436 8677                      		introText2:
0437 8677 21 54 45             		    db 33,"TETRIS WAS INVENTED BY A 30-YEAR-OLD"
0438 869C 21 53 4F             		    db 33,"SOVIET RESEARCHER NAMED ALEXEY"
0439 86BB 21 50 41             		    db 33,"PAZHITNOV WHO CURRENTLY WORKS AT"
0440 86DC 21 54 48             		    db 33,"THE COMPUTER CENTRE(ACADEMY SOFT) OF"
0441 8701 21 54 48             		    db 33,"THE USSR ACADEMY OF SCIENCES IN"
0442 8721 21 4D 4F             		    db 33,"MOSCOW. THE ORIGINAL PROGRAMMER WAS"
0443 8745 21 31 38             		    db 33,"18-YO VADIM GERASIMOV. A STUDENT"
0444 8766 21 53 54             		    db 33,"STUDYING COMPUTER INFORMATICS AT"
0445 8787 21 4D 4F             		    db 33,"MOSCOW UNIVERSITY. NOW YOU CAN ENJOY"
0446 87AC 21 54 45             		    db 33,"TETRIS BECAUSE OF THE JOINT EFFORTS"
0447 87D0 21 4F 46             		    db 33,"OF ACADEMY SOFT, MOSCOW, ANDROMEDA"
0448 87F3 21 53 4F             		    db 33,"SOFTWARE LTD, LONDON, ALEMORF, SPB"
0449 8816 21 41 4E             		    db 33,"AND SPECTRUM HOLOBYTE, USA."
0450 8832 00                   		    db 0
0454 8833                      		introText:
0455 8833 02 0B 53             		    db  4-2,19-8,"SPECTRUM HOLOBYTE PRESENTS"
0456 884F 04 12 54             		    db  6-2,26-8,"T E T R I S"
0457 885C 06 07 56             		    db  8-2,15-8,"VERSION"
0458 8865 06 19 50             		    db  8-2,33-8,"PROGRAMMER"
0459 8871 08 07 49             		    db 10-2,15-8,"ISKRA 1080 TARTU"
0460 8883 08 19 41             		    db 10-2,33-8,"ALEKSEY MOROZOV"
0461 8894 0A 07 49             		    db 12-2,15-8,"IBM CGA"
0462 889D 0A 19 45             		    db 12-2,33-8,"ENG AN JIO"
0463 88A9 0B 07 52             		    db 13-2,15-8,"RAM RESIDENT"
0464 88B7 0B 19 45             		    db 13-2,33-8,"ERICK JAP"
0465 88C2 0C 07 54             		    db 14-2,15-8,"TANDY"
0466 88C9 0C 19 42             		    db 14-2,33-8,"BILLY SUTYONO"
0467 88D8 0D 07 49             		    db 15-2,15-8,"IBM EGA"
0468 88E1 0D 19 41             		    db 15-2,33-8,"ARYANTO WIDODO"
0469 88F1 0F 07 47             		    db 17-2,15-8,"GRAPHICS"
0470 88FB 0F 19 44             		    db 17-2,33-8,"DAN GUERRA"
0471 8907 10 07 50             		    db 18-2,15-8,"PRODUCT MANAGER"
0472 8918 10 19 52             		    db 18-2,33-8,"R. ANTON WIDJAJA"
0473 892A 11 07 50             		    db 19-2,15-8,"PRODUCER"
0474 8934 11 19 53             		    db 19-2,33-8,"SEAN B. BARGER"
0475 8944 00                   		    db 0
0165 8945                      		plane:
0166 8945                      		.include "graph/plane.inc"
0002 8945 FF 00 00             		  .db 255,  0,  0,255,  0,  0,156,  0, 99, 99,  0,156,156,  0, 99, 99,  0,156,255,  0,  0,255,  0,  0,156,  0, 99, 99,  0,156,156,  0, 99, 99,  0,156
0003 8969 FF 00 00             		  .db 255,  0,  0,255,  0,  0,  0,  0,255,  0,254,255,  0,102,103,  0,126,127,  0,102,103,  0,102,103,  0,230,231,  0,102,103,  0,254,255,  0,  0,255
0004 898D FF 00 00             		  .db 255,  0,  0,255,  0,  0,  0,  0,255,  0,255,255,  0, 32, 32,  0,126,126,  0,126,126,  0, 96, 96,  0,103,103,  0, 32, 32,  0,255,255,  0,  0,255
0005 89B1 FF 00 00             		  .db 255,  0,  0,255,  0,  0,  0,  0,255,  0,255,255,  0,100,100,  0, 78, 78,  0, 14, 14,  0,102,102,  0,102,102,  0, 12, 12,  0,255,255,  0,  0,255
0006 89D5 FF 00 00             		  .db 255,  0,  0,255,  0,  0,  0,  0,255,  0,255,255,  0,206,206,  0,206,206,  0,206,206,  0,206,206,  0,206,206,  0,  2,  2,  0,255,255,  0,  0,255
0007 89F9 FF 00 00             		  .db 255,  0,  0,255,  0,  0,  0,  0,255,  0,255,255,  0,193,193,  0,207,207,  0,207,207,  0,195,195,  0,207,207,  0, 65, 65,  0,255,255,  0,  0,255
0008 8A1D FF 00 00             		  .db 255,  0,  0,255,  0,  0,  0,  0,255,  0,255,255,  0,249,249,  0,249,249,  0,249,249,  0,249,249,  0,249,249,  0,224,224,  0,255,255,  0,  0,255
0009 8A41 FF 00 00             		  .db 255,  0,  0,255,  0,  0,  0,  0,255,  0,255,255,  0,159,159,  0,159,159,  0,159,159,  0, 15, 15,  0,103,103,  0,103,103,  0,255,255,  0,  0,255
0010 8A65 FF 00 00             		  .db 255,  0,  0,255,  0,  0,  0,  0,255,  0,255,255,  0,115,115,  0,115,115,  0,  7,  7,  0, 39, 39,  0, 38, 38,  0,142,142,  0,255,255,  0,  0,255
0011 8A89 FF 00 00             		  .db 255,  0,  0,255,  0,  0,  0,  0,255,  0,255,255,  0,130,130,  0,158,158,  0,159,159,  0,159,159,  0,159,159,  0,159,159,  0,255,255,  0,  0,255
0012 8AAD FF 00 00             		  .db 255,  0,  0,255,  0,  0,  0,  0,255,  0,255,255,  0,207,207,  0,207,207,  0,193,193,  0,204,204,  0,204,204,  0,193,193,  0,255,255,  0,  0,255
0013 8AD1 FF 00 00             		  .db 255,  0,  0,255,  0,  0,252,  0,  3,242,  0, 13,238,  0, 17,222,  0, 33, 62,  0,193,254,  0,  1, 62,  0,193,206,  0, 49,242,  0, 13,252,  0,  3
0014 8AF5 FF 00 00             		  .db 255,  0,  0,255,  0,  0,255,  0,  0,255,  0,  0,255,  0,  0,255,  0,  0,255,  0,  0,  0,  0,255,255,  0,  0,255,  0,  0,255,  0,  0,255,  0,  0
0015 8B19 FF 00 00             		  .db 255,  0,  0,255,  0,  0,255,  0,  0,255,  0,  0,255,  0,  0,255,  0,  0,255,  0,  0,  0,128,255,255,  0,  0,255,  0,  0,255,  0,  0,255,  0,  0
0016 8B3D FF 00 00             		  .db 255,  0,  0,255,  0,  0,255,  0,  0,255,  0,  0,255,  0,  0,255,  0,  0, 31,  0,224,  0,254,255,224,  0, 31,240,  3, 15,248,  1,  7,252,  0,  3
0017 8B61 FF 00 00             		  .db 255,  0,  0,255,  0,  0,255,  0,  0,255,  0,  0,255,  0,  0, 15,  0,240,  0,248,255,  0,255,255,127,128,128,255,  0,  0, 31,224,224,255,  0,  0
0018 8B85 FF 00 00             		  .db 255,  0,  0,255,  0,  0,255,  0,  0,255,  0,  0, 15,  0,240,  0,240,255,  0,255,255,128,127,127,252,  3,  3,  3,  0,252,  0,255,255,  7,248,248
0019 8BA9 EF 10 10             		  .db 239, 16, 16,215, 40, 40,103,152,152,113,128,142,112,128,143,128, 79,127, 16,207,239, 96,159,159,126,129,129,254,  0,  1,248,  7,  7,192, 63, 63
0020 8BCD FF 00 00             		  .db 255,  0,  0,255,  0,  0,255,  0,  0,255,  0,  0,255,  0,  0,255,  0,  0,255,  0,  0,255,  0,  0,255,  0,  0,255,  0,  0,255,  0,  0,255,  0,  0
0021 8BF1 FF 00 00             		  .db 255,  0,  0,255,  0,  0,255,  0,  0,255,  0,  0,255,  0,  0,255,  0,  0,255,  0,  0,255,  0,  0,255,  0,  0,255,  0,  0,255,  0,  0,255,  0,  0
0167 8C15                      		igrab:
0168 8C15                      		.include "graph/igrab.inc"
0002 8C15 00 91 1E             		  .db 0,145,30,255,3,182,12,109,255,30,26,212,255,59,255,189,27,255,31,254,128,192,96,48,24,12,6,245,255,0,148,255,199,1,3,143,7,13,31,29,63,241,115,225,1,255,236,0,120,255,127,221,3,15,31,30,60,120,30,240,61,224,44,255,96
0003 8C56 A1 FF F1             		  .db 161,255,241,39,235,231,60,28,224,15,3,0,90,64,166,255,65,255,67,204,90,255,65,35,231,192,246,240,31,6,122,255,134,60,198,127,230,102,118,182,199,190,94,143,46,22,28,228,149,127,128,140,81,9,211,150,255,112,176,184,216,92,108,46,54
0004 8C97 F1 17 1B             		  .db 241,23,27,11,5,227,2,199,1,101,63,106,254,251,203,201,205,206,144,202,251,172,200,85,255,252,216,255,7,128,50,199,169,112,218,120,88,0,255,60,47,192,1,7,86,115,221,252,7,179,1,6,239,220,252,118,145,220,216,90,255,223,3,53,255
0005 8CD8 DC E5 FE             		  .db 220,229,254,255,15,200,139,38,255,16,255,48,127,255,112,80,209,247,248,224,99,255,142,199,7,255,216,127,29,243,255,31,255,99,5,146,245,192,245,191,242,189,183,120,252,240,120,56,248,100,244,240,236,153,172,220,56,228,207,235,124,229,112,224,192
0006 8D19 AF 80 B3             		  .db 175,128,179,29,209,189,252,217,106,241,3,247,250,63,124,248,218,176,160,179,255,240,112,197,30,199,15,7,246,62,124,120,232,143,255,248,124,60,15,106,185,188,1,255,204,75,96,4,255,189,84,28,245,20,244,252,254,230,212,58,255,251,65,255,127
0007 8D5A 1F 07 1F             		  .db 31,7,31,49,255,159,77,67,32,255,48,204,255,56,63,123,0,9,26,255,128,192,241,53,60,180,54,72,255,52,40,235,214,16,128,135,180,120,21,139,12,248,217,30,3,135,43,141,19,121,248,146,244,30,63,46,184,176,61,160,150,255,253,176,184
0008 8D9B BC AF A7             		  .db 188,175,167,163,144,240,61,219,194,131,3,142,185,255,7,31,127,181,100,126,17,253,89,255,254,253,143,157,93,178,125,255,253,63,241,191,159,128,64,210,144,208,60,104,127,116,52,54,26,30,13,63,14,6,7,57,179,252,248,237,241,88,104,44,52
0009 8DDC CC EE 0B             		  .db 204,238,11,199,237,6,63,238,129,225,113,120,60,218,62,58,179,255,62,124,222,240,236,239,199,128,211,37,59,221,157,128,227,255,44,108,13,108,255,185,168,127,177,240,175,199,152,1,73,34,135,183,27,119,54,177,52,182,255,54,119,63,255,241,240
0010 8E1D B1 A0 E7             		  .db 177,160,231,255,240,249,63,150,15,29,232,255,131,255,195,67,99,163,179,248,211,219,107,111,55,241,27,229,13,228,4,227,11,31,252,143,224,176,255,208,216,232,172,180,150,154,139,252,141,133,134,130,131,129,217,255,128,101,255,227,255,34,30,177,14
0011 8E5E C7 FF 1E             		  .db 199,255,30,63,255,96,16
0169 8E65                      		packedLogo:
0170 8E65                      		.include "graph/logo.inc"
0002 8E65 00 61 E2             		  .db 0,97,226,255,255,3,2,136,255,207,48,90,63,92,90,128,192,240,120,248,244,252,255,159,220,255,156,152,56,48,199,112,224,217,192,128,44,223,56,120,123,248,32,255,108,243,56,27,220,90,128,248,255,126,63,15,7,217,255,15,201,31,63,240,81
0003 8EA6 FE F1 E3             		  .db 254,241,227,199,15,62,120,240,202,111,85,1,3,123,227,254,252,248,224,7,15,145,180,108,153,202,150,7,33,87,255,114,240,1,15,127,252,217,170,227,3,88,230,254,55,169,90,31,138,240,217,224,128,203,116,15,199,86,92,129,15,235,31,124,240
0004 8EE7 EC 01 8F             		  .db 236,1,143,37,227,233,127,131,123,90,192,193,209,231,239,135,223,54,30,240,99,81,192,183,255,30,7,31,63,188,127,231,62,249,251,60,250,23,28,255,94,236,63,31,7,111,248,14,192,64,199,51,252,244,25,123,65,62,58,26,48,63,96,248,232
0005 8F28 BC B8 EA             		  .db 188,184,234,195,165,90,1,156,255,102,151,225,155,113,163,255,3,216,1,207,83,28,119,156,244,62,20,249,205,199,195,60,131,114,212,158,199,15,30,126,252,105,4,192,188,31,241,121,225,224,160,152,117,237,104,240,48,133,71,255,125,13,148,90,218
0006 8F69 B6 AE 8C             		  .db 182,174,140,254,233,137,113,23,158,227,38,180,15,236,152,128,166,243,245,127,252,191,91,0,224,3,254,120,236,208,112,53,48,90,188,255,205,109,90,85,106,70,254,233,8,56,137,96,30,148,124,98,83,94,36,119,151,205,211,180,242,129,131,143,135
0007 8FAA C6 23 D4             		  .db 198,35,212,126,35,39,254,12,24,240,186,248,195,5,90,15,125,54,132,201,255,3,132,99,8,90,2,226,35,108,219,95,63,254,197,97,244,183,186,206,131,193,96,71,90,66,13,196,141,234,241,254,132,252,72,236,120,175,177,91,253,143,204,192,104
0008 8FEB FF 61 61             		  .db 255,97,97,29,158,90,142,129,139,128,206,124,250,179,251,21,190,180,61,126,35,255,62,253,30,15,135,193,112,48,90,8,136,248,192,96,63,250,28,6,243,30,10,155,255,248,254,111,199,57,231,217,195,129,253,79,214,224,240,155,107,174,255,248,251
0009 902C E0 35 5A             		  .db 224,53,90,204,254,48,197,138,53,58,85,186,145,90,32,196,235,14,28,120,238,178,229,224,126,231,209,1,255,235,120,60,14,224,180,120,95,206,15,11,204,52,241,104,15,255,29,56,57,113,115,227,231,199,228,207,143,159,164,215,163,124,221,85,242
0010 906D 54 FF 1F             		  .db 84,255,31,252,255,223,227,199,227,115,218,113,167,255,115,56,207,159,126,217,17,79,90,65,67,70,25,255,118,200,48,201,133,85,21,84,241,44,131,112,96,248,97,99,111,255,30,92,216,16,224,39,247,255,163,67,31,161,160,31,176,184,193,190,183
0011 90AE 29 FF F6             		  .db 41,255,246,224,22,64,58,48,165,231,142,109,231,196,6,14,12,252,28,24,57,49,115,99,166,110,112,31,7,203,251,103,254,49,206,234,194,11,140,254,255,1,231,14,57,230,220,50,197,239,146,104,235,107,255,0,239,249,33,136,168,255,194,52,83
0012 90EF E3 0F 08             		  .db 227,15,8,10,254,154,242,7,251,138,170,63,38,81,255,193,191,48,254,116,106,84,105,85,233,210,0,216,164,212,223,72,168,88,144,80,203,160,32,68,28,44,67,88,193,192,198,88,197,249,232,161,245,63,109,32,80,136,1,7,222,252,249,38,252
0013 9130 72 06 56             		  .db 114,6,86,241,255,16,215,223,76,254,144,224,255,145,94,113,31,17,21,252,53,228,10,241,143,117,159,145,64,196,95,235,58,84,144,254,104,8,82,223,81,107,83,106,87,129,98,102,27,110,68,3,77,73,227,93,74,82,235,84,252,187,170,56,124
0014 9171 BC 9D BC             		  .db 188,157,188,193,130,64,163,201,244,134,196,12,255,80,233,207,227,118,244,233,127,250,127,128,224,120,156,111,253,19,204,163,185,180,183,52,255,0,247,71,166,130,255,68,57,20,124,72,84,255,214,147,40,199,66,58,255,60,129,122,90,234,85,42,117
0015 91B2 74 FE 35             		  .db 116,254,53,186,21,254,227,85,138,93,124,221,170,197,110,69,111,53,38,55,34,248,23,18,19,10,9,241,5,228,2,173,91,4,133,255,247,145,253,229,115,51,133,11,255,243,57,90,185,255,97,193,1,115,60,78,19,205,254,34,57,44,87,214,152
0016 91F3 D5 E7 FF             		  .db 213,231,255,85,0,93,156,127,71,72,74,255,255,82,37,140,180,4,148,20,255,150,179,184,175,164,165,37,41,255,162,63,191,32,42,20,26,21,198,10,13,206,5,6,254,3,2,182,252,197,187,18,120,237,4,56,64,172,220,180,54,194,159,51,67
0017 9234 C7 CE 5A             		  .db 199,206,90,243,206,255,189,115,238,153,116,199,149,37,198,85,165,248,160,84,168,254,0,208,246,46,247,240,251,82,170,251,139,45,255,149,6,14,15,155,241,192,112,96,140,8,7,25,51,103,246,110,216,176,96,16,243,11,147,146,59,255,231,2,10
0018 9275 0B 68 26             		  .db 11,104,38,111,255,13,60,29,120,57,244,249,255,102,125,180,107,169,158,249,129,3,60,253,115,230,157,50,229,138,235,102,247,45,90,8,29,62,90,31,25,176,224,64,4,16,108,40,56,68,255,143,17,19,241,255,3,254,198,228,124,255,57,68,238
0019 92B6 64 99 FF             		  .db 100,153,255,47,138,28,160,62,34,181,156,47,244,108,93,240,192,41,89,255,193,223,14,162,136,255,64,114,16,255,201,139,31,252,251,230,76,177,241,224,47,183,53,178,32,191,254,21,170,10,251,255,223,186,24,28,62,244,51,97,224,192,90,133,160
0020 92F7 70 FE 18             		  .db 112,254,24,12,132,230,51,29,15,199,247,40,207,3,231,40,178,199,123,77,252,97,81,255,138,191,90,4,8,201,248,60,207,252,119,25,110,115,64,127,40,213,12,159,207,180,16,100,48,56,60,240,54,179,241,112,12,215,128,126,240,60,7,194,77
0021 9338 7D 88 21             		  .db 125,136,33,162,163,178,45,185,90,81,175,133,70,255,127,51,118,192,240,98,224,255,63,158,103,57,206,3,249,216,255,80,48,16,144,208,240,32,193,253,195,135,136,159,53,234,232,90,34,224,255,28,30,158,219,217,120,56,3,228,63,216,30,7,73
0022 9379 EC 9B 0E             		  .db 236,155,14,4,122,7,237,28,15,133,253,194,126,246,64,192,248,115,90,231,121,139,156,51,133,204,241,200,246,127,244,127,224,196,142,27,59,189,123,99,36,11,37,254,255,253,35,47,31,191,181,53,63,136,183,31,188,220,174,226,87,251,252,13,172
0023 93BA FB 54 A8             		  .db 251,84,168,80,160,64,8,181,131,240,251,128,252,140,204,120,9,136,99,39,89,255,159,176,101,63,90,93,230,241,226,227,193,199,201,156,79,244,31,14,70,227,247,177,184,188,254,37,90,17,254,2,251,60,251,40,69,130,11,170,144,254,85,94,250
0024 93FB 7B FE 57             		  .db 123,254,87,252,143,16,240,155,224,255,64,99,255,16,127,138,124,49,185,153,220,255,12,181,4,250,221,194,173,198,172,230,242,126,255,226,198,220,248,240,196,30,208,224,248,204,230,150,255,206,180,139,102,99,146,28,156,255,136,193,225,227,115,55,23
0025 943C 8F C2 DF             		  .db 143,194,223,224,244,58,24,28,29,255,15,59,115,247,231,194,191,2,124,18,99,90,68,98,14,90,42,29,7,198,54,215,253,255,211,204,6,63,115,177,185,220,237,110,96,192,175,236,7,93,144,117,80,0,255,38,87,93,133,134,47,185,65,120,228
0026 947D BA E3 6B             		  .db 186,227,107,241,12,145,167,90,119,251,189,31,240,48,210,252,254,198,192,157,19,126,63,31,30,187,255,255,255,172,251,177,105,201,159,24,255,20,26,31,50,63,122,15,10,158,13,189,14,7,6,180,167,194,79,255,62,254,99,97,49,63,24,12,182
0027 94BE 1F ED 1C             		  .db 31,237,28,128,137,66,182,112,254,170,50,51,221,27,232,224,248,55,209,104,127,99,68,187,219,119,12,14,139,29,238,103,60,85,86,215,255,198,171,86,172,248,176,199,224,128,97,117,255,245,252,198,195,99,179,158,124,138,209,155,255,229,225,199,142
0028 94FF D4 9C 18             		  .db 212,156,24,26,45,49,255,120,56,253,28,142,199,241,160,91,32,60,231,206,140,28,184,227,255,11,151,233,254,113,235,152,90,92,149,79,90,4,12,28,60,223,62,63,250,182,129,118,86,124,30,6,71,146,122,246,36,125,255,63,32,31,10,117,68
0029 9540 A9 FF 8F             		  .db 169,255,143,188,90,222,110,55,51,123,225,95,190,135,170,172,177,171,254,219,109,238,216,172,47,240,70,144,1,111,84,142,255,40,248,122,204,186,50,15,90,105,28,73,96,206,241,6,28,56,120,213,223,158,254,12,3,193,224,92,43,90,251,213,106
0030 9581 35 1A 0D             		  .db 53,26,13,11,42,102,223,127,42,204,108,102,243,49,142,24,197,164,11,206,53,172,211,137,110,150,113,246,35,35,22,49,30,171,60,162,152,255,255,14,190,207,195,3,112,56,184,15,98,195,134,255,113,48,120,94,15,12,6,236,42,139,76,72,247
0031 95C2 A0 0E 3E             		  .db 160,14,62,126,125,150,140,64,202,188,216,255,140,23,63,71,255,96,246,48,144,216,248,250,132,143,120,96,97,73,255,157,182,42,10,239,255,102,119,51,153,219,221,207,172,90,254,43,48,255,103,126,90,126,115,51,57,217,140,200,200,56,246,7,20
0032 9603 98 FF 33             		  .db 152,255,51,191,90,248,152,156,206,199,253,218,96,48,249,140,132,57,63,124,95,79,219,229,252,6,119,90,251,195,129,31,204,127,97,77,89,98,198,255,12,111,90,120,193,255,199,216,230,124,114,191,96,192,90,90,60,254,126,255,225,177,57,31,0
0033 9644 B4 03 C0             		  .db 180,3,192,151,47,90,97,120,63,99,245,3,15,28,180,204,241,96,16
0171 9657                      		plane_end:
0175 9657                      		end1:
0176 9657 