0001   0000             .org 0h
0002   0000 CD 16 00    start: call initMusic
0003   0003             l:     
0004   0003 CD 44 00           call doMusicDelay
0005   0006 C3 03 00           jmp l
0006   0009             
0007   0009             ;----------------------------------------------------------------------------
0008   0009             
0009   0009             waitHorzSync:
0010   0009 21 01 EF    	lxi h, 0EF01h
0011   000C 36 27       	mvi m, 027h
0012   000E 7E          	mov a, m
0013   000F             waitHorzSync_1:
0014   000F 7E          	mov a, m
0015   0010 E6 20       	ani 20h
0016   0012 CA 0F 00    	jz waitHorzSync_1
0017   0015 C9          	ret
0018   0016             	
0019   0016             ;----------------------------------------------------------------------------
0020   0016             
0021   0016             .include "music.inc"
0001+  0016             ; (c) 2012 vinxru
0002+  0016             
0003+  0016             SPD = 5
0004+  0016             
0005+  0016 21 58 01    initMusic:	lxi h, music
0006+  0019 22 9D 00    		shld musicptr
0007+  001C 21 9F 00    		lxi h, channelInfo
0008+  001F AF          		xra a
0009+  0020 77          		mov m, a
0010+  0021 23          		inx h
0011+  0022 77          		mov m, a
0012+  0023 23          		inx h
0013+  0024 77          		mov m, a
0014+  0025 23          		inx h
0015+  0026 77          		mov m, a
0016+  0027 23          		inx h
0017+  0028 77          		mov m, a
0018+  0029 23          		inx h
0019+  002A 77          		mov m, a
0020+  002B C9          		ret
0021+  002C             
0022+  002C 1E 00       doMusic:	mvi e, 0
0023+  002E 21 9F 00    		lxi h, channelInfo
0024+  0031 CD B0 00    		call processChannel
0025+  0034 1E 01                       mvi e, 1
0026+  0036 21 A3 00    		lxi h, channelInfo+4
0027+  0039 CD B0 00    		call processChannel
0028+  003C 1E 02                       mvi e, 2
0029+  003E 21 A7 00    		lxi h, channelInfo+8
0030+  0041 C3 B0 00    		jmp processChannel		
0031+  0044             
0032+  0044 CD 2C 00    doMusicDelay:	call doMusic
0033+  0047 3E 05                       mvi a, SPD
0034+  0049 F5          x:              push psw
0035+  004A             ;		call waitHorzSync
0036+  004A             
0037+  004A             		; плюмканье
0038+  004A             plumkA:
0039+  004A             		; Сдвиг
0040+  004A 3A 9C 00    		lda plumk
0041+  004D 3C          		inr a
0042+  004E E6 03       		ani 3
0043+  0050 32 9C 00    		sta plumk
0044+  0053             
0045+  0053 21 A0 00    		lxi h, channelInfo+1
0046+  0056 11 00 EC    		lxi d, 0EC00h
0047+  0059 CD 76 00    		call plumk_to
0048+  005C             
0049+  005C             ;		lxi h, channelInfo+4+1
0050+  005C             ;		lxi d, 0EC01h
0051+  005C             ;		call plumk_to
0052+  005C             
0053+  005C             ;		lxi h, channelInfo+8+1
0054+  005C             ;		lxi d, 0EC02h
0055+  005C             ;		call plumk_to
0056+  005C             
0057+  005C 21 00 04    		lxi h, 400h
0058+  005F 2B          plumk_d:	dcx h
0059+  0060 7C          		mov a, h
0060+  0061 B5          		ora l
0061+  0062 C2 5F 00    		jnz plumk_d
0062+  0065             		
0063+  0065 3A 01 EF    		lda 0EF01h
0064+  0068 E6 20       		ani 20h
0065+  006A CA 4A 00    		jz plumkA
0066+  006D             
0067+  006D F1                          pop psw
0068+  006E 3D                          dcr a
0069+  006F C2 49 00                    jnz x
0070+  0072 CD FC 00    		call doMute	
0071+  0075             
0072+  0075 C9          		ret
0073+  0076             
0074+  0076             ;------------------------------------------------------------------
0075+  0076             
0076+  0076             		; Канал играет?
0077+  0076 AF          plumk_to:       xra a
0078+  0077 B6          		ora m
0079+  0078 C8          		rz
0080+  0079             
0081+  0079             		; Частота
0082+  0079 23          		inx h
0083+  007A 4E          		mov c, m
0084+  007B 23          		inx h
0085+  007C 46          		mov b, m
0086+  007D             
0087+  007D             		; Сдвиг
0088+  007D 3A 9C 00    		lda plumk
0089+  0080 FE 02       		cpi 2
0090+  0082 DA 87 00    		jc plumk_r
0091+  0085 3E 01       		mvi a, 1
0092+  0087             plumk_r:
0093+  0087 3C                          inr a
0094+  0088 3D          plumk0:		dcr a
0095+  0089 CA 98 00    		jz plumk1
0096+  008C F5          		push psw
0097+  008D 97          		sub a
0098+  008E 78          		mov a, b		
0099+  008F 1F          		rar
0100+  0090 47          		mov b, a
0101+  0091 79          		mov a, c
0102+  0092 1F          		rar
0103+  0093 4F          		mov c, a
0104+  0094 F1          		pop psw
0105+  0095 C3 88 00    		jmp plumk0
0106+  0098             plumk1:
0107+  0098             		; Загружаем в таймер
0108+  0098 EB          		xchg
0109+  0099 71          		mov m, c
0110+  009A 70          		mov m, b
0111+  009B C9          		ret
0112+  009C             ;------------------------------------------------------------------
0113+  009C             
0114+  009C 00          plumk: .db 0
0115+  009D             
0116+  009D             ;------------------------------------------------------------------
0117+  009D             
0118+  009D 58 01       musicptr:	.dw music
0119+  009F 00 00 00 00 channelInfo:	.db 0,0,0,0
0120+  00A3 00 00 00 00 		.db 0,0,0,0
0121+  00A7 00 00 00 00 		.db 0,0,0,0
0122+  00AB             
0123+  00AB             ;------------------------------------------------------------------
0124+  00AB             
0125+  00AB             
0126+  00AB E5          restartMelody:  push h
0127+  00AC CD 16 00    		call initMusic
0128+  00AF E1          		pop h
0129+  00B0             
0130+  00B0             processChannel:	; hl - указатель на channelInfo
0131+  00B0             		; e - канал
0132+  00B0             
0133+  00B0 7E          		mov a, m
0134+  00B1 B7          		ora a
0135+  00B2 C2 FA 00    		jnz channelWait
0136+  00B5             
0137+  00B5                             ; a = *musicptr++
0138+  00B5 E5          		push h
0139+  00B6 2A 9D 00    		lhld musicptr
0140+  00B9 7E          		mov a, m
0141+  00BA E1          		pop h
0142+  00BB FE FF       		cpi 0FFh
0143+  00BD C8          		rz
0144+  00BE E5          		push h
0145+  00BF 2A 9D 00    		lhld musicptr
0146+  00C2 23          		inx h
0147+  00C3 22 9D 00    		shld musicptr
0148+  00C6 E1          		pop h
0149+  00C7             
0150+  00C7             		; end of melody
0151+  00C7             		;cpi 0FFh
0152+  00C7             		;jz restartMelody
0153+  00C7             
0154+  00C7             		; delay
0155+  00C7 57          		mov d, a		
0156+  00C8 07          		rlc
0157+  00C9 07          		rlc
0158+  00CA 07          		rlc
0159+  00CB E6 07       		ani 7
0160+  00CD 77          		mov m, a		
0161+  00CE             
0162+  00CE             		; note
0163+  00CE 7A          		mov a, d
0164+  00CF E6 1F       		ani 01Fh
0165+  00D1             
0166+  00D1             		; none
0167+  00D1 C8          		rz
0168+  00D2             
0169+  00D2             		; noise
0170+  00D2 FE 01       		cpi 1
0171+  00D4 CA E9 00    		jz noise
0172+  00D7             
0173+  00D7             		; bc = word_notes[a]
0174+  00D7 E5          		push h
0175+  00D8 6F          		mov l, a
0176+  00D9 26 00       		mvi h, 0
0177+  00DB 29          		dad h
0178+  00DC 01 1E 01    		lxi b, notes
0179+  00DF 09          		dad b
0180+  00E0 4E          		mov c, m
0181+  00E1 23          		inx h
0182+  00E2 46          		mov b, m
0183+  00E3 E1          		pop h
0184+  00E4             		
0185+  00E4             		; Задержа
0186+  00E4 3E 08       		mvi a, 8
0187+  00E6             
0188+  00E6 C3 EE 00    		jmp writeFq
0189+  00E9             
0190+  00E9             ;------------------------------------------------------------------
0191+  00E9             
0192+  00E9             noise:		; Задержа
0193+  00E9 3E 02       		mvi a, 2
0194+  00EB             
0195+  00EB             		; Частота
0196+  00EB 01 A0 00                    lxi b, 160
0197+  00EE             
0198+  00EE             writeFq:	; Задержа
0199+  00EE 23                		inx h
0200+  00EF 77          		mov m, a
0201+  00F0             
0202+  00F0             		; Сдвиг
0203+  00F0             ;		push h
0204+  00F0             ;		mvi h, 0
0205+  00F0             ;		mov l, e
0206+  00F0             ;		dad h
0207+  00F0             ;		dad h
0208+  00F0             ;		dad b
0209+  00F0             ;		mov b, h
0210+  00F0             ;		mov c, l
0211+  00F0             ;		pop h
0212+  00F0             
0213+  00F0             		; Запись частоты
0214+  00F0 23                		inx h
0215+  00F1 71          		mov m, c
0216+  00F2 23                		inx h
0217+  00F3 70          		mov m, b
0218+  00F4             
0219+  00F4             		; Запись частоты
0220+  00F4             ;		mov l, e
0221+  00F4             ;		mvi h, 0ECh
0222+  00F4             ;		mvi m, 1
0223+  00F4             ;		mvi m, 1
0224+  00F4             
0225+  00F4             		; Запись частоты
0226+  00F4 6B          		mov l, e
0227+  00F5 26 EC       		mvi h, 0ECh
0228+  00F7 71          		mov m, c
0229+  00F8 70          		mov m, b
0230+  00F9             
0231+  00F9 C9          		ret
0232+  00FA             		
0233+  00FA             ;------------------------------------------------------------------
0234+  00FA             
0235+  00FA 35          channelWait:	dcr m
0236+  00FB C9          		ret
0237+  00FC             
0238+  00FC             ;------------------------------------------------------------------
0239+  00FC             
0240+  00FC 21 03 EC    doMute:		lxi h, 0EC03h
0241+  00FF 11 A0 00    		lxi d, channelInfo+1
0242+  0102 06 3E       		mvi b, 3Eh
0243+  0104 CD 0E 01    		call mutex
0244+  0107 06 7E       		mvi b, 40h|3Eh
0245+  0109 CD 0E 01    		call mutex
0246+  010C 06 BE       		mvi b, 80h|3Eh
0247+  010E 1A          mutex:		ldax d
0248+  010F B7          		ora a
0249+  0110 CA 19 01    		jz l21
0250+  0113 3D          		dcr a
0251+  0114 C2 18 01    		jnz l11
0252+  0117 70          		mov m, b
0253+  0118 12          l11:		stax d
0254+  0119 13          l21:		inx d
0255+  011A 13          		inx d
0256+  011B 13          		inx d
0257+  011C 13          		inx d
0258+  011D C9          		ret
0022   011E             notes:		
0023   011E             .include "../music_notes.inc";
0001+  011E               
0002+  011E 00 00 0A 00  .dw 0,10,4304,4064,3616,5424,2720,8128,3040,4560,10848,9120,7680,7248,6096,2288
0002+  0122 D0 10 E0 0F 
0002+  0126 20 0E 30 15 
0002+  012A A0 0A C0 1F 
0002+  012E E0 0B D0 11 
0002+  0132 60 2A A0 23 
0002+  0136 00 1E 50 1C 
0002+  013A D0 17 F0 08 
0003+  013E 70 09 A0 0C  .dw 2416,3232,5760,12192,3840,4832,2880,8608,2160,2032,11520,6848,51200003+  0142 80 16 A0 2F 
0003+  0146 00 0F E0 12 
0003+  014A 40 0B A0 21 
0003+  014E 70 08 F0 07 
0003+  0152 00 2D C0 1A 
0003+  0156 00 14 
0024   0158             music:
0025   0158             .include "../music_data.inc"
0001+  0158               
0002+  0158 E2 E0 E0 E0  .db 226,224,224,224,224,224,227,224,224,224,224,224,228,224,224,163
0002+  015C E0 E0 E3 E0 
0002+  0160 E0 E0 E0 E0 
0002+  0164 E4 E0 E0 A3 
0003+  0168 E0 E0 65 60  .db 224,224,101,96,224,34,38,103,36,40,39,224,36,103,35,41
0003+  016C E0 22 26 67 
0003+  0170 24 28 27 E0 
0003+  0174 24 67 23 29 
0004+  0178 27 E2 AA E0  .db 39,226,170,224,101,224,224,106,43,227,103,224,103,224,99,224
0004+  017C 65 E0 E0 6A 
0004+  0180 2B E3 67 E0 
0004+  0184 67 E0 63 E0 
0005+  0188 6C E4 6D E0  .db 108,228,109,224,100,163,103,224,35,101,106,224,34,42,38,37
0005+  018C 64 A3 67 E0 
0005+  0190 23 65 6A E0 
0005+  0194 22 2A 26 25 
0006+  0198 24 2A 28 25  .db 36,42,40,37,224,36,46,35,45,41,43,226,170,3,68,40
0006+  019C E0 24 2E 23 
0006+  01A0 2D 29 2B E2 
0006+  01A4 AA 03 44 28 
0007+  01A8 65 03 44 E0  .db 101,3,68,224,106,40,38,43,40,227,103,47,48,103,102,224
0007+  01AC 6A 28 26 2B 
0007+  01B0 28 E3 67 2F 
0007+  01B4 30 67 66 E0 
0008+  01B8 63 66 6C 28  .db 99,102,108,40,36,228,109,17,72,100,100,163,103,35,41,35
0008+  01BC 24 E4 6D 11 
0008+  01C0 48 64 64 A3 
0008+  01C4 67 23 29 23 
0009+  01C8 25 65 6A 12  .db 37,101,106,18,69,34,42,3,3,38,37,35,36,42,35,40
0009+  01CC 45 22 2A 03 
0009+  01D0 03 26 25 23 
0009+  01D4 24 2A 23 28 
0010+  01D8 25 03 03 24  .db 37,3,3,36,46,35,35,45,35,41,43,3,3,226,170,115
0010+  01DC 2E 23 23 2D 
0010+  01E0 23 29 2B 03 
0010+  01E4 03 E2 AA 73 
0011+  01E8 11 48 65 E0  .db 17,72,101,224,100,106,35,43,41,227,103,35,20,4,103,99
0011+  01EC 64 6A 23 2B 
0011+  01F0 29 E3 67 23 
0011+  01F4 14 04 67 63 
0012+  01F8 E0 63 63 6C  .db 224,99,99,108,41,37,228,109,21,73,100,101,163,103,46,45
0012+  01FC 29 25 E4 6D 
0012+  0200 15 49 64 65 
0012+  0204 A3 67 2E 2D 
0013+  0208 23 2E 65 6A  .db 35,46,101,106,101,34,42,39,38,37,103,36,42,40,37,39
0013+  020C 65 22 2A 27 
0013+  0210 26 25 67 24 
0013+  0214 2A 28 25 27 
0014+  0218 24 2E 27 23  .db 36,46,39,35,45,7,7,41,43,39,226,170,3,68,40,101
0014+  021C 2D 07 07 29 
0014+  0220 2B 27 E2 AA 
0014+  0224 03 44 28 65 
0015+  0228 03 44 E0 6A  .db 3,68,224,106,40,38,43,40,227,103,47,48,103,102,224,99
0015+  022C 28 26 2B 28 
0015+  0230 E3 67 2F 30 
0015+  0234 67 66 E0 63 
0016+  0238 66 6C 28 24  .db 102,108,40,36,228,109,17,72,100,100,163,103,35,41,35,37
0016+  023C E4 6D 11 48 
0016+  0240 64 64 A3 67 
0016+  0244 23 29 23 25 
0017+  0248 65 6A 12 45  .db 101,106,18,69,34,42,3,3,38,37,35,36,42,35,40,37
0017+  024C 22 2A 03 03 
0017+  0250 26 25 23 24 
0017+  0254 2A 23 28 25 
0018+  0258 03 03 24 2E  .db 3,3,36,46,35,35,45,35,41,43,3,3,226,170,115,17
0018+  025C 23 23 2D 23 
0018+  0260 29 2B 03 03 
0018+  0264 E2 AA 73 11 
0019+  0268 48 65 E0 64  .db 72,101,224,100,106,35,43,41,227,103,35,20,4,103,99,224
0019+  026C 6A 23 2B 29 
0019+  0270 E3 67 23 14 
0019+  0274 04 67 63 E0 
0020+  0278 63 63 6C 29  .db 99,99,108,41,37,228,109,21,73,100,101,163,103,46,45,35
0020+  027C 25 E4 6D 15 
0020+  0280 49 64 65 A3 
0020+  0284 67 2E 2D 23 
0021+  0288 2E 65 6A 65  .db 46,101,106,101,34,42,39,38,37,103,36,42,40,37,39,36
0021+  028C 22 2A 27 26 
0021+  0290 25 67 24 2A 
0021+  0294 28 25 27 24 
0022+  0298 2E 27 23 2D  .db 46,39,35,45,7,7,41,43,39,233,171,22,230,105,224,64
0022+  029C 07 07 29 2B 
0022+  02A0 27 E9 AB 16 
0022+  02A4 E6 69 E0 40 
0023+  02A8 6B 16 46 37  .db 107,22,70,55,227,103,104,99,36,35,224,99,105,103,110,229
0023+  02AC E3 67 68 63 
0023+  02B0 24 23 E0 63 
0023+  02B4 69 67 6E E5 
0024+  02B8 6A 12 E5 65  .db 106,18,229,101,169,106,224,46,101,101,64,38,42,47,37,37
0024+  02BC A9 6A E0 2E 
0024+  02C0 65 65 40 26 
0024+  02C4 2A 2F 25 25 
0025+  02C8 26 2A 29 18  .db 38,42,41,24,21,2,89,73,3,41,47,37,37,38,46,41
0025+  02CC 15 02 59 49 
0025+  02D0 03 29 2F 25 
0025+  02D4 25 26 2E 29 
0026+  02D8 E9 AB 29 29  .db 233,171,41,41,41,105,105,224,107,41,41,55,41,227,103,35
0026+  02DC 29 69 69 E0 
0026+  02E0 6B 29 29 37 
0026+  02E4 29 E3 67 23 
0027+  02E8 23 63 23 63  .db 35,99,35,99,224,99,35,103,105,229,106,37,41,101,46,101
0027+  02EC E0 63 23 67 
0027+  02F0 69 E5 6A 25 
0027+  02F4 29 65 2E 65 
0028+  02F8 A9 6A 2E 2E  .db 169,106,46,46,37,101,101,37,37,43,42,41,39,37,35,26
0028+  02FC 25 65 65 25 
0028+  0300 25 2B 2A 29 
0028+  0304 27 25 23 1A 
0029+  0308 2A 12 4A 45  .db 42,18,74,69,21,73,51,46,106,37,109,46,233,171,22,230
0029+  030C 15 49 33 2E 
0029+  0310 6A 25 6D 2E 
0029+  0314 E9 AB 16 E6 
0030+  0318 69 E0 40 6B  .db 105,224,64,107,22,70,55,227,103,104,99,36,35,224,99,105
0030+  031C 16 46 37 E3 
0030+  0320 67 68 63 24 
0030+  0324 23 E0 63 69 
0031+  0328 67 6E E5 6A  .db 103,110,229,106,18,229,101,169,106,224,46,101,101,64,38,42
0031+  032C 12 E5 65 A9 
0031+  0330 6A E0 2E 65 
0031+  0334 65 40 26 2A 
0032+  0338 2F 25 25 26  .db 47,37,37,38,42,41,24,21,2,89,73,3,41,47,37,37
0032+  033C 2A 29 18 15 
0032+  0340 02 59 49 03 
0032+  0344 29 2F 25 25 
0033+  0348 26 2E 29 E9  .db 38,46,41,233,171,41,41,41,105,105,224,107,41,41,55,41
0033+  034C AB 29 29 29 
0033+  0350 69 69 E0 6B 
0033+  0354 29 29 37 29 
0034+  0358 E3 67 23 23  .db 227,103,35,35,99,35,99,224,99,35,103,105,229,106,37,41
0034+  035C 63 23 63 E0 
0034+  0360 63 23 67 69 
0034+  0364 E5 6A 25 29 
0035+  0368 65 2E 65 A9  .db 101,46,101,169,106,46,46,37,101,101,37,37,43,42,41,39
0035+  036C 6A 2E 2E 25 
0035+  0370 65 65 25 25 
0035+  0374 2B 2A 29 27 
0036+  0378 25 23 1A 2A  .db 37,35,26,42,18,74,69,21,73,51,46,106,37,237,46,226
0036+  037C 12 4A 45 15 
0036+  0380 49 33 2E 6A 
0036+  0384 25 ED 2E E2 
0037+  0388 AA 23 65 29  .db 170,35,101,41,224,20,68,106,101,43,227,103,35,41,103,20
0037+  038C E0 14 44 6A 
0037+  0390 65 2B E3 67 
0037+  0394 23 29 67 14 
0038+  0398 44 E0 63 65  .db 68,224,99,101,108,37,46,228,109,109,100,39,45,163,103,46
0038+  039C 6C 25 2E E4 
0038+  03A0 6D 6D 64 27 
0038+  03A4 2D A3 67 2E 
0039+  03A8 2D 23 2E 65  .db 45,35,46,101,106,18,69,34,42,37,38,37,37,36,42,101
0039+  03AC 6A 12 45 22 
0039+  03B0 2A 25 26 25 
0039+  03B4 25 24 2A 65 
0040+  03B8 28 25 24 2E  .db 40,37,36,46,5,5,35,45,37,41,43,37,226,170,102,40
0040+  03BC 05 05 23 2D 
0040+  03C0 25 29 2B 25 
0040+  03C4 E2 AA 66 28 
0041+  03C8 65 68 E0 6A  .db 101,104,224,106,40,104,43,227,103,35,41,103,99,224,99,20
0041+  03CC 28 68 2B E3 
0041+  03D0 67 23 29 67 
0041+  03D4 63 E0 63 14 
0042+  03D8 04 23 6C 29  .db 4,35,108,41,37,228,109,105,100,41,37,163,103,41,41,35
0042+  03DC 25 E4 6D 69 
0042+  03E0 64 29 25 A3 
0042+  03E4 67 29 29 23 
0043+  03E8 2E 65 6A 65  .db 46,101,106,101,34,42,10,11,38,37,23,7,36,42,12,13
0043+  03EC 22 2A 0A 0B 
0043+  03F0 26 25 17 07 
0043+  03F4 24 2A 0C 0D 
0044+  03F8 28 25 0E 12  .db 40,37,14,18,36,46,5,9,35,45,2,3,41,43,20,4
0044+  03FC 24 2E 05 09 
0044+  0400 23 2D 02 03 
0044+  0404 29 2B 14 04 
0045+  0408 E2 AA 08 04  .db 226,170,8,4,3,6,4,3,101,8,4,224,3,6,106,4
0045+  040C 03 06 04 03 
0045+  0410 65 08 04 E0 
0045+  0414 03 06 6A 04 
0046+  0418 03 08 04 2B  .db 3,8,4,43,3,6,227,103,4,3,8,4,103,3,6,4
0046+  041C 03 06 E3 67 
0046+  0420 04 03 08 04 
0046+  0424 67 03 06 04 
0047+  0428 03 E0 63 08  .db 3,224,99,8,4,3,6,108,4,3,8,4,228,109,111,100
0047+  042C 04 03 06 6C 
0047+  0430 04 03 08 04 
0047+  0434 E4 6D 6F 64 
0048+  0438 2F 26 A3 67  .db 47,38,163,103,24,25,47,35,40,101,106,166,34,42,38,37
0048+  043C 18 19 2F 23 
0048+  0440 28 65 6A A6 
0048+  0444 22 2A 26 25 
0049+  0448 06 16 24 2A  .db 6,22,36,42,8,17,40,37,4,20,36,46,3,9,35,45
0049+  044C 08 11 28 25 
0049+  0450 04 14 24 2E 
0049+  0454 03 09 23 2D 
0050+  0458 05 12 29 2B  .db 5,18,41,43,14,27,226,170,45,39,45,101,18,133,224,106
0050+  045C 0E 1B E2 AA 
0050+  0460 2D 27 2D 65 
0050+  0464 12 85 E0 6A 
0051+  0468 2D 2B 27 E3  .db 45,43,39,227,103,45,18,133,103,224,99,2,3,41,108,101
0051+  046C 67 2D 12 85 
0051+  0470 67 E0 63 02 
0051+  0474 03 29 6C 65 
0052+  0478 E4 6D 02 43  .db 228,109,2,67,100,116,163,103,100,35,35,101,106,18,197,34
0052+  047C 64 74 A3 67 
0052+  0480 64 23 23 65 
0052+  0484 6A 12 C5 22 
0053+  0488 2A 26 25 24  .db 42,38,37,36,42,36,40,37,104,36,46,35,45,36,41,43
0053+  048C 2A 24 28 25 
0053+  0490 68 24 2E 23 
0053+  0494 2D 24 29 2B 
0054+  0498 28 E9 AB 16  .db 40,233,171,22,230,105,224,64,107,22,70,55,227,103,104,99
0054+  049C E6 69 E0 40 
0054+  04A0 6B 16 46 37 
0054+  04A4 E3 67 68 63 
0055+  04A8 24 23 E0 63  .db 36,35,224,99,105,103,110,229,106,18,229,101,169,106,224,46
0055+  04AC 69 67 6E E5 
0055+  04B0 6A 12 E5 65 
0055+  04B4 A9 6A E0 2E 
0056+  04B8 65 65 40 26  .db 101,101,64,38,42,47,37,37,38,42,41,24,21,2,89,73
0056+  04BC 2A 2F 25 25 
0056+  04C0 26 2A 29 18 
0056+  04C4 15 02 59 49 
0057+  04C8 03 29 2F 25  .db 3,41,47,37,37,38,46,41,233,171,41,41,41,105,105,224
0057+  04CC 25 26 2E 29 
0057+  04D0 E9 AB 29 29 
0057+  04D4 29 69 69 E0 
0058+  04D8 6B 29 29 37  .db 107,41,41,55,41,227,103,35,35,99,35,99,224,99,35,103
0058+  04DC 29 E3 67 23 
0058+  04E0 23 63 23 63 
0058+  04E4 E0 63 23 67 
0059+  04E8 69 E5 6A 25  .db 105,229,106,37,41,101,46,101,169,106,46,46,37,101,101,37
0059+  04EC 29 65 2E 65 
0059+  04F0 A9 6A 2E 2E 
0059+  04F4 25 65 65 25 
0060+  04F8 25 2B 2A 29  .db 37,43,42,41,39,37,35,26,42,18,74,69,21,73,51,46
0060+  04FC 27 25 23 1A 
0060+  0500 2A 12 4A 45 
0060+  0504 15 49 33 2E 
0061+  0508 6A 25 6D 2E  .db 106,37,109,46,233,171,22,230,105,224,64,107,22,70,55,227
0061+  050C E9 AB 16 E6 
0061+  0510 69 E0 40 6B 
0061+  0514 16 46 37 E3 
0062+  0518 67 68 63 24  .db 103,104,99,36,35,224,99,105,103,110,229,106,18,229,101,169
0062+  051C 23 E0 63 69 
0062+  0520 67 6E E5 6A 
0062+  0524 12 E5 65 A9 
0063+  0528 6A E0 2E 65  .db 106,224,46,101,101,64,38,42,47,37,37,38,42,41,24,21
0063+  052C 65 40 26 2A 
0063+  0530 2F 25 25 26 
0063+  0534 2A 29 18 15 
0064+  0538 02 59 49 03  .db 2,89,73,3,41,47,37,37,38,46,41,233,171,41,41,41
0064+  053C 29 2F 25 25 
0064+  0540 26 2E 29 E9 
0064+  0544 AB 29 29 29 
0065+  0548 69 69 E0 6B  .db 105,105,224,107,41,41,55,41,227,103,35,35,99,35,99,224
0065+  054C 29 29 37 29 
0065+  0550 E3 67 23 23 
0065+  0554 63 23 63 E0 
0066+  0558 63 23 67 69  .db 99,35,103,105,229,106,37,41,101,46,101,169,106,46,46,37
0066+  055C E5 6A 25 29 
0066+  0560 65 2E 65 A9 
0066+  0564 6A 2E 2E 25 
0067+  0568 65 65 25 25  .db 101,101,37,37,43,42,41,39,37,35,26,42,18,74,69,21
0067+  056C 2B 2A 29 27 
0067+  0570 25 23 1A 2A 
0067+  0574 12 4A 45 15 
0068+  0578 49 33 2E EA  .db 73,51,46,234,37,237,46,170,224,224,101,106,224,224,43,103
0068+  057C 25 ED 2E AA 
0068+  0580 E0 E0 65 6A 
0068+  0584 E0 E0 2B 67 
0069+  0588 E0 67 E0 63  .db 224,103,224,99,224,108,224,109,224,100,224,103,224,35,224,106
0069+  058C E0 6C E0 6D 
0069+  0590 E0 64 E0 67 
0069+  0594 E0 23 E0 6A 
0070+  0598 2A E0 25 E0  .db 42,224,37,224,42,37,46,224,45,224,43,170,224,224,101,106
0070+  059C 2A 25 2E E0 
0070+  05A0 2D E0 2B AA 
0070+  05A4 E0 E0 65 6A 
0071+  05A8 E0 E0 2B 67  .db 224,224,43,103,224,103,224,99,224,108,224,109,224,100,224,103
0071+  05AC E0 67 E0 63 
0071+  05B0 E0 6C E0 6D 
0071+  05B4 E0 64 E0 67 
0072+  05B8 E0 23 E0 6A  .db 224,35,224,106,42,224,37,224,42,37,46,192,45,96,43,170
0072+  05BC 2A E0 25 E0 
0072+  05C0 2A 25 2E C0 
0072+  05C4 2D 60 2B AA 
0073+  05C8 66 66 28 65  .db 102,102,40,101,16,40,79,16,79,106,40,102,40,43,102,103
0073+  05CC 10 28 4F 10 
0073+  05D0 4F 6A 28 66 
0073+  05D4 28 2B 66 67 
0074+  05D8 28 10 28 4F  .db 40,16,40,79,103,16,79,40,99,102,40,102,108,40,16,40
0074+  05DC 67 10 4F 28 
0074+  05E0 63 66 28 66 
0074+  05E4 6C 28 10 28 
0075+  05E8 0F 6D F9 10  .db 15,109,249,16,15,249,100,103,185,185,35,106,120,120,42,230
0075+  05EC 0F F9 64 67 
0075+  05F0 B9 B9 23 6A 
0075+  05F4 78 78 2A E6 
0076+  05F8 25 E6 2A 25  .db 37,230,42,37,46,160,45,160,43,170,25,15,6,25,15,15
0076+  05FC 2E A0 2D A0 
0076+  0600 2B AA 19 0F 
0076+  0604 06 19 0F 0F 
0077+  0608 06 06 08 0F  .db 6,6,8,15,101,6,6,8,8,4,6,8,8,106,4,4
0077+  060C 65 06 06 08 
0077+  0610 08 04 06 08 
0077+  0614 08 6A 04 04 
0078+  0618 03 08 04 04  .db 3,8,4,4,3,3,43,9,4,14,3,103,229,9,14,229
0078+  061C 03 03 2B 09 
0078+  0620 04 0E 03 67 
0078+  0624 E5 09 0E E5 
0079+  0628 67 63 69 69  .db 103,99,105,105,108,99,99,109,20,196,20,196,100,103,8,4
0079+  062C 6C 63 63 6D 
0079+  0630 14 C4 14 C4 
0079+  0634 64 67 08 04 
0080+  0638 08 08 04 04  .db 8,8,4,4,35,8,8,4,4,106,8,8,4,4,22,8
0080+  063C 23 08 08 04 
0080+  0640 04 6A 08 08 
0080+  0644 04 04 16 08 
0081+  0648 E6 04 2A 16  .db 230,4,42,22,230,37,42,37,192,46,192,45,43,170,102,102
0081+  064C E6 25 2A 25 
0081+  0650 C0 2E C0 2D 
0081+  0654 2B AA 66 66 
0082+  0658 28 65 10 28  .db 40,101,16,40,79,16,79,106,40,102,40,43,102,103,40,16
0082+  065C 4F 10 4F 6A 
0082+  0660 28 66 28 2B 
0082+  0664 66 67 28 10 
0083+  0668 28 4F 67 10  .db 40,79,103,16,79,40,99,102,40,102,108,40,16,40,15,109
0083+  066C 4F 28 63 66 
0083+  0670 28 66 6C 28 
0083+  0674 10 28 0F 6D 
0084+  0678 F9 10 0F F9  .db 249,16,15,249,100,103,185,185,35,106,120,120,42,230,37,230
0084+  067C 64 67 B9 B9 
0084+  0680 23 6A 78 78 
0084+  0684 2A E6 25 E6 
0085+  0688 2A 25 2E A0  .db 42,37,46,160,45,160,43,170,25,15,6,25,15,15,6,6
0085+  068C 2D A0 2B AA 
0085+  0690 19 0F 06 19 
0085+  0694 0F 0F 06 06 
0086+  0698 08 0F 65 06  .db 8,15,101,6,6,8,8,4,6,8,8,106,4,4,3,8
0086+  069C 06 08 08 04 
0086+  06A0 06 08 08 6A 
0086+  06A4 04 04 03 08 
0087+  06A8 04 04 03 03  .db 4,4,3,3,43,9,4,14,3,103,229,9,14,229,103,99
0087+  06AC 2B 09 04 0E 
0087+  06B0 03 67 E5 09 
0087+  06B4 0E E5 67 63 
0088+  06B8 69 69 6C 63  .db 105,105,108,99,99,109,20,196,20,196,100,103,8,4,8,8
0088+  06BC 63 6D 14 C4 
0088+  06C0 14 C4 64 67 
0088+  06C4 08 04 08 08 
0089+  06C8 04 04 23 08  .db 4,4,35,8,8,4,4,106,8,8,4,4,22,8,230,4
0089+  06CC 08 04 04 6A 
0089+  06D0 08 08 04 04 
0089+  06D4 16 08 E6 04 
0090+  06D8 2A 16 E6 25  .db 42,22,230,37,42,37,192,46,96,45,43,233,171,22,230,105
0090+  06DC 2A 25 C0 2E 
0090+  06E0 60 2D 2B E9 
0090+  06E4 AB 16 E6 69 
0091+  06E8 E0 40 6B 16  .db 224,64,107,22,70,55,227,103,104,99,36,35,224,99,105,103
0091+  06EC 46 37 E3 67 
0091+  06F0 68 63 24 23 
0091+  06F4 E0 63 69 67 
0092+  06F8 6E E5 6A 12  .db 110,229,106,18,229,101,169,106,224,46,101,101,64,38,42,47
0092+  06FC E5 65 A9 6A 
0092+  0700 E0 2E 65 65 
0092+  0704 40 26 2A 2F 
0093+  0708 25 25 26 2A  .db 37,37,38,42,41,24,21,2,89,73,3,41,47,37,37,38
0093+  070C 29 18 15 02 
0093+  0710 59 49 03 29 
0093+  0714 2F 25 25 26 
0094+  0718 2E 29 E9 AB  .db 46,41,233,171,41,41,41,105,105,224,107,41,41,55,41,227
0094+  071C 29 29 29 69 
0094+  0720 69 E0 6B 29 
0094+  0724 29 37 29 E3 
0095+  0728 67 23 23 63  .db 103,35,35,99,35,99,224,99,35,103,105,229,106,37,41,101
0095+  072C 23 63 E0 63 
0095+  0730 23 67 69 E5 
0095+  0734 6A 25 29 65 
0096+  0738 2E 65 A9 6A  .db 46,101,169,106,46,46,37,101,101,37,37,43,42,41,39,37
0096+  073C 2E 2E 25 65 
0096+  0740 65 25 25 2B 
0096+  0744 2A 29 27 25 
0097+  0748 23 1A 2A 12  .db 35,26,42,18,74,69,21,73,51,46,106,37,109,46,233,171
0097+  074C 4A 45 15 49 
0097+  0750 33 2E 6A 25 
0097+  0754 6D 2E E9 AB 
0098+  0758 16 E6 69 E0  .db 22,230,105,224,64,107,22,70,55,227,103,104,99,36,35,224
0098+  075C 40 6B 16 46 
0098+  0760 37 E3 67 68 
0098+  0764 63 24 23 E0 
0099+  0768 63 69 67 6E  .db 99,105,103,110,229,106,18,229,101,169,106,224,46,101,101,64
0099+  076C E5 6A 12 E5 
0099+  0770 65 A9 6A E0 
0099+  0774 2E 65 65 40 
0100+  0778 26 2A 2F 25  .db 38,42,47,37,37,38,42,41,24,21,2,89,73,3,41,47
0100+  077C 25 26 2A 29 
0100+  0780 18 15 02 59 
0100+  0784 49 03 29 2F 
0101+  0788 25 25 26 2E  .db 37,37,38,46,41,233,171,41,41,41,105,105,224,107,41,41
0101+  078C 29 E9 AB 29 
0101+  0790 29 29 69 69 
0101+  0794 E0 6B 29 29 
0102+  0798 37 29 E3 67  .db 55,41,227,103,35,35,99,35,99,224,99,35,103,105,229,106
0102+  079C 23 23 63 23 
0102+  07A0 63 E0 63 23 
0102+  07A4 67 69 E5 6A 
0103+  07A8 25 29 65 2E  .db 37,41,101,46,101,169,106,46,46,37,101,101,37,37,43,42
0103+  07AC 65 A9 6A 2E 
0103+  07B0 2E 25 65 65 
0103+  07B4 25 25 2B 2A 
0104+  07B8 29 27 25 23  .db 41,39,37,35,26,42,18,74,69,21,73,51,46,106,37,109
0104+  07BC 1A 2A 12 4A 
0104+  07C0 45 15 49 33 
0104+  07C4 2E 6A 25 6D 
0105+  07C8 2E E2 AA 03  .db 46,226,170,3,68,40,101,3,68,224,106,40,38,43,40,227
0105+  07CC 44 28 65 03 
0105+  07D0 44 E0 6A 28 
0105+  07D4 26 2B 28 E3 
0106+  07D8 67 2F 30 67  .db 103,47,48,103,102,224,99,102,108,40,36,228,109,17,72,100
0106+  07DC 66 E0 63 66 
0106+  07E0 6C 28 24 E4 
0106+  07E4 6D 11 48 64 
0107+  07E8 64 A3 67 23  .db 100,163,103,35,41,35,37,101,106,18,69,34,42,3,3,38
0107+  07EC 29 23 25 65 
0107+  07F0 6A 12 45 22 
0107+  07F4 2A 03 03 26 
0108+  07F8 25 23 24 2A  .db 37,35,36,42,35,40,37,3,3,36,46,35,35,45,35,41
0108+  07FC 23 28 25 03 
0108+  0800 03 24 2E 23 
0108+  0804 23 2D 23 29 
0109+  0808 2B 03 03 E2  .db 43,3,3,226,170,115,17,72,101,224,100,106,35,43,41,227
0109+  080C AA 73 11 48 
0109+  0810 65 E0 64 6A 
0109+  0814 23 2B 29 E3 
0110+  0818 67 23 14 04  .db 103,35,20,4,103,99,224,99,99,108,41,37,228,109,21,73
0110+  081C 67 63 E0 63 
0110+  0820 63 6C 29 25 
0110+  0824 E4 6D 15 49 
0111+  0828 64 65 A3 67  .db 100,101,163,103,46,45,35,46,101,106,101,34,42,39,38,37
0111+  082C 2E 2D 23 2E 
0111+  0830 65 6A 65 22 
0111+  0834 2A 27 26 25 
0112+  0838 67 24 2A 28  .db 103,36,42,40,37,39,36,46,39,35,45,7,7,41,43,39
0112+  083C 25 27 24 2E 
0112+  0840 27 23 2D 07 
0112+  0844 07 29 2B 27 
0113+  0848 E2 AA 03 44  .db 226,170,3,68,40,101,3,68,224,106,40,38,43,40,227,103
0113+  084C 28 65 03 44 
0113+  0850 E0 6A 28 26 
0113+  0854 2B 28 E3 67 
0114+  0858 2F 30 67 66  .db 47,48,103,102,224,99,102,108,40,36,228,109,17,72,100,100
0114+  085C E0 63 66 6C 
0114+  0860 28 24 E4 6D 
0114+  0864 11 48 64 64 
0115+  0868 A3 67 23 29  .db 163,103,35,41,35,37,101,106,18,69,34,42,3,3,38,37
0115+  086C 23 25 65 6A 
0115+  0870 12 45 22 2A 
0115+  0874 03 03 26 25 
0116+  0878 23 24 2A 23  .db 35,36,42,35,40,37,3,3,36,46,35,35,45,35,41,43
0116+  087C 28 25 03 03 
0116+  0880 24 2E 23 23 
0116+  0884 2D 23 29 2B 
0117+  0888 03 03 E2 AA  .db 3,3,226,170,115,17,72,101,224,100,106,35,43,41,227,103
0117+  088C 73 11 48 65 
0117+  0890 E0 64 6A 23 
0117+  0894 2B 29 E3 67 
0118+  0898 23 14 04 67  .db 35,20,4,103,99,224,99,99,108,41,37,228,109,21,73,100
0118+  089C 63 E0 63 63 
0118+  08A0 6C 29 25 E4 
0118+  08A4 6D 15 49 64 
0119+  08A8 65 A3 67 2E  .db 101,163,103,46,45,35,46,101,106,101,34,42,39,38,37,103
0119+  08AC 2D 23 2E 65 
0119+  08B0 6A 65 22 2A 
0119+  08B4 27 26 25 67 
0120+  08B8 24 2A 28 25  .db 36,42,40,37,39,36,46,39,35,45,7,7,41,43,39,233
0120+  08BC 27 24 2E 27 
0120+  08C0 23 2D 07 07 
0120+  08C4 29 2B 27 E9 
0121+  08C8 AB 16 E6 69  .db 171,22,230,105,224,64,107,22,70,55,227,103,104,99,36,35
0121+  08CC E0 40 6B 16 
0121+  08D0 46 37 E3 67 
0121+  08D4 68 63 24 23 
0122+  08D8 E0 63 69 67  .db 224,99,105,103,110,229,106,18,229,101,169,106,224,46,101,101
0122+  08DC 6E E5 6A 12 
0122+  08E0 E5 65 A9 6A 
0122+  08E4 E0 2E 65 65 
0123+  08E8 40 26 2A 2F  .db 64,38,42,47,37,37,38,42,41,24,21,2,89,73,3,41
0123+  08EC 25 25 26 2A 
0123+  08F0 29 18 15 02 
0123+  08F4 59 49 03 29 
0124+  08F8 2F 25 25 26  .db 47,37,37,38,46,41,233,171,41,41,41,105,105,224,107,41
0124+  08FC 2E 29 E9 AB 
0124+  0900 29 29 29 69 
0124+  0904 69 E0 6B 29 
0125+  0908 29 37 29 E3  .db 41,55,41,227,103,35,35,99,35,99,224,99,35,103,105,229
0125+  090C 67 23 23 63 
0125+  0910 23 63 E0 63 
0125+  0914 23 67 69 E5 
0126+  0918 6A 25 29 65  .db 106,37,41,101,46,101,169,106,46,46,37,101,101,37,37,43
0126+  091C 2E 65 A9 6A 
0126+  0920 2E 2E 25 65 
0126+  0924 65 25 25 2B 
0127+  0928 2A 29 27 25  .db 42,41,39,37,35,26,42,18,74,69,21,73,51,46,106,37
0127+  092C 23 1A 2A 12 
0127+  0930 4A 45 15 49 
0127+  0934 33 2E 6A 25 
0128+  0938 6D 2E E9 AB  .db 109,46,233,171,22,230,105,224,64,107,22,70,55,227,103,104
0128+  093C 16 E6 69 E0 
0128+  0940 40 6B 16 46 
0128+  0944 37 E3 67 68 
0129+  0948 63 24 23 E0  .db 99,36,35,224,99,105,103,110,229,106,18,229,101,169,106,224
0129+  094C 63 69 67 6E 
0129+  0950 E5 6A 12 E5 
0129+  0954 65 A9 6A E0 
0130+  0958 2E 65 65 40  .db 46,101,101,64,38,42,47,37,37,38,42,41,24,21,2,89
0130+  095C 26 2A 2F 25 
0130+  0960 25 26 2A 29 
0130+  0964 18 15 02 59 
0131+  0968 49 03 29 2F  .db 73,3,41,47,37,37,38,46,41,233,171,41,41,41,105,105
0131+  096C 25 25 26 2E 
0131+  0970 29 E9 AB 29 
0131+  0974 29 29 69 69 
0132+  0978 E0 6B 29 29  .db 224,107,41,41,55,41,227,103,35,35,99,35,99,224,99,35
0132+  097C 37 29 E3 67 
0132+  0980 23 23 63 23 
0132+  0984 63 E0 63 23 
0133+  0988 67 69 E5 6A  .db 103,105,229,106,37,41,101,46,101,169,106,46,46,37,101,101
0133+  098C 25 29 65 2E 
0133+  0990 65 A9 6A 2E 
0133+  0994 2E 25 65 65 
0134+  0998 25 25 2B 2A  .db 37,37,43,42,41,39,37,35,26,42,18,74,69,21,73,51
0134+  099C 29 27 25 23 
0134+  09A0 1A 2A 12 4A 
0134+  09A4 45 15 49 33 
0135+  09A8 2E 6A 25 6D  .db 46,106,37,109,46,124,100,101,60,36,37,28,35,45,28,124
0135+  09AC 2E 7C 64 65 
0135+  09B0 3C 24 25 1C 
0135+  09B4 23 2D 1C 7C 
0136+  09B8 23 2E 23 2E  .db 35,46,35,46,60,37,39,124,110,109,28,46,45,28,60,109
0136+  09BC 3C 25 27 7C 
0136+  09C0 6E 6D 1C 2E 
0136+  09C4 2D 1C 3C 6D 
0137+  09C8 6B 3C 3C 02  .db 107,60,60,2,23,3,7,60,41,43,124,101,106,60,46,51
0137+  09CC 17 03 07 3C 
0137+  09D0 29 2B 7C 65 
0137+  09D4 6A 3C 2E 33 
0138+  09D8 3C 32 3A FC  .db 60,50,58,252,229,234,224,224,224,224,224,224,96,96,96,2550138+  09DC E5 EA E0 E0 
0138+  09E0 E0 E0 E0 E0 
0138+  09E4 60 60 60 FF 
0026   09E8             
0027   09E8             .endtasm: Number of errors = 0
