00001   0000                 device zxspectrum48
00002   0000                org 100h - 16h
00003   00EA             begin: 
00004   00EA                 db "ISKRA1080", 0xD0, "LINES ", entry, entry >> 8, end, end >> 8,  entry, entry >> 8
00004   00EA 49534B524131303830D04C494E455320000147600001
00005   0100             entry: 
00006   0100 C3 03 01    	jp main
00007   0103             main: 
00008   0103             	; Stack correction reset
00009   0103             ; 407 );
00010   0103 CD 5E 02    	call Intro
00011   0106             ; 408     NewGame();
00012   0106 CD C9 02    	call NewGame
00013   0109             ; 409     char previousPressedKey = 0;
00014   0109 AF          	xor a
00015   010A 32 29 5F    	ld (main_s + 0), a
00016   010D             ; 410     uint8_t keybTimeout = 0;
00017   010D             ; REMOVED
00018   010D 32 2A 5F    	ld (main_s + 1), a
00019   0110             l_0: 
00020   0110             ; 411     for (;;) {
00021   0110             ; 412         // Детаем генератор случайных чисел более случайным
00022   0110             ; 413         (void)rand();
00023   0110 CD 2B 03    	call rand
00024   0113             ; 414 
00025   0113             ; 415         // Анимация выбранного шарика
00026   0113             ; 416         BouncingBallAnimation();
00027   0113 CD 36 03    	call BouncingBallAnimation
00028   0116             ; 417 
00029   0116             ; 418         char pressedKey = ReadKeyboard(true);
00030   0116             ; 25 ;
00031   0116 3E 01       	ld a, 1
00032   0118 CD 9E 03    	call ReadKeyboard
00033   011B 32 2B 5F    	ld (main_s + 2), a
00034   011E             ; 421  != 0) {
00035   011E 3A 2A 5F    	ld a, (main_s + 1)
00036   0121 B7          	or a
00037   0122 CA 2C 01    	jp z, l_3
00038   0125             ; 422             keybTimeout--;
00039   0125             ; REMOVED
00040   0125 3D          	dec a
00041   0126 32 2A 5F    	ld (main_s + 1), a
00042   0129 C3 10 01    	jp l_0
00043   012C             l_3: 
00044   012C             ; 423             continue;
00045   012C             ; 424         }
00046   012C             ; 425 
00047   012C             ; 426         // Только факт нажатия
00048   012C             ; 427         if (pressedKey == previousPressedKey) {
00049   012C 3A 29 5F    	ld a, (main_s + 0)
00050   012F 57          	ld d, a
00051   0130 3A 2B 5F    	ld a, (main_s + 2)
00052   0133 BA          	cp d
00053   0134 C2 40 01    	jp nz, l_5
00054   0137             ; 428             Delay(50);
00055   0137 21 32 00    	ld hl, 50
00056   013A CD A2 04    	call Delay
00057   013D C3 10 01    	jp l_0
00058   0140             l_5: 
00059   0140             ; 429             continue;
00060   0140             ; 430         }
00061   0140             ; 431         previousPressedKey = pressedKey;
00062   0140             ; REMOVED
00063   0140 32 29 5F    	ld (main_s + 0), a
00064   0143             ; 432         if (pressedKey == 0) continue;
00065   0143 3A 2B 5F    	ld a, (main_s + 2)
00066   0146 B7          	or a
00067   0147 CA 10 01    	jp z, l_0
00068   014A             ; REMOVED
00069   014A             ; REMOVED
00070   014A             ; 433         keybTimeout = 50;  // TODO: magic
00071   014A 3E 32       	ld a, 50
00072   014C 32 2A 5F    	ld (main_s + 1), a
00073   014F             ; 434 
00074   014F             ; 435         switch (pressedKey) {
00075   014F 3A 2B 5F    	ld a, (main_s + 2)
00076   0152 D6 0D       	sub 13
00077   0154 CA 57 02    	jp z, l_12
00078   0157 D6 04       	sub 4
00079   0159 CA 57 02    	jp z, l_11
00080   015C D6 06       	sub 6
00081   015E CA E7 01    	jp z, l_16
00082   0161 3D          	dec a
00083   0162 CA 3B 02    	jp z, l_13
00084   0165 3D          	dec a
00085   0166 CA 1F 02    	jp z, l_14
00086   0169 3D          	dec a
00087   016A CA 03 02    	jp z, l_15
00088   016D D6 06       	sub 6
00089   016F CA 57 02    	jp z, l_10
00090   0172 D6 11       	sub 17
00091   0174 CA 8E 01    	jp z, l_22
00092   0177 3D          	dec a
00093   0178 CA 94 01    	jp z, l_21
00094   017B 3D          	dec a
00095   017C CA A8 01    	jp z, l_20
00096   017F 3D          	dec a
00097   0180 CA BC 01    	jp z, l_19
00098   0183 3D          	dec a
00099   0184 CA D3 01    	jp z, l_18
00100   0187 3D          	dec a
00101   0188 CA E1 01    	jp z, l_17
00102   018B C3 10 01    	jp l_0
00103   018E             l_22: 
00104   018E             ; 436             case '1':
00105   018E             ; 437                 ChangePalette();
00106   018E CD B2 04    	call ChangePalette
00107   0191 C3 10 01    	jp l_0
00108   0194             l_21: 
00109   0194             ; 438                 break;
00110   0194             ; 439             case '2':
00111   0194             ; 440                 showPath ^= 1;
00112   0194 3A 7E 5D    	ld a, (showPath)
00113   0197 EE 01       	xor 1
00114   0199 32 7E 5D    	ld (showPath), a
00115   019C             ; 441                 DrawButton(BUTTON_PATH, showPath);
00116   019C             ; 1 *6000
00117   019C 21 08 F2    	ld hl, 61960
00118   019F 22 FB 5E    	ld (DrawButton_1_a), hl
00119   01A2             ; 441 );
00120   01A2             ; REMOVED
00121   01A2 CD CA 04    	call DrawButton
00122   01A5 C3 10 01    	jp l_0
00123   01A8             l_20: 
00124   01A8             ; 442                 break;
00125   01A8             ; 443             case '3':
00126   01A8             ; 444                 soundEnabled ^= 1;
00127   01A8 3A 80 5D    	ld a, (soundEnabled)
00128   01AB EE 01       	xor 1
00129   01AD 32 80 5D    	ld (soundEnabled), a
00130   01B0             ; 445                 DrawButton(BUTTON_SOUND, soundEnabled);
00131   01B0             ; 1 *6000
00132   01B0 21 08 EA    	ld hl, 59912
00133   01B3 22 FB 5E    	ld (DrawButton_1_a), hl
00134   01B6             ; 445 );
00135   01B6             ; REMOVED
00136   01B6 CD CA 04    	call DrawButton
00137   01B9 C3 10 01    	jp l_0
00138   01BC             l_19: 
00139   01BC             ; 446                 break;
00140   01BC             ; 447             case '4':
00141   01BC             ; 448                 showHelp ^= 1;
00142   01BC 3A 7F 5D    	ld a, (showHelp)
00143   01BF EE 01       	xor 1
00144   01C1 32 7F 5D    	ld (showHelp), a
00145   01C4             ; 449                 DrawButton(BUTTON_HELP, showHelp);
00146   01C4             ; 1 *6000
00147   01C4 21 08 E2    	ld hl, 57864
00148   01C7 22 FB 5E    	ld (DrawButton_1_a), hl
00149   01CA             ; 449 );
00150   01CA             ; REMOVED
00151   01CA CD CA 04    	call DrawButton
00152   01CD             ; 450                 DrawHelp();
00153   01CD CD 22 05    	call DrawHelp
00154   01D0 C3 10 01    	jp l_0
00155   01D3             l_18: 
00156   01D3             ; 451                 break;
00157   01D3             ; 452             case '5':
00158   01D3             ; 453                 DrawHiScores(0);
00159   01D3 AF          	xor a
00160   01D4 CD 77 05    	call DrawHiScores
00161   01D7             ; 454                 ReadKeyboard(false);
00162   01D7             ; 24 ;
00163   01D7 AF          	xor a
00164   01D8 CD 9E 03    	call ReadKeyboard
00165   01DB             ; 455 );
00166   01DB CD 11 06    	call DrawScreen
00167   01DE C3 10 01    	jp l_0
00168   01E1             l_17: 
00169   01E1             ; 456                 break;
00170   01E1             ; 457             case '6':
00171   01E1             ; 458                 NewGame();
00172   01E1 CD C9 02    	call NewGame
00173   01E4 C3 10 01    	jp l_0
00174   01E7             l_16: 
00175   01E7             ; 459                 break;
00176   01E7             ; 460             case KEY_UP:
00177   01E7             ; 461                 ClearCursor();
00178   01E7 CD 3A 07    	call ClearCursor
00179   01EA             ; 462                 if (cursorY == 0)
00180   01EA 3A 7B 5D    	ld a, (cursorY)
00181   01ED B7          	or a
00182   01EE C2 F9 01    	jp nz, l_23
00183   01F1             ; 463                     cursorY = GAME_HEIGHT - 1;
00184   01F1 3E 08       	ld a, 8
00185   01F3 32 7B 5D    	ld (cursorY), a
00186   01F6 C3 FD 01    	jp l_24
00187   01F9             l_23: 
00188   01F9             ; 464                 else
00189   01F9             ; 465                     cursorY--;
00190   01F9             ; REMOVED
00191   01F9 3D          	dec a
00192   01FA 32 7B 5D    	ld (cursorY), a
00193   01FD             l_24: 
00194   01FD             ; 466                 DrawCursor();
00195   01FD CD 3D 07    	call DrawCursor
00196   0200 C3 10 01    	jp l_0
00197   0203             l_15: 
00198   0203             ; 467                 break;
00199   0203             ; 468             case KEY_DOWN:
00200   0203             ; 469                 ClearCursor();
00201   0203 CD 3A 07    	call ClearCursor
00202   0206             ; 470                 if (cursorY == GAME_HEIGHT - 1)
00203   0206 3A 7B 5D    	ld a, (cursorY)
00204   0209 FE 08       	cp 8
00205   020B C2 15 02    	jp nz, l_25
00206   020E             ; 471                     cursorY = 0;
00207   020E AF          	xor a
00208   020F 32 7B 5D    	ld (cursorY), a
00209   0212 C3 19 02    	jp l_26
00210   0215             l_25: 
00211   0215             ; 472                 else
00212   0215             ; 473                     cursorY++;
00213   0215             ; REMOVED
00214   0215 3C          	inc a
00215   0216 32 7B 5D    	ld (cursorY), a
00216   0219             l_26: 
00217   0219             ; 474                 DrawCursor();
00218   0219 CD 3D 07    	call DrawCursor
00219   021C C3 10 01    	jp l_0
00220   021F             l_14: 
00221   021F             ; 475                 break;
00222   021F             ; 476             case KEY_LEFT:
00223   021F             ; 477                 ClearCursor();
00224   021F CD 3A 07    	call ClearCursor
00225   0222             ; 478                 if (cursorX == 0)
00226   0222 3A 7A 5D    	ld a, (cursorX)
00227   0225 B7          	or a
00228   0226 C2 31 02    	jp nz, l_27
00229   0229             ; 479                     cursorX = GAME_WIDTH - 1;
00230   0229 3E 08       	ld a, 8
00231   022B 32 7A 5D    	ld (cursorX), a
00232   022E C3 35 02    	jp l_28
00233   0231             l_27: 
00234   0231             ; 480                 else
00235   0231             ; 481                     cursorX--;
00236   0231             ; REMOVED
00237   0231 3D          	dec a
00238   0232 32 7A 5D    	ld (cursorX), a
00239   0235             l_28: 
00240   0235             ; 482                 DrawCursor();
00241   0235 CD 3D 07    	call DrawCursor
00242   0238 C3 10 01    	jp l_0
00243   023B             l_13: 
00244   023B             ; 483                 break;
00245   023B             ; 484             case KEY_RIGHT:
00246   023B             ; 485                 ClearCursor();
00247   023B CD 3A 07    	call ClearCursor
00248   023E             ; 486                 if (cursorX == GAME_WIDTH - 1)
00249   023E 3A 7A 5D    	ld a, (cursorX)
00250   0241 FE 08       	cp 8
00251   0243 C2 4D 02    	jp nz, l_29
00252   0246             ; 487                     cursorX = 0;
00253   0246 AF          	xor a
00254   0247 32 7A 5D    	ld (cursorX), a
00255   024A C3 51 02    	jp l_30
00256   024D             l_29: 
00257   024D             ; 488                 else
00258   024D             ; 489                     cursorX++;
00259   024D             ; REMOVED
00260   024D 3C          	inc a
00261   024E 32 7A 5D    	ld (cursorX), a
00262   0251             l_30: 
00263   0251             ; 490                 DrawCursor();
00264   0251 CD 3D 07    	call DrawCursor
00265   0254 C3 10 01    	jp l_0
00266   0257             l_12: 
00267   0257             l_11: 
00268   0257             l_10: 
00269   0257             ; 491                 break;
00270   0257             ; 492             case KEY_ENTER:
00271   0257             ; 493             case KEY_RIGHT_5:
00272   0257             ; 494             case ' ':
00273   0257             ; 495                 MoveBall();
00274   0257 CD 4C 07    	call MoveBall
00275   025A             ; REMOVED
00276   025A             ; REMOVED
00277   025A             ; REMOVED
00278   025A C3 10 01    	jp l_0
00279   025D             l_2: 
00280   025D C9          	ret
00281   025E             Intro: 
00282   025E             	; Stack correction reset
00283   025E             ; 271 );
00284   025E CD BD 08    	call SetBlackPalette
00285   0261             ; 272     void* next = unmlz((uint8_t*)0xD000, imgTitle);  // TODO: replace magic
00286   0261 21 00 D0    	ld hl, 53248
00287   0264 22 21 5F    	ld (unmlz_1_a), hl
00288   0267 21 75 24    	ld hl, imgTitle
00289   026A CD C7 08    	call unmlz
00290   026D 22 2C 5F    	ld (Intro_s + 0), hl
00291   0270             ; 273     unmlz((uint8_t*)0x9000, next);                   // TODO: replace magic
00292   0270 21 00 90    	ld hl, 36864
00293   0273 22 21 5F    	ld (unmlz_1_a), hl
00294   0276 2A 2C 5F    	ld hl, (Intro_s + 0)
00295   0279 CD C7 08    	call unmlz
00296   027C             ; 274     SetPaletteSlowly(introPalette);
00297   027C 21 93 5E    	ld hl, introPalette
00298   027F CD 90 09    	call SetPaletteSlowly
00299   0282             ; 275 
00300   0282             ; 276     // Играем мелодию
00301   0282             ; 277     const uint16_t* p = music;
00302   0282 21 F0 5D    	ld hl, music
00303   0285 22 2E 5F    	ld (Intro_s + 2), hl
00304   0288             l_31: 
00305   0288             ; 278     for (;;) {
00306   0288             ; 279         const uint8_t s = *p;
00307   0288 2A 2E 5F    	ld hl, (Intro_s + 2)
00308   028B 7E          	ld a, (hl)
00309   028C 32 30 5F    	ld (Intro_s + 4), a
00310   028F             ; 280         p++;
00311   028F             ; REMOVED
00312   028F 23          	inc hl
00313   0290 23          	inc hl
00314   0291 22 2E 5F    	ld (Intro_s + 2), hl
00315   0294             ; 281         if (s == 0) {
00316   0294             ; REMOVED
00317   0294 B7          	or a
00318   0295 C2 9F 02    	jp nz, l_34
00319   0298             ; 282             ReadKeyboard(false);
00320   0298             ; 24 ;
00321   0298 AF          	xor a
00322   0299 CD 9E 03    	call ReadKeyboard
00323   029C C3 C8 02    	jp l_33
00324   029F             l_34: 
00325   029F             ; 285 true) != 0) break;
00326   029F             ; 25 ;
00327   029F 3E 01       	ld a, 1
00328   02A1 CD 9E 03    	call ReadKeyboard
00329   02A4 B7          	or a
00330   02A5 C2 C8 02    	jp nz, l_33
00331   02A8             ; REMOVED
00332   02A8             ; REMOVED
00333   02A8             ; 286 *p, s);
00334   02A8 2A 2E 5F    	ld hl, (Intro_s + 2)
00335   02AB 5E          	ld e, (hl)
00336   02AC 23          	inc hl
00337   02AD 56          	ld d, (hl)
00338   02AE EB          	ex hl, de
00339   02AF 22 D5 5E    	ld (PlayTone_1_a), hl
00340   02B2 2A 30 5F    	ld hl, (Intro_s + 4)
00341   02B5 26 00       	ld h, 0
00342   02B7 CD A9 09    	call PlayTone
00343   02BA             ; 287         p++;
00344   02BA 2A 2E 5F    	ld hl, (Intro_s + 2)
00345   02BD 23          	inc hl
00346   02BE 23          	inc hl
00347   02BF 22 2E 5F    	ld (Intro_s + 2), hl
00348   02C2             ; 288         (void)rand();
00349   02C2 CD 2B 03    	call rand
00350   02C5             l_32: 
00351   02C5 C3 88 02    	jp l_31
00352   02C8             l_33: 
00353   02C8 C9          	ret
00354   02C9             NewGame: 
00355   02C9             	; Stack correction reset
00356   02C9             ; 303  = GAME_WIDTH / 2;
00357   02C9 3E 04       	ld a, 4
00358   02CB 32 7A 5D    	ld (cursorX), a
00359   02CE             ; 304     cursorY = GAME_HEIGHT / 2;
00360   02CE             ; REMOVED
00361   02CE 32 7B 5D    	ld (cursorY), a
00362   02D1             ; 305     selX = NO_SEL;
00363   02D1             ; 28 ;  // Значение для selX
00364   02D1 3E FF       	ld a, 255
00365   02D3 32 7C 5D    	ld (selX), a
00366   02D6             ; 306  = 0;
00367   02D6 21 00 00    	ld hl, 0
00368   02D9 22 81 5D    	ld (score), hl
00369   02DC             ; 307 
00370   02DC             ; 308     uint8_t x, y;
00371   02DC             ; 309     for (y = 0; y != GAME_HEIGHT; ++y)
00372   02DC AF          	xor a
00373   02DD 32 32 5F    	ld (NewGame_s + 1), a
00374   02E0             l_38: 
00375   02E0 3A 32 5F    	ld a, (NewGame_s + 1)
00376   02E3 FE 09       	cp 9
00377   02E5 CA 20 03    	jp z, l_40
00378   02E8             ; 310         for (x = 0; x != GAME_WIDTH; ++x) game[x][y] = 0;
00379   02E8 AF          	xor a
00380   02E9 32 31 5F    	ld (NewGame_s + 0), a
00381   02EC             l_41: 
00382   02EC 3A 31 5F    	ld a, (NewGame_s + 0)
00383   02EF FE 09       	cp 9
00384   02F1 CA 16 03    	jp z, l_43
00385   02F4 2A 31 5F    	ld hl, (NewGame_s + 0)
00386   02F7 26 00       	ld h, 0
00387   02F9 54          	ld d, h
00388   02FA 5D          	ld e, l
00389   02FB 29          	add hl, hl
00390   02FC 29          	add hl, hl
00391   02FD 29          	add hl, hl
00392   02FE 19          	add hl, de
00393   02FF 11 26 5D    	ld de, game
00394   0302 19          	add hl, de
00395   0303 EB          	ex hl, de
00396   0304 2A 32 5F    	ld hl, (NewGame_s + 1)
00397   0307 26 00       	ld h, 0
00398   0309 19          	add hl, de
00399   030A 36 00       	ld (hl), 0
00400   030C             l_42: 
00401   030C 3A 31 5F    	ld a, (NewGame_s + 0)
00402   030F 3C          	inc a
00403   0310 32 31 5F    	ld (NewGame_s + 0), a
00404   0313 C3 EC 02    	jp l_41
00405   0316             l_43: 
00406   0316             l_39: 
00407   0316 3A 32 5F    	ld a, (NewGame_s + 1)
00408   0319 3C          	inc a
00409   031A 32 32 5F    	ld (NewGame_s + 1), a
00410   031D C3 E0 02    	jp l_38
00411   0320             l_40: 
00412   0320             ; 311 
00413   0320             ; 312     GenerateNewBalls();
00414   0320 CD B4 09    	call GenerateNewBalls
00415   0323             ; 313     GameStep(true);
00416   0323             ; 25 ;
00417   0323 3E 01       	ld a, 1
00418   0325 CD E3 09    	call GameStep
00419   0328             ; 314 );
00420   0328 C3 11 06    	jp DrawScreen
00421   032B             ; REMOVED
00422   032B             rand: 
00423   032B             	; Stack correction reset
00424   032B             
00425   032B             rand_seed: 
00426   032B 3E FA               ld a, 0FAh
00427   032D 47                  ld b, a
00428   032E 87                  add a, a
00429   032F 87                  add a, a
00430   0330 80                  add a, b
00431   0331 3C                  inc a
00432   0332 32 2C 03            ld (rand_seed + 1), a
00433   0335                 
00434   0335 C9          	ret
00435   0336             BouncingBallAnimation: 
00436   0336             	; Stack correction reset
00437   0336             ; 315 }
00438   0336             ; 316 
00439   0336             ; 317 // Переместить шарик
00440   0336             ; 318 
00441   0336             ; 319 static void MoveBall() {
00442   0336             ; 320     if (game[cursorX][cursorY] != 0) {
00443   0336             ; 321         if (selX != NO_SEL) DrawCell(selX, selY, game[selX][selY]);
00444   0336             ; 322         selX = cursorX;
00445   0336             ; 323         selY = cursorY;
00446   0336             ; 324         return;
00447   0336             ; 325     }
00448   0336             ; 326 
00449   0336             ; 327     if (selX == NO_SEL) return;
00450   0336             ; 328 
00451   0336             ; 329     uint8_t c = game[selX][selY];
00452   0336             ; 330 
00453   0336             ; 331     // Алгоритм поиска поути
00454   0336             ; 332     if (!PathFind()) {
00455   0336             ; 333         if (soundEnabled) PlaySoundCantMove();
00456   0336             ; 334         return;
00457   0336             ; 335     }
00458   0336             ; 336 
00459   0336             ; 337     if (showPath) {
00460   0336             ; 338         // Рисуем шаги на экране
00461   0336             ; 339         for (;;) {
00462   0336             ; 340             uint8_t x = path_x;
00463   0336             ; 341             uint8_t y = path_y;
00464   0336             ; 342             uint8_t dir = PathGetNextStep();
00465   0336             ; 343             DrawSpriteStep(x, y, dir - 1);
00466   0336             ; 344             DrawCell(path_x, path_y, c);
00467   0336             ; 345             if (path_n == LAST_STEP) break;
00468   0336             ; 346             if (soundEnabled) PlaySoundJump();
00469   0336             ; 347             Delay(STEP_ANIMATION_DELAY);
00470   0336             ; 348         };
00471   0336             ; 349 
00472   0336             ; 350         // Удаляем нарисованные шаги с экрана
00473   0336             ; 351         PathRewind();
00474   0336             ; 352         do {
00475   0336             ; 353             DrawEmptyCell(path_x, path_y);
00476   0336             ; 354             PathGetNextStep();
00477   0336             ; 355         } while (path_n != LAST_STEP);
00478   0336             ; 356     } else {
00479   0336             ; 357         DrawEmptyCell(selX, selY);
00480   0336             ; 358         DrawCell(cursorX, cursorY, c);
00481   0336             ; 359     }
00482   0336             ; 360 
00483   0336             ; 361     // Очищаем игровое поле от временных значений
00484   0336             ; 362     PathFree();
00485   0336             ; 363 
00486   0336             ; 364     // Реально перемещаем шарик. Все выше было лишь анимацией.
00487   0336             ; 365     game[selX][selY] = 0;
00488   0336             ; 366     game[cursorX][cursorY] = c;
00489   0336             ; 367 
00490   0336             ; 368     // Снимаем выделение
00491   0336             ; 369     selX = NO_SEL;
00492   0336             ; 370 
00493   0336             ; 371     // Добавляем 3 шарика
00494   0336             ; 372     if (!GameStep(false)) return;
00495   0336             ; 373 
00496   0336             ; 374     // Если не получилось добавить, то конец игры.
00497   0336             ; 375 
00498   0336             ; 376     // Если игрок набал мало очков, то просто показываем таблицу
00499   0336             ; 377     if (score < hiScores[HISCORE_COUNT - 1].score) {
00500   0336             ; 378         DrawHiScores(0);
00501   0336             ; 379     } else {
00502   0336             ; 380         AddToHiScores();
00503   0336             ; 381     }
00504   0336             ; 382 
00505   0336             ; 383     ReadKeyboard(false);
00506   0336             ; 384     NewGame();
00507   0336             ; 385 }
00508   0336             ; 386 
00509   0336             ; 387 // Анимация прыгающего шарика
00510   0336             ; 388 
00511   0336             ; 389 static void BouncingBallAnimation() {
00512   0336             ; 390     if (selX == NO_SEL) return;
00513   0336 3A 7C 5D    	ld a, (selX)
00514   0339 FE FF       	cp 255
00515   033B C8          	ret z
00516   033C             ; REMOVED
00517   033C             ; REMOVED
00518   033C             ; 391     selAnimationDelay++;
00519   033C 3A E6 5D    	ld a, (selAnimationDelay)
00520   033F 3C          	inc a
00521   0340 32 E6 5D    	ld (selAnimationDelay), a
00522   0343             ; 392     if (selAnimationDelay >= BOUNCE_ANIMATION_DELAY) {
00523   0343             ; REMOVED
00524   0343 FE 32       	cp 50
00525   0345 DA 9D 03    	jp c, l_46
00526   0348             ; 393         selAnimationDelay = 0;
00527   0348 AF          	xor a
00528   0349 32 E6 5D    	ld (selAnimationDelay), a
00529   034C             ; 394         DrawBouncingBall(selX, selY, game[selX][selY], selAnimationFrame);
00530   034C 3A 7C 5D    	ld a, (selX)
00531   034F 32 F7 5E    	ld (DrawBouncingBall_1_a), a
00532   0352 3A 7D 5D    	ld a, (selY)
00533   0355 32 F8 5E    	ld (DrawBouncingBall_2_a), a
00534   0358 2A 7C 5D    	ld hl, (selX)
00535   035B 26 00       	ld h, 0
00536   035D 54          	ld d, h
00537   035E 5D          	ld e, l
00538   035F 29          	add hl, hl
00539   0360 29          	add hl, hl
00540   0361 29          	add hl, hl
00541   0362 19          	add hl, de
00542   0363 11 26 5D    	ld de, game
00543   0366 19          	add hl, de
00544   0367 EB          	ex hl, de
00545   0368 2A 7D 5D    	ld hl, (selY)
00546   036B 26 00       	ld h, 0
00547   036D 19          	add hl, de
00548   036E 7E          	ld a, (hl)
00549   036F 32 F9 5E    	ld (DrawBouncingBall_3_a), a
00550   0372 3A E7 5D    	ld a, (selAnimationFrame)
00551   0375 CD 1C 0B    	call DrawBouncingBall
00552   0378             ; 395         selAnimationFrame++;
00553   0378 3A E7 5D    	ld a, (selAnimationFrame)
00554   037B 3C          	inc a
00555   037C 32 E7 5D    	ld (selAnimationFrame), a
00556   037F             ; 396         if (selAnimationFrame >= BOUNCE_ANIMATION_COUNT) {
00557   037F             ; REMOVED
00558   037F FE 06       	cp 6
00559   0381 DA 8B 03    	jp c, l_48
00560   0384             ; 397             selAnimationFrame = 0;
00561   0384 AF          	xor a
00562   0385 32 E7 5D    	ld (selAnimationFrame), a
00563   0388 C3 9D 03    	jp l_49
00564   038B             l_48: 
00565   038B             ; 398         } else if (soundEnabled && selAnimationFrame == 4) {
00566   038B 3A 80 5D    	ld a, (soundEnabled)
00567   038E B7          	or a
00568   038F CA 9D 03    	jp z, l_50
00569   0392 3A E7 5D    	ld a, (selAnimationFrame)
00570   0395 FE 04       	cp 4
00571   0397 C2 9D 03    	jp nz, l_50
00572   039A             ; 399             PlaySoundJump();
00573   039A CD 5F 0B    	call PlaySoundJump
00574   039D             l_50: 
00575   039D             l_49: 
00576   039D             l_46: 
00577   039D C9          	ret
00578   039E             ReadKeyboard: 
00579   039E             	; Stack correction reset
00580   039E             ; 144  ReadKeyboard(bool noWait) {
00581   039E 32 CC 5E    	ld (ReadKeyboard_1_a), a
00582   03A1             l_52: 
00583   03A1             ; 145     uint8_t keyNumber;
00584   03A1             ; 146     for (;;) {
00585   03A1             ; 147         uint8_t i = KEYBOARD_ROWS;
00586   03A1 3E 0A       	ld a, 10
00587   03A3 32 34 5F    	ld (ReadKeyboard_s + 1), a
00588   03A6             l_55: 
00589   03A6             ; 148         for (;;) {
00590   03A6             ; 149             --i;
00591   03A6 3A 34 5F    	ld a, (ReadKeyboard_s + 1)
00592   03A9 3D          	dec a
00593   03AA 32 34 5F    	ld (ReadKeyboard_s + 1), a
00594   03AD             ; 150             keyNumber = ReadKeyboardRow(i);  // TODO: Светодиоды
00595   03AD             ; REMOVED
00596   03AD CD 62 0B    	call ReadKeyboardRow
00597   03B0 32 33 5F    	ld (ReadKeyboard_s + 0), a
00598   03B3             ; 151             if (i == SHIFT_ROW) {            // Удаляем SHIFT
00599   03B3 3A 34 5F    	ld a, (ReadKeyboard_s + 1)
00600   03B6 FE 03       	cp 3
00601   03B8 C2 C3 03    	jp nz, l_58
00602   03BB             ; 152                 keyNumber &= ~SHIFT_MASK;
00603   03BB 3A 33 5F    	ld a, (ReadKeyboard_s + 0)
00604   03BE E6 F7       	and 247
00605   03C0 32 33 5F    	ld (ReadKeyboard_s + 0), a
00606   03C3             l_58: 
00607   03C3             ; 153             }
00608   03C3             ; 154             if (keyNumber != 0) break;
00609   03C3 3A 33 5F    	ld a, (ReadKeyboard_s + 0)
00610   03C6 B7          	or a
00611   03C7 C2 E6 03    	jp nz, l_57
00612   03CA             ; REMOVED
00613   03CA             ; REMOVED
00614   03CA             ; 155             if (i != 0) continue;
00615   03CA 3A 34 5F    	ld a, (ReadKeyboard_s + 1)
00616   03CD B7          	or a
00617   03CE C2 A6 03    	jp nz, l_55
00618   03D1             ; REMOVED
00619   03D1             ; REMOVED
00620   03D1             ; 156             keyboardPressedKey = 0;
00621   03D1 AF          	xor a
00622   03D2 32 72 24    	ld (keyboardPressedKey), a
00623   03D5             ; 157             if (noWait) return 0;
00624   03D5 3A CC 5E    	ld a, (ReadKeyboard_1_a)
00625   03D8 B7          	or a
00626   03D9 CA DE 03    	jp z, l_64
00627   03DC AF          	xor a
00628   03DD C9          	ret
00629   03DE             l_64: 
00630   03DE             ; 158             i = KEYBOARD_ROWS;
00631   03DE 3E 0A       	ld a, 10
00632   03E0 32 34 5F    	ld (ReadKeyboard_s + 1), a
00633   03E3             ; REMOVED
00634   03E3 C3 A6 03    	jp l_55
00635   03E6             l_57: 
00636   03E6             ; 159         }
00637   03E6             ; 160         keyNumber = NumberOfBit(keyNumber) + i * KEYBOARD_COLUMNS;
00638   03E6             ; REMOVED
00639   03E6 CD 6A 0B    	call NumberOfBit
00640   03E9 57          	ld d, a
00641   03EA 3A 34 5F    	ld a, (ReadKeyboard_s + 1)
00642   03ED 87          	add a
00643   03EE 87          	add a
00644   03EF 87          	add a
00645   03F0 82          	add d
00646   03F1 32 33 5F    	ld (ReadKeyboard_s + 0), a
00647   03F4             ; 161         if (noWait) break;
00648   03F4 3A CC 5E    	ld a, (ReadKeyboard_1_a)
00649   03F7 B7          	or a
00650   03F8 C2 41 04    	jp nz, l_54
00651   03FB             ; REMOVED
00652   03FB             ; REMOVED
00653   03FB             ; 162         if (keyboardPressedKey == keyNumber) continue;
00654   03FB 3A 33 5F    	ld a, (ReadKeyboard_s + 0)
00655   03FE 57          	ld d, a
00656   03FF 3A 72 24    	ld a, (keyboardPressedKey)
00657   0402 BA          	cp d
00658   0403 CA A1 03    	jp z, l_52
00659   0406             ; REMOVED
00660   0406             ; REMOVED
00661   0406             ; 163         keyboardPressedKey = keyNumber;
00662   0406 3A 33 5F    	ld a, (ReadKeyboard_s + 0)
00663   0409 32 72 24    	ld (keyboardPressedKey), a
00664   040C             ; 164         switch (keyNumber) {
00665   040C 3A 33 5F    	ld a, (ReadKeyboard_s + 0)
00666   040F D6 18       	sub 24
00667   0411 CA 20 04    	jp z, l_73
00668   0414 3D          	dec a
00669   0415 CA 2B 04    	jp z, l_72
00670   0418 D6 05       	sub 5
00671   041A CA 36 04    	jp z, l_71
00672   041D C3 41 04    	jp l_54
00673   0420             l_73: 
00674   0420             ; 165             case KEY_COORD_RUS:
00675   0420             ; 166                 keyboardMode |= MODE_RUS;
00676   0420 3A 71 24    	ld a, (keyboardMode)
00677   0423 F6 01       	or 1
00678   0425 32 71 24    	ld (keyboardMode), a
00679   0428 C3 A1 03    	jp l_52
00680   042B             l_72: 
00681   042B             ; 167                 continue;
00682   042B             ; 168             case KEY_COORD_LAT:
00683   042B             ; 169                 keyboardMode &= ~MODE_RUS;
00684   042B 3A 71 24    	ld a, (keyboardMode)
00685   042E E6 FE       	and 254
00686   0430 32 71 24    	ld (keyboardMode), a
00687   0433 C3 A1 03    	jp l_52
00688   0436             l_71: 
00689   0436             ; 170                 continue;
00690   0436             ; 171             case KEY_COORD_CAPS:
00691   0436             ; 172                 keyboardMode ^= MODE_CAPS;
00692   0436 3A 71 24    	ld a, (keyboardMode)
00693   0439 EE 02       	xor 2
00694   043B 32 71 24    	ld (keyboardMode), a
00695   043E C3 A1 03    	jp l_52
00696   0441             ; REMOVED
00697   0441             ; REMOVED
00698   0441             ; REMOVED
00699   0441             ; REMOVED
00700   0441             l_54: 
00701   0441             ; 173                 continue;
00702   0441             ; 174         }
00703   0441             ; 175         break;
00704   0441             ; 176     }
00705   0441             ; 177 
00706   0441             ; 178     // Преобразовать номер клавиши в код символа
00707   0441             ; 179     uint8_t shiftPressed = ReadKeyboardRow(SHIFT_ROW) & SHIFT_MASK;
00708   0441 3E 03       	ld a, 3
00709   0443 CD 62 0B    	call ReadKeyboardRow
00710   0446 E6 08       	and 8
00711   0448 32 34 5F    	ld (ReadKeyboard_s + 1), a
00712   044B             ; 180     const uint8_t* layout = scanCodes + keyNumber;
00713   044B 2A 33 5F    	ld hl, (ReadKeyboard_s + 0)
00714   044E 26 00       	ld h, 0
00715   0450 11 31 23    	ld de, scanCodes
00716   0453 19          	add hl, de
00717   0454 22 35 5F    	ld (ReadKeyboard_s + 2), hl
00718   0457             ; 181     if ((keyboardMode & MODE_RUS) != 0) layout += KEYBOARD_LANGUAGE_SIZE;
00719   0457 3A 71 24    	ld a, (keyboardMode)
00720   045A E6 01       	and 1
00721   045C             ; REMOVED
00722   045C CA 66 04    	jp z, l_74
00723   045F             ; REMOVED
00724   045F 11 A0 00    	ld de, 160
00725   0462 19          	add hl, de
00726   0463 22 35 5F    	ld (ReadKeyboard_s + 2), hl
00727   0466             l_74: 
00728   0466             ; 182     if ((*layout & L) != 0)                   // LETTERS
00729   0466             ; REMOVED
00730   0466 7E          	ld a, (hl)
00731   0467 E6 80       	and 128
00732   0469             ; REMOVED
00733   0469 CA 7C 04    	jp z, l_76
00734   046C             ; 183         if ((keyboardMode & MODE_CAPS) != 0)  // CAPS LOCK
00735   046C 3A 71 24    	ld a, (keyboardMode)
00736   046F E6 02       	and 2
00737   0471             ; REMOVED
00738   0471 CA 7C 04    	jp z, l_78
00739   0474             ; 184             shiftPressed ^= SHIFT_MASK;       // Применить/отменить SHIFT
00740   0474 3A 34 5F    	ld a, (ReadKeyboard_s + 1)
00741   0477 EE 08       	xor 8
00742   0479 32 34 5F    	ld (ReadKeyboard_s + 1), a
00743   047C             l_78: 
00744   047C             l_76: 
00745   047C             ; 185     if (shiftPressed != 0) layout += KEYBOARD_SCAN_SIZE;
00746   047C 3A 34 5F    	ld a, (ReadKeyboard_s + 1)
00747   047F B7          	or a
00748   0480 CA 8A 04    	jp z, l_80
00749   0483             ; REMOVED
00750   0483 11 50 00    	ld de, 80
00751   0486 19          	add hl, de
00752   0487 22 35 5F    	ld (ReadKeyboard_s + 2), hl
00753   048A             l_80: 
00754   048A             ; 186     char result = *layout;
00755   048A             ; REMOVED
00756   048A 7E          	ld a, (hl)
00757   048B 32 37 5F    	ld (ReadKeyboard_s + 4), a
00758   048E             ; 187     if ((keyboardMode & MODE_RUS) == 0)  // LAT
00759   048E 3A 71 24    	ld a, (keyboardMode)
00760   0491 E6 01       	and 1
00761   0493             ; REMOVED
00762   0493 C2 9E 04    	jp nz, l_82
00763   0496             ; 188         result &= 0x7F;
00764   0496 3A 37 5F    	ld a, (ReadKeyboard_s + 4)
00765   0499 E6 7F       	and 127
00766   049B 32 37 5F    	ld (ReadKeyboard_s + 4), a
00767   049E             l_82: 
00768   049E             ; 189     return result;
00769   049E 3A 37 5F    	ld a, (ReadKeyboard_s + 4)
00770   04A1 C9          	ret
00771   04A2             ; REMOVED
00772   04A2             Delay: 
00773   04A2             	; Stack correction reset
00774   04A2             ; 22  Delay(uint16_t n) {
00775   04A2 22 CF 5E    	ld (Delay_1_a), hl
00776   04A5             l_84: 
00777   04A5             ; 23     while (--n != 0) {
00778   04A5 2A CF 5E    	ld hl, (Delay_1_a)
00779   04A8 2B          	dec hl
00780   04A9 22 CF 5E    	ld (Delay_1_a), hl
00781   04AC 7C          	ld a, h
00782   04AD B5          	or l
00783   04AE C2 A5 04    	jp nz, l_84
00784   04B1             ; REMOVED
00785   04B1             ; REMOVED
00786   04B1 C9          	ret
00787   04B2             ChangePalette: 
00788   04B2             	; Stack correction reset
00789   04B2             ; 264 gamePalette, gamePalette2, sizeof(gamePalette));
00790   04B2 21 97 5E    	ld hl, gamePalette
00791   04B5 22 1B 5F    	ld (memswap_1_a), hl
00792   04B8 21 9B 5E    	ld hl, gamePalette2
00793   04BB 22 1D 5F    	ld (memswap_2_a), hl
00794   04BE 21 04 00    	ld hl, 4
00795   04C1 CD 7C 0B    	call memswap
00796   04C4             ; 265     SetPalette(gamePalette);
00797   04C4 21 97 5E    	ld hl, gamePalette
00798   04C7 C3 AC 0B    	jp SetPalette
00799   04CA             ; REMOVED
00800   04CA             DrawButton: 
00801   04CA             	; Stack correction reset
00802   04CA 32 FD 5E    	ld (DrawButton_2_a), a
00803   04CD 3E 04       	ld a, 4
00804   04CF 32 38 5F    	ld (DrawButton_s + 0), a
00805   04D2             l_86: 
00806   04D2 3A 38 5F    	ld a, (DrawButton_s + 0)
00807   04D5 B7          	or a
00808   04D6 CA 21 05    	jp z, l_88
00809   04D9 3A FD 5E    	ld a, (DrawButton_2_a)
00810   04DC B7          	or a
00811   04DD CA F9 04    	jp z, l_89
00812   04E0 2A FB 5E    	ld hl, (DrawButton_1_a)
00813   04E3 11 00 C0    	ld de, 49152
00814   04E6 19          	add hl, de
00815   04E7 22 EA 5E    	ld (memcpy_1_a), hl
00816   04EA 2A FB 5E    	ld hl, (DrawButton_1_a)
00817   04ED 22 EC 5E    	ld (memcpy_2_a), hl
00818   04F0 21 08 00    	ld hl, 8
00819   04F3 CD B6 0B    	call memcpy
00820   04F6 C3 0D 05    	jp l_90
00821   04F9             l_89: 
00822   04F9 2A FB 5E    	ld hl, (DrawButton_1_a)
00823   04FC 11 00 C0    	ld de, 49152
00824   04FF 19          	add hl, de
00825   0500 22 16 5F    	ld (memset_1_a), hl
00826   0503 AF          	xor a
00827   0504 32 18 5F    	ld (memset_2_a), a
00828   0507 21 08 00    	ld hl, 8
00829   050A CD E3 0B    	call memset
00830   050D             l_90: 
00831   050D 2A FB 5E    	ld hl, (DrawButton_1_a)
00832   0510 11 00 01    	ld de, 256
00833   0513 19          	add hl, de
00834   0514 22 FB 5E    	ld (DrawButton_1_a), hl
00835   0517             l_87: 
00836   0517 3A 38 5F    	ld a, (DrawButton_s + 0)
00837   051A 3D          	dec a
00838   051B 32 38 5F    	ld (DrawButton_s + 0), a
00839   051E C3 D2 04    	jp l_86
00840   0521             l_88: 
00841   0521 C9          	ret
00842   0522             DrawHelp: 
00843   0522             	; Stack correction reset
00844   0522 AF          	xor a
00845   0523 32 39 5F    	ld (DrawHelp_s + 0), a
00846   0526             l_91: 
00847   0526 3A 39 5F    	ld a, (DrawHelp_s + 0)
00848   0529 FE 03       	cp 3
00849   052B D2 76 05    	jp nc, l_93
00850   052E 3A 7F 5D    	ld a, (showHelp)
00851   0531 B7          	or a
00852   0532 CA 5B 05    	jp z, l_94
00853   0535 2A 39 5F    	ld hl, (DrawHelp_s + 0)
00854   0538 26 00       	ld h, 0
00855   053A 29          	add hl, hl
00856   053B 11 8D 5E    	ld de, helpCoords
00857   053E 19          	add hl, de
00858   053F 5E          	ld e, (hl)
00859   0540 23          	inc hl
00860   0541 56          	ld d, (hl)
00861   0542 EB          	ex hl, de
00862   0543 22 10 5F    	ld (DrawSpriteNew1_1_a), hl
00863   0546 2A 39 5F    	ld hl, (DrawHelp_s + 0)
00864   0549 26 00       	ld h, 0
00865   054B 11 77 5D    	ld de, newBalls
00866   054E 19          	add hl, de
00867   054F 7E          	ld a, (hl)
00868   0550 32 12 5F    	ld (DrawSpriteNew1_2_a), a
00869   0553 3E 03       	ld a, 3
00870   0555 CD 0B 0C    	call DrawSpriteNew1
00871   0558 C3 6C 05    	jp l_95
00872   055B             l_94: 
00873   055B 2A 39 5F    	ld hl, (DrawHelp_s + 0)
00874   055E 26 00       	ld h, 0
00875   0560 29          	add hl, hl
00876   0561 11 8D 5E    	ld de, helpCoords
00877   0564 19          	add hl, de
00878   0565 5E          	ld e, (hl)
00879   0566 23          	inc hl
00880   0567 56          	ld d, (hl)
00881   0568 EB          	ex hl, de
00882   0569 CD 48 0C    	call DrawEmptyCell1
00883   056C             l_95: 
00884   056C             l_92: 
00885   056C 3A 39 5F    	ld a, (DrawHelp_s + 0)
00886   056F 3C          	inc a
00887   0570 32 39 5F    	ld (DrawHelp_s + 0), a
00888   0573 C3 26 05    	jp l_91
00889   0576             l_93: 
00890   0576 C9          	ret
00891   0577             DrawHiScores: 
00892   0577             	; Stack correction reset
00893   0577             ; 266 }
00894   0577             ; 267 
00895   0577             ; 268 // Заставка
00896   0577             ; 269 
00897   0577             ; 270 void Intro() {
00898   0577             ; 271     SetBlackPalette();
00899   0577             ; 272     void* next = unmlz((uint8_t*)0xD000, imgTitle);  // TODO: replace magic
00900   0577             ; 273     unmlz((uint8_t*)0x9000, next);                   // TODO: replace magic
00901   0577             ; 274     SetPaletteSlowly(introPalette);
00902   0577             ; 275 
00903   0577             ; 276     // Играем мелодию
00904   0577             ; 277     const uint16_t* p = music;
00905   0577             ; 278     for (;;) {
00906   0577             ; 279         const uint8_t s = *p;
00907   0577             ; 280         p++;
00908   0577             ; 281         if (s == 0) {
00909   0577             ; 282             ReadKeyboard(false);
00910   0577             ; 283             break;
00911   0577             ; 284         }
00912   0577             ; 285         if (ReadKeyboard(true) != 0) break;
00913   0577             ; 286         PlayTone(*p, s);
00914   0577             ; 287         p++;
00915   0577             ; 288         (void)rand();
00916   0577             ; 289     }
00917   0577             ; 290 }
00918   0577             ; 291 
00919   0577             ; 292 // Таблица рекордов
00920   0577             ; 293 
00921   0577             ; 294 void DrawHiScoresScreen1(uint8_t i, uint8_t pos) {
00922   0577             ; 295     struct HiScore* h = hiScores + i;
00923   0577             ; 296     for (; i < HISCORE_COUNT; ++i) {
00924   0577             ; 297         char text[sizeof(h->name) + UINT16TOSTRING_OUTPUT_SIZE];
00925   0577             ; 298         memset(text, ' ', sizeof(h->name) - 1);
00926   0577             ; 299         memcpy(text, h->name, strlen(h->name));
00927   0577             ; 300         Uint16ToString(text + (sizeof(h->name) - 1), h->score);
00928   0577             ; 301         SetTextColor(pos == i ? 1 : 3);
00929   0577             ; 302         DrawText((TEXT_WIDTH - 14) / 2, (HISCORE_Y + 2) + i, 0x7F, text);
00930   0577             ; 303         h++;
00931   0577             ; 304     }
00932   0577             ; 305 }
00933   0577             ; 306 
00934   0577             ; 307 void DrawHiScores(bool enterNameMode) {
00935   0577 32 E9 5E    	ld (DrawHiScores_1_a), a
00936   057A             ; 308     SetFillRectColor(0);
00937   057A AF          	xor a
00938   057B CD 5A 0C    	call SetFillRectColor
00939   057E             ; 309     FillRect1(FILLRECTARGS(108, PLAYFIELD_Y + 18, 274, PLAYFIELD_Y + 156));
00940   057E 21 D1 F2    	ld hl, 62161
00941   0581 22 AA 5E    	ld (FillRect1_1_a), hl
00942   0584 21 15 00    	ld hl, 21
00943   0587 22 AC 5E    	ld (FillRect1_2_a), hl
00944   058A 3E 0F       	ld a, 15
00945   058C 32 AE 5E    	ld (FillRect1_3_a), a
00946   058F 3E E0       	ld a, 224
00947   0591 32 AF 5E    	ld (FillRect1_4_a), a
00948   0594 3E 8B       	ld a, 139
00949   0596 CD 82 0C    	call FillRect1
00950   0599             ; 310 2);
00951   0599 3E 02       	ld a, 2
00952   059B CD 06 0D    	call SetTextColor
00953   059E             ; 311     DrawText1(DRAWTEXTARGS((TEXT_WIDTH - 17) / 2, HISCORE_Y), 0x7F, "Лучшие результаты");
00954   059E 21 CD EE    	ld hl, 61133
00955   05A1 22 C0 5E    	ld (DrawText1_1_a), hl
00956   05A4 3E 03       	ld a, 3
00957   05A6 32 C2 5E    	ld (DrawText1_2_a), a
00958   05A9             ; 311 , "Лучшие результаты");
00959   05A9 3E 7F       	ld a, 127
00960   05AB 32 C3 5E    	ld (DrawText1_3_a), a
00961   05AE 21 0F 60    	ld hl, s_8
00962   05B1 CD 3E 0D    	call DrawText1
00963   05B4             ; 312     if (enterNameMode != 0) {
00964   05B4 3A E9 5E    	ld a, (DrawHiScores_1_a)
00965   05B7 B7          	or a
00966   05B8 CA DC 05    	jp z, l_96
00967   05BB             ; 313         DrawText1(DRAWTEXTARGS((TEXT_WIDTH - 16) / 2, HISCORE_Y + 4 + HISCORE_COUNT), 0x7F, "Введите своё имя");
00968   05BB 21 55 ED    	ld hl, 60757
00969   05BE 22 C0 5E    	ld (DrawText1_1_a), hl
00970   05C1 AF          	xor a
00971   05C2 32 C2 5E    	ld (DrawText1_2_a), a
00972   05C5             ; 313 , "Введите своё имя");
00973   05C5 3E 7F       	ld a, 127
00974   05C7 32 C3 5E    	ld (DrawText1_3_a), a
00975   05CA 21 FB 5F    	ld hl, s_9
00976   05CD CD 3E 0D    	call DrawText1
00977   05D0             ; 314         DrawHiScoresScreen1(0, HISCORE_COUNT - 1);
00978   05D0 AF          	xor a
00979   05D1 32 25 5F    	ld (DrawHiScoresScreen1_1_a), a
00980   05D4 3E 07       	ld a, 7
00981   05D6 CD A7 0D    	call DrawHiScoresScreen1
00982   05D9 C3 10 06    	jp l_97
00983   05DC             l_96: 
00984   05DC             ; 315     } else {
00985   05DC             ; 316         DrawText1(DRAWTEXTARGS((TEXT_WIDTH - 21) / 2, HISCORE_Y + 3 + HISCORE_COUNT), 0x7F, "Нажмите любую клавишу");
00986   05DC 21 5F F0    	ld hl, 61535
00987   05DF 22 C0 5E    	ld (DrawText1_1_a), hl
00988   05E2 3E 01       	ld a, 1
00989   05E4 32 C2 5E    	ld (DrawText1_2_a), a
00990   05E7             ; 316 , "Нажмите любую клавишу");
00991   05E7 3E 7F       	ld a, 127
00992   05E9 32 C3 5E    	ld (DrawText1_3_a), a
00993   05EC 21 21 60    	ld hl, s_10
00994   05EF CD 3E 0D    	call DrawText1
00995   05F2             ; 317         DrawText1(DRAWTEXTARGS((TEXT_WIDTH - 15) / 2, HISCORE_Y + 4 + HISCORE_COUNT), 0x7F, "для продолжения");
00996   05F2 21 55 ED    	ld hl, 60757
00997   05F5 22 C0 5E    	ld (DrawText1_1_a), hl
00998   05F8 AF          	xor a
00999   05F9 32 C2 5E    	ld (DrawText1_2_a), a
01000   05FC             ; 317 , "для продолжения");
01001   05FC 3E 7F       	ld a, 127
01002   05FE 32 C3 5E    	ld (DrawText1_3_a), a
01003   0601 21 37 60    	ld hl, s_11
01004   0604 CD 3E 0D    	call DrawText1
01005   0607             ; 318         DrawHiScoresScreen1(0, HISCORE_COUNT);
01006   0607 AF          	xor a
01007   0608 32 25 5F    	ld (DrawHiScoresScreen1_1_a), a
01008   060B             ; 25 ;
01009   060B 3E 08       	ld a, 8
01010   060D CD A7 0D    	call DrawHiScoresScreen1
01011   0610             l_97: 
01012   0610 C9          	ret
01013   0611             DrawScreen: 
01014   0611             	; Stack correction reset
01015   0611             ; 361 );
01016   0611 CD 43 0E    	call SetBlackPaletteSlowly
01017   0614             ; 362 
01018   0614             ; 363     // Рисуем фон
01019   0614             ; 364     void* next = unmlz((uint8_t*)0xD000, imgScreen);
01020   0614 21 00 D0    	ld hl, 53248
01021   0617 22 21 5F    	ld (unmlz_1_a), hl
01022   061A 21 68 3D    	ld hl, imgScreen
01023   061D CD C7 08    	call unmlz
01024   0620 22 3A 5F    	ld (DrawScreen_s + 0), hl
01025   0623             ; 365     unmlz((uint8_t*)0x9000, next);
01026   0623 21 00 90    	ld hl, 36864
01027   0626 22 21 5F    	ld (unmlz_1_a), hl
01028   0629 2A 3A 5F    	ld hl, (DrawScreen_s + 0)
01029   062C CD C7 08    	call unmlz
01030   062F             ; 366 
01031   062F             ; 367     // Ваше имя
01032   062F             ; 368     SetTextColor(3);
01033   062F 3E 03       	ld a, 3
01034   0631 CD 06 0D    	call SetTextColor
01035   0634             ; 369     DrawText(56, 19, 0x7F, "Вы");
01036   0634 3E 38       	ld a, 56
01037   0636 32 C6 5E    	ld (DrawText_1_a), a
01038   0639 3E 13       	ld a, 19
01039   063B 32 C7 5E    	ld (DrawText_2_a), a
01040   063E 3E 7F       	ld a, 127
01041   0640 32 C8 5E    	ld (DrawText_3_a), a
01042   0643 21 0C 60    	ld hl, s_12
01043   0646 CD 51 0E    	call DrawText
01044   0649             ; 370 
01045   0649             ; 371     // Нужно перерисовать короля и претендента
01046   0649             ; 372     rightCreatureY = 0xFF;
01047   0649 3E FF       	ld a, 255
01048   064B 32 7A 5E    	ld (rightCreatureY), a
01049   064E             ; 373 
01050   064E             ; 374     // Ваш результат и изображение бойца слева
01051   064E             ; 375     DrawScoreAndCreatures();
01052   064E CD 94 0E    	call DrawScoreAndCreatures
01053   0651             ; 376 
01054   0651             ; 377     // Максимальный результат
01055   0651             ; 378     char buf[UINT16TOSTRING_OUTPUT_SIZE + 1];
01056   0651             ; 379     Uint16ToString(buf, hiScores[0].score);
01057   0651 21 3C 5F    	ld hl, DrawScreen_s + 2
01058   0654 22 00 5F    	ld (Uint16ToString_1_a), hl
01059   0657 2A 8D 5D    	ld hl, (((hiScores) + (0)) + (10))
01060   065A CD 75 0F    	call Uint16ToString
01061   065D             ; 380     DrawText1(PIXELCOORDS(3, 7), 1, UINT16TOSTRING_OUTPUT_SIZE, buf);
01062   065D             ; 1  ((XX)*256))
01063   065D 21 F8 FC    	ld hl, 64760
01064   0660 22 C0 5E    	ld (DrawText1_1_a), hl
01065   0663             ; 380 , UINT16TOSTRING_OUTPUT_SIZE, buf);
01066   0663 3E 01       	ld a, 1
01067   0665 32 C2 5E    	ld (DrawText1_2_a), a
01068   0668 3E 05       	ld a, 5
01069   066A 32 C3 5E    	ld (DrawText1_3_a), a
01070   066D 21 3C 5F    	ld hl, DrawScreen_s + 2
01071   0670 CD 3E 0D    	call DrawText1
01072   0673             ; 381 
01073   0673             ; 382     // Имя набравшено максимальный результат
01074   0673             ; 383     DrawText(3 + (9 - strlen(hiScores[0].name)) / 2, 19, 9, hiScores[0].name);
01075   0673 21 83 5D    	ld hl, ((hiScores) + (0)) + (0)
01076   0676 CD AF 0F    	call strlen
01077   0679 11 09 00    	ld de, 9
01078   067C EB          	ex hl, de
01079   067D CD 9D 5F    	call __o_sub_16
01080   0680 11 01 00    	ld de, 1
01081   0683 CD EC 5F    	call __o_shr_u16
01082   0686 7D          	ld a, l
01083   0687 C6 03       	add 3
01084   0689 32 C6 5E    	ld (DrawText_1_a), a
01085   068C 3E 13       	ld a, 19
01086   068E 32 C7 5E    	ld (DrawText_2_a), a
01087   0691 3E 09       	ld a, 9
01088   0693 32 C8 5E    	ld (DrawText_3_a), a
01089   0696 21 83 5D    	ld hl, ((hiScores) + (0)) + (0)
01090   0699 CD 51 0E    	call DrawText
01091   069C             ; 384 
01092   069C             ; 385     // Рисуем состояние кнопок
01093   069C             ; 386     if (showPath) DrawButton(BUTTON_PATH, true);
01094   069C 3A 7E 5D    	ld a, (showPath)
01095   069F B7          	or a
01096   06A0 CA AE 06    	jp z, l_98
01097   06A3             ; 1  ((XX)*256))
01098   06A3 21 08 F2    	ld hl, 61960
01099   06A6 22 FB 5E    	ld (DrawButton_1_a), hl
01100   06A9             ; 25 ;
01101   06A9 3E 01       	ld a, 1
01102   06AB CD CA 04    	call DrawButton
01103   06AE             l_98: 
01104   06AE             ; 387 ) DrawButton(BUTTON_SOUND, true);
01105   06AE 3A 80 5D    	ld a, (soundEnabled)
01106   06B1 B7          	or a
01107   06B2 CA C0 06    	jp z, l_100
01108   06B5             ; 1  ((XX)*256))
01109   06B5 21 08 EA    	ld hl, 59912
01110   06B8 22 FB 5E    	ld (DrawButton_1_a), hl
01111   06BB             ; 25 ;
01112   06BB 3E 01       	ld a, 1
01113   06BD CD CA 04    	call DrawButton
01114   06C0             l_100: 
01115   06C0             ; 388 ) {
01116   06C0 3A 7F 5D    	ld a, (showHelp)
01117   06C3 B7          	or a
01118   06C4 CA D5 06    	jp z, l_102
01119   06C7             ; 389         DrawButton(BUTTON_HELP, true);
01120   06C7             ; 1  ((XX)*256))
01121   06C7 21 08 E2    	ld hl, 57864
01122   06CA 22 FB 5E    	ld (DrawButton_1_a), hl
01123   06CD             ; 25 ;
01124   06CD 3E 01       	ld a, 1
01125   06CF CD CA 04    	call DrawButton
01126   06D2             ; 390 );
01127   06D2 CD 22 05    	call DrawHelp
01128   06D5             l_102: 
01129   06D5             ; 391     }
01130   06D5             ; 392 
01131   06D5             ; 393     uint8_t x, y;
01132   06D5             ; 394     for (y = 0; y < GAME_HEIGHT; y++) {
01133   06D5 AF          	xor a
01134   06D6 32 43 5F    	ld (DrawScreen_s + 9), a
01135   06D9             l_104: 
01136   06D9 3A 43 5F    	ld a, (DrawScreen_s + 9)
01137   06DC FE 09       	cp 9
01138   06DE D2 31 07    	jp nc, l_106
01139   06E1             ; 395         for (x = 0; x < GAME_WIDTH; x++) {
01140   06E1 AF          	xor a
01141   06E2 32 42 5F    	ld (DrawScreen_s + 8), a
01142   06E5             l_107: 
01143   06E5 3A 42 5F    	ld a, (DrawScreen_s + 8)
01144   06E8 FE 09       	cp 9
01145   06EA D2 27 07    	jp nc, l_109
01146   06ED             ; 396             uint8_t color = game[x][y];
01147   06ED 2A 42 5F    	ld hl, (DrawScreen_s + 8)
01148   06F0 26 00       	ld h, 0
01149   06F2 54          	ld d, h
01150   06F3 5D          	ld e, l
01151   06F4 29          	add hl, hl
01152   06F5 29          	add hl, hl
01153   06F6 29          	add hl, hl
01154   06F7 19          	add hl, de
01155   06F8 11 26 5D    	ld de, game
01156   06FB 19          	add hl, de
01157   06FC EB          	ex hl, de
01158   06FD 2A 43 5F    	ld hl, (DrawScreen_s + 9)
01159   0700 26 00       	ld h, 0
01160   0702 19          	add hl, de
01161   0703 7E          	ld a, (hl)
01162   0704 32 44 5F    	ld (DrawScreen_s + 10), a
01163   0707             ; 397             if (color != 0) DrawCell(x, y, color);
01164   0707             ; REMOVED
01165   0707 B7          	or a
01166   0708 CA 1D 07    	jp z, l_110
01167   070B 3A 42 5F    	ld a, (DrawScreen_s + 8)
01168   070E 32 F1 5E    	ld (DrawCell_1_a), a
01169   0711 3A 43 5F    	ld a, (DrawScreen_s + 9)
01170   0714 32 F2 5E    	ld (DrawCell_2_a), a
01171   0717 3A 44 5F    	ld a, (DrawScreen_s + 10)
01172   071A CD BE 0F    	call DrawCell
01173   071D             l_110: 
01174   071D             l_108: 
01175   071D 3A 42 5F    	ld a, (DrawScreen_s + 8)
01176   0720 3C          	inc a
01177   0721 32 42 5F    	ld (DrawScreen_s + 8), a
01178   0724 C3 E5 06    	jp l_107
01179   0727             l_109: 
01180   0727             l_105: 
01181   0727 3A 43 5F    	ld a, (DrawScreen_s + 9)
01182   072A 3C          	inc a
01183   072B 32 43 5F    	ld (DrawScreen_s + 9), a
01184   072E C3 D9 06    	jp l_104
01185   0731             l_106: 
01186   0731             ; 398         }
01187   0731             ; 399     }
01188   0731             ; 400 
01189   0731             ; 401     DrawCursor();
01190   0731 CD 3D 07    	call DrawCursor
01191   0734             ; 402 
01192   0734             ; 403     // Показываем графику
01193   0734             ; 404     SetPaletteSlowly(gamePalette);
01194   0734 21 97 5E    	ld hl, gamePalette
01195   0737 C3 90 09    	jp SetPaletteSlowly
01196   073A             ; REMOVED
01197   073A             ClearCursor: 
01198   073A             	; Stack correction reset
01199   073A C3 3D 07    	jp DrawCursor
01200   073D             ; REMOVED
01201   073D             DrawCursor: 
01202   073D             	; Stack correction reset
01203   073D 3A 7A 5D    	ld a, (cursorX)
01204   0740 32 04 5F    	ld (CellAddress_1_a), a
01205   0743 3A 7B 5D    	ld a, (cursorY)
01206   0746 CD 22 10    	call CellAddress
01207   0749 C3 D6 0F    	jp DrawCursorXor
01208   074C             ; REMOVED
01209   074C             MoveBall: 
01210   074C             	; Stack correction reset
01211   074C             ; 320 cursorY] != 0) {
01212   074C 2A 7A 5D    	ld hl, (cursorX)
01213   074F 26 00       	ld h, 0
01214   0751 54          	ld d, h
01215   0752 5D          	ld e, l
01216   0753 29          	add hl, hl
01217   0754 29          	add hl, hl
01218   0755 29          	add hl, hl
01219   0756 19          	add hl, de
01220   0757 11 26 5D    	ld de, game
01221   075A 19          	add hl, de
01222   075B EB          	ex hl, de
01223   075C 2A 7B 5D    	ld hl, (cursorY)
01224   075F 26 00       	ld h, 0
01225   0761 19          	add hl, de
01226   0762 7E          	ld a, (hl)
01227   0763 B7          	or a
01228   0764 CA 9F 07    	jp z, l_112
01229   0767             ; 321         if (selX != NO_SEL) DrawCell(selX, selY, game[selX][selY]);
01230   0767 3A 7C 5D    	ld a, (selX)
01231   076A FE FF       	cp 255
01232   076C CA 92 07    	jp z, l_114
01233   076F             ; REMOVED
01234   076F 32 F1 5E    	ld (DrawCell_1_a), a
01235   0772 3A 7D 5D    	ld a, (selY)
01236   0775 32 F2 5E    	ld (DrawCell_2_a), a
01237   0778 2A 7C 5D    	ld hl, (selX)
01238   077B 26 00       	ld h, 0
01239   077D 54          	ld d, h
01240   077E 5D          	ld e, l
01241   077F 29          	add hl, hl
01242   0780 29          	add hl, hl
01243   0781 29          	add hl, hl
01244   0782 19          	add hl, de
01245   0783 11 26 5D    	ld de, game
01246   0786 19          	add hl, de
01247   0787 EB          	ex hl, de
01248   0788 2A 7D 5D    	ld hl, (selY)
01249   078B 26 00       	ld h, 0
01250   078D 19          	add hl, de
01251   078E 7E          	ld a, (hl)
01252   078F CD BE 0F    	call DrawCell
01253   0792             l_114: 
01254   0792             ; 322         selX = cursorX;
01255   0792 3A 7A 5D    	ld a, (cursorX)
01256   0795 32 7C 5D    	ld (selX), a
01257   0798             ; 323         selY = cursorY;
01258   0798 3A 7B 5D    	ld a, (cursorY)
01259   079B 32 7D 5D    	ld (selY), a
01260   079E C9          	ret
01261   079F             l_112: 
01262   079F             ; 324         return;
01263   079F             ; 325     }
01264   079F             ; 326 
01265   079F             ; 327     if (selX == NO_SEL) return;
01266   079F 3A 7C 5D    	ld a, (selX)
01267   07A2 FE FF       	cp 255
01268   07A4 C8          	ret z
01269   07A5             ; REMOVED
01270   07A5             ; REMOVED
01271   07A5             ; 328 
01272   07A5             ; 329     uint8_t c = game[selX][selY];
01273   07A5 2A 7C 5D    	ld hl, (selX)
01274   07A8 26 00       	ld h, 0
01275   07AA 54          	ld d, h
01276   07AB 5D          	ld e, l
01277   07AC 29          	add hl, hl
01278   07AD 29          	add hl, hl
01279   07AE 29          	add hl, hl
01280   07AF 19          	add hl, de
01281   07B0 11 26 5D    	ld de, game
01282   07B3 19          	add hl, de
01283   07B4 EB          	ex hl, de
01284   07B5 2A 7D 5D    	ld hl, (selY)
01285   07B8 26 00       	ld h, 0
01286   07BA 19          	add hl, de
01287   07BB 7E          	ld a, (hl)
01288   07BC 32 45 5F    	ld (MoveBall_s + 0), a
01289   07BF             ; 330 
01290   07BF             ; 331     // Алгоритм поиска поути
01291   07BF             ; 332     if (!PathFind()) {
01292   07BF CD 51 10    	call PathFind
01293   07C2 B7          	or a
01294   07C3 C2 CE 07    	jp nz, l_118
01295   07C6             ; 333         if (soundEnabled) PlaySoundCantMove();
01296   07C6 3A 80 5D    	ld a, (soundEnabled)
01297   07C9 B7          	or a
01298   07CA C4 AE 11    	call nz, PlaySoundCantMove
01299   07CD             ; REMOVED
01300   07CD             ; REMOVED
01301   07CD C9          	ret
01302   07CE             l_118: 
01303   07CE             ; 334         return;
01304   07CE             ; 335     }
01305   07CE             ; 336 
01306   07CE             ; 337     if (showPath) {
01307   07CE 3A 7E 5D    	ld a, (showPath)
01308   07D1 B7          	or a
01309   07D2 CA 41 08    	jp z, l_122
01310   07D5             l_124: 
01311   07D5             ; 338         // Рисуем шаги на экране
01312   07D5             ; 339         for (;;) {
01313   07D5             ; 340             uint8_t x = path_x;
01314   07D5 3A E3 5D    	ld a, (path_x)
01315   07D8 32 46 5F    	ld (MoveBall_s + 1), a
01316   07DB             ; 341             uint8_t y = path_y;
01317   07DB 3A E4 5D    	ld a, (path_y)
01318   07DE 32 47 5F    	ld (MoveBall_s + 2), a
01319   07E1             ; 342             uint8_t dir = PathGetNextStep();
01320   07E1 CD CC 11    	call PathGetNextStep
01321   07E4 32 48 5F    	ld (MoveBall_s + 3), a
01322   07E7             ; 343             DrawSpriteStep(x, y, dir - 1);
01323   07E7 3A 46 5F    	ld a, (MoveBall_s + 1)
01324   07EA 32 F4 5E    	ld (DrawSpriteStep_1_a), a
01325   07ED 3A 47 5F    	ld a, (MoveBall_s + 2)
01326   07F0 32 F5 5E    	ld (DrawSpriteStep_2_a), a
01327   07F3 3A 48 5F    	ld a, (MoveBall_s + 3)
01328   07F6 3D          	dec a
01329   07F7 CD 8B 12    	call DrawSpriteStep
01330   07FA             ; 344             DrawCell(path_x, path_y, c);
01331   07FA 3A E3 5D    	ld a, (path_x)
01332   07FD 32 F1 5E    	ld (DrawCell_1_a), a
01333   0800 3A E4 5D    	ld a, (path_y)
01334   0803 32 F2 5E    	ld (DrawCell_2_a), a
01335   0806 3A 45 5F    	ld a, (MoveBall_s + 0)
01336   0809 CD BE 0F    	call DrawCell
01337   080C             ; 345             if (path_n == LAST_STEP) break;
01338   080C 3A E5 5D    	ld a, (path_n)
01339   080F FE 09       	cp 9
01340   0811 CA 24 08    	jp z, l_126
01341   0814             ; REMOVED
01342   0814             ; REMOVED
01343   0814             ; 346             if (soundEnabled) PlaySoundJump();
01344   0814 3A 80 5D    	ld a, (soundEnabled)
01345   0817 B7          	or a
01346   0818 C4 5F 0B    	call nz, PlaySoundJump
01347   081B             ; REMOVED
01348   081B             ; REMOVED
01349   081B             ; 347             Delay(STEP_ANIMATION_DELAY);
01350   081B             ; 35 ; /* задерка в main */
01351   081B 21 D0 07    	ld hl, 2000
01352   081E CD A2 04    	call Delay
01353   0821             l_125: 
01354   0821 C3 D5 07    	jp l_124
01355   0824             l_126: 
01356   0824             ; 351 );
01357   0824 CD BF 12    	call PathRewind
01358   0827             l_131: 
01359   0827             ; 352         do {
01360   0827             ; 353             DrawEmptyCell(path_x, path_y);
01361   0827 3A E3 5D    	ld a, (path_x)
01362   082A 32 E2 5E    	ld (DrawEmptyCell_1_a), a
01363   082D 3A E4 5D    	ld a, (path_y)
01364   0830 CD D8 12    	call DrawEmptyCell
01365   0833             ; 354             PathGetNextStep();
01366   0833 CD CC 11    	call PathGetNextStep
01367   0836             l_132: 
01368   0836             ; 355         } while (path_n != LAST_STEP);
01369   0836 3A E5 5D    	ld a, (path_n)
01370   0839 FE 09       	cp 9
01371   083B C2 27 08    	jp nz, l_131
01372   083E             l_133: 
01373   083E C3 5F 08    	jp l_123
01374   0841             l_122: 
01375   0841             ; 356     } else {
01376   0841             ; 357         DrawEmptyCell(selX, selY);
01377   0841 3A 7C 5D    	ld a, (selX)
01378   0844 32 E2 5E    	ld (DrawEmptyCell_1_a), a
01379   0847 3A 7D 5D    	ld a, (selY)
01380   084A CD D8 12    	call DrawEmptyCell
01381   084D             ; 358         DrawCell(cursorX, cursorY, c);
01382   084D 3A 7A 5D    	ld a, (cursorX)
01383   0850 32 F1 5E    	ld (DrawCell_1_a), a
01384   0853 3A 7B 5D    	ld a, (cursorY)
01385   0856 32 F2 5E    	ld (DrawCell_2_a), a
01386   0859 3A 45 5F    	ld a, (MoveBall_s + 0)
01387   085C CD BE 0F    	call DrawCell
01388   085F             l_123: 
01389   085F             ; 359     }
01390   085F             ; 360 
01391   085F             ; 361     // Очищаем игровое поле от временных значений
01392   085F             ; 362     PathFree();
01393   085F CD EA 12    	call PathFree
01394   0862             ; 363 
01395   0862             ; 364     // Реально перемещаем шарик. Все выше было лишь анимацией.
01396   0862             ; 365     game[selX][selY] = 0;
01397   0862 2A 7C 5D    	ld hl, (selX)
01398   0865 26 00       	ld h, 0
01399   0867 54          	ld d, h
01400   0868 5D          	ld e, l
01401   0869 29          	add hl, hl
01402   086A 29          	add hl, hl
01403   086B 29          	add hl, hl
01404   086C 19          	add hl, de
01405   086D 11 26 5D    	ld de, game
01406   0870 19          	add hl, de
01407   0871 EB          	ex hl, de
01408   0872 2A 7D 5D    	ld hl, (selY)
01409   0875 26 00       	ld h, 0
01410   0877 19          	add hl, de
01411   0878 36 00       	ld (hl), 0
01412   087A             ; 366     game[cursorX][cursorY] = c;
01413   087A 3A 45 5F    	ld a, (MoveBall_s + 0)
01414   087D 2A 7A 5D    	ld hl, (cursorX)
01415   0880 26 00       	ld h, 0
01416   0882 54          	ld d, h
01417   0883 5D          	ld e, l
01418   0884 29          	add hl, hl
01419   0885 29          	add hl, hl
01420   0886 29          	add hl, hl
01421   0887 19          	add hl, de
01422   0888 11 26 5D    	ld de, game
01423   088B 19          	add hl, de
01424   088C EB          	ex hl, de
01425   088D 2A 7B 5D    	ld hl, (cursorY)
01426   0890 26 00       	ld h, 0
01427   0892 19          	add hl, de
01428   0893 77          	ld (hl), a
01429   0894             ; 367 
01430   0894             ; 368     // Снимаем выделение
01431   0894             ; 369     selX = NO_SEL;
01432   0894             ; 28 ;  // Значение для selX
01433   0894 3E FF       	ld a, 255
01434   0896 32 7C 5D    	ld (selX), a
01435   0899             ; 372 false)) return;
01436   0899             ; 24 ;
01437   0899 AF          	xor a
01438   089A CD E3 09    	call GameStep
01439   089D B7          	or a
01440   089E C8          	ret z
01441   089F             ; REMOVED
01442   089F             ; REMOVED
01443   089F             ; 377 score) {
01444   089F 2A E1 5D    	ld hl, (((hiScores) + (84)) + (10))
01445   08A2 EB          	ex hl, de
01446   08A3 2A 81 5D    	ld hl, (score)
01447   08A6 CD 9D 5F    	call __o_sub_16
01448   08A9 D2 B3 08    	jp nc, l_136
01449   08AC             ; 378         DrawHiScores(0);
01450   08AC AF          	xor a
01451   08AD CD 77 05    	call DrawHiScores
01452   08B0 C3 B6 08    	jp l_137
01453   08B3             l_136: 
01454   08B3             ; 379     } else {
01455   08B3             ; 380         AddToHiScores();
01456   08B3 CD 2C 13    	call AddToHiScores
01457   08B6             l_137: 
01458   08B6             ; 381     }
01459   08B6             ; 382 
01460   08B6             ; 383     ReadKeyboard(false);
01461   08B6             ; 24 ;
01462   08B6 AF          	xor a
01463   08B7 CD 9E 03    	call ReadKeyboard
01464   08BA             ; 384 );
01465   08BA C3 C9 02    	jp NewGame
01466   08BD             ; REMOVED
01467   08BD             SetBlackPalette: 
01468   08BD             	; Stack correction reset
01469   08BD             ; 47 0x0F);
01470   08BD 3E 0F       	ld a, 15
01471   08BF CD 34 14    	call SetPaletteInternal
01472   08C2             
01473   08C2 D3 B8               out (0B8h), a
01474   08C4 D3 B9               out (0B9h), a
01475   08C6                 
01476   08C6 C9          	ret
01477   08C7             unmlz: 
01478   08C7             	; Stack correction reset
01479   08C7             ; 20 * __fastcall unmlz(void* destination, const void* source) {
01480   08C7 22 23 5F    	ld (unmlz_2_a), hl
01481   08CA             
01482   08CA EB                  ex   hl, de  // source
01483   08CB 2A 21 5F            ld   hl, (unmlz_1_a)  // destination
01484   08CE 44 4D               ld   bc, hl
01485   08D0 3E 80               ld   a, 0x80
01486   08D2             unmlz_0: 
01487   08D2 32 E6 08            ld   (unmlz_5 + 1), a
01488   08D5 1A                  ld   a, (de)
01489   08D6 13                  inc  de
01490   08D7 C3 E3 08            jp   unmlz_4
01491   08DA             unmlz_1: 
01492   08DA 7E                  ld   a, (hl)
01493   08DB 23                  inc  hl
01494   08DC 02                  ld   (bc), a
01495   08DD 03                  inc  bc
01496   08DE             unmlz_2: 
01497   08DE 7E                  ld   a, (hl)
01498   08DF 23                  inc  hl
01499   08E0 02                  ld   (bc), a
01500   08E1 03                  inc  bc
01501   08E2             unmlz_3: 
01502   08E2 7E                  ld   a, (hl)
01503   08E3             unmlz_4: 
01504   08E3 02                  ld   (bc), a
01505   08E4 03                  inc  bc
01506   08E5             unmlz_5: 
01507   08E5 3E 80               ld   a, 0x80
01508   08E7 87                  add  a
01509   08E8 CC 8C 09            call z, unmlz_20
01510   08EB DA D2 08            jp   c, unmlz_0
01511   08EE 87                  add  a
01512   08EF CC 8C 09            call z, unmlz_20
01513   08F2 DA 15 09            jp   c, unmlz_7
01514   08F5 87                  add  a
01515   08F6 CC 8C 09            call z, unmlz_20
01516   08F9 DA 09 09            jp   c, unmlz_6
01517   08FC 21 FF 3F            ld   hl, 16383
01518   08FF CD 5B 09            call unmlz_16
01519   0902 32 E6 08            ld   (unmlz_5 + 1), a
01520   0905 09                  add  hl, bc
01521   0906 C3 E2 08            jp   unmlz_3
01522   0909             
01523   0909             unmlz_6: 
01524   0909 32 E6 08            ld   (unmlz_5 + 1), a
01525   090C 1A                  ld   a, (de)
01526   090D 13                  inc  de
01527   090E 6F                  ld   l, a
01528   090F 26 FF               ld   h, 255
01529   0911 09                  add  hl, bc
01530   0912 C3 DE 08            jp   unmlz_2
01531   0915             
01532   0915             unmlz_7: 
01533   0915 87                  add  a
01534   0916 CC 8C 09            call z, unmlz_20
01535   0919 DA 23 09            jp   c, unmlz_8
01536   091C CD 6D 09            call unmlz_18
01537   091F 09                  add  hl, bc
01538   0920 C3 DA 08            jp   unmlz_1
01539   0923             
01540   0923             unmlz_8: 
01541   0923 26 00               ld   h, 0
01542   0925             unmlz_9: 
01543   0925 24                  inc  h
01544   0926 87                  add  a
01545   0927 CC 8C 09            call z, unmlz_20
01546   092A D2 25 09            jp   nc, unmlz_9
01547   092D             unmlz_10: 
01548   092D F5                  push af
01549   092E 7C                  ld   a, h
01550   092F FE 08               cp   8
01551   0931 D2 58 09            jp   nc, unmlz_15
01552   0934 3E 00               ld   a, 0
01553   0936             unmlz_11: 
01554   0936 1F                  rra
01555   0937 25                  dec  h
01556   0938 C2 36 09            jp   nz, unmlz_11
01557   093B             unmlz_12: 
01558   093B 67                  ld   h, a
01559   093C 2E 01               ld   l, 1
01560   093E F1                  pop  af
01561   093F CD 5B 09            call unmlz_16
01562   0942 23                  inc  hl
01563   0943 23                  inc  hl
01564   0944 E5                  push hl
01565   0945 CD 6D 09            call unmlz_18
01566   0948 EB                  ex de, hl
01567   0949 E3                  ex   (sp), hl
01568   094A EB                  ex de, hl
01569   094B 09                  add  hl, bc
01570   094C             unmlz_13: 
01571   094C 7E                  ld   a, (hl)
01572   094D 23                  inc  hl
01573   094E 02                  ld   (bc), a
01574   094F 03                  inc  bc
01575   0950 1D                  dec  e
01576   0951 C2 4C 09            jp   nz, unmlz_13
01577   0954             unmlz_14: 
01578   0954 D1                  pop  de
01579   0955 C3 E5 08            jp   unmlz_5
01580   0958             unmlz_15: 
01581   0958 F1                  pop  af
01582   0959 EB                  ex   de, hl
01583   095A C9                  ret
01584   095B             
01585   095B             unmlz_16: 
01586   095B 87                  add  a
01587   095C CC 8C 09            call z, unmlz_20
01588   095F DA 67 09            jp   c, unmlz_17
01589   0962 29                  add  hl, hl
01590   0963 D8                  ret  c
01591   0964 C3 5B 09            jp unmlz_16
01592   0967             unmlz_17: 
01593   0967 29                  add  hl, hl
01594   0968 2C                  inc  l
01595   0969 D8                  ret  c
01596   096A C3 5B 09            jp   unmlz_16
01597   096D             
01598   096D             unmlz_18: 
01599   096D 87                  add  a
01600   096E CC 8C 09            call z, unmlz_20
01601   0971 DA 7D 09            jp   c, unmlz_19
01602   0974 32 E6 08            ld   (unmlz_5 + 1), a
01603   0977 1A                  ld   a, (de)
01604   0978 13                  inc  de
01605   0979 6F                  ld   l, a
01606   097A 26 FF               ld   h, 255
01607   097C C9                  ret
01608   097D             
01609   097D             unmlz_19: 
01610   097D 21 FF 1F            ld   hl, 8191
01611   0980 CD 5B 09            call unmlz_16
01612   0983 32 E6 08            ld   (unmlz_5 + 1), a
01613   0986 65                  ld   h, l
01614   0987 25                  dec  h
01615   0988 1A                  ld   a, (de)
01616   0989 13                  inc  de
01617   098A 6F                  ld   l, a
01618   098B C9                  ret
01619   098C             
01620   098C             unmlz_20: 
01621   098C 1A                  ld   a, (de)
01622   098D 13                  inc  de
01623   098E 17                  rla
01624   098F                 
01625   098F C9          	ret
01626   0990             SetPaletteSlowly: 
01627   0990             	; Stack correction reset
01628   0990             ; 67  SetPaletteSlowly(const uint8_t* palette) {
01629   0990 22 D1 5E    	ld (SetPaletteSlowly_1_a), hl
01630   0993             ; 68     currentPalette = palette;
01631   0993             ; REMOVED
01632   0993 22 73 24    	ld (currentPalette), hl
01633   0996             ; 69 
01634   0996             ; 70     // Установка темной палитры
01635   0996             ; 71     SetPaletteInternal(0x08);
01636   0996 3E 08       	ld a, 8
01637   0998 CD 34 14    	call SetPaletteInternal
01638   099B             
01639   099B D3 F8               out (0F8h), a
01640   099D D3 B9               out (0B9h), a
01641   099F                 
01642   099F             ; 72 
01643   099F             ; 73     // Включение цветного режима. Процессор работает в 2 раза медленнее.
01644   099F             ; 74     asm {
01645   099F             ; 75         out (0F8h), a
01646   099F             ; 76         out (0B9h), a
01647   099F             ; 77     }
01648   099F             ; 78 
01649   099F             ; 79     // Задержка
01650   099F             ; 80     Delay(5000);
01651   099F 21 88 13    	ld hl, 5000
01652   09A2 CD A2 04    	call Delay
01653   09A5             ; 81 
01654   09A5             ; 82     // Установка нормальной палитры
01655   09A5             ; 83     SetPaletteInternal(0x00);
01656   09A5 AF          	xor a
01657   09A6 C3 34 14    	jp SetPaletteInternal
01658   09A9             ; REMOVED
01659   09A9             PlayTone: 
01660   09A9             	; Stack correction reset
01661   09A9             ; 20  PlayTone(uint16_t time, uint16_t period) {
01662   09A9 22 D7 5E    	ld (PlayTone_2_a), hl
01663   09AC             
01664   09AC EB                  ex hl, de
01665   09AD 2A D5 5E            ld hl, (PlayTone_1_a)
01666   09B0 C3 B1 EA            jp 0EAB1h
01667   09B3                 
01668   09B3 C9          	ret
01669   09B4             GenerateNewBalls: 
01670   09B4             	; Stack correction reset
01671   09B4             ; 185  = 0; i < NEW_BALL_COUNT; i++) newBalls[i] = rand() % COLORS_COUNT + 1;
01672   09B4 AF          	xor a
01673   09B5 32 49 5F    	ld (GenerateNewBalls_s + 0), a
01674   09B8             l_138: 
01675   09B8 3A 49 5F    	ld a, (GenerateNewBalls_s + 0)
01676   09BB FE 03       	cp 3
01677   09BD D2 E2 09    	jp nc, l_140
01678   09C0 CD 2B 03    	call rand
01679   09C3 6F          	ld l, a
01680   09C4 26 00       	ld h, 0
01681   09C6 11 07 00    	ld de, 7
01682   09C9 CD E4 5F    	call __o_mod_u16
01683   09CC 7D          	ld a, l
01684   09CD 3C          	inc a
01685   09CE 2A 49 5F    	ld hl, (GenerateNewBalls_s + 0)
01686   09D1 26 00       	ld h, 0
01687   09D3 11 77 5D    	ld de, newBalls
01688   09D6 19          	add hl, de
01689   09D7 77          	ld (hl), a
01690   09D8             l_139: 
01691   09D8 3A 49 5F    	ld a, (GenerateNewBalls_s + 0)
01692   09DB 3C          	inc a
01693   09DC 32 49 5F    	ld (GenerateNewBalls_s + 0), a
01694   09DF C3 B8 09    	jp l_138
01695   09E2             l_140: 
01696   09E2 C9          	ret
01697   09E3             GameStep: 
01698   09E3             	; Stack correction reset
01699   09E3             ; 186 }
01700   09E3             ; 187 
01701   09E3             ; 188 // Помещаем шарик в случайную свободную ячейку
01702   09E3             ; 189 
01703   09E3             ; 190 struct XY {
01704   09E3             ; 191     uint8_t x, y;
01705   09E3             ; 192 };
01706   09E3             ; 193 
01707   09E3             ; 194 // Удалить линии или добавить 3 шарика.
01708   09E3             ; 195 
01709   09E3             ; 196 static uint8_t GameStep(uint8_t newGame) {
01710   09E3 32 E4 5E    	ld (GameStep_1_a), a
01711   09E6             ; 197     // Ищем готовые линии
01712   09E6             ; 198     if (FindLines()) return 0;
01713   09E6 CD 4F 14    	call FindLines
01714   09E9 B7          	or a
01715   09EA CA EF 09    	jp z, l_141
01716   09ED AF          	xor a
01717   09EE C9          	ret
01718   09EF             l_141: 
01719   09EF             ; 199 
01720   09EF             ; 200     // Считаем кол во свободных клеток
01721   09EF             ; 201     uint8_t freeCellCount = CalcFreeCellCount();
01722   09EF CD 4B 17    	call CalcFreeCellCount
01723   09F2 32 4A 5F    	ld (GameStep_s + 0), a
01724   09F5             ; 202     if (freeCellCount == 0) return 1;  // Такого не может быть
01725   09F5             ; REMOVED
01726   09F5 B7          	or a
01727   09F6 C2 FC 09    	jp nz, l_143
01728   09F9 3E 01       	ld a, 1
01729   09FB C9          	ret
01730   09FC             l_143: 
01731   09FC             ; 203 
01732   09FC             ; 204     // Кол-во добавляемых шариков
01733   09FC             ; 205     uint8_t newBallCount = freeCellCount;
01734   09FC             ; REMOVED
01735   09FC 32 4B 5F    	ld (GameStep_s + 1), a
01736   09FF             ; 206     if (newBallCount > NEW_BALL_COUNT) newBallCount = NEW_BALL_COUNT;
01737   09FF             ; REMOVED
01738   09FF FE 04       	cp 4
01739   0A01 DA 09 0A    	jp c, l_145
01740   0A04             ; 27 ;
01741   0A04 3E 03       	ld a, 3
01742   0A06 32 4B 5F    	ld (GameStep_s + 1), a
01743   0A09             l_145: 
01744   0A09             ; 211  = 0; i < newBallCount; i++) {
01745   0A09 AF          	xor a
01746   0A0A 32 4C 5F    	ld (GameStep_s + 2), a
01747   0A0D             l_147: 
01748   0A0D 3A 4B 5F    	ld a, (GameStep_s + 1)
01749   0A10 57          	ld d, a
01750   0A11 3A 4C 5F    	ld a, (GameStep_s + 2)
01751   0A14 BA          	cp d
01752   0A15 D2 8D 0A    	jp nc, l_149
01753   0A18             ; 212         uint8_t n = rand() % freeCellCount;
01754   0A18 CD 2B 03    	call rand
01755   0A1B 6F          	ld l, a
01756   0A1C 26 00       	ld h, 0
01757   0A1E EB          	ex hl, de
01758   0A1F 2A 4A 5F    	ld hl, (GameStep_s + 0)
01759   0A22 26 00       	ld h, 0
01760   0A24 EB          	ex hl, de
01761   0A25 CD E4 5F    	call __o_mod_u16
01762   0A28 7D          	ld a, l
01763   0A29 32 53 5F    	ld (GameStep_s + 9), a
01764   0A2C             ; 213         freeCellCount--;
01765   0A2C 3A 4A 5F    	ld a, (GameStep_s + 0)
01766   0A2F 3D          	dec a
01767   0A30 32 4A 5F    	ld (GameStep_s + 0), a
01768   0A33             ; 214         uint8_t* p = &game[0][0];
01769   0A33 21 26 5D    	ld hl, ((game) + (0)) + (0)
01770   0A36 22 54 5F    	ld (GameStep_s + 10), hl
01771   0A39             l_150: 
01772   0A39             ; 215         for (;;) {
01773   0A39             ; 216             if (*p == 0) {
01774   0A39 2A 54 5F    	ld hl, (GameStep_s + 10)
01775   0A3C 7E          	ld a, (hl)
01776   0A3D B7          	or a
01777   0A3E C2 4C 0A    	jp nz, l_153
01778   0A41             ; 217                 if (n == 0) break;
01779   0A41 3A 53 5F    	ld a, (GameStep_s + 9)
01780   0A44 B7          	or a
01781   0A45 CA 53 0A    	jp z, l_152
01782   0A48             ; REMOVED
01783   0A48             ; REMOVED
01784   0A48             ; 218                 n--;
01785   0A48             ; REMOVED
01786   0A48 3D          	dec a
01787   0A49 32 53 5F    	ld (GameStep_s + 9), a
01788   0A4C             l_153: 
01789   0A4C             ; 219             }
01790   0A4C             ; 220             p++;
01791   0A4C             ; REMOVED
01792   0A4C 23          	inc hl
01793   0A4D 22 54 5F    	ld (GameStep_s + 10), hl
01794   0A50             l_151: 
01795   0A50 C3 39 0A    	jp l_150
01796   0A53             l_152: 
01797   0A53             ; 221         }
01798   0A53             ; 222 
01799   0A53             ; 223         // Заносим шарик
01800   0A53             ; 224         *p = newBalls[i];
01801   0A53 2A 4C 5F    	ld hl, (GameStep_s + 2)
01802   0A56 26 00       	ld h, 0
01803   0A58 11 77 5D    	ld de, newBalls
01804   0A5B 19          	add hl, de
01805   0A5C 7E          	ld a, (hl)
01806   0A5D 2A 54 5F    	ld hl, (GameStep_s + 10)
01807   0A60 77          	ld (hl), a
01808   0A61             ; 225 
01809   0A61             ; 226         // ЗАпоминаем координаты для анимации
01810   0A61             ; 227         coords[i].x = (p - &game[0][0]) / GAME_WIDTH;
01811   0A61             ; REMOVED
01812   0A61 11 DA A2    	ld de, -(((game) + (0)) + (0))
01813   0A64 19          	add hl, de
01814   0A65 11 09 00    	ld de, 9
01815   0A68 CD AA 5F    	call __o_div_u16
01816   0A6B 7D          	ld a, l
01817   0A6C 2A 4C 5F    	ld hl, (GameStep_s + 2)
01818   0A6F 26 00       	ld h, 0
01819   0A71 29          	add hl, hl
01820   0A72 11 4D 5F    	ld de, GameStep_s + 3
01821   0A75 19          	add hl, de
01822   0A76 77          	ld (hl), a
01823   0A77             ; 228         coords[i].y = __div_16_mod;
01824   0A77 3A F9 5F    	ld a, (__div_16_mod)
01825   0A7A 2A 4C 5F    	ld hl, (GameStep_s + 2)
01826   0A7D 26 00       	ld h, 0
01827   0A7F 29          	add hl, hl
01828   0A80             ; REMOVED
01829   0A80 19          	add hl, de
01830   0A81 23          	inc hl
01831   0A82 77          	ld (hl), a
01832   0A83             l_148: 
01833   0A83 3A 4C 5F    	ld a, (GameStep_s + 2)
01834   0A86 3C          	inc a
01835   0A87 32 4C 5F    	ld (GameStep_s + 2), a
01836   0A8A C3 0D 0A    	jp l_147
01837   0A8D             l_149: 
01838   0A8D             ; 229     }
01839   0A8D             ; 230 
01840   0A8D             ; 231     // Рисуем анимацию
01841   0A8D             ; 232     if (!newGame) {
01842   0A8D 3A E4 5E    	ld a, (GameStep_1_a)
01843   0A90 B7          	or a
01844   0A91 C2 F6 0A    	jp nz, l_157
01845   0A94             ; 233         for (i = 0; i < NEW_ANIMATION_COUNT; i++) {
01846   0A94 AF          	xor a
01847   0A95 32 4C 5F    	ld (GameStep_s + 2), a
01848   0A98             l_159: 
01849   0A98 3A 4C 5F    	ld a, (GameStep_s + 2)
01850   0A9B FE 05       	cp 5
01851   0A9D D2 F6 0A    	jp nc, l_161
01852   0AA0             ; 234             uint8_t j;
01853   0AA0             ; 235             for (j = 0; j < newBallCount; j++) {
01854   0AA0 AF          	xor a
01855   0AA1 32 53 5F    	ld (GameStep_s + 9), a
01856   0AA4             l_162: 
01857   0AA4 3A 4B 5F    	ld a, (GameStep_s + 1)
01858   0AA7 57          	ld d, a
01859   0AA8 3A 53 5F    	ld a, (GameStep_s + 9)
01860   0AAB BA          	cp d
01861   0AAC D2 E6 0A    	jp nc, l_164
01862   0AAF             ; 236                 DrawSpriteNew(coords[j].x, coords[j].y, newBalls[j], i);
01863   0AAF 2A 53 5F    	ld hl, (GameStep_s + 9)
01864   0AB2 26 00       	ld h, 0
01865   0AB4 29          	add hl, hl
01866   0AB5 11 4D 5F    	ld de, GameStep_s + 3
01867   0AB8 19          	add hl, de
01868   0AB9 7E          	ld a, (hl)
01869   0ABA 32 E5 5E    	ld (DrawSpriteNew_1_a), a
01870   0ABD 2A 53 5F    	ld hl, (GameStep_s + 9)
01871   0AC0 26 00       	ld h, 0
01872   0AC2 29          	add hl, hl
01873   0AC3             ; REMOVED
01874   0AC3 19          	add hl, de
01875   0AC4 23          	inc hl
01876   0AC5 7E          	ld a, (hl)
01877   0AC6 32 E6 5E    	ld (DrawSpriteNew_2_a), a
01878   0AC9 2A 53 5F    	ld hl, (GameStep_s + 9)
01879   0ACC 26 00       	ld h, 0
01880   0ACE 11 77 5D    	ld de, newBalls
01881   0AD1 19          	add hl, de
01882   0AD2 7E          	ld a, (hl)
01883   0AD3 32 E7 5E    	ld (DrawSpriteNew_3_a), a
01884   0AD6 3A 4C 5F    	ld a, (GameStep_s + 2)
01885   0AD9 CD 82 17    	call DrawSpriteNew
01886   0ADC             l_163: 
01887   0ADC 3A 53 5F    	ld a, (GameStep_s + 9)
01888   0ADF 3C          	inc a
01889   0AE0 32 53 5F    	ld (GameStep_s + 9), a
01890   0AE3 C3 A4 0A    	jp l_162
01891   0AE6             l_164: 
01892   0AE6             ; 237             }
01893   0AE6             ; 238             Delay(NEW_ANIMATION_DELAY);
01894   0AE6             ; 31 ; /* задерка в main */
01895   0AE6 21 D0 07    	ld hl, 2000
01896   0AE9 CD A2 04    	call Delay
01897   0AEC             l_160: 
01898   0AEC             ; 233 ) {
01899   0AEC 3A 4C 5F    	ld a, (GameStep_s + 2)
01900   0AEF 3C          	inc a
01901   0AF0 32 4C 5F    	ld (GameStep_s + 2), a
01902   0AF3 C3 98 0A    	jp l_159
01903   0AF6             l_161: 
01904   0AF6             l_157: 
01905   0AF6             ; 234             uint8_t j;
01906   0AF6             ; 235             for (j = 0; j < newBallCount; j++) {
01907   0AF6             ; 236                 DrawSpriteNew(coords[j].x, coords[j].y, newBalls[j], i);
01908   0AF6             ; 237             }
01909   0AF6             ; 238             Delay(NEW_ANIMATION_DELAY);
01910   0AF6             ; 239         }
01911   0AF6             ; 240     }
01912   0AF6             ; 241 
01913   0AF6             ; 242     // Вычисляем цвета новых шариков
01914   0AF6             ; 243     GenerateNewBalls();
01915   0AF6 CD B4 09    	call GenerateNewBalls
01916   0AF9             ; 244 
01917   0AF9             ; 245     // Рисуем цвета новых шариков
01918   0AF9             ; 246     if (newGame) return 0;
01919   0AF9 3A E4 5E    	ld a, (GameStep_1_a)
01920   0AFC B7          	or a
01921   0AFD CA 02 0B    	jp z, l_165
01922   0B00 AF          	xor a
01923   0B01 C9          	ret
01924   0B02             l_165: 
01925   0B02             ; 247     DrawHelp();
01926   0B02 CD 22 05    	call DrawHelp
01927   0B05             ; 248 
01928   0B05             ; 249     // Ищем готовые линии
01929   0B05             ; 250     if (FindLines()) return 0;
01930   0B05 CD 4F 14    	call FindLines
01931   0B08 B7          	or a
01932   0B09 CA 0E 0B    	jp z, l_167
01933   0B0C AF          	xor a
01934   0B0D C9          	ret
01935   0B0E             l_167: 
01936   0B0E             ; 251 
01937   0B0E             ; 252     // Если свободных клеток не осталось и целых линий не обнаружено, то конец игры
01938   0B0E             ; 253     return freeCellCount == 0;
01939   0B0E 3A 4A 5F    	ld a, (GameStep_s + 0)
01940   0B11 B7          	or a
01941   0B12 C2 1A 0B    	jp nz, l_169
01942   0B15 3E 01       	ld a, 1
01943   0B17 C3 1B 0B    	jp l_170
01944   0B1A             l_169: 
01945   0B1A AF          	xor a
01946   0B1B             l_170: 
01947   0B1B C9          	ret
01948   0B1C             ; REMOVED
01949   0B1C             DrawBouncingBall: 
01950   0B1C             	; Stack correction reset
01951   0B1C             ; 146  DrawBouncingBall(uint8_t x, uint8_t y, uint8_t color, uint8_t phase) {
01952   0B1C 32 FA 5E    	ld (DrawBouncingBall_4_a), a
01953   0B1F             ; 147     uint8_t* graphAddress = CellAddress(x, y);
01954   0B1F 3A F7 5E    	ld a, (DrawBouncingBall_1_a)
01955   0B22 32 04 5F    	ld (CellAddress_1_a), a
01956   0B25 3A F8 5E    	ld a, (DrawBouncingBall_2_a)
01957   0B28 CD 22 10    	call CellAddress
01958   0B2B 22 56 5F    	ld (DrawBouncingBall_s + 0), hl
01959   0B2E             ; 148     if (phase == 1) {
01960   0B2E 3A FA 5E    	ld a, (DrawBouncingBall_4_a)
01961   0B31 FE 01       	cp 1
01962   0B33 C2 45 0B    	jp nz, l_171
01963   0B36             ; 149         graphAddress[0] = 0;
01964   0B36             ; REMOVED
01965   0B36 36 00       	ld (hl), 0
01966   0B38             ; 150         graphAddress[-0x100] = 0;
01967   0B38             ; REMOVED
01968   0B38 11 00 FF    	ld de, 65280
01969   0B3B 19          	add hl, de
01970   0B3C 36 00       	ld (hl), 0
01971   0B3E             ; 151         graphAddress++;
01972   0B3E 2A 56 5F    	ld hl, (DrawBouncingBall_s + 0)
01973   0B41 23          	inc hl
01974   0B42 22 56 5F    	ld (DrawBouncingBall_s + 0), hl
01975   0B45             l_171: 
01976   0B45             ; 152     }
01977   0B45             ; 153     DrawBall1(graphAddress, bouncingAnimation[phase], color);
01978   0B45             ; REMOVED
01979   0B45 22 06 5F    	ld (DrawBall1_1_a), hl
01980   0B48 2A FA 5E    	ld hl, (DrawBouncingBall_4_a)
01981   0B4B 26 00       	ld h, 0
01982   0B4D 29          	add hl, hl
01983   0B4E 11 81 5E    	ld de, bouncingAnimation
01984   0B51 19          	add hl, de
01985   0B52 5E          	ld e, (hl)
01986   0B53 23          	inc hl
01987   0B54 56          	ld d, (hl)
01988   0B55 EB          	ex hl, de
01989   0B56 22 08 5F    	ld (DrawBall1_2_a), hl
01990   0B59 3A F9 5E    	ld a, (DrawBouncingBall_3_a)
01991   0B5C C3 A0 17    	jp DrawBall1
01992   0B5F             ; REMOVED
01993   0B5F             PlaySoundJump: 
01994   0B5F             	; Stack correction reset
01995   0B5F D3 B0        out (0xB0), a
01996   0B61 C9          	ret
01997   0B62             ReadKeyboardRow: 
01998   0B62             	; Stack correction reset
01999   0B62             ; 137  uint8_t ReadKeyboardRow(uint8_t row) {
02000   0B62 32 CB 5E    	ld (ReadKeyboardRow_1_a), a
02001   0B65             
02002   0B65 D3 C0               out (0C0h), a
02003   0B67 DB C0               in a, (0C0h)
02004   0B69                 
02005   0B69 C9          	ret
02006   0B6A             NumberOfBit: 
02007   0B6A             	; Stack correction reset
02008   0B6A             ; 20  NumberOfBit(uint8_t b) {
02009   0B6A 32 CD 5E    	ld (NumberOfBit_1_a), a
02010   0B6D             
02011   0B6D 1E 00               ld e, 0
02012   0B6F 16 07               ld d, 7
02013   0B71             NumberOfBit_0: 
02014   0B71 1F                  rra
02015   0B72 DA 7A 0B            jp c, NumberOfBit_1
02016   0B75 1C                  inc e
02017   0B76 15                  dec d
02018   0B77 C2 71 0B            jp nz, NumberOfBit_0
02019   0B7A             NumberOfBit_1: 
02020   0B7A 7B                  ld a, e
02021   0B7B                 
02022   0B7B C9          	ret
02023   0B7C             memswap: 
02024   0B7C             	; Stack correction reset
02025   0B7C             ; 22  __fastcall memswap(void* buffer1, void* buffer2, size_t size) {
02026   0B7C 22 1F 5F    	ld (memswap_3_a), hl
02027   0B7F             ; 23     (void)buffer1;
02028   0B7F 2A 1B 5F    	ld hl, (memswap_1_a)
02029   0B82             ; 24     (void)buffer2;
02030   0B82 2A 1D 5F    	ld hl, (memswap_2_a)
02031   0B85             ; 25     (void)size;
02032   0B85 2A 1F 5F    	ld hl, (memswap_3_a)
02033   0B88             
02034   0B88 C5                  push bc
02035   0B89 EB                  ex hl, de            ; de = size
02036   0B8A 2A 1D 5F            ld hl, (memswap_2_a) ; bc = buffer2
02037   0B8D 4D                  ld c, l
02038   0B8E 44                  ld b, h
02039   0B8F 2A 1B 5F            ld hl, (memswap_1_a) ; hl = buffer1
02040   0B92 14                  inc d                ; enter loop
02041   0B93 AF                  xor a
02042   0B94 B3                  or e
02043   0B95 CA A6 0B            jp z, memswap_3
02044   0B98             memswap_1: 
02045   0B98 0A                  ld a, (bc)
02046   0B99 32 9F 0B            ld (memswap_2 + 1), a
02047   0B9C 7E                  ld a, (hl)
02048   0B9D 02                  ld (bc), a
02049   0B9E             memswap_2: 
02050   0B9E 36 00               ld (hl), 0
02051   0BA0 23                  inc hl
02052   0BA1 03                  inc bc
02053   0BA2 1D                  dec e                ; end loop
02054   0BA3 C2 98 0B            jp nz, memswap_1
02055   0BA6             memswap_3: 
02056   0BA6 15                  dec d
02057   0BA7 C2 98 0B            jp nz, memswap_1
02058   0BAA C1                  pop bc
02059   0BAB                 
02060   0BAB C9          	ret
02061   0BAC             SetPalette: 
02062   0BAC             	; Stack correction reset
02063   0BAC             ; 86  SetPalette(const uint8_t* palette) {
02064   0BAC 22 D3 5E    	ld (SetPalette_1_a), hl
02065   0BAF             ; 87     currentPalette = palette;
02066   0BAF             ; REMOVED
02067   0BAF 22 73 24    	ld (currentPalette), hl
02068   0BB2             ; 88     SetPaletteInternal(0x00);
02069   0BB2 AF          	xor a
02070   0BB3 C3 34 14    	jp SetPaletteInternal
02071   0BB6             ; REMOVED
02072   0BB6             memcpy: 
02073   0BB6             	; Stack correction reset
02074   0BB6             ; 20 * __fastcall memcpy(void* destination, const void* source, size_t size) {
02075   0BB6 22 EE 5E    	ld (memcpy_3_a), hl
02076   0BB9             ; 21     (void)destination;
02077   0BB9 2A EA 5E    	ld hl, (memcpy_1_a)
02078   0BBC             ; 22     (void)source;
02079   0BBC 2A EC 5E    	ld hl, (memcpy_2_a)
02080   0BBF             ; 23     (void)size;
02081   0BBF 2A EE 5E    	ld hl, (memcpy_3_a)
02082   0BC2             
02083   0BC2 C5                  push bc
02084   0BC3 EB                  ex hl, de           ; de = size
02085   0BC4 2A EC 5E            ld hl, (memcpy_2_a) ; bc = source
02086   0BC7 4D                  ld c, l
02087   0BC8 44                  ld b, h
02088   0BC9 2A EA 5E            ld hl, (memcpy_1_a) ; hl = destination
02089   0BCC 14                  inc d               ; enter loop
02090   0BCD AF                  xor a
02091   0BCE B3                  or e
02092   0BCF CA DA 0B            jp z, memcpy_2
02093   0BD2             memcpy_1: 
02094   0BD2 0A                  ld a, (bc)
02095   0BD3 77                  ld (hl), a
02096   0BD4 23                  inc hl
02097   0BD5 03                  inc bc
02098   0BD6 1D                  dec e               ; end loop
02099   0BD7 C2 D2 0B            jp nz, memcpy_1
02100   0BDA             memcpy_2: 
02101   0BDA 15                  dec d
02102   0BDB C2 D2 0B            jp nz, memcpy_1
02103   0BDE C1                  pop bc
02104   0BDF 2A EA 5E            ld hl, (memcpy_1_a) ; return destination
02105   0BE2                 
02106   0BE2 C9          	ret
02107   0BE3             memset: 
02108   0BE3             	; Stack correction reset
02109   0BE3             ; 22 * __fastcall memset(void* destination, uint8_t byte, size_t size) {
02110   0BE3 22 19 5F    	ld (memset_3_a), hl
02111   0BE6             ; 23     (void)destination;
02112   0BE6 2A 16 5F    	ld hl, (memset_1_a)
02113   0BE9             ; 24     (void)byte;
02114   0BE9 3A 18 5F    	ld a, (memset_2_a)
02115   0BEC             ; 25     (void)size;
02116   0BEC 2A 19 5F    	ld hl, (memset_3_a)
02117   0BEF             
02118   0BEF EB                  ex hl, de           ; de = size
02119   0BF0 2A 16 5F            ld hl, (memset_1_a) ; hl = destination
02120   0BF3 14                  inc d               ; enter loop
02121   0BF4 AF                  xor a
02122   0BF5 B3                  or e
02123   0BF6 3A 18 5F            ld a, (memset_2_a)  ; bc = byte
02124   0BF9 CA 03 0C            jp z, memset_2
02125   0BFC             memset_1: 
02126   0BFC 77                  ld (hl), a
02127   0BFD 23                  inc hl
02128   0BFE 03                  inc bc
02129   0BFF 1D                  dec e               ; end loop
02130   0C00 C2 FC 0B            jp nz, memset_1
02131   0C03             memset_2: 
02132   0C03 15                  dec d
02133   0C04 C2 FC 0B            jp nz, memset_1
02134   0C07 2A 16 5F            ld hl, (memset_1_a) ; return destination
02135   0C0A                 
02136   0C0A C9          	ret
02137   0C0B             DrawSpriteNew1: 
02138   0C0B             	; Stack correction reset
02139   0C0B             ; 123  DrawSpriteNew1(uint8_t* graphAddress, uint8_t color, uint8_t phase) {
02140   0C0B 32 13 5F    	ld (DrawSpriteNew1_3_a), a
02141   0C0E             ; 124     DrawImage(graphAddress, imgBalls + (BALL_IMAGE_SIZEOF * 10) * (color - 1) + (4 - phase) * BALL_IMAGE_SIZEOF,
02142   0C0E 2A 10 5F    	ld hl, (DrawSpriteNew1_1_a)
02143   0C11 22 9F 5E    	ld (DrawImage_1_a), hl
02144   0C14 2A 13 5F    	ld hl, (DrawSpriteNew1_3_a)
02145   0C17 26 00       	ld h, 0
02146   0C19 11 04 00    	ld de, 4
02147   0C1C EB          	ex hl, de
02148   0C1D CD 9D 5F    	call __o_sub_16
02149   0C20 29          	add hl, hl
02150   0C21 29          	add hl, hl
02151   0C22 29          	add hl, hl
02152   0C23 29          	add hl, hl
02153   0C24 29          	add hl, hl
02154   0C25 29          	add hl, hl
02155   0C26 E5          	push hl
02156   0C27 2A 12 5F    	ld hl, (DrawSpriteNew1_2_a)
02157   0C2A 26 00       	ld h, 0
02158   0C2C 2B          	dec hl
02159   0C2D 54          	ld d, h
02160   0C2E 5D          	ld e, l
02161   0C2F 29          	add hl, hl
02162   0C30 29          	add hl, hl
02163   0C31 19          	add hl, de
02164   0C32 29          	add hl, hl
02165   0C33 29          	add hl, hl
02166   0C34 29          	add hl, hl
02167   0C35 29          	add hl, hl
02168   0C36 29          	add hl, hl
02169   0C37 29          	add hl, hl
02170   0C38 29          	add hl, hl
02171   0C39 11 02 45    	ld de, imgBalls
02172   0C3C 19          	add hl, de
02173   0C3D D1          	pop de
02174   0C3E 19          	add hl, de
02175   0C3F 22 A1 5E    	ld (DrawImage_2_a), hl
02176   0C42 21 10 02    	ld hl, 528
02177   0C45 C3 C9 17    	jp DrawImage
02178   0C48             ; REMOVED
02179   0C48             DrawEmptyCell1: 
02180   0C48             	; Stack correction reset
02181   0C48 22 0B 5F    	ld (DrawEmptyCell1_1_a), hl
02182   0C4B             ; REMOVED
02183   0C4B 22 9F 5E    	ld (DrawImage_1_a), hl
02184   0C4E 21 82 57    	ld hl, (imgBoard) + (256)
02185   0C51 22 A1 5E    	ld (DrawImage_2_a), hl
02186   0C54 21 10 02    	ld hl, 528
02187   0C57 C3 C9 17    	jp DrawImage
02188   0C5A             ; REMOVED
02189   0C5A             SetFillRectColor: 
02190   0C5A             	; Stack correction reset
02191   0C5A             ; 20  __fastcall SetFillRectColor(uint8_t color) {
02192   0C5A 32 A5 5E    	ld (SetFillRectColor_1_a), a
02193   0C5D             
02194   0C5D 11 00 B2            ld de, 0B200h  // OR A + NOP
02195   0C60 1F                  rra
02196   0C61 DA 67 0C            jp c, SetFillRectColor_0
02197   0C64 11 2F A2            ld de, 0A22Fh  // AND D + CMA
02198   0C67             SetFillRectColor_0: 
02199   0C67 21 09 18            ld hl, FillRectCmd0
02200   0C6A 73                  ld (hl), e
02201   0C6B 21 10 18            ld hl, FillRectCmd1
02202   0C6E 72                  ld (hl), d
02203   0C6F             
02204   0C6F 11 00 B2            ld de, 0B200h  // OR A + NOP
02205   0C72 1F                  rra
02206   0C73 DA 79 0C            jp c, SetFillRectColor_1
02207   0C76 11 2F A2            ld de, 0A22Fh  // AND D + CMA
02208   0C79             SetFillRectColor_1: 
02209   0C79 21 1F 18            ld hl, FillRectCmd2
02210   0C7C 73                  ld (hl), e
02211   0C7D 21 26 18            ld hl, FillRectCmd3
02212   0C80 72                  ld (hl), d
02213   0C81                 
02214   0C81 C9          	ret
02215   0C82             FillRect1: 
02216   0C82             	; Stack correction reset
02217   0C82             ; 21     asm {
02218   0C82             ; 22         ld de, 0B200h  // OR A + NOP
02219   0C82             ; 23         rra
02220   0C82             ; 24         jp c, SetFillRectColor_0
02221   0C82             ; 25         ld de, 0A22Fh  // AND D + CMA
02222   0C82             ; 26 SetFillRectColor_0:
02223   0C82             ; 27         ld hl, FillRectCmd0
02224   0C82             ; 28         ld (hl), e
02225   0C82             ; 29         ld hl, FillRectCmd1
02226   0C82             ; 30         ld (hl), d
02227   0C82             ; 31 
02228   0C82             ; 32         ld de, 0B200h  // OR A + NOP
02229   0C82             ; 33         rra
02230   0C82             ; 34         jp c, SetFillRectColor_1
02231   0C82             ; 35         ld de, 0A22Fh  // AND D + CMA
02232   0C82             ; 36 SetFillRectColor_1:
02233   0C82             ; 37         ld hl, FillRectCmd2
02234   0C82             ; 38         ld (hl), e
02235   0C82             ; 39         ld hl, FillRectCmd3
02236   0C82             ; 40         ld (hl), d
02237   0C82             ; 41     }
02238   0C82             ; 42 }
02239   0C82             ; 43 
02240   0C82             ; 44 static void __fastcall FillRectInternal(uint8_t height, uint8_t mask, uint8_t* graphAddress) {
02241   0C82             ; 45     asm {
02242   0C82             ; 46         push hl
02243   0C82             ; 47         ld a, (FillRectInternal_2_a)
02244   0C82             ; 48 FillRectCmd0:
02245   0C82             ; 49         nop  // CMA = 2F, NOP = 00
02246   0C82             ; 50         ld d, a
02247   0C82             ; 51         ld a, (FillRectInternal_1_a)
02248   0C82             ; 52         ld e, a
02249   0C82             ; 53 FillRectInternal_0:
02250   0C82             ; 54         ld a, (hl)
02251   0C82             ; 55 FillRectCmd1:
02252   0C82             ; 56         or d  // XRA D = AA, ANA D = A2, ORA D = B2
02253   0C82             ; 57         ld (hl), a
02254   0C82             ; 58         dec l
02255   0C82             ; 59         dec e
02256   0C82             ; 60         jp nz, FillRectInternal_0
02257   0C82             ; 61         pop hl
02258   0C82             ; 62 
02259   0C82             ; 63         ld a, h
02260   0C82             ; 64         sub 40h
02261   0C82             ; 65         ld h, a
02262   0C82             ; 66 
02263   0C82             ; 67         ld a, (FillRectInternal_2_a)
02264   0C82             ; 68 FillRectCmd2:
02265   0C82             ; 69         nop  // CMA = 2F, NOP = 00
02266   0C82             ; 70         ld d, a
02267   0C82             ; 71 
02268   0C82             ; 72         ld a, (FillRectInternal_1_a)
02269   0C82             ; 73         ld e, a
02270   0C82             ; 74 FillRectInternal_1:
02271   0C82             ; 75         ld a, (hl)
02272   0C82             ; 76 FillRectCmd3:
02273   0C82             ; 77         or d  // XRA D = AA, ANA D = A2, ORA D = B2
02274   0C82             ; 78         ld (hl), a
02275   0C82             ; 79         dec l
02276   0C82             ; 80         dec e
02277   0C82             ; 81         jp nz, FillRectInternal_1
02278   0C82             ; 82     }
02279   0C82             ; 83 }
02280   0C82             ; 84 
02281   0C82             ; 85 void FillRect1(uint8_t* graphAddress, uint16_t width, uint8_t left, uint8_t right, uint8_t height) {
02282   0C82 32 B0 5E    	ld (FillRect1_5_a), a
02283   0C85             ; 86     if (width == 0) {
02284   0C85 2A AC 5E    	ld hl, (FillRect1_2_a)
02285   0C88 7C          	ld a, h
02286   0C89 B5          	or l
02287   0C8A C2 A4 0C    	jp nz, l_173
02288   0C8D             ; 87         FillRectInternal(height, left & right, graphAddress);
02289   0C8D 3A B0 5E    	ld a, (FillRect1_5_a)
02290   0C90 32 A6 5E    	ld (FillRectInternal_1_a), a
02291   0C93 3A AF 5E    	ld a, (FillRect1_4_a)
02292   0C96 57          	ld d, a
02293   0C97 3A AE 5E    	ld a, (FillRect1_3_a)
02294   0C9A A2          	and d
02295   0C9B 32 A7 5E    	ld (FillRectInternal_2_a), a
02296   0C9E 2A AA 5E    	ld hl, (FillRect1_1_a)
02297   0CA1 C3 02 18    	jp FillRectInternal
02298   0CA4             ; REMOVED
02299   0CA4             l_173: 
02300   0CA4             ; 88         return;
02301   0CA4             ; 89     }
02302   0CA4             ; 90     FillRectInternal(height, left, graphAddress);
02303   0CA4 3A B0 5E    	ld a, (FillRect1_5_a)
02304   0CA7 32 A6 5E    	ld (FillRectInternal_1_a), a
02305   0CAA 3A AE 5E    	ld a, (FillRect1_3_a)
02306   0CAD 32 A7 5E    	ld (FillRectInternal_2_a), a
02307   0CB0 2A AA 5E    	ld hl, (FillRect1_1_a)
02308   0CB3 CD 02 18    	call FillRectInternal
02309   0CB6             ; 91     graphAddress -= 0x100;
02310   0CB6 2A AA 5E    	ld hl, (FillRect1_1_a)
02311   0CB9 11 00 FF    	ld de, 65280
02312   0CBC 19          	add hl, de
02313   0CBD 22 AA 5E    	ld (FillRect1_1_a), hl
02314   0CC0             ; 92     --width;
02315   0CC0 2A AC 5E    	ld hl, (FillRect1_2_a)
02316   0CC3 2B          	dec hl
02317   0CC4 22 AC 5E    	ld (FillRect1_2_a), hl
02318   0CC7             l_175: 
02319   0CC7             ; 93     for (; width != 0; --width) {
02320   0CC7 2A AC 5E    	ld hl, (FillRect1_2_a)
02321   0CCA 7C          	ld a, h
02322   0CCB B5          	or l
02323   0CCC CA F4 0C    	jp z, l_177
02324   0CCF             ; 94         FillRectInternal(height, 0xFF, graphAddress);
02325   0CCF 3A B0 5E    	ld a, (FillRect1_5_a)
02326   0CD2 32 A6 5E    	ld (FillRectInternal_1_a), a
02327   0CD5 3E FF       	ld a, 255
02328   0CD7 32 A7 5E    	ld (FillRectInternal_2_a), a
02329   0CDA 2A AA 5E    	ld hl, (FillRect1_1_a)
02330   0CDD CD 02 18    	call FillRectInternal
02331   0CE0             ; 95         graphAddress -= 0x100;
02332   0CE0 2A AA 5E    	ld hl, (FillRect1_1_a)
02333   0CE3 11 00 FF    	ld de, 65280
02334   0CE6 19          	add hl, de
02335   0CE7 22 AA 5E    	ld (FillRect1_1_a), hl
02336   0CEA             l_176: 
02337   0CEA 2A AC 5E    	ld hl, (FillRect1_2_a)
02338   0CED 2B          	dec hl
02339   0CEE 22 AC 5E    	ld (FillRect1_2_a), hl
02340   0CF1 C3 C7 0C    	jp l_175
02341   0CF4             l_177: 
02342   0CF4             ; 96     }
02343   0CF4             ; 97     FillRectInternal(height, right, graphAddress);
02344   0CF4 3A B0 5E    	ld a, (FillRect1_5_a)
02345   0CF7 32 A6 5E    	ld (FillRectInternal_1_a), a
02346   0CFA 3A AF 5E    	ld a, (FillRect1_4_a)
02347   0CFD 32 A7 5E    	ld (FillRectInternal_2_a), a
02348   0D00 2A AA 5E    	ld hl, (FillRect1_1_a)
02349   0D03 C3 02 18    	jp FillRectInternal
02350   0D06             ; REMOVED
02351   0D06             SetTextColor: 
02352   0D06             	; Stack correction reset
02353   0D06             ; 105  SetTextColor(uint8_t color) {
02354   0D06 32 BA 5E    	ld (SetTextColor_1_a), a
02355   0D09             ; 106     if (textColor == color) return;
02356   0D09             ; REMOVED
02357   0D09 57          	ld d, a
02358   0D0A 3A 30 23    	ld a, (textColor)
02359   0D0D BA          	cp d
02360   0D0E C8          	ret z
02361   0D0F             ; REMOVED
02362   0D0F             ; REMOVED
02363   0D0F             ; 107     textColor = color;
02364   0D0F 3A BA 5E    	ld a, (SetTextColor_1_a)
02365   0D12 32 30 23    	ld (textColor), a
02366   0D15             ; 108     SetTextColorInternal(0, color & 1, color & 4);
02367   0D15 AF          	xor a
02368   0D16 32 B7 5E    	ld (SetTextColorInternal_1_a), a
02369   0D19 3A BA 5E    	ld a, (SetTextColor_1_a)
02370   0D1C E6 01       	and 1
02371   0D1E 32 B8 5E    	ld (SetTextColorInternal_2_a), a
02372   0D21 3A BA 5E    	ld a, (SetTextColor_1_a)
02373   0D24 E6 04       	and 4
02374   0D26 CD 2E 18    	call SetTextColorInternal
02375   0D29             ; 109     SetTextColorInternal(1, color & 2, color & 8);
02376   0D29 3E 01       	ld a, 1
02377   0D2B 32 B7 5E    	ld (SetTextColorInternal_1_a), a
02378   0D2E 3A BA 5E    	ld a, (SetTextColor_1_a)
02379   0D31 E6 02       	and 2
02380   0D33 32 B8 5E    	ld (SetTextColorInternal_2_a), a
02381   0D36 3A BA 5E    	ld a, (SetTextColor_1_a)
02382   0D39 E6 08       	and 8
02383   0D3B C3 2E 18    	jp SetTextColorInternal
02384   0D3E             ; REMOVED
02385   0D3E             DrawText1: 
02386   0D3E             	; Stack correction reset
02387   0D3E             ; 110 }
02388   0D3E             ; 111 
02389   0D3E             ; 112 static uint8_t DrawChar(uint8_t offset, const uint8_t* source, uint8_t* destination) {
02390   0D3E             ; 113     asm {
02391   0D3E             ; 114         push bc
02392   0D3E             ; 115         ex de, hl
02393   0D3E             ; 116         ld hl, (DrawChar_2_a)
02394   0D3E             ; 117         ex de, hl
02395   0D3E             ; 118         ld c, 8
02396   0D3E             ; 119         ld a, (DrawChar_1_a)
02397   0D3E             ; 120         dec a
02398   0D3E             ; 121         jp z, print_o1
02399   0D3E             ; 122         dec a
02400   0D3E             ; 123         jp z, print_o2
02401   0D3E             ; 124         dec a
02402   0D3E             ; 125         jp z, print_o3
02403   0D3E             ; 126 
02404   0D3E             ; 127         ; OFFSET 0
02405   0D3E             ; 128 print_o0:
02406   0D3E             ; 129         ld a, (de) ; Read
02407   0D3E             ; 130         add a
02408   0D3E             ; 131         add a
02409   0D3E             ; 132         ld b, a
02410   0D3E             ; 133         ld a, (hl) ; Copy
02411   0D3E             ; 134 print_m1:
02412   0D3E             ; 135         and 3
02413   0D3E             ; 136         xor b
02414   0D3E             ; 137         ld (hl), a
02415   0D3E             ; 138         ld a, h ; Plane 2
02416   0D3E             ; 139         xor 40h
02417   0D3E             ; 140         ld h, a
02418   0D3E             ; 141         ld a, (hl) ; Copy
02419   0D3E             ; 142 print_m2:
02420   0D3E             ; 143         and 3
02421   0D3E             ; 144         xor b
02422   0D3E             ; 145         ld (hl), a
02423   0D3E             ; 146         ld a, h ; Plane 1
02424   0D3E             ; 147         xor 40h
02425   0D3E             ; 148         ld h, a
02426   0D3E             ; 149         inc de ; Next
02427   0D3E             ; 150         dec l
02428   0D3E             ; 151         dec c
02429   0D3E             ; 152         jp nz, print_o0
02430   0D3E             ; 153         pop bc
02431   0D3E             ; 154         ld a, 1
02432   0D3E             ; 155         ret
02433   0D3E             ; 156 
02434   0D3E             ; 157         ; OFFSET 1
02435   0D3E             ; 158 print_o1:
02436   0D3E             ; 159         ld a, (de) ; Read
02437   0D3E             ; 160         add a
02438   0D3E             ; 161         adc a
02439   0D3E             ; 162         adc a
02440   0D3E             ; 163         adc a
02441   0D3E             ; 164         push af ; Left side
02442   0D3E             ; 165         adc a
02443   0D3E             ; 166         and 00000011b
02444   0D3E             ; 167         ld b, a
02445   0D3E             ; 168         ld a, (hl) ; Copy
02446   0D3E             ; 169 print_m3:
02447   0D3E             ; 170         and 0FCh
02448   0D3E             ; 171         xor b
02449   0D3E             ; 172         ld (hl), a
02450   0D3E             ; 173         ld a, h ; Plane 2
02451   0D3E             ; 174         xor 40h
02452   0D3E             ; 175         ld h, a
02453   0D3E             ; 176         ld a, (hl) ; Copy
02454   0D3E             ; 177 print_m4:
02455   0D3E             ; 178         and 0FCh
02456   0D3E             ; 179         xor b
02457   0D3E             ; 180         ld (hl), a
02458   0D3E             ; 181         ld a, h ; Plane 1
02459   0D3E             ; 182         xor 40h
02460   0D3E             ; 183         ld h, a
02461   0D3E             ; 184         pop af ; Right side
02462   0D3E             ; 185         dec h
02463   0D3E             ; 186         and 011110000b
02464   0D3E             ; 187         ld b, a
02465   0D3E             ; 188         ld a, (hl) ; Copy
02466   0D3E             ; 189 print_m5:
02467   0D3E             ; 190         and 00Fh
02468   0D3E             ; 191         xor b
02469   0D3E             ; 192         ld (hl), a
02470   0D3E             ; 193         ld a, h ; Plane 2
02471   0D3E             ; 194         xor 40h
02472   0D3E             ; 195         ld h, a
02473   0D3E             ; 196         ld a, (hl) ; Copy
02474   0D3E             ; 197 print_m6:
02475   0D3E             ; 198         and 00Fh
02476   0D3E             ; 199         xor b
02477   0D3E             ; 200         ld (hl), a
02478   0D3E             ; 201         ld a, h ; Plane 1
02479   0D3E             ; 202         xor 40h
02480   0D3E             ; 203         ld h, a
02481   0D3E             ; 204         inc h ; Next
02482   0D3E             ; 205         inc de
02483   0D3E             ; 206         dec l
02484   0D3E             ; 207         dec c
02485   0D3E             ; 208         jp nz, print_o1
02486   0D3E             ; 209         pop bc
02487   0D3E             ; 210         ld a, 2
02488   0D3E             ; 211         ret
02489   0D3E             ; 212 
02490   0D3E             ; 213         ; OFFSET 2
02491   0D3E             ; 214 print_o2:
02492   0D3E             ; 215         ld a, (de) ; Read
02493   0D3E             ; 216         rra
02494   0D3E             ; 217         rra
02495   0D3E             ; 218         and 00001111b
02496   0D3E             ; 219         ld b, a
02497   0D3E             ; 220         ld a, (hl) ; Copy
02498   0D3E             ; 221 print_m7:
02499   0D3E             ; 222         and 0F0h
02500   0D3E             ; 223         xor b
02501   0D3E             ; 224         ld (hl), a
02502   0D3E             ; 225         ld a, h ; Plane 2
02503   0D3E             ; 226         xor 40h
02504   0D3E             ; 227         ld h, a
02505   0D3E             ; 228         ld a, (hl) ; Copy
02506   0D3E             ; 229 print_m8:
02507   0D3E             ; 230         and 0F0h
02508   0D3E             ; 231         xor b
02509   0D3E             ; 232         ld (hl), a
02510   0D3E             ; 233         ld a, h ; Plane 1
02511   0D3E             ; 234         xor 40h
02512   0D3E             ; 235         ld h, a
02513   0D3E             ; 236         dec h ; Right side
02514   0D3E             ; 237         ld a, (de)
02515   0D3E             ; 238         rra
02516   0D3E             ; 239         rra
02517   0D3E             ; 240         rra
02518   0D3E             ; 241         and 11000000b
02519   0D3E             ; 242         ld b, a
02520   0D3E             ; 243         ld a, (hl)  ; Copy
02521   0D3E             ; 244 print_m9:
02522   0D3E             ; 245         and 03Fh
02523   0D3E             ; 246         xor b
02524   0D3E             ; 247         ld (hl), a
02525   0D3E             ; 248         ld a, h ; Plane 2
02526   0D3E             ; 249         xor 40h
02527   0D3E             ; 250         ld h, a
02528   0D3E             ; 251         ld a, (hl)  ; Copy
02529   0D3E             ; 252 print_m10:
02530   0D3E             ; 253         and 03Fh
02531   0D3E             ; 254         xor b
02532   0D3E             ; 255         ld (hl), a
02533   0D3E             ; 256         ld a, h ; Plane 1
02534   0D3E             ; 257         xor 40h
02535   0D3E             ; 258         ld h, a
02536   0D3E             ; 259         inc h ; Next
02537   0D3E             ; 260         inc de
02538   0D3E             ; 261         dec l
02539   0D3E             ; 262         dec c
02540   0D3E             ; 263         jp nz, print_o2
02541   0D3E             ; 264         pop bc
02542   0D3E             ; 265         ld a, 3
02543   0D3E             ; 266         ret
02544   0D3E             ; 267 
02545   0D3E             ; 268         ; OFFSET 3
02546   0D3E             ; 269 print_o3:
02547   0D3E             ; 270         ld a, (de) ; Read
02548   0D3E             ; 271         and 03Fh
02549   0D3E             ; 272         ld b, a
02550   0D3E             ; 273         ld a, (hl) ; Copy
02551   0D3E             ; 274 print_m11:
02552   0D3E             ; 275         and 0C0h
02553   0D3E             ; 276         xor b
02554   0D3E             ; 277         ld (hl), a
02555   0D3E             ; 278         ld a, h ; Plane 2
02556   0D3E             ; 279         xor 40h
02557   0D3E             ; 280         ld h, a
02558   0D3E             ; 281         ld a, (hl) ; Copy
02559   0D3E             ; 282 print_m12:
02560   0D3E             ; 283         and 0C0h
02561   0D3E             ; 284         xor b
02562   0D3E             ; 285         ld (hl), a
02563   0D3E             ; 286         ld a, h ; Plane 1
02564   0D3E             ; 287         xor 40h
02565   0D3E             ; 288         ld h, a
02566   0D3E             ; 289         inc de ; Next
02567   0D3E             ; 290         dec l
02568   0D3E             ; 291         dec c
02569   0D3E             ; 292         jp nz, print_o3
02570   0D3E             ; 293         pop bc
02571   0D3E             ; 294         xor a
02572   0D3E             ; 295     }
02573   0D3E             ; 296 }
02574   0D3E             ; 297 
02575   0D3E             ; 298 void DrawText1(uint8_t* d, uint8_t st, uint8_t n, const char* text) {
02576   0D3E 22 C4 5E    	ld (DrawText1_4_a), hl
02577   0D41             ; 299     uint8_t insertSpaces = n & 0x80;
02578   0D41 3A C3 5E    	ld a, (DrawText1_3_a)
02579   0D44 E6 80       	and 128
02580   0D46 32 58 5F    	ld (DrawText1_s + 0), a
02581   0D49             ; 300     n &= 0x7F;
02582   0D49 3A C3 5E    	ld a, (DrawText1_3_a)
02583   0D4C E6 7F       	and 127
02584   0D4E 32 C3 5E    	ld (DrawText1_3_a), a
02585   0D51             l_180: 
02586   0D51             ; 301     while (n != 0) {
02587   0D51 3A C3 5E    	ld a, (DrawText1_3_a)
02588   0D54 B7          	or a
02589   0D55 CA A6 0D    	jp z, l_181
02590   0D58             ; 302         uint8_t c = *text;
02591   0D58 2A C4 5E    	ld hl, (DrawText1_4_a)
02592   0D5B 7E          	ld a, (hl)
02593   0D5C 32 59 5F    	ld (DrawText1_s + 1), a
02594   0D5F             ; 303         if (c != 0) {
02595   0D5F             ; REMOVED
02596   0D5F B7          	or a
02597   0D60 CA 6A 0D    	jp z, l_182
02598   0D63             ; 304             ++text;
02599   0D63             ; REMOVED
02600   0D63 23          	inc hl
02601   0D64 22 C4 5E    	ld (DrawText1_4_a), hl
02602   0D67 C3 6F 0D    	jp l_183
02603   0D6A             l_182: 
02604   0D6A             ; 305         } else if (!insertSpaces) {
02605   0D6A 3A 58 5F    	ld a, (DrawText1_s + 0)
02606   0D6D B7          	or a
02607   0D6E C8          	ret z
02608   0D6F             ; REMOVED
02609   0D6F             ; REMOVED
02610   0D6F             l_183: 
02611   0D6F             ; 306             return;
02612   0D6F             ; 307         }
02613   0D6F             ; 308         st = DrawChar(st, font_bin + c * 8, d);
02614   0D6F 3A C2 5E    	ld a, (DrawText1_2_a)
02615   0D72 32 BB 5E    	ld (DrawChar_1_a), a
02616   0D75 2A 59 5F    	ld hl, (DrawText1_s + 1)
02617   0D78 26 00       	ld h, 0
02618   0D7A 29          	add hl, hl
02619   0D7B 29          	add hl, hl
02620   0D7C 29          	add hl, hl
02621   0D7D 11 30 1B    	ld de, font_bin
02622   0D80 19          	add hl, de
02623   0D81 22 BC 5E    	ld (DrawChar_2_a), hl
02624   0D84 2A C0 5E    	ld hl, (DrawText1_1_a)
02625   0D87 CD C8 18    	call DrawChar
02626   0D8A 32 C2 5E    	ld (DrawText1_2_a), a
02627   0D8D             ; 309         if (st != 1) d -= 0x100;
02628   0D8D             ; REMOVED
02629   0D8D FE 01       	cp 1
02630   0D8F CA 9C 0D    	jp z, l_186
02631   0D92 2A C0 5E    	ld hl, (DrawText1_1_a)
02632   0D95 11 00 FF    	ld de, 65280
02633   0D98 19          	add hl, de
02634   0D99 22 C0 5E    	ld (DrawText1_1_a), hl
02635   0D9C             l_186: 
02636   0D9C             ; 310         --n;
02637   0D9C 3A C3 5E    	ld a, (DrawText1_3_a)
02638   0D9F 3D          	dec a
02639   0DA0 32 C3 5E    	ld (DrawText1_3_a), a
02640   0DA3 C3 51 0D    	jp l_180
02641   0DA6             l_181: 
02642   0DA6 C9          	ret
02643   0DA7             DrawHiScoresScreen1: 
02644   0DA7             	; Stack correction reset
02645   0DA7             ; 294  DrawHiScoresScreen1(uint8_t i, uint8_t pos) {
02646   0DA7 32 26 5F    	ld (DrawHiScoresScreen1_2_a), a
02647   0DAA             ; 295     struct HiScore* h = hiScores + i;
02648   0DAA 2A 25 5F    	ld hl, (DrawHiScoresScreen1_1_a)
02649   0DAD 26 00       	ld h, 0
02650   0DAF 54          	ld d, h
02651   0DB0 5D          	ld e, l
02652   0DB1 29          	add hl, hl
02653   0DB2 19          	add hl, de
02654   0DB3 29          	add hl, hl
02655   0DB4 29          	add hl, hl
02656   0DB5 11 83 5D    	ld de, hiScores
02657   0DB8 19          	add hl, de
02658   0DB9 22 5A 5F    	ld (DrawHiScoresScreen1_s + 0), hl
02659   0DBC             l_188: 
02660   0DBC             ; 296     for (; i < HISCORE_COUNT; ++i) {
02661   0DBC 3A 25 5F    	ld a, (DrawHiScoresScreen1_1_a)
02662   0DBF FE 08       	cp 8
02663   0DC1 D2 42 0E    	jp nc, l_190
02664   0DC4             ; 297         char text[sizeof(h->name) + UINT16TOSTRING_OUTPUT_SIZE];
02665   0DC4             ; 298         memset(text, ' ', sizeof(h->name) - 1);
02666   0DC4 21 5C 5F    	ld hl, DrawHiScoresScreen1_s + 2
02667   0DC7 22 16 5F    	ld (memset_1_a), hl
02668   0DCA 3E 20       	ld a, 32
02669   0DCC 32 18 5F    	ld (memset_2_a), a
02670   0DCF 21 09 00    	ld hl, 9
02671   0DD2 CD E3 0B    	call memset
02672   0DD5             ; 299         memcpy(text, h->name, strlen(h->name));
02673   0DD5 21 5C 5F    	ld hl, DrawHiScoresScreen1_s + 2
02674   0DD8 22 EA 5E    	ld (memcpy_1_a), hl
02675   0DDB 2A 5A 5F    	ld hl, (DrawHiScoresScreen1_s + 0)
02676   0DDE 22 EC 5E    	ld (memcpy_2_a), hl
02677   0DE1 2A 5A 5F    	ld hl, (DrawHiScoresScreen1_s + 0)
02678   0DE4 CD AF 0F    	call strlen
02679   0DE7 CD B6 0B    	call memcpy
02680   0DEA             ; 300         Uint16ToString(text + (sizeof(h->name) - 1), h->score);
02681   0DEA 21 65 5F    	ld hl, (DrawHiScoresScreen1_s + 2) + (9)
02682   0DED 22 00 5F    	ld (Uint16ToString_1_a), hl
02683   0DF0 2A 5A 5F    	ld hl, (DrawHiScoresScreen1_s + 0)
02684   0DF3 11 0A 00    	ld de, 10
02685   0DF6 19          	add hl, de
02686   0DF7 5E          	ld e, (hl)
02687   0DF8 23          	inc hl
02688   0DF9 56          	ld d, (hl)
02689   0DFA EB          	ex hl, de
02690   0DFB CD 75 0F    	call Uint16ToString
02691   0DFE             ; 301         SetTextColor(pos == i ? 1 : 3);
02692   0DFE 3A 25 5F    	ld a, (DrawHiScoresScreen1_1_a)
02693   0E01 57          	ld d, a
02694   0E02 3A 26 5F    	ld a, (DrawHiScoresScreen1_2_a)
02695   0E05 BA          	cp d
02696   0E06 C2 0F 0E    	jp nz, l_191
02697   0E09 21 01 00    	ld hl, 1
02698   0E0C C3 12 0E    	jp l_192
02699   0E0F             l_191: 
02700   0E0F 21 03 00    	ld hl, 3
02701   0E12             l_192: 
02702   0E12 7D          	ld a, l
02703   0E13 CD 06 0D    	call SetTextColor
02704   0E16             ; 302         DrawText((TEXT_WIDTH - 14) / 2, (HISCORE_Y + 2) + i, 0x7F, text);
02705   0E16 3E 19       	ld a, 25
02706   0E18 32 C6 5E    	ld (DrawText_1_a), a
02707   0E1B 3A 25 5F    	ld a, (DrawHiScoresScreen1_1_a)
02708   0E1E C6 07       	add 7
02709   0E20 32 C7 5E    	ld (DrawText_2_a), a
02710   0E23 3E 7F       	ld a, 127
02711   0E25 32 C8 5E    	ld (DrawText_3_a), a
02712   0E28 21 5C 5F    	ld hl, DrawHiScoresScreen1_s + 2
02713   0E2B CD 51 0E    	call DrawText
02714   0E2E             ; 303         h++;
02715   0E2E 2A 5A 5F    	ld hl, (DrawHiScoresScreen1_s + 0)
02716   0E31 11 0C 00    	ld de, 12
02717   0E34 19          	add hl, de
02718   0E35 22 5A 5F    	ld (DrawHiScoresScreen1_s + 0), hl
02719   0E38             l_189: 
02720   0E38 3A 25 5F    	ld a, (DrawHiScoresScreen1_1_a)
02721   0E3B 3C          	inc a
02722   0E3C 32 25 5F    	ld (DrawHiScoresScreen1_1_a), a
02723   0E3F C3 BC 0D    	jp l_188
02724   0E42             l_190: 
02725   0E42 C9          	ret
02726   0E43             SetBlackPaletteSlowly: 
02727   0E43             	; Stack correction reset
02728   0E43             ; 58 0x08);
02729   0E43 3E 08       	ld a, 8
02730   0E45 CD 34 14    	call SetPaletteInternal
02731   0E48             ; 59 
02732   0E48             ; 60     // Задержка
02733   0E48             ; 61     Delay(5000);
02734   0E48 21 88 13    	ld hl, 5000
02735   0E4B CD A2 04    	call Delay
02736   0E4E             ; 62 
02737   0E4E             ; 63     // Отключение изображения
02738   0E4E             ; 64     SetBlackPalette();
02739   0E4E C3 BD 08    	jp SetBlackPalette
02740   0E51             ; REMOVED
02741   0E51             DrawText: 
02742   0E51             	; Stack correction reset
02743   0E51             ; 314  DrawText(uint8_t x, uint8_t y, uint8_t n, const char* text) {
02744   0E51 22 C9 5E    	ld (DrawText_4_a), hl
02745   0E54             ; 315     DrawText1(DRAWTEXTARGS(x, y), n, text);
02746   0E54 2A C6 5E    	ld hl, (DrawText_1_a)
02747   0E57 26 00       	ld h, 0
02748   0E59 54          	ld d, h
02749   0E5A 5D          	ld e, l
02750   0E5B 29          	add hl, hl
02751   0E5C 19          	add hl, de
02752   0E5D 11 02 00    	ld de, 2
02753   0E60 CD EC 5F    	call __o_shr_u16
02754   0E63 65          	ld h, l
02755   0E64 2E 00       	ld l, 0
02756   0E66 E5          	push hl
02757   0E67 2A C7 5E    	ld hl, (DrawText_2_a)
02758   0E6A 26 00       	ld h, 0
02759   0E6C 54          	ld d, h
02760   0E6D 5D          	ld e, l
02761   0E6E 29          	add hl, hl
02762   0E6F 29          	add hl, hl
02763   0E70 19          	add hl, de
02764   0E71 29          	add hl, hl
02765   0E72 11 FF FF    	ld de, 65535
02766   0E75 EB          	ex hl, de
02767   0E76 CD 9D 5F    	call __o_sub_16
02768   0E79 D1          	pop de
02769   0E7A CD 9D 5F    	call __o_sub_16
02770   0E7D 22 C0 5E    	ld (DrawText1_1_a), hl
02771   0E80 3A C6 5E    	ld a, (DrawText_1_a)
02772   0E83 E6 03       	and 3
02773   0E85 32 C2 5E    	ld (DrawText1_2_a), a
02774   0E88             ; 315 , text);
02775   0E88 3A C8 5E    	ld a, (DrawText_3_a)
02776   0E8B 32 C3 5E    	ld (DrawText1_3_a), a
02777   0E8E 2A C9 5E    	ld hl, (DrawText_4_a)
02778   0E91 C3 3E 0D    	jp DrawText1
02779   0E94             ; REMOVED
02780   0E94             DrawScoreAndCreatures: 
02781   0E94             	; Stack correction reset
02782   0E94             ; 334 scoreText, score);
02783   0E94 21 6B 5F    	ld hl, DrawScoreAndCreatures_s + 0
02784   0E97 22 00 5F    	ld (Uint16ToString_1_a), hl
02785   0E9A 2A 81 5D    	ld hl, (score)
02786   0E9D CD 75 0F    	call Uint16ToString
02787   0EA0             ; 335     DrawText1(PIXELCOORDS(40, 7), 2, UINT16TOSTRING_OUTPUT_SIZE, scoreText);
02788   0EA0             ; 1  ((XX)*256))
02789   0EA0 21 F8 D7    	ld hl, 55288
02790   0EA3 22 C0 5E    	ld (DrawText1_1_a), hl
02791   0EA6             ; 335 , UINT16TOSTRING_OUTPUT_SIZE, scoreText);
02792   0EA6 3E 02       	ld a, 2
02793   0EA8 32 C2 5E    	ld (DrawText1_2_a), a
02794   0EAB 3E 05       	ld a, 5
02795   0EAD 32 C3 5E    	ld (DrawText1_3_a), a
02796   0EB0 21 6B 5F    	ld hl, DrawScoreAndCreatures_s + 0
02797   0EB3 CD 3E 0D    	call DrawText1
02798   0EB6             ; 336 
02799   0EB6             ; 337     uint8_t n;
02800   0EB6             ; 338     if (score < hiScores[0].score) {
02801   0EB6 2A 8D 5D    	ld hl, (((hiScores) + (0)) + (10))
02802   0EB9 EB          	ex hl, de
02803   0EBA 2A 81 5D    	ld hl, (score)
02804   0EBD CD 9D 5F    	call __o_sub_16
02805   0EC0 D2 E4 0E    	jp nc, l_193
02806   0EC3             ; 339         n = score / (hiScores[0].score / (RIGHT_CREATURE_Y_MAX - 1));
02807   0EC3 2A 8D 5D    	ld hl, (((hiScores) + (0)) + (10))
02808   0EC6 11 0D 00    	ld de, 13
02809   0EC9 CD AA 5F    	call __o_div_u16
02810   0ECC EB          	ex hl, de
02811   0ECD 2A 81 5D    	ld hl, (score)
02812   0ED0 CD AA 5F    	call __o_div_u16
02813   0ED3 7D          	ld a, l
02814   0ED4 32 71 5F    	ld (DrawScoreAndCreatures_s + 6), a
02815   0ED7             ; 340         if (n > RIGHT_CREATURE_Y_MAX - 1) n = RIGHT_CREATURE_Y_MAX - 1;
02816   0ED7             ; REMOVED
02817   0ED7 FE 0E       	cp 14
02818   0ED9 DA E9 0E    	jp c, l_194
02819   0EDC 3E 0D       	ld a, 13
02820   0EDE 32 71 5F    	ld (DrawScoreAndCreatures_s + 6), a
02821   0EE1             ; REMOVED
02822   0EE1 C3 E9 0E    	jp l_194
02823   0EE4             l_193: 
02824   0EE4             ; 341     } else {
02825   0EE4             ; 342         n = RIGHT_CREATURE_Y_MAX;
02826   0EE4 3E 0E       	ld a, 14
02827   0EE6 32 71 5F    	ld (DrawScoreAndCreatures_s + 6), a
02828   0EE9             l_194: 
02829   0EE9             ; 343     }
02830   0EE9             ; 344 
02831   0EE9             ; 345     if (rightCreatureY != n) {
02832   0EE9             ; REMOVED
02833   0EE9 57          	ld d, a
02834   0EEA 3A 7A 5E    	ld a, (rightCreatureY)
02835   0EED BA          	cp d
02836   0EEE CA 74 0F    	jp z, l_197
02837   0EF1             ; 346         rightCreatureY = n;
02838   0EF1 3A 71 5F    	ld a, (DrawScoreAndCreatures_s + 6)
02839   0EF4 32 7A 5E    	ld (rightCreatureY), a
02840   0EF7             ; 347         uint8_t* s;
02841   0EF7             ; 348         for (s = PIXELCOORDS(40, 168); n; --n, s += 4) DrawImage(s, imgPlayerD, 5 * 0x100 + 4);
02842   0EF7             ; 1  ((XX)*256))
02843   0EF7 21 57 D7    	ld hl, 55127
02844   0EFA 22 72 5F    	ld (DrawScoreAndCreatures_s + 7), hl
02845   0EFD             l_199: 
02846   0EFD             ; 348 ; --n, s += 4) DrawImage(s, imgPlayerD, 5 * 0x100 + 4);
02847   0EFD 3A 71 5F    	ld a, (DrawScoreAndCreatures_s + 6)
02848   0F00 B7          	or a
02849   0F01 CA 2A 0F    	jp z, l_201
02850   0F04 2A 72 5F    	ld hl, (DrawScoreAndCreatures_s + 7)
02851   0F07 22 9F 5E    	ld (DrawImage_1_a), hl
02852   0F0A 21 16 5A    	ld hl, imgPlayerD
02853   0F0D 22 A1 5E    	ld (DrawImage_2_a), hl
02854   0F10 21 04 05    	ld hl, 1284
02855   0F13 CD C9 17    	call DrawImage
02856   0F16             l_200: 
02857   0F16 3A 71 5F    	ld a, (DrawScoreAndCreatures_s + 6)
02858   0F19 3D          	dec a
02859   0F1A 32 71 5F    	ld (DrawScoreAndCreatures_s + 6), a
02860   0F1D 2A 72 5F    	ld hl, (DrawScoreAndCreatures_s + 7)
02861   0F20 11 04 00    	ld de, 4
02862   0F23 19          	add hl, de
02863   0F24 22 72 5F    	ld (DrawScoreAndCreatures_s + 7), hl
02864   0F27 C3 FD 0E    	jp l_199
02865   0F2A             l_201: 
02866   0F2A             ; 349         DrawImage(s + 46, imgPlayer, 5 * 0x100 + 50);
02867   0F2A 2A 72 5F    	ld hl, (DrawScoreAndCreatures_s + 7)
02868   0F2D 11 2E 00    	ld de, 46
02869   0F30 19          	add hl, de
02870   0F31 22 9F 5E    	ld (DrawImage_1_a), hl
02871   0F34 21 C2 57    	ld hl, imgPlayer
02872   0F37 22 A1 5E    	ld (DrawImage_2_a), hl
02873   0F3A 21 32 05    	ld hl, 1330
02874   0F3D CD C9 17    	call DrawImage
02875   0F40             ; 350         if (rightCreatureY == 14) {
02876   0F40 3A 7A 5E    	ld a, (rightCreatureY)
02877   0F43 FE 0E       	cp 14
02878   0F45 C2 74 0F    	jp nz, l_202
02879   0F48             ; 351             DrawImage(s + 50 - 0x200, imgPlayerWin, 3 * 0x100 + 16);
02880   0F48 2A 72 5F    	ld hl, (DrawScoreAndCreatures_s + 7)
02881   0F4B 11 32 00    	ld de, 50
02882   0F4E 19          	add hl, de
02883   0F4F 11 00 FE    	ld de, 65024
02884   0F52 19          	add hl, de
02885   0F53 22 9F 5E    	ld (DrawImage_1_a), hl
02886   0F56 21 B6 59    	ld hl, imgPlayerWin
02887   0F59 22 A1 5E    	ld (DrawImage_2_a), hl
02888   0F5C 21 10 03    	ld hl, 784
02889   0F5F CD C9 17    	call DrawImage
02890   0F62             ; 352             DrawImage(PIXELCOORDS(3, 54), imgKingLose, 6 * 0x100 + 62);
02891   0F62             ; 1  ((XX)*256))
02892   0F62 21 C9 FC    	ld hl, 64713
02893   0F65 22 9F 5E    	ld (DrawImage_1_a), hl
02894   0F68             ; 352 , 6 * 0x100 + 62);
02895   0F68 21 3E 5A    	ld hl, imgKingLose
02896   0F6B 22 A1 5E    	ld (DrawImage_2_a), hl
02897   0F6E 21 3E 06    	ld hl, 1598
02898   0F71 CD C9 17    	call DrawImage
02899   0F74             l_202: 
02900   0F74             l_197: 
02901   0F74 C9          	ret
02902   0F75             Uint16ToString: 
02903   0F75             	; Stack correction reset
02904   0F75 22 02 5F    	ld (Uint16ToString_2_a), hl
02905   0F78 2A 00 5F    	ld hl, (Uint16ToString_1_a)
02906   0F7B 36 20       	ld (hl), 32
02907   0F7D             ; REMOVED
02908   0F7D 23          	inc hl
02909   0F7E             ; REMOVED
02910   0F7E             ; REMOVED
02911   0F7E 36 20       	ld (hl), 32
02912   0F80             ; REMOVED
02913   0F80 23          	inc hl
02914   0F81             ; REMOVED
02915   0F81             ; REMOVED
02916   0F81 36 20       	ld (hl), 32
02917   0F83             ; REMOVED
02918   0F83 23          	inc hl
02919   0F84             ; REMOVED
02920   0F84             ; REMOVED
02921   0F84 36 20       	ld (hl), 32
02922   0F86             ; REMOVED
02923   0F86 23          	inc hl
02924   0F87             ; REMOVED
02925   0F87             ; REMOVED
02926   0F87 23          	inc hl
02927   0F88 22 00 5F    	ld (Uint16ToString_1_a), hl
02928   0F8B             ; REMOVED
02929   0F8B 36 00       	ld (hl), 0
02930   0F8D             l_204: 
02931   0F8D 2A 02 5F    	ld hl, (Uint16ToString_2_a)
02932   0F90 11 0A 00    	ld de, 10
02933   0F93 CD AA 5F    	call __o_div_u16
02934   0F96 22 02 5F    	ld (Uint16ToString_2_a), hl
02935   0F99 2A 00 5F    	ld hl, (Uint16ToString_1_a)
02936   0F9C 2B          	dec hl
02937   0F9D 22 00 5F    	ld (Uint16ToString_1_a), hl
02938   0FA0 3A F9 5F    	ld a, (__div_16_mod)
02939   0FA3 C6 30       	add 48
02940   0FA5             ; REMOVED
02941   0FA5 77          	ld (hl), a
02942   0FA6             l_205: 
02943   0FA6 2A 02 5F    	ld hl, (Uint16ToString_2_a)
02944   0FA9 7C          	ld a, h
02945   0FAA B5          	or l
02946   0FAB C2 8D 0F    	jp nz, l_204
02947   0FAE             l_206: 
02948   0FAE C9          	ret
02949   0FAF             strlen: 
02950   0FAF             	; Stack correction reset
02951   0FAF             ; 20  __fastcall strlen(const char string[]) {
02952   0FAF 22 27 5F    	ld (strlen_1_a), hl
02953   0FB2             ; 21     (void)string;
02954   0FB2             ; REMOVED
02955   0FB2             
02956   0FB2 11 FF FF            ld de, -1
02957   0FB5 AF                  xor a
02958   0FB6             strlen_1: 
02959   0FB6 BE                  cp (hl)
02960   0FB7 13                  inc de
02961   0FB8 23                  inc hl
02962   0FB9 C2 B6 0F            jp nz, strlen_1
02963   0FBC EB                  ex hl, de
02964   0FBD                 
02965   0FBD C9          	ret
02966   0FBE             DrawCell: 
02967   0FBE             	; Stack correction reset
02968   0FBE             ; 112  DrawCell(uint8_t x, uint8_t y, uint8_t color) {
02969   0FBE 32 F3 5E    	ld (DrawCell_3_a), a
02970   0FC1             ; 113     DrawCell1(CellAddress(x, y), color);
02971   0FC1 3A F1 5E    	ld a, (DrawCell_1_a)
02972   0FC4 32 04 5F    	ld (CellAddress_1_a), a
02973   0FC7 3A F2 5E    	ld a, (DrawCell_2_a)
02974   0FCA CD 22 10    	call CellAddress
02975   0FCD 22 0D 5F    	ld (DrawCell1_1_a), hl
02976   0FD0 3A F3 5E    	ld a, (DrawCell_3_a)
02977   0FD3 C3 9C 19    	jp DrawCell1
02978   0FD6             ; REMOVED
02979   0FD6             DrawCursorXor: 
02980   0FD6             	; Stack correction reset
02981   0FD6             ; 114 }
02982   0FD6             ; 115 
02983   0FD6             ; 116 static uint8_t* removeAnimationImages[3] = {imgBalls + 5 * BALL_IMAGE_SIZEOF, imgBalls + 6 * BALL_IMAGE_SIZEOF,
02984   0FD6             ; 117                                             imgBalls + 7 * BALL_IMAGE_SIZEOF};
02985   0FD6             ; 118 
02986   0FD6             ; 119 void DrawSpriteRemove(uint8_t x, uint8_t y, uint8_t c, uint8_t n) {
02987   0FD6             ; 120     DrawImage(CellAddress(x, y), removeAnimationImages[n] + (BALL_IMAGE_SIZEOF * 10) * (c - 1), BALL_IMAGE_WH);
02988   0FD6             ; 121 }
02989   0FD6             ; 122 
02990   0FD6             ; 123 void DrawSpriteNew1(uint8_t* graphAddress, uint8_t color, uint8_t phase) {
02991   0FD6             ; 124     DrawImage(graphAddress, imgBalls + (BALL_IMAGE_SIZEOF * 10) * (color - 1) + (4 - phase) * BALL_IMAGE_SIZEOF,
02992   0FD6             ; 125               BALL_IMAGE_WH);
02993   0FD6             ; 126 }
02994   0FD6             ; 127 
02995   0FD6             ; 128 void DrawSpriteNew(uint8_t x, uint8_t y, uint8_t color, uint8_t phase) {
02996   0FD6             ; 129     DrawSpriteNew1(CellAddress(x, y), color, phase);
02997   0FD6             ; 130 }
02998   0FD6             ; 131 
02999   0FD6             ; 132 void DrawSpriteStep(uint8_t x, uint8_t y, uint8_t color) {
03000   0FD6             ; 133     DrawImage(CellAddress(x, y), imgBoard + color * BALL_IMAGE_SIZEOF, BALL_IMAGE_WH);
03001   0FD6             ; 134     if (soundEnabled) {
03002   0FD6             ; 135         PLAY_SOUND_TICK
03003   0FD6             ; 136     }
03004   0FD6             ; 137 }
03005   0FD6             ; 138 
03006   0FD6             ; 139 static uint8_t* bouncingAnimation[6] = {imgBalls,
03007   0FD6             ; 140                                         imgBalls,
03008   0FD6             ; 141                                         imgBalls,
03009   0FD6             ; 142                                         imgBalls + BALL_IMAGE_SIZEOF * 8,
03010   0FD6             ; 143                                         imgBalls + BALL_IMAGE_SIZEOF * 9,
03011   0FD6             ; 144                                         imgBalls + BALL_IMAGE_SIZEOF * 8};
03012   0FD6             ; 145 
03013   0FD6             ; 146 void DrawBouncingBall(uint8_t x, uint8_t y, uint8_t color, uint8_t phase) {
03014   0FD6             ; 147     uint8_t* graphAddress = CellAddress(x, y);
03015   0FD6             ; 148     if (phase == 1) {
03016   0FD6             ; 149         graphAddress[0] = 0;
03017   0FD6             ; 150         graphAddress[-0x100] = 0;
03018   0FD6             ; 151         graphAddress++;
03019   0FD6             ; 152     }
03020   0FD6             ; 153     DrawBall1(graphAddress, bouncingAnimation[phase], color);
03021   0FD6             ; 154 }
03022   0FD6             ; 155 
03023   0FD6             ; 156 static uint8_t* helpCoords[NEW_BALL_COUNT] = {
03024   0FD6             ; 157     PIXELCOORDS(20, 3),
03025   0FD6             ; 158     PIXELCOORDS(23, 3),
03026   0FD6             ; 159     PIXELCOORDS(26, 3),
03027   0FD6             ; 160 };
03028   0FD6             ; 161 
03029   0FD6             ; 162 void DrawHelp() {
03030   0FD6             ; 163     uint8_t i;
03031   0FD6             ; 164     for (i = 0; i < NEW_BALL_COUNT; i++) {
03032   0FD6             ; 165         if (showHelp != 0) {
03033   0FD6             ; 166             DrawSpriteNew1(helpCoords[i], newBalls[i], 3 /* Размер шарика */);
03034   0FD6             ; 167         } else {
03035   0FD6             ; 168             DrawEmptyCell1(helpCoords[i]);
03036   0FD6             ; 169         }
03037   0FD6             ; 170     }
03038   0FD6             ; 171 }
03039   0FD6             ; 172 
03040   0FD6             ; 173 // Курсор
03041   0FD6             ; 174 
03042   0FD6             ; 175 static void DrawCursorXor(void* hl) {
03043   0FD6 22 14 5F    	ld (DrawCursorXor_1_a), hl
03044   0FD9             
03045   0FD9 11 00 C1            ld de, 0x100 - 0x4000
03046   0FDC 19                  add hl, de
03047   0FDD 3E 03               ld a, 0x03
03048   0FDF AE                  xor (hl)
03049   0FE0 77                  ld (hl), a
03050   0FE1 2B                  dec hl
03051   0FE2 3E 02               ld a, 0x02
03052   0FE4 AE                  xor (hl)
03053   0FE5 77                  ld (hl), a
03054   0FE6 2B                  dec hl
03055   0FE7 3E 02               ld a, 0x02
03056   0FE9 AE                  xor (hl)
03057   0FEA 77                  ld (hl), a
03058   0FEB 11 F5 FF            ld de, -11
03059   0FEE 19                  add hl, de
03060   0FEF 3E 02               ld a, 0x02
03061   0FF1 AE                  xor (hl)
03062   0FF2 77                  ld (hl), a
03063   0FF3 2B                  dec hl
03064   0FF4 3E 02               ld a, 0x02
03065   0FF6 AE                  xor (hl)
03066   0FF7 77                  ld (hl), a
03067   0FF8 2B                  dec hl
03068   0FF9 3E 03               ld a, 0x03
03069   0FFB AE                  xor (hl)
03070   0FFC 77                  ld (hl), a
03071   0FFD 11 00 FD            ld de, -0x300
03072   1000 19                  add hl, de
03073   1001 3E C0               ld a, 0xC0
03074   1003 AE                  xor (hl)
03075   1004 77                  ld (hl), a
03076   1005 23                  inc hl
03077   1006 3E 40               ld a, 0x40
03078   1008 AE                  xor (hl)
03079   1009 77                  ld (hl), a
03080   100A 23                  inc hl
03081   100B 3E 40               ld a, 0x40
03082   100D AE                  xor (hl)
03083   100E 77                  ld (hl), a
03084   100F 11 0B 00            ld de, 11
03085   1012 19                  add hl, de
03086   1013 3E 40               ld a, 0x40
03087   1015 AE                  xor (hl)
03088   1016 77                  ld (hl), a
03089   1017 23                  inc hl
03090   1018 3E 40               ld a, 0x40
03091   101A AE                  xor (hl)
03092   101B 77                  ld (hl), a
03093   101C 23                  inc hl
03094   101D 3E C0               ld a, 0xC0
03095   101F AE                  xor (hl)
03096   1020 77                  ld (hl), a
03097   1021                 
03098   1021 C9          	ret
03099   1022             CellAddress: 
03100   1022             	; Stack correction reset
03101   1022 32 05 5F    	ld (CellAddress_2_a), a
03102   1025             ; 1  ((XX)*256))
03103   1025 2A 04 5F    	ld hl, (CellAddress_1_a)
03104   1028 26 00       	ld h, 0
03105   102A 54          	ld d, h
03106   102B 5D          	ld e, l
03107   102C 29          	add hl, hl
03108   102D 19          	add hl, de
03109   102E 11 0B 00    	ld de, 11
03110   1031 19          	add hl, de
03111   1032 65          	ld h, l
03112   1033 2E 00       	ld l, 0
03113   1035 E5          	push hl
03114   1036 2A 05 5F    	ld hl, (CellAddress_2_a)
03115   1039 26 00       	ld h, 0
03116   103B 54          	ld d, h
03117   103C 5D          	ld e, l
03118   103D 29          	add hl, hl
03119   103E 29          	add hl, hl
03120   103F 19          	add hl, de
03121   1040 29          	add hl, hl
03122   1041 29          	add hl, hl
03123   1042 11 1C 00    	ld de, 28
03124   1045 19          	add hl, de
03125   1046 11 FF FF    	ld de, 65535
03126   1049 EB          	ex hl, de
03127   104A CD 9D 5F    	call __o_sub_16
03128   104D D1          	pop de
03129   104E C3 9D 5F    	jp __o_sub_16
03130   1051             ; REMOVED
03131   1051             ; REMOVED
03132   1051             PathFind: 
03133   1051             	; Stack correction reset
03134   1051             ; 40  = game[selX][selY];
03135   1051 2A 7C 5D    	ld hl, (selX)
03136   1054 26 00       	ld h, 0
03137   1056 54          	ld d, h
03138   1057 5D          	ld e, l
03139   1058 29          	add hl, hl
03140   1059 29          	add hl, hl
03141   105A 29          	add hl, hl
03142   105B 19          	add hl, de
03143   105C 11 26 5D    	ld de, game
03144   105F 19          	add hl, de
03145   1060 EB          	ex hl, de
03146   1061 2A 7D 5D    	ld hl, (selY)
03147   1064 26 00       	ld h, 0
03148   1066 19          	add hl, de
03149   1067 7E          	ld a, (hl)
03150   1068 32 E8 5D    	ld (path_c), a
03151   106B             ; 41     game[selX][selY] = PATH_END_VAL;
03152   106B 2A 7C 5D    	ld hl, (selX)
03153   106E 26 00       	ld h, 0
03154   1070 54          	ld d, h
03155   1071 5D          	ld e, l
03156   1072 29          	add hl, hl
03157   1073 29          	add hl, hl
03158   1074 29          	add hl, hl
03159   1075 19          	add hl, de
03160   1076 11 26 5D    	ld de, game
03161   1079 19          	add hl, de
03162   107A EB          	ex hl, de
03163   107B 2A 7D 5D    	ld hl, (selY)
03164   107E 26 00       	ld h, 0
03165   1080 19          	add hl, de
03166   1081 36 FF       	ld (hl), 255
03167   1083             ; 42     game[cursorX][cursorY] = PATH_START_VAL;
03168   1083 2A 7A 5D    	ld hl, (cursorX)
03169   1086 26 00       	ld h, 0
03170   1088 54          	ld d, h
03171   1089 5D          	ld e, l
03172   108A 29          	add hl, hl
03173   108B 29          	add hl, hl
03174   108C 29          	add hl, hl
03175   108D 19          	add hl, de
03176   108E 11 26 5D    	ld de, game
03177   1091 19          	add hl, de
03178   1092 EB          	ex hl, de
03179   1093 2A 7B 5D    	ld hl, (cursorY)
03180   1096 26 00       	ld h, 0
03181   1098 19          	add hl, de
03182   1099 36 0A       	ld (hl), 10
03183   109B             ; 43 
03184   109B             ; 44     // Ищем путь
03185   109B             ; 45     for (path_n = PATH_START_VAL; path_n != PATH_START_VAL + GAME_WIDTH * GAME_HEIGHT; ++path_n) {
03186   109B 3E 0A       	ld a, 10
03187   109D 32 E5 5D    	ld (path_n), a
03188   10A0             l_207: 
03189   10A0 3A E5 5D    	ld a, (path_n)
03190   10A3 FE 5B       	cp 91
03191   10A5 CA A9 11    	jp z, l_209
03192   10A8             ; 46         uint8_t* p = &game[0][0];
03193   10A8 21 26 5D    	ld hl, ((game) + (0)) + (0)
03194   10AB 22 74 5F    	ld (PathFind_s + 0), hl
03195   10AE             ; 47         for (path_x = 0; path_x != GAME_WIDTH; ++path_x) {
03196   10AE AF          	xor a
03197   10AF 32 E3 5D    	ld (path_x), a
03198   10B2             l_210: 
03199   10B2 3A E3 5D    	ld a, (path_x)
03200   10B5 FE 09       	cp 9
03201   10B7 CA 9F 11    	jp z, l_212
03202   10BA             ; 48             for (path_y = 0; path_y != GAME_HEIGHT; ++path_y, ++p) {
03203   10BA AF          	xor a
03204   10BB 32 E4 5D    	ld (path_y), a
03205   10BE             l_213: 
03206   10BE 3A E4 5D    	ld a, (path_y)
03207   10C1 FE 09       	cp 9
03208   10C3 CA 95 11    	jp z, l_215
03209   10C6             ; 49                 if (*p == path_n) {
03210   10C6 3A E5 5D    	ld a, (path_n)
03211   10C9 57          	ld d, a
03212   10CA 2A 74 5F    	ld hl, (PathFind_s + 0)
03213   10CD 7E          	ld a, (hl)
03214   10CE BA          	cp d
03215   10CF C2 84 11    	jp nz, l_216
03216   10D2             ; 50                     if (path_y != 0) {
03217   10D2 3A E4 5D    	ld a, (path_y)
03218   10D5 B7          	or a
03219   10D6 CA FB 10    	jp z, l_218
03220   10D9             ; 51                         p--;
03221   10D9             ; REMOVED
03222   10D9 2B          	dec hl
03223   10DA 22 74 5F    	ld (PathFind_s + 0), hl
03224   10DD             ; 52                         if (*p == PATH_END_VAL) {
03225   10DD             ; REMOVED
03226   10DD 7E          	ld a, (hl)
03227   10DE FE FF       	cp 255
03228   10E0 C2 ED 10    	jp nz, l_220
03229   10E3             ; 53                             --path_y;
03230   10E3 3A E4 5D    	ld a, (path_y)
03231   10E6 3D          	dec a
03232   10E7 32 E4 5D    	ld (path_y), a
03233   10EA             ; 54                             return PathFounded(p);
03234   10EA             ; REMOVED
03235   10EA C3 D7 19    	jp PathFounded
03236   10ED             ; REMOVED
03237   10ED             ; REMOVED
03238   10ED             l_220: 
03239   10ED             ; 55                         } else if (*p == PATH_EMPTY_VAL)
03240   10ED             ; REMOVED
03241   10ED 7E          	ld a, (hl)
03242   10EE B7          	or a
03243   10EF C2 F7 10    	jp nz, l_222
03244   10F2             ; 56                             *p = path_n + 1;
03245   10F2 3A E5 5D    	ld a, (path_n)
03246   10F5 3C          	inc a
03247   10F6             ; REMOVED
03248   10F6 77          	ld (hl), a
03249   10F7             l_222: 
03250   10F7             ; REMOVED
03251   10F7             ; 57                         p++;
03252   10F7             ; REMOVED
03253   10F7 23          	inc hl
03254   10F8 22 74 5F    	ld (PathFind_s + 0), hl
03255   10FB             l_218: 
03256   10FB             ; 58                     }
03257   10FB             ; 59                     if (path_y != GAME_HEIGHT - 1) {
03258   10FB 3A E4 5D    	ld a, (path_y)
03259   10FE FE 08       	cp 8
03260   1100 CA 25 11    	jp z, l_224
03261   1103             ; 60                         p++;
03262   1103             ; REMOVED
03263   1103 23          	inc hl
03264   1104 22 74 5F    	ld (PathFind_s + 0), hl
03265   1107             ; 61                         if (*p == PATH_END_VAL) {
03266   1107             ; REMOVED
03267   1107 7E          	ld a, (hl)
03268   1108 FE FF       	cp 255
03269   110A C2 17 11    	jp nz, l_226
03270   110D             ; 62                             ++path_y;
03271   110D 3A E4 5D    	ld a, (path_y)
03272   1110 3C          	inc a
03273   1111 32 E4 5D    	ld (path_y), a
03274   1114             ; 63                             return PathFounded(p);
03275   1114             ; REMOVED
03276   1114 C3 D7 19    	jp PathFounded
03277   1117             ; REMOVED
03278   1117             ; REMOVED
03279   1117             l_226: 
03280   1117             ; 64                         } else if (*p == PATH_EMPTY_VAL)
03281   1117             ; REMOVED
03282   1117 7E          	ld a, (hl)
03283   1118 B7          	or a
03284   1119 C2 21 11    	jp nz, l_228
03285   111C             ; 65                             *p = path_n + 1;
03286   111C 3A E5 5D    	ld a, (path_n)
03287   111F 3C          	inc a
03288   1120             ; REMOVED
03289   1120 77          	ld (hl), a
03290   1121             l_228: 
03291   1121             ; REMOVED
03292   1121             ; 66                         p--;
03293   1121             ; REMOVED
03294   1121 2B          	dec hl
03295   1122 22 74 5F    	ld (PathFind_s + 0), hl
03296   1125             l_224: 
03297   1125             ; 67                     }
03298   1125             ; 68                     if (path_x != 0) {
03299   1125 3A E3 5D    	ld a, (path_x)
03300   1128 B7          	or a
03301   1129 CA 54 11    	jp z, l_230
03302   112C             ; 69                         p -= GAME_HEIGHT;
03303   112C             ; REMOVED
03304   112C 11 F7 FF    	ld de, 65527
03305   112F 19          	add hl, de
03306   1130 22 74 5F    	ld (PathFind_s + 0), hl
03307   1133             ; 70                         if (*p == PATH_END_VAL) {
03308   1133             ; REMOVED
03309   1133 7E          	ld a, (hl)
03310   1134 FE FF       	cp 255
03311   1136 C2 43 11    	jp nz, l_232
03312   1139             ; 71                             --path_x;
03313   1139 3A E3 5D    	ld a, (path_x)
03314   113C 3D          	dec a
03315   113D 32 E3 5D    	ld (path_x), a
03316   1140             ; 72                             return PathFounded(p);
03317   1140             ; REMOVED
03318   1140 C3 D7 19    	jp PathFounded
03319   1143             ; REMOVED
03320   1143             ; REMOVED
03321   1143             l_232: 
03322   1143             ; 73                         } else if (*p == PATH_EMPTY_VAL)
03323   1143             ; REMOVED
03324   1143 7E          	ld a, (hl)
03325   1144 B7          	or a
03326   1145 C2 4D 11    	jp nz, l_234
03327   1148             ; 74                             *p = path_n + 1;
03328   1148 3A E5 5D    	ld a, (path_n)
03329   114B 3C          	inc a
03330   114C             ; REMOVED
03331   114C 77          	ld (hl), a
03332   114D             l_234: 
03333   114D             ; REMOVED
03334   114D             ; 75                         p += GAME_HEIGHT;
03335   114D             ; REMOVED
03336   114D 11 09 00    	ld de, 9
03337   1150 19          	add hl, de
03338   1151 22 74 5F    	ld (PathFind_s + 0), hl
03339   1154             l_230: 
03340   1154             ; 76                     }
03341   1154             ; 77                     if (path_x != GAME_WIDTH - 1) {
03342   1154 3A E3 5D    	ld a, (path_x)
03343   1157 FE 08       	cp 8
03344   1159 CA 84 11    	jp z, l_236
03345   115C             ; 78                         p += GAME_HEIGHT;
03346   115C             ; REMOVED
03347   115C 11 09 00    	ld de, 9
03348   115F 19          	add hl, de
03349   1160 22 74 5F    	ld (PathFind_s + 0), hl
03350   1163             ; 79                         if (*p == PATH_END_VAL) {
03351   1163             ; REMOVED
03352   1163 7E          	ld a, (hl)
03353   1164 FE FF       	cp 255
03354   1166 C2 73 11    	jp nz, l_238
03355   1169             ; 80                             ++path_x;
03356   1169 3A E3 5D    	ld a, (path_x)
03357   116C 3C          	inc a
03358   116D 32 E3 5D    	ld (path_x), a
03359   1170             ; 81                             return PathFounded(p);
03360   1170             ; REMOVED
03361   1170 C3 D7 19    	jp PathFounded
03362   1173             ; REMOVED
03363   1173             ; REMOVED
03364   1173             l_238: 
03365   1173             ; 82                         } else if (*p == PATH_EMPTY_VAL)
03366   1173             ; REMOVED
03367   1173 7E          	ld a, (hl)
03368   1174 B7          	or a
03369   1175 C2 7D 11    	jp nz, l_240
03370   1178             ; 83                             *p = path_n + 1;
03371   1178 3A E5 5D    	ld a, (path_n)
03372   117B 3C          	inc a
03373   117C             ; REMOVED
03374   117C 77          	ld (hl), a
03375   117D             l_240: 
03376   117D             ; REMOVED
03377   117D             ; 84                         p -= GAME_HEIGHT;
03378   117D             ; REMOVED
03379   117D 11 F7 FF    	ld de, 65527
03380   1180 19          	add hl, de
03381   1181 22 74 5F    	ld (PathFind_s + 0), hl
03382   1184             l_236: 
03383   1184             l_216: 
03384   1184             l_214: 
03385   1184 3A E4 5D    	ld a, (path_y)
03386   1187 3C          	inc a
03387   1188 32 E4 5D    	ld (path_y), a
03388   118B 2A 74 5F    	ld hl, (PathFind_s + 0)
03389   118E 23          	inc hl
03390   118F 22 74 5F    	ld (PathFind_s + 0), hl
03391   1192 C3 BE 10    	jp l_213
03392   1195             l_215: 
03393   1195             l_211: 
03394   1195 3A E3 5D    	ld a, (path_x)
03395   1198 3C          	inc a
03396   1199 32 E3 5D    	ld (path_x), a
03397   119C C3 B2 10    	jp l_210
03398   119F             l_212: 
03399   119F             l_208: 
03400   119F 3A E5 5D    	ld a, (path_n)
03401   11A2 3C          	inc a
03402   11A3 32 E5 5D    	ld (path_n), a
03403   11A6 C3 A0 10    	jp l_207
03404   11A9             l_209: 
03405   11A9             ; 85                     }
03406   11A9             ; 86                 }
03407   11A9             ; 87             }
03408   11A9             ; 88         }
03409   11A9             ; 89     }
03410   11A9             ; 90 
03411   11A9             ; 91     // Путь не найден
03412   11A9             ; 92     PathFree();
03413   11A9 CD EA 12    	call PathFree
03414   11AC             ; 93     return 0;
03415   11AC AF          	xor a
03416   11AD C9          	ret
03417   11AE             ; REMOVED
03418   11AE             PlaySoundCantMove: 
03419   11AE             	; Stack correction reset
03420   11AE             ; 80 2000, 100);
03421   11AE 21 D0 07    	ld hl, 2000
03422   11B1 22 D5 5E    	ld (PlayTone_1_a), hl
03423   11B4 21 64 00    	ld hl, 100
03424   11B7 CD A9 09    	call PlayTone
03425   11BA             ; 81     Delay(2000);
03426   11BA 21 D0 07    	ld hl, 2000
03427   11BD CD A2 04    	call Delay
03428   11C0             ; 82     PlayTone(2000, 100);
03429   11C0 21 D0 07    	ld hl, 2000
03430   11C3 22 D5 5E    	ld (PlayTone_1_a), hl
03431   11C6 21 64 00    	ld hl, 100
03432   11C9 C3 A9 09    	jp PlayTone
03433   11CC             ; REMOVED
03434   11CC             PathGetNextStep: 
03435   11CC             	; Stack correction reset
03436   11CC             ; 108 * p = path_p;
03437   11CC 2A E9 5D    	ld hl, (path_p)
03438   11CF 22 76 5F    	ld (PathGetNextStep_s + 0), hl
03439   11D2             ; 109     if (path_y != 0) {
03440   11D2 3A E4 5D    	ld a, (path_y)
03441   11D5 B7          	or a
03442   11D6 CA FE 11    	jp z, l_242
03443   11D9             ; 110         p--;
03444   11D9             ; REMOVED
03445   11D9 2B          	dec hl
03446   11DA 22 76 5F    	ld (PathGetNextStep_s + 0), hl
03447   11DD             ; 111         if (*p == path_n) {
03448   11DD 3A E5 5D    	ld a, (path_n)
03449   11E0 57          	ld d, a
03450   11E1             ; REMOVED
03451   11E1 7E          	ld a, (hl)
03452   11E2 BA          	cp d
03453   11E3 C2 FA 11    	jp nz, l_244
03454   11E6             ; 112             --path_y;
03455   11E6 3A E4 5D    	ld a, (path_y)
03456   11E9 3D          	dec a
03457   11EA 32 E4 5D    	ld (path_y), a
03458   11ED             ; 113             --path_n;
03459   11ED 3A E5 5D    	ld a, (path_n)
03460   11F0 3D          	dec a
03461   11F1 32 E5 5D    	ld (path_n), a
03462   11F4             ; 114             path_p = p;
03463   11F4             ; REMOVED
03464   11F4 22 E9 5D    	ld (path_p), hl
03465   11F7             ; 115             return 1;
03466   11F7 3E 01       	ld a, 1
03467   11F9 C9          	ret
03468   11FA             l_244: 
03469   11FA             ; 116         }
03470   11FA             ; 117         p++;
03471   11FA             ; REMOVED
03472   11FA 23          	inc hl
03473   11FB 22 76 5F    	ld (PathGetNextStep_s + 0), hl
03474   11FE             l_242: 
03475   11FE             ; 118     }
03476   11FE             ; 119     if (path_y != GAME_HEIGHT - 1) {
03477   11FE 3A E4 5D    	ld a, (path_y)
03478   1201 FE 08       	cp 8
03479   1203 CA 2B 12    	jp z, l_246
03480   1206             ; 120         p++;
03481   1206             ; REMOVED
03482   1206 23          	inc hl
03483   1207 22 76 5F    	ld (PathGetNextStep_s + 0), hl
03484   120A             ; 121         if (*p == path_n) {
03485   120A 3A E5 5D    	ld a, (path_n)
03486   120D 57          	ld d, a
03487   120E             ; REMOVED
03488   120E 7E          	ld a, (hl)
03489   120F BA          	cp d
03490   1210 C2 27 12    	jp nz, l_248
03491   1213             ; 122             ++path_y;
03492   1213 3A E4 5D    	ld a, (path_y)
03493   1216 3C          	inc a
03494   1217 32 E4 5D    	ld (path_y), a
03495   121A             ; 123             --path_n;
03496   121A 3A E5 5D    	ld a, (path_n)
03497   121D 3D          	dec a
03498   121E 32 E5 5D    	ld (path_n), a
03499   1221             ; 124             path_p = p;
03500   1221             ; REMOVED
03501   1221 22 E9 5D    	ld (path_p), hl
03502   1224             ; 125             return 2;
03503   1224 3E 02       	ld a, 2
03504   1226 C9          	ret
03505   1227             l_248: 
03506   1227             ; 126         }
03507   1227             ; 127         p--;
03508   1227             ; REMOVED
03509   1227 2B          	dec hl
03510   1228 22 76 5F    	ld (PathGetNextStep_s + 0), hl
03511   122B             l_246: 
03512   122B             ; 128     }
03513   122B             ; 129     if (path_x != 0) {
03514   122B 3A E3 5D    	ld a, (path_x)
03515   122E B7          	or a
03516   122F CA 5D 12    	jp z, l_250
03517   1232             ; 130         p -= GAME_HEIGHT;
03518   1232             ; REMOVED
03519   1232 11 F7 FF    	ld de, 65527
03520   1235 19          	add hl, de
03521   1236 22 76 5F    	ld (PathGetNextStep_s + 0), hl
03522   1239             ; 131         if (*p == path_n) {
03523   1239 3A E5 5D    	ld a, (path_n)
03524   123C 57          	ld d, a
03525   123D             ; REMOVED
03526   123D 7E          	ld a, (hl)
03527   123E BA          	cp d
03528   123F C2 56 12    	jp nz, l_252
03529   1242             ; 132             --path_x;
03530   1242 3A E3 5D    	ld a, (path_x)
03531   1245 3D          	dec a
03532   1246 32 E3 5D    	ld (path_x), a
03533   1249             ; 133             --path_n;
03534   1249 3A E5 5D    	ld a, (path_n)
03535   124C 3D          	dec a
03536   124D 32 E5 5D    	ld (path_n), a
03537   1250             ; 134             path_p = p;
03538   1250             ; REMOVED
03539   1250 22 E9 5D    	ld (path_p), hl
03540   1253             ; 135             return 3;
03541   1253 3E 03       	ld a, 3
03542   1255 C9          	ret
03543   1256             l_252: 
03544   1256             ; 136         }
03545   1256             ; 137         p += GAME_HEIGHT;
03546   1256             ; REMOVED
03547   1256 11 09 00    	ld de, 9
03548   1259 19          	add hl, de
03549   125A 22 76 5F    	ld (PathGetNextStep_s + 0), hl
03550   125D             l_250: 
03551   125D             ; 138     }
03552   125D             ; 139     if (path_x != GAME_WIDTH - 1) {
03553   125D 3A E3 5D    	ld a, (path_x)
03554   1260 FE 08       	cp 8
03555   1262 CA 89 12    	jp z, l_254
03556   1265             ; 140         p += GAME_HEIGHT;
03557   1265             ; REMOVED
03558   1265 11 09 00    	ld de, 9
03559   1268 19          	add hl, de
03560   1269 22 76 5F    	ld (PathGetNextStep_s + 0), hl
03561   126C             ; 141         if (*p == path_n) {
03562   126C 3A E5 5D    	ld a, (path_n)
03563   126F 57          	ld d, a
03564   1270             ; REMOVED
03565   1270 7E          	ld a, (hl)
03566   1271 BA          	cp d
03567   1272 C2 89 12    	jp nz, l_256
03568   1275             ; 142             ++path_x;
03569   1275 3A E3 5D    	ld a, (path_x)
03570   1278 3C          	inc a
03571   1279 32 E3 5D    	ld (path_x), a
03572   127C             ; 143             --path_n;
03573   127C 3A E5 5D    	ld a, (path_n)
03574   127F 3D          	dec a
03575   1280 32 E5 5D    	ld (path_n), a
03576   1283             ; 144             path_p = p;
03577   1283             ; REMOVED
03578   1283 22 E9 5D    	ld (path_p), hl
03579   1286             ; 145             return 4;
03580   1286 3E 04       	ld a, 4
03581   1288 C9          	ret
03582   1289             l_256: 
03583   1289             l_254: 
03584   1289             ; 146         }
03585   1289             ; 147     }
03586   1289             ; 148     return 0;
03587   1289 AF          	xor a
03588   128A C9          	ret
03589   128B             ; REMOVED
03590   128B             DrawSpriteStep: 
03591   128B             	; Stack correction reset
03592   128B             ; 132  DrawSpriteStep(uint8_t x, uint8_t y, uint8_t color) {
03593   128B 32 F6 5E    	ld (DrawSpriteStep_3_a), a
03594   128E             ; 133     DrawImage(CellAddress(x, y), imgBoard + color * BALL_IMAGE_SIZEOF, BALL_IMAGE_WH);
03595   128E 3A F4 5E    	ld a, (DrawSpriteStep_1_a)
03596   1291 32 04 5F    	ld (CellAddress_1_a), a
03597   1294 3A F5 5E    	ld a, (DrawSpriteStep_2_a)
03598   1297 CD 22 10    	call CellAddress
03599   129A 22 9F 5E    	ld (DrawImage_1_a), hl
03600   129D 2A F6 5E    	ld hl, (DrawSpriteStep_3_a)
03601   12A0 26 00       	ld h, 0
03602   12A2 29          	add hl, hl
03603   12A3 29          	add hl, hl
03604   12A4 29          	add hl, hl
03605   12A5 29          	add hl, hl
03606   12A6 29          	add hl, hl
03607   12A7 29          	add hl, hl
03608   12A8 11 82 56    	ld de, imgBoard
03609   12AB 19          	add hl, de
03610   12AC 22 A1 5E    	ld (DrawImage_2_a), hl
03611   12AF 21 10 02    	ld hl, 528
03612   12B2 CD C9 17    	call DrawImage
03613   12B5             ; 134     if (soundEnabled) {
03614   12B5 3A 80 5D    	ld a, (soundEnabled)
03615   12B8 B7          	or a
03616   12B9 CA BE 12    	jp z, l_258
03617   12BC D3 B0        out (0xB0), a
03618   12BE             l_258: 
03619   12BE C9          	ret
03620   12BF             PathRewind: 
03621   12BF             	; Stack correction reset
03622   12BF             ; 99  = path_p1;
03623   12BF 2A EB 5D    	ld hl, (path_p1)
03624   12C2 22 E9 5D    	ld (path_p), hl
03625   12C5             ; 100     path_x = path_x1;
03626   12C5 3A EE 5D    	ld a, (path_x1)
03627   12C8 32 E3 5D    	ld (path_x), a
03628   12CB             ; 101     path_y = path_y1;
03629   12CB 3A EF 5D    	ld a, (path_y1)
03630   12CE 32 E4 5D    	ld (path_y), a
03631   12D1             ; 102     path_n = path_n1;
03632   12D1 3A ED 5D    	ld a, (path_n1)
03633   12D4 32 E5 5D    	ld (path_n), a
03634   12D7 C9          	ret
03635   12D8             DrawEmptyCell: 
03636   12D8             	; Stack correction reset
03637   12D8             ; 99  DrawEmptyCell(uint8_t x, uint8_t y) {
03638   12D8 32 E3 5E    	ld (DrawEmptyCell_2_a), a
03639   12DB             ; 100     DrawEmptyCell1(CellAddress(x, y));
03640   12DB 3A E2 5E    	ld a, (DrawEmptyCell_1_a)
03641   12DE 32 04 5F    	ld (CellAddress_1_a), a
03642   12E1 3A E3 5E    	ld a, (DrawEmptyCell_2_a)
03643   12E4 CD 22 10    	call CellAddress
03644   12E7 C3 48 0C    	jp DrawEmptyCell1
03645   12EA             ; REMOVED
03646   12EA             PathFree: 
03647   12EA             	; Stack correction reset
03648   12EA             ; 155  = &game[0][0]; p != &game[GAME_WIDTH - 1][GAME_HEIGHT - 1] + 1; ++p)
03649   12EA 21 26 5D    	ld hl, ((game) + (0)) + (0)
03650   12ED 22 78 5F    	ld (PathFree_s + 0), hl
03651   12F0             l_260: 
03652   12F0 2A 78 5F    	ld hl, (PathFree_s + 0)
03653   12F3 11 77 5D    	ld de, (((game) + (72)) + (8)) + (1)
03654   12F6 CD A4 5F    	call __o_cmp_16
03655   12F9 CA 11 13    	jp z, l_262
03656   12FC             ; 156         if (*p >= PATH_START_VAL) *p = PATH_EMPTY_VAL;
03657   12FC 2A 78 5F    	ld hl, (PathFree_s + 0)
03658   12FF 7E          	ld a, (hl)
03659   1300 FE 0A       	cp 10
03660   1302 DA 07 13    	jp c, l_263
03661   1305             ; REMOVED
03662   1305 36 00       	ld (hl), 0
03663   1307             l_263: 
03664   1307             l_261: 
03665   1307 2A 78 5F    	ld hl, (PathFree_s + 0)
03666   130A 23          	inc hl
03667   130B 22 78 5F    	ld (PathFree_s + 0), hl
03668   130E C3 F0 12    	jp l_260
03669   1311             l_262: 
03670   1311             ; 157     game[selX][selY] = path_c;
03671   1311 3A E8 5D    	ld a, (path_c)
03672   1314 2A 7C 5D    	ld hl, (selX)
03673   1317 26 00       	ld h, 0
03674   1319 54          	ld d, h
03675   131A 5D          	ld e, l
03676   131B 29          	add hl, hl
03677   131C 29          	add hl, hl
03678   131D 29          	add hl, hl
03679   131E 19          	add hl, de
03680   131F 11 26 5D    	ld de, game
03681   1322 19          	add hl, de
03682   1323 EB          	ex hl, de
03683   1324 2A 7D 5D    	ld hl, (selY)
03684   1327 26 00       	ld h, 0
03685   1329 19          	add hl, de
03686   132A 77          	ld (hl), a
03687   132B C9          	ret
03688   132C             AddToHiScores: 
03689   132C             	; Stack correction reset
03690   132C             ; 260 [HISCORE_COUNT - 1].score = score;
03691   132C 2A 81 5D    	ld hl, (score)
03692   132F 22 E1 5D    	ld (((hiScores) + (84)) + (10)), hl
03693   1332             ; 261     hiScores[HISCORE_COUNT - 1].name[0] = 0;
03694   1332 AF          	xor a
03695   1333 32 D7 5D    	ld ((((hiScores) + (84)) + (0)) + (0)), a
03696   1336             ; 262 
03697   1336             ; 263     // Вывод таблицы на экран
03698   1336             ; 264     DrawHiScores(true);
03699   1336             ; 25 ;
03700   1336 3E 01       	ld a, 1
03701   1338 CD 77 05    	call DrawHiScores
03702   133B             ; 267  i = 0;
03703   133B AF          	xor a
03704   133C 32 7A 5F    	ld (AddToHiScores_s + 0), a
03705   133F             l_265: 
03706   133F             ; 268     for (;;) {
03707   133F             ; 269         char c = ReadKeyboard(false);
03708   133F             ; 24 ;
03709   133F AF          	xor a
03710   1340 CD 9E 03    	call ReadKeyboard
03711   1343 32 7B 5F    	ld (AddToHiScores_s + 1), a
03712   1346             ; 270  == KEY_ENTER) break;
03713   1346             ; REMOVED
03714   1346 FE 0D       	cp 13
03715   1348 CA A0 13    	jp z, l_267
03716   134B             ; REMOVED
03717   134B             ; REMOVED
03718   134B             ; 271         if (c == KEY_BACKSPACE || c == KEY_DEL) {
03719   134B             ; REMOVED
03720   134B FE 08       	cp 8
03721   134D CA 55 13    	jp z, l_272
03722   1350             ; REMOVED
03723   1350 FE 0C       	cp 12
03724   1352 C2 71 13    	jp nz, l_270
03725   1355             l_272: 
03726   1355             ; 272             if (i == 0) continue;
03727   1355 3A 7A 5F    	ld a, (AddToHiScores_s + 0)
03728   1358 B7          	or a
03729   1359 CA 3F 13    	jp z, l_265
03730   135C             ; REMOVED
03731   135C             ; REMOVED
03732   135C             ; 273             --i;
03733   135C             ; REMOVED
03734   135C 3D          	dec a
03735   135D 32 7A 5F    	ld (AddToHiScores_s + 0), a
03736   1360             ; 274             hiScores[HISCORE_COUNT - 1].name[i] = 0;
03737   1360 2A 7A 5F    	ld hl, (AddToHiScores_s + 0)
03738   1363 26 00       	ld h, 0
03739   1365 11 D7 5D    	ld de, ((hiScores) + (84)) + (0)
03740   1368 19          	add hl, de
03741   1369 36 00       	ld (hl), 0
03742   136B             ; 275             DrawHiScoresLastLine();
03743   136B CD F5 19    	call DrawHiScoresLastLine
03744   136E C3 3F 13    	jp l_265
03745   1371             l_270: 
03746   1371             ; 276             continue;
03747   1371             ; 277         }
03748   1371             ; 278         if (c < ' ') continue;
03749   1371             ; REMOVED
03750   1371 FE 20       	cp 32
03751   1373 FA 3F 13    	jp m, l_265
03752   1376             ; REMOVED
03753   1376             ; REMOVED
03754   1376             ; 279         if (i == sizeof(hiScores[HISCORE_COUNT - 1].name) - 1) continue;
03755   1376 3A 7A 5F    	ld a, (AddToHiScores_s + 0)
03756   1379 FE 09       	cp 9
03757   137B CA 3F 13    	jp z, l_265
03758   137E             ; REMOVED
03759   137E             ; REMOVED
03760   137E             ; 280         hiScores[HISCORE_COUNT - 1].name[i] = c;
03761   137E 3A 7B 5F    	ld a, (AddToHiScores_s + 1)
03762   1381 2A 7A 5F    	ld hl, (AddToHiScores_s + 0)
03763   1384 26 00       	ld h, 0
03764   1386 11 D7 5D    	ld de, ((hiScores) + (84)) + (0)
03765   1389 19          	add hl, de
03766   138A 77          	ld (hl), a
03767   138B             ; 281         ++i;
03768   138B 3A 7A 5F    	ld a, (AddToHiScores_s + 0)
03769   138E 3C          	inc a
03770   138F 32 7A 5F    	ld (AddToHiScores_s + 0), a
03771   1392             ; 282         hiScores[HISCORE_COUNT - 1].name[i] = 0;
03772   1392 2A 7A 5F    	ld hl, (AddToHiScores_s + 0)
03773   1395 26 00       	ld h, 0
03774   1397             ; REMOVED
03775   1397 19          	add hl, de
03776   1398 36 00       	ld (hl), 0
03777   139A             ; 283         DrawHiScoresLastLine();
03778   139A CD F5 19    	call DrawHiScoresLastLine
03779   139D             ; REMOVED
03780   139D C3 3F 13    	jp l_265
03781   13A0             l_267: 
03782   13A0             ; 284     }
03783   13A0             ; 285 
03784   13A0             ; 286     // Анимация перемещения новой позиции вверх
03785   13A0             ; 287     struct HiScore* p = hiScores + HISCORE_COUNT - 1;
03786   13A0 21 D7 5D    	ld hl, ((hiScores) + (96)) - (12)
03787   13A3 22 7B 5F    	ld (AddToHiScores_s + 1), hl
03788   13A6             ; 288     for (i = HISCORE_COUNT - 1; i != 0; i--) {
03789   13A6 3E 07       	ld a, 7
03790   13A8 32 7A 5F    	ld (AddToHiScores_s + 0), a
03791   13AB             l_279: 
03792   13AB 3A 7A 5F    	ld a, (AddToHiScores_s + 0)
03793   13AE B7          	or a
03794   13AF CA 33 14    	jp z, l_281
03795   13B2             ; 289         if (p->score < p[-1].score) break;
03796   13B2 2A 7B 5F    	ld hl, (AddToHiScores_s + 1)
03797   13B5 11 F4 FF    	ld de, 65524
03798   13B8 19          	add hl, de
03799   13B9 11 0A 00    	ld de, 10
03800   13BC 19          	add hl, de
03801   13BD 5E          	ld e, (hl)
03802   13BE 23          	inc hl
03803   13BF 56          	ld d, (hl)
03804   13C0 EB          	ex hl, de
03805   13C1 E5          	push hl
03806   13C2 2A 7B 5F    	ld hl, (AddToHiScores_s + 1)
03807   13C5 11 0A 00    	ld de, 10
03808   13C8 19          	add hl, de
03809   13C9 5E          	ld e, (hl)
03810   13CA 23          	inc hl
03811   13CB 56          	ld d, (hl)
03812   13CC EB          	ex hl, de
03813   13CD D1          	pop de
03814   13CE CD 9D 5F    	call __o_sub_16
03815   13D1 DA 33 14    	jp c, l_281
03816   13D4             ; REMOVED
03817   13D4             ; REMOVED
03818   13D4             ; 290         p--;
03819   13D4 2A 7B 5F    	ld hl, (AddToHiScores_s + 1)
03820   13D7 11 F4 FF    	ld de, 65524
03821   13DA 19          	add hl, de
03822   13DB 22 7B 5F    	ld (AddToHiScores_s + 1), hl
03823   13DE             ; 291         struct HiScore tmp;
03824   13DE             ; 292         memcpy(&tmp, p + 1, sizeof(tmp));
03825   13DE 21 7D 5F    	ld hl, AddToHiScores_s + 3
03826   13E1 22 EA 5E    	ld (memcpy_1_a), hl
03827   13E4 2A 7B 5F    	ld hl, (AddToHiScores_s + 1)
03828   13E7 11 0C 00    	ld de, 12
03829   13EA 19          	add hl, de
03830   13EB 22 EC 5E    	ld (memcpy_2_a), hl
03831   13EE 21 0C 00    	ld hl, 12
03832   13F1 CD B6 0B    	call memcpy
03833   13F4             ; 293         memcpy(p + 1, p, sizeof(tmp));
03834   13F4 2A 7B 5F    	ld hl, (AddToHiScores_s + 1)
03835   13F7 11 0C 00    	ld de, 12
03836   13FA 19          	add hl, de
03837   13FB 22 EA 5E    	ld (memcpy_1_a), hl
03838   13FE 2A 7B 5F    	ld hl, (AddToHiScores_s + 1)
03839   1401 22 EC 5E    	ld (memcpy_2_a), hl
03840   1404 21 0C 00    	ld hl, 12
03841   1407 CD B6 0B    	call memcpy
03842   140A             ; 294         memcpy(p, &tmp, sizeof(tmp));
03843   140A 2A 7B 5F    	ld hl, (AddToHiScores_s + 1)
03844   140D 22 EA 5E    	ld (memcpy_1_a), hl
03845   1410 21 7D 5F    	ld hl, AddToHiScores_s + 3
03846   1413 22 EC 5E    	ld (memcpy_2_a), hl
03847   1416 21 0C 00    	ld hl, 12
03848   1419 CD B6 0B    	call memcpy
03849   141C             ; 295         DrawHiScoresScreen(i - 1);
03850   141C 3A 7A 5F    	ld a, (AddToHiScores_s + 0)
03851   141F 3D          	dec a
03852   1420 CD FD 19    	call DrawHiScoresScreen
03853   1423             ; 296         Delay(HISCORE_ANIMATION_DELAY);
03854   1423             ; 49 ; /* задерка в main */
03855   1423 21 D0 07    	ld hl, 2000
03856   1426 CD A2 04    	call Delay
03857   1429             l_280: 
03858   1429             ; 288 ) {
03859   1429 3A 7A 5F    	ld a, (AddToHiScores_s + 0)
03860   142C 3D          	dec a
03861   142D 32 7A 5F    	ld (AddToHiScores_s + 0), a
03862   1430 C3 AB 13    	jp l_279
03863   1433             l_281: 
03864   1433 C9          	ret
03865   1434             SetPaletteInternal: 
03866   1434             	; Stack correction reset
03867   1434             ; 23  void SetPaletteInternal(uint8_t mask) {
03868   1434 32 CE 5E    	ld (SetPaletteInternal_1_a), a
03869   1437             
03870   1437 47                  ld b, a
03871   1438 2A 73 24            ld hl, (currentPalette)
03872   143B 7E                  ld a, (hl)
03873   143C B0                  or b
03874   143D D3 90               out (090h), a
03875   143F 23                  inc hl
03876   1440 7E                  ld a, (hl)
03877   1441 B0                  or b
03878   1442 D3 91               out (091h), a
03879   1444 23                  inc hl
03880   1445 7E                  ld a, (hl)
03881   1446 B0                  or b
03882   1447 D3 92               out (092h), a
03883   1449 23                  inc hl
03884   144A 7E                  ld a, (hl)
03885   144B B0                  or b
03886   144C D3 93               out (093h), a
03887   144E                 
03888   144E C9          	ret
03889   144F             FindLines: 
03890   144F             	; Stack correction reset
03891   144F             ; 78  c, n, total = 0;
03892   144F AF          	xor a
03893   1450 32 8F 5F    	ld (FindLines_s + 6), a
03894   1453             ; 79     uint8_t* p;
03895   1453             ; 80 
03896   1453             ; 81     for (y = 0; y != GAME_HEIGHT; y++) {
03897   1453             ; REMOVED
03898   1453 32 8A 5F    	ld (FindLines_s + 1), a
03899   1456             l_284: 
03900   1456 3A 8A 5F    	ld a, (FindLines_s + 1)
03901   1459 FE 09       	cp 9
03902   145B CA FC 14    	jp z, l_286
03903   145E             ; 82         for (p = &game[0][y], x = 0; x < GAME_WIDTH;) {
03904   145E 2A 8A 5F    	ld hl, (FindLines_s + 1)
03905   1461 26 00       	ld h, 0
03906   1463 11 26 5D    	ld de, (game) + (0)
03907   1466 19          	add hl, de
03908   1467 22 90 5F    	ld (FindLines_s + 7), hl
03909   146A AF          	xor a
03910   146B 32 89 5F    	ld (FindLines_s + 0), a
03911   146E             l_287: 
03912   146E 3A 89 5F    	ld a, (FindLines_s + 0)
03913   1471 FE 09       	cp 9
03914   1473 D2 F2 14    	jp nc, l_289
03915   1476             ; 83             prevx = x;
03916   1476             ; REMOVED
03917   1476 32 8B 5F    	ld (FindLines_s + 2), a
03918   1479             ; 84             c = *p;
03919   1479 2A 90 5F    	ld hl, (FindLines_s + 7)
03920   147C 7E          	ld a, (hl)
03921   147D 32 8D 5F    	ld (FindLines_s + 4), a
03922   1480             ; 85             ++x;
03923   1480 3A 89 5F    	ld a, (FindLines_s + 0)
03924   1483 3C          	inc a
03925   1484 32 89 5F    	ld (FindLines_s + 0), a
03926   1487             ; 86             p += GAME_WIDTH;
03927   1487             ; REMOVED
03928   1487 11 09 00    	ld de, 9
03929   148A 19          	add hl, de
03930   148B 22 90 5F    	ld (FindLines_s + 7), hl
03931   148E             ; 87             if (c == 0) continue;
03932   148E 3A 8D 5F    	ld a, (FindLines_s + 4)
03933   1491 B7          	or a
03934   1492 CA 6E 14    	jp z, l_287
03935   1495             ; REMOVED
03936   1495             ; REMOVED
03937   1495             l_292: 
03938   1495             ; 88             while (x != GAME_WIDTH && c == *p) {
03939   1495 3A 89 5F    	ld a, (FindLines_s + 0)
03940   1498 FE 09       	cp 9
03941   149A CA B9 14    	jp z, l_293
03942   149D 3A 8D 5F    	ld a, (FindLines_s + 4)
03943   14A0 2A 90 5F    	ld hl, (FindLines_s + 7)
03944   14A3 56          	ld d, (hl)
03945   14A4 BA          	cp d
03946   14A5 C2 B9 14    	jp nz, l_293
03947   14A8             ; 89                 p += GAME_WIDTH;
03948   14A8             ; REMOVED
03949   14A8 11 09 00    	ld de, 9
03950   14AB 19          	add hl, de
03951   14AC 22 90 5F    	ld (FindLines_s + 7), hl
03952   14AF             ; 90                 ++x;
03953   14AF 3A 89 5F    	ld a, (FindLines_s + 0)
03954   14B2 3C          	inc a
03955   14B3 32 89 5F    	ld (FindLines_s + 0), a
03956   14B6 C3 95 14    	jp l_292
03957   14B9             l_293: 
03958   14B9             ; 91             }
03959   14B9             ; 92             n = x - prevx;
03960   14B9 3A 8B 5F    	ld a, (FindLines_s + 2)
03961   14BC 57          	ld d, a
03962   14BD 3A 89 5F    	ld a, (FindLines_s + 0)
03963   14C0 92          	sub d
03964   14C1 32 8E 5F    	ld (FindLines_s + 5), a
03965   14C4             ; 93             if (n < 5) continue;
03966   14C4             ; REMOVED
03967   14C4 FE 05       	cp 5
03968   14C6 DA 6E 14    	jp c, l_287
03969   14C9             ; REMOVED
03970   14C9             ; REMOVED
03971   14C9             ; 94             ClearLine(prevx, y, 1, 0, n);
03972   14C9 3A 8B 5F    	ld a, (FindLines_s + 2)
03973   14CC 32 D9 5E    	ld (ClearLine_1_a), a
03974   14CF 3A 8A 5F    	ld a, (FindLines_s + 1)
03975   14D2 32 DA 5E    	ld (ClearLine_2_a), a
03976   14D5 3E 01       	ld a, 1
03977   14D7 32 DB 5E    	ld (ClearLine_3_a), a
03978   14DA AF          	xor a
03979   14DB 32 DC 5E    	ld (ClearLine_4_a), a
03980   14DE 3A 8E 5F    	ld a, (FindLines_s + 5)
03981   14E1 CD 0A 1A    	call ClearLine
03982   14E4             ; 95             total += n;
03983   14E4 3A 8E 5F    	ld a, (FindLines_s + 5)
03984   14E7 57          	ld d, a
03985   14E8 3A 8F 5F    	ld a, (FindLines_s + 6)
03986   14EB 82          	add d
03987   14EC 32 8F 5F    	ld (FindLines_s + 6), a
03988   14EF C3 F2 14    	jp l_289
03989   14F2             ; REMOVED
03990   14F2             ; REMOVED
03991   14F2             l_289: 
03992   14F2             l_285: 
03993   14F2 3A 8A 5F    	ld a, (FindLines_s + 1)
03994   14F5 3C          	inc a
03995   14F6 32 8A 5F    	ld (FindLines_s + 1), a
03996   14F9 C3 56 14    	jp l_284
03997   14FC             l_286: 
03998   14FC             ; 96             break;
03999   14FC             ; 97         }
04000   14FC             ; 98     }
04001   14FC             ; 99     for (x = 0; x != GAME_WIDTH; ++x) {
04002   14FC AF          	xor a
04003   14FD 32 89 5F    	ld (FindLines_s + 0), a
04004   1500             l_296: 
04005   1500 3A 89 5F    	ld a, (FindLines_s + 0)
04006   1503 FE 09       	cp 9
04007   1505 CA A9 15    	jp z, l_298
04008   1508             ; 100         for (p = &game[x][0], y = 0; y < 5;) {
04009   1508 2A 89 5F    	ld hl, (FindLines_s + 0)
04010   150B 26 00       	ld h, 0
04011   150D 54          	ld d, h
04012   150E 5D          	ld e, l
04013   150F 29          	add hl, hl
04014   1510 29          	add hl, hl
04015   1511 29          	add hl, hl
04016   1512 19          	add hl, de
04017   1513 11 26 5D    	ld de, game
04018   1516 19          	add hl, de
04019   1517 22 90 5F    	ld (FindLines_s + 7), hl
04020   151A AF          	xor a
04021   151B 32 8A 5F    	ld (FindLines_s + 1), a
04022   151E             l_299: 
04023   151E 3A 8A 5F    	ld a, (FindLines_s + 1)
04024   1521 FE 05       	cp 5
04025   1523 D2 9F 15    	jp nc, l_301
04026   1526             ; 101             c = *p;
04027   1526 2A 90 5F    	ld hl, (FindLines_s + 7)
04028   1529 7E          	ld a, (hl)
04029   152A 32 8D 5F    	ld (FindLines_s + 4), a
04030   152D             ; 102             prevy = y;
04031   152D 3A 8A 5F    	ld a, (FindLines_s + 1)
04032   1530 32 8C 5F    	ld (FindLines_s + 3), a
04033   1533             ; 103             ++y;
04034   1533 3A 8A 5F    	ld a, (FindLines_s + 1)
04035   1536 3C          	inc a
04036   1537 32 8A 5F    	ld (FindLines_s + 1), a
04037   153A             ; 104             ++p;
04038   153A             ; REMOVED
04039   153A 23          	inc hl
04040   153B 22 90 5F    	ld (FindLines_s + 7), hl
04041   153E             ; 105             if (c == 0) continue;
04042   153E 3A 8D 5F    	ld a, (FindLines_s + 4)
04043   1541 B7          	or a
04044   1542 CA 1E 15    	jp z, l_299
04045   1545             ; REMOVED
04046   1545             ; REMOVED
04047   1545             l_304: 
04048   1545             ; 106             while (y != GAME_HEIGHT && c == *p) {
04049   1545 3A 8A 5F    	ld a, (FindLines_s + 1)
04050   1548 FE 09       	cp 9
04051   154A CA 66 15    	jp z, l_305
04052   154D 3A 8D 5F    	ld a, (FindLines_s + 4)
04053   1550 2A 90 5F    	ld hl, (FindLines_s + 7)
04054   1553 56          	ld d, (hl)
04055   1554 BA          	cp d
04056   1555 C2 66 15    	jp nz, l_305
04057   1558             ; 107                 ++p;
04058   1558             ; REMOVED
04059   1558 23          	inc hl
04060   1559 22 90 5F    	ld (FindLines_s + 7), hl
04061   155C             ; 108                 ++y;
04062   155C 3A 8A 5F    	ld a, (FindLines_s + 1)
04063   155F 3C          	inc a
04064   1560 32 8A 5F    	ld (FindLines_s + 1), a
04065   1563 C3 45 15    	jp l_304
04066   1566             l_305: 
04067   1566             ; 109             }
04068   1566             ; 110             n = y - prevy;
04069   1566 3A 8C 5F    	ld a, (FindLines_s + 3)
04070   1569 57          	ld d, a
04071   156A 3A 8A 5F    	ld a, (FindLines_s + 1)
04072   156D 92          	sub d
04073   156E 32 8E 5F    	ld (FindLines_s + 5), a
04074   1571             ; 111             if (n < 5) continue;
04075   1571             ; REMOVED
04076   1571 FE 05       	cp 5
04077   1573 DA 1E 15    	jp c, l_299
04078   1576             ; REMOVED
04079   1576             ; REMOVED
04080   1576             ; 112             ClearLine(x, prevy, 0, 1, n);
04081   1576 3A 89 5F    	ld a, (FindLines_s + 0)
04082   1579 32 D9 5E    	ld (ClearLine_1_a), a
04083   157C 3A 8C 5F    	ld a, (FindLines_s + 3)
04084   157F 32 DA 5E    	ld (ClearLine_2_a), a
04085   1582 AF          	xor a
04086   1583 32 DB 5E    	ld (ClearLine_3_a), a
04087   1586 3E 01       	ld a, 1
04088   1588 32 DC 5E    	ld (ClearLine_4_a), a
04089   158B 3A 8E 5F    	ld a, (FindLines_s + 5)
04090   158E CD 0A 1A    	call ClearLine
04091   1591             ; 113             total += n;
04092   1591 3A 8E 5F    	ld a, (FindLines_s + 5)
04093   1594 57          	ld d, a
04094   1595 3A 8F 5F    	ld a, (FindLines_s + 6)
04095   1598 82          	add d
04096   1599 32 8F 5F    	ld (FindLines_s + 6), a
04097   159C C3 9F 15    	jp l_301
04098   159F             ; REMOVED
04099   159F             ; REMOVED
04100   159F             l_301: 
04101   159F             l_297: 
04102   159F 3A 89 5F    	ld a, (FindLines_s + 0)
04103   15A2 3C          	inc a
04104   15A3 32 89 5F    	ld (FindLines_s + 0), a
04105   15A6 C3 00 15    	jp l_296
04106   15A9             l_298: 
04107   15A9             ; 114             break;
04108   15A9             ; 115         }
04109   15A9             ; 116     }
04110   15A9             ; 117     for (y = 0; y != 6; ++y) {
04111   15A9 AF          	xor a
04112   15AA 32 8A 5F    	ld (FindLines_s + 1), a
04113   15AD             l_308: 
04114   15AD 3A 8A 5F    	ld a, (FindLines_s + 1)
04115   15B0 FE 06       	cp 6
04116   15B2 CA 64 16    	jp z, l_310
04117   15B5             ; 118         for (x = 0; x != 6; ++x) {
04118   15B5 AF          	xor a
04119   15B6 32 89 5F    	ld (FindLines_s + 0), a
04120   15B9             l_311: 
04121   15B9 3A 89 5F    	ld a, (FindLines_s + 0)
04122   15BC FE 06       	cp 6
04123   15BE CA 5A 16    	jp z, l_313
04124   15C1             ; 119             p = &game[x][y];
04125   15C1 2A 89 5F    	ld hl, (FindLines_s + 0)
04126   15C4 26 00       	ld h, 0
04127   15C6 54          	ld d, h
04128   15C7 5D          	ld e, l
04129   15C8 29          	add hl, hl
04130   15C9 29          	add hl, hl
04131   15CA 29          	add hl, hl
04132   15CB 19          	add hl, de
04133   15CC 11 26 5D    	ld de, game
04134   15CF 19          	add hl, de
04135   15D0 EB          	ex hl, de
04136   15D1 2A 8A 5F    	ld hl, (FindLines_s + 1)
04137   15D4 26 00       	ld h, 0
04138   15D6 19          	add hl, de
04139   15D7 22 90 5F    	ld (FindLines_s + 7), hl
04140   15DA             ; 120             c = *p;
04141   15DA             ; REMOVED
04142   15DA 7E          	ld a, (hl)
04143   15DB 32 8D 5F    	ld (FindLines_s + 4), a
04144   15DE             ; 121             if (c == 0) continue;
04145   15DE             ; REMOVED
04146   15DE B7          	or a
04147   15DF CA 50 16    	jp z, l_312
04148   15E2             ; REMOVED
04149   15E2             ; REMOVED
04150   15E2             ; 122             prevx = x;
04151   15E2 3A 89 5F    	ld a, (FindLines_s + 0)
04152   15E5 32 8B 5F    	ld (FindLines_s + 2), a
04153   15E8             ; 123             prevy = y;
04154   15E8 3A 8A 5F    	ld a, (FindLines_s + 1)
04155   15EB 32 8C 5F    	ld (FindLines_s + 3), a
04156   15EE             l_316: 
04157   15EE             ; 124             while (1) {
04158   15EE             ; 125                 ++prevy;
04159   15EE 3A 8C 5F    	ld a, (FindLines_s + 3)
04160   15F1 3C          	inc a
04161   15F2 32 8C 5F    	ld (FindLines_s + 3), a
04162   15F5             ; 126                 ++prevx;
04163   15F5 3A 8B 5F    	ld a, (FindLines_s + 2)
04164   15F8 3C          	inc a
04165   15F9 32 8B 5F    	ld (FindLines_s + 2), a
04166   15FC             ; 127                 p += GAME_WIDTH + 1;
04167   15FC 2A 90 5F    	ld hl, (FindLines_s + 7)
04168   15FF 11 0A 00    	ld de, 10
04169   1602 19          	add hl, de
04170   1603 22 90 5F    	ld (FindLines_s + 7), hl
04171   1606             ; 128                 if (prevx == GAME_WIDTH) break;
04172   1606             ; REMOVED
04173   1606 FE 09       	cp 9
04174   1608 CA 1B 16    	jp z, l_317
04175   160B             ; REMOVED
04176   160B             ; REMOVED
04177   160B             ; 129                 if (prevy == GAME_HEIGHT) break;
04178   160B 3A 8C 5F    	ld a, (FindLines_s + 3)
04179   160E FE 09       	cp 9
04180   1610 CA 1B 16    	jp z, l_317
04181   1613             ; REMOVED
04182   1613             ; REMOVED
04183   1613             ; 130                 if (c != *p) break;
04184   1613 3A 8D 5F    	ld a, (FindLines_s + 4)
04185   1616             ; REMOVED
04186   1616 56          	ld d, (hl)
04187   1617 BA          	cp d
04188   1618 CA EE 15    	jp z, l_316
04189   161B             ; REMOVED
04190   161B             ; REMOVED
04191   161B             ; REMOVED
04192   161B             l_317: 
04193   161B             ; 131             }
04194   161B             ; 132             n = prevy - y;
04195   161B 3A 8A 5F    	ld a, (FindLines_s + 1)
04196   161E 57          	ld d, a
04197   161F 3A 8C 5F    	ld a, (FindLines_s + 3)
04198   1622 92          	sub d
04199   1623 32 8E 5F    	ld (FindLines_s + 5), a
04200   1626             ; 133             if (n < 5) continue;
04201   1626             ; REMOVED
04202   1626 FE 05       	cp 5
04203   1628 DA 50 16    	jp c, l_312
04204   162B             ; REMOVED
04205   162B             ; REMOVED
04206   162B             ; 134             ClearLine(x, y, 1, 1, n);
04207   162B 3A 89 5F    	ld a, (FindLines_s + 0)
04208   162E 32 D9 5E    	ld (ClearLine_1_a), a
04209   1631 3A 8A 5F    	ld a, (FindLines_s + 1)
04210   1634 32 DA 5E    	ld (ClearLine_2_a), a
04211   1637 3E 01       	ld a, 1
04212   1639 32 DB 5E    	ld (ClearLine_3_a), a
04213   163C             ; REMOVED
04214   163C 32 DC 5E    	ld (ClearLine_4_a), a
04215   163F 3A 8E 5F    	ld a, (FindLines_s + 5)
04216   1642 CD 0A 1A    	call ClearLine
04217   1645             ; 135             total += n;
04218   1645 3A 8E 5F    	ld a, (FindLines_s + 5)
04219   1648 57          	ld d, a
04220   1649 3A 8F 5F    	ld a, (FindLines_s + 6)
04221   164C 82          	add d
04222   164D 32 8F 5F    	ld (FindLines_s + 6), a
04223   1650             l_312: 
04224   1650 3A 89 5F    	ld a, (FindLines_s + 0)
04225   1653 3C          	inc a
04226   1654 32 89 5F    	ld (FindLines_s + 0), a
04227   1657 C3 B9 15    	jp l_311
04228   165A             l_313: 
04229   165A             l_309: 
04230   165A 3A 8A 5F    	ld a, (FindLines_s + 1)
04231   165D 3C          	inc a
04232   165E 32 8A 5F    	ld (FindLines_s + 1), a
04233   1661 C3 AD 15    	jp l_308
04234   1664             l_310: 
04235   1664             ; 136         }
04236   1664             ; 137     }
04237   1664             ; 138     for (y = 0; y != 6; ++y) {
04238   1664 AF          	xor a
04239   1665 32 8A 5F    	ld (FindLines_s + 1), a
04240   1668             l_326: 
04241   1668 3A 8A 5F    	ld a, (FindLines_s + 1)
04242   166B FE 06       	cp 6
04243   166D CA 2E 17    	jp z, l_328
04244   1670             ; 139         for (x = 4; x != GAME_WIDTH; ++x) {
04245   1670 3E 04       	ld a, 4
04246   1672 32 89 5F    	ld (FindLines_s + 0), a
04247   1675             l_329: 
04248   1675 3A 89 5F    	ld a, (FindLines_s + 0)
04249   1678 FE 09       	cp 9
04250   167A CA 24 17    	jp z, l_331
04251   167D             ; 140             p = &game[x][y];
04252   167D 2A 89 5F    	ld hl, (FindLines_s + 0)
04253   1680 26 00       	ld h, 0
04254   1682 54          	ld d, h
04255   1683 5D          	ld e, l
04256   1684 29          	add hl, hl
04257   1685 29          	add hl, hl
04258   1686 29          	add hl, hl
04259   1687 19          	add hl, de
04260   1688 11 26 5D    	ld de, game
04261   168B 19          	add hl, de
04262   168C EB          	ex hl, de
04263   168D 2A 8A 5F    	ld hl, (FindLines_s + 1)
04264   1690 26 00       	ld h, 0
04265   1692 19          	add hl, de
04266   1693 22 90 5F    	ld (FindLines_s + 7), hl
04267   1696             ; 141             c = *p;
04268   1696             ; REMOVED
04269   1696 7E          	ld a, (hl)
04270   1697 32 8D 5F    	ld (FindLines_s + 4), a
04271   169A             ; 142             if (c == 0) continue;
04272   169A             ; REMOVED
04273   169A B7          	or a
04274   169B CA 1A 17    	jp z, l_330
04275   169E             ; REMOVED
04276   169E             ; REMOVED
04277   169E             ; 143             prevx = x;
04278   169E 3A 89 5F    	ld a, (FindLines_s + 0)
04279   16A1 32 8B 5F    	ld (FindLines_s + 2), a
04280   16A4             ; 144             prevy = y;
04281   16A4 3A 8A 5F    	ld a, (FindLines_s + 1)
04282   16A7 32 8C 5F    	ld (FindLines_s + 3), a
04283   16AA             l_334: 
04284   16AA             ; 145             while (1) {
04285   16AA             ; 146                 ++prevy;
04286   16AA 3A 8C 5F    	ld a, (FindLines_s + 3)
04287   16AD 3C          	inc a
04288   16AE 32 8C 5F    	ld (FindLines_s + 3), a
04289   16B1             ; 147                 --prevx;
04290   16B1 3A 8B 5F    	ld a, (FindLines_s + 2)
04291   16B4 3D          	dec a
04292   16B5 32 8B 5F    	ld (FindLines_s + 2), a
04293   16B8             ; 148                 p += 1 - GAME_WIDTH;
04294   16B8 2A 90 5F    	ld hl, (FindLines_s + 7)
04295   16BB 11 F8 FF    	ld de, 65528
04296   16BE 19          	add hl, de
04297   16BF 22 90 5F    	ld (FindLines_s + 7), hl
04298   16C2             ; 149                 if (prevx == -1) break;
04299   16C2 2A 8B 5F    	ld hl, (FindLines_s + 2)
04300   16C5 26 00       	ld h, 0
04301   16C7 11 FF FF    	ld de, 65535
04302   16CA CD A4 5F    	call __o_cmp_16
04303   16CD CA E3 16    	jp z, l_335
04304   16D0             ; REMOVED
04305   16D0             ; REMOVED
04306   16D0             ; 150                 if (prevy == GAME_HEIGHT) break;
04307   16D0 3A 8C 5F    	ld a, (FindLines_s + 3)
04308   16D3 FE 09       	cp 9
04309   16D5 CA E3 16    	jp z, l_335
04310   16D8             ; REMOVED
04311   16D8             ; REMOVED
04312   16D8             ; 151                 if (c != *p) break;
04313   16D8 3A 8D 5F    	ld a, (FindLines_s + 4)
04314   16DB 2A 90 5F    	ld hl, (FindLines_s + 7)
04315   16DE 56          	ld d, (hl)
04316   16DF BA          	cp d
04317   16E0 CA AA 16    	jp z, l_334
04318   16E3             ; REMOVED
04319   16E3             ; REMOVED
04320   16E3             ; REMOVED
04321   16E3             l_335: 
04322   16E3             ; 152             }
04323   16E3             ; 153             n = prevy - y;
04324   16E3 3A 8A 5F    	ld a, (FindLines_s + 1)
04325   16E6 57          	ld d, a
04326   16E7 3A 8C 5F    	ld a, (FindLines_s + 3)
04327   16EA 92          	sub d
04328   16EB 32 8E 5F    	ld (FindLines_s + 5), a
04329   16EE             ; 154             if (n < 5) continue;
04330   16EE             ; REMOVED
04331   16EE FE 05       	cp 5
04332   16F0 DA 1A 17    	jp c, l_330
04333   16F3             ; REMOVED
04334   16F3             ; REMOVED
04335   16F3             ; 155             ClearLine(x, y, -1, 1, n);
04336   16F3 3A 89 5F    	ld a, (FindLines_s + 0)
04337   16F6 32 D9 5E    	ld (ClearLine_1_a), a
04338   16F9 3A 8A 5F    	ld a, (FindLines_s + 1)
04339   16FC 32 DA 5E    	ld (ClearLine_2_a), a
04340   16FF 3E FF       	ld a, 255
04341   1701 32 DB 5E    	ld (ClearLine_3_a), a
04342   1704 3E 01       	ld a, 1
04343   1706 32 DC 5E    	ld (ClearLine_4_a), a
04344   1709 3A 8E 5F    	ld a, (FindLines_s + 5)
04345   170C CD 0A 1A    	call ClearLine
04346   170F             ; 156             total += n;
04347   170F 3A 8E 5F    	ld a, (FindLines_s + 5)
04348   1712 57          	ld d, a
04349   1713 3A 8F 5F    	ld a, (FindLines_s + 6)
04350   1716 82          	add d
04351   1717 32 8F 5F    	ld (FindLines_s + 6), a
04352   171A             l_330: 
04353   171A 3A 89 5F    	ld a, (FindLines_s + 0)
04354   171D 3C          	inc a
04355   171E 32 89 5F    	ld (FindLines_s + 0), a
04356   1721 C3 75 16    	jp l_329
04357   1724             l_331: 
04358   1724             l_327: 
04359   1724 3A 8A 5F    	ld a, (FindLines_s + 1)
04360   1727 3C          	inc a
04361   1728 32 8A 5F    	ld (FindLines_s + 1), a
04362   172B C3 68 16    	jp l_326
04363   172E             l_328: 
04364   172E             ; 157         }
04365   172E             ; 158     }
04366   172E             ; 159     if (total == 0) return 0;
04367   172E 3A 8F 5F    	ld a, (FindLines_s + 6)
04368   1731 B7          	or a
04369   1732 C2 37 17    	jp nz, l_344
04370   1735 AF          	xor a
04371   1736 C9          	ret
04372   1737             l_344: 
04373   1737             ; 160 
04374   1737             ; 161     // Результат был изменен, перерисуем его
04375   1737             ; 162     score += total * 2;
04376   1737 2A 8F 5F    	ld hl, (FindLines_s + 6)
04377   173A 26 00       	ld h, 0
04378   173C 29          	add hl, hl
04379   173D EB          	ex hl, de
04380   173E 2A 81 5D    	ld hl, (score)
04381   1741 19          	add hl, de
04382   1742 22 81 5D    	ld (score), hl
04383   1745             ; 163     // TODO Overflow
04384   1745             ; 164     DrawScoreAndCreatures();
04385   1745 CD 94 0E    	call DrawScoreAndCreatures
04386   1748             ; 165     return 1;
04387   1748 3E 01       	ld a, 1
04388   174A C9          	ret
04389   174B             ; REMOVED
04390   174B             CalcFreeCellCount: 
04391   174B             	; Stack correction reset
04392   174B             ; 166 }
04393   174B             ; 167 
04394   174B             ; 168 // Посчитать кол-во свободных клеток
04395   174B             ; 169 
04396   174B             ; 170 static uint8_t CalcFreeCellCount() {
04397   174B             ; 171     uint8_t* cell = &game[0][0];
04398   174B 21 26 5D    	ld hl, ((game) + (0)) + (0)
04399   174E 22 92 5F    	ld (CalcFreeCellCount_s + 0), hl
04400   1751             ; 172     uint8_t freeCellCount = 0;
04401   1751 AF          	xor a
04402   1752 32 94 5F    	ld (CalcFreeCellCount_s + 2), a
04403   1755             ; 173     uint8_t i;
04404   1755             ; 174     for (i = GAME_WIDTH * GAME_HEIGHT; i != 0; --i) {
04405   1755 3E 51       	ld a, 81
04406   1757 32 95 5F    	ld (CalcFreeCellCount_s + 3), a
04407   175A             l_346: 
04408   175A 3A 95 5F    	ld a, (CalcFreeCellCount_s + 3)
04409   175D B7          	or a
04410   175E CA 7E 17    	jp z, l_348
04411   1761             ; 175         if (*cell == 0) freeCellCount++;
04412   1761 2A 92 5F    	ld hl, (CalcFreeCellCount_s + 0)
04413   1764 7E          	ld a, (hl)
04414   1765 B7          	or a
04415   1766 C2 70 17    	jp nz, l_349
04416   1769 3A 94 5F    	ld a, (CalcFreeCellCount_s + 2)
04417   176C 3C          	inc a
04418   176D 32 94 5F    	ld (CalcFreeCellCount_s + 2), a
04419   1770             l_349: 
04420   1770             ; 176         cell++;
04421   1770             ; REMOVED
04422   1770 23          	inc hl
04423   1771 22 92 5F    	ld (CalcFreeCellCount_s + 0), hl
04424   1774             l_347: 
04425   1774 3A 95 5F    	ld a, (CalcFreeCellCount_s + 3)
04426   1777 3D          	dec a
04427   1778 32 95 5F    	ld (CalcFreeCellCount_s + 3), a
04428   177B C3 5A 17    	jp l_346
04429   177E             l_348: 
04430   177E             ; 177     }
04431   177E             ; 178     return freeCellCount;
04432   177E 3A 94 5F    	ld a, (CalcFreeCellCount_s + 2)
04433   1781 C9          	ret
04434   1782             ; REMOVED
04435   1782             DrawSpriteNew: 
04436   1782             	; Stack correction reset
04437   1782             ; 128  DrawSpriteNew(uint8_t x, uint8_t y, uint8_t color, uint8_t phase) {
04438   1782 32 E8 5E    	ld (DrawSpriteNew_4_a), a
04439   1785             ; 129     DrawSpriteNew1(CellAddress(x, y), color, phase);
04440   1785 3A E5 5E    	ld a, (DrawSpriteNew_1_a)
04441   1788 32 04 5F    	ld (CellAddress_1_a), a
04442   178B 3A E6 5E    	ld a, (DrawSpriteNew_2_a)
04443   178E CD 22 10    	call CellAddress
04444   1791 22 10 5F    	ld (DrawSpriteNew1_1_a), hl
04445   1794 3A E7 5E    	ld a, (DrawSpriteNew_3_a)
04446   1797 32 12 5F    	ld (DrawSpriteNew1_2_a), a
04447   179A 3A E8 5E    	ld a, (DrawSpriteNew_4_a)
04448   179D C3 0B 0C    	jp DrawSpriteNew1
04449   17A0             ; REMOVED
04450   17A0             DrawBall1: 
04451   17A0             	; Stack correction reset
04452   17A0 32 0A 5F    	ld (DrawBall1_3_a), a
04453   17A3 2A 06 5F    	ld hl, (DrawBall1_1_a)
04454   17A6 22 9F 5E    	ld (DrawImage_1_a), hl
04455   17A9 2A 0A 5F    	ld hl, (DrawBall1_3_a)
04456   17AC 26 00       	ld h, 0
04457   17AE 2B          	dec hl
04458   17AF 54          	ld d, h
04459   17B0 5D          	ld e, l
04460   17B1 29          	add hl, hl
04461   17B2 29          	add hl, hl
04462   17B3 19          	add hl, de
04463   17B4 29          	add hl, hl
04464   17B5 29          	add hl, hl
04465   17B6 29          	add hl, hl
04466   17B7 29          	add hl, hl
04467   17B8 29          	add hl, hl
04468   17B9 29          	add hl, hl
04469   17BA 29          	add hl, hl
04470   17BB EB          	ex hl, de
04471   17BC 2A 08 5F    	ld hl, (DrawBall1_2_a)
04472   17BF 19          	add hl, de
04473   17C0 22 A1 5E    	ld (DrawImage_2_a), hl
04474   17C3 21 10 02    	ld hl, 528
04475   17C6 C3 C9 17    	jp DrawImage
04476   17C9             ; REMOVED
04477   17C9             DrawImage: 
04478   17C9             	; Stack correction reset
04479   17C9             ; 20  DrawImage(uint8_t* destination, uint8_t* source, uint16_t width_height) {
04480   17C9 22 A3 5E    	ld (DrawImage_3_a), hl
04481   17CC             
04482   17CC C5                  push bc
04483   17CD 44                  ld b, h
04484   17CE 4D                  ld c, l
04485   17CF C5                  push bc
04486   17D0 2A 9F 5E            ld hl, (DrawImage_1_a)
04487   17D3 E5                  push hl
04488   17D4 EB                  ex hl, de
04489   17D5 2A A1 5E            ld hl, (DrawImage_2_a)
04490   17D8             DrawImage_l1: 
04491   17D8 D5                  push de
04492   17D9 C5                  push bc
04493   17DA             DrawImage_l2: 
04494   17DA 7E                  ld a, (hl)
04495   17DB 23                  inc hl
04496   17DC 12                  ld (de), a
04497   17DD 1B                  dec de
04498   17DE 0D                  dec c
04499   17DF C2 DA 17            jp nz, DrawImage_l2
04500   17E2 C1                  pop bc
04501   17E3 D1                  pop de
04502   17E4 15                  dec d
04503   17E5 05                  dec b
04504   17E6 C2 D8 17            jp nz, DrawImage_l1
04505   17E9 D1                  pop de
04506   17EA 7A                  ld a, d ; Plane 2
04507   17EB D6 40               sub 40h
04508   17ED 57                  ld d, a
04509   17EE C1                  pop bc
04510   17EF             DrawImage_l3: 
04511   17EF D5                  push de
04512   17F0 C5                  push bc
04513   17F1             DrawImage_l4: 
04514   17F1 7E                  ld a, (hl)
04515   17F2 23                  inc hl
04516   17F3 12                  ld (de), a
04517   17F4 1B                  dec de
04518   17F5 0D                  dec c
04519   17F6 C2 F1 17            jp nz, DrawImage_l4
04520   17F9 C1                  pop bc
04521   17FA D1                  pop de
04522   17FB 15                  dec d
04523   17FC 05                  dec b
04524   17FD C2 EF 17            jp nz, DrawImage_l3
04525   1800 C1                  pop bc
04526   1801                 
04527   1801 C9          	ret
04528   1802             FillRectInternal: 
04529   1802             	; Stack correction reset
04530   1802             ; 44  void __fastcall FillRectInternal(uint8_t height, uint8_t mask, uint8_t* graphAddress) {
04531   1802 22 A8 5E    	ld (FillRectInternal_3_a), hl
04532   1805             
04533   1805 E5                  push hl
04534   1806 3A A7 5E            ld a, (FillRectInternal_2_a)
04535   1809             FillRectCmd0: 
04536   1809 00                  nop  // CMA = 2F, NOP = 00
04537   180A 57                  ld d, a
04538   180B 3A A6 5E            ld a, (FillRectInternal_1_a)
04539   180E 5F                  ld e, a
04540   180F             FillRectInternal_0: 
04541   180F 7E                  ld a, (hl)
04542   1810             FillRectCmd1: 
04543   1810 B2                  or d  // XRA D = AA, ANA D = A2, ORA D = B2
04544   1811 77                  ld (hl), a
04545   1812 2D                  dec l
04546   1813 1D                  dec e
04547   1814 C2 0F 18            jp nz, FillRectInternal_0
04548   1817 E1                  pop hl
04549   1818             
04550   1818 7C                  ld a, h
04551   1819 D6 40               sub 40h
04552   181B 67                  ld h, a
04553   181C             
04554   181C 3A A7 5E            ld a, (FillRectInternal_2_a)
04555   181F             FillRectCmd2: 
04556   181F 00                  nop  // CMA = 2F, NOP = 00
04557   1820 57                  ld d, a
04558   1821             
04559   1821 3A A6 5E            ld a, (FillRectInternal_1_a)
04560   1824 5F                  ld e, a
04561   1825             FillRectInternal_1: 
04562   1825 7E                  ld a, (hl)
04563   1826             FillRectCmd3: 
04564   1826 B2                  or d  // XRA D = AA, ANA D = A2, ORA D = B2
04565   1827 77                  ld (hl), a
04566   1828 2D                  dec l
04567   1829 1D                  dec e
04568   182A C2 25 18            jp nz, FillRectInternal_1
04569   182D                 
04570   182D C9          	ret
04571   182E             SetTextColorInternal: 
04572   182E             	; Stack correction reset
04573   182E             ; 23  void SetTextColorInternal(uint8_t plane, uint8_t text, uint8_t background) {
04574   182E 32 B9 5E    	ld (SetTextColorInternal_3_a), a
04575   1831             
04576   1831                     ; Background color
04577   1831 B7                  or a
04578   1832 C2 4D 18            jp nz, PrintColor_2
04579   1835 21 E6 03                ld hl, 003E6h  // E6 = AND
04580   1838 E5                      push hl
04581   1839 26 FC                   ld h, 0FCh
04582   183B E5                      push hl
04583   183C 26 0F                   ld h, 00Fh
04584   183E E5                      push hl
04585   183F 26 F0                   ld h, 0F0h
04586   1841 E5                      push hl
04587   1842 26 3F                   ld h, 03Fh
04588   1844 E5                      push hl
04589   1845 26 C0                   ld h, 0C0h
04590   1847 01 A8 00                ld bc, 000A8h  // NOP + XOR B
04591   184A C3 62 18                jp PrintColor_3
04592   184D             PrintColor_2: 
04593   184D 21 F6 FC                ld hl, 0FCF6h  // F6 = OR
04594   1850 E5                      push hl
04595   1851 26 03                   ld h, 003h
04596   1853 E5                      push hl
04597   1854 26 F0                   ld h, 0F0h
04598   1856 E5                      push hl
04599   1857 26 0F                   ld h, 00Fh
04600   1859 E5                      push hl
04601   185A 26 C0                   ld h, 0C0h
04602   185C E5                      push hl
04603   185D 26 3F                   ld h, 03Fh
04604   185F 01 00 A8                ld bc, 0A800h  // NOP + XOR B
04605   1862             PrintColor_3: 
04606   1862                     ; Text color
04607   1862 3A B8 5E            ld a, (SetTextColorInternal_2_a)
04608   1865 B7                  or a
04609   1866 CA 6A 18            jp z, PrintColor_4
04610   1869 41                      ld b, c
04611   186A             PrintColor_4: 
04612   186A 3A B7 5E            ld a, (SetTextColorInternal_1_a)
04613   186D B7                  or a
04614   186E 78                  ld a, b
04615   186F C2 9E 18            jp nz, PrintColor_5
04616   1872 32 E9 18                ld (print_m1 + 2), a
04617   1875 32 0F 19                ld (print_m3 + 2), a
04618   1878 32 26 19                ld (print_m5 + 2), a
04619   187B 32 49 19                ld (print_m7 + 2), a
04620   187E 32 63 19                ld (print_m9 + 2), a
04621   1881 32 84 19                ld (print_m11 + 2), a
04622   1884 22 82 19                ld (print_m11), hl
04623   1887 E1                      pop hl
04624   1888 22 61 19                ld (print_m9), hl
04625   188B E1                      pop hl
04626   188C 22 47 19                ld (print_m7), hl
04627   188F E1                      pop hl
04628   1890 22 24 19                ld (print_m5), hl
04629   1893 E1                      pop hl
04630   1894 22 0D 19                ld (print_m3), hl
04631   1897 E1                      pop hl
04632   1898 22 E7 18                ld (print_m1), hl
04633   189B C3 C7 18                jp PrintColor_6
04634   189E             PrintColor_5: 
04635   189E 32 F2 18                ld (print_m2 + 2), a
04636   18A1 32 18 19                ld (print_m4 + 2), a
04637   18A4 32 2F 19                ld (print_m6 + 2), a
04638   18A7 32 52 19                ld (print_m8 + 2), a
04639   18AA 32 6C 19                ld (print_m10 + 2), a
04640   18AD 32 8D 19                ld (print_m12 + 2), a
04641   18B0 22 8B 19                ld (print_m12), hl
04642   18B3 E1                      pop hl
04643   18B4 22 6A 19                ld (print_m10), hl
04644   18B7 E1                      pop hl
04645   18B8 22 50 19                ld (print_m8), hl
04646   18BB E1                      pop hl
04647   18BC 22 2D 19                ld (print_m6), hl
04648   18BF E1                      pop hl
04649   18C0 22 16 19                ld (print_m4), hl
04650   18C3 E1                      pop hl
04651   18C4 22 F0 18                ld (print_m2), hl
04652   18C7             PrintColor_6: 
04653   18C7                 
04654   18C7 C9          	ret
04655   18C8             DrawChar: 
04656   18C8             	; Stack correction reset
04657   18C8             ; 24     asm {
04658   18C8             ; 25         ; Background color
04659   18C8             ; 26         or a
04660   18C8             ; 27         jp nz, PrintColor_2
04661   18C8             ; 28             ld hl, 003E6h  // E6 = AND
04662   18C8             ; 29             push hl
04663   18C8             ; 30             ld h, 0FCh
04664   18C8             ; 31             push hl
04665   18C8             ; 32             ld h, 00Fh
04666   18C8             ; 33             push hl
04667   18C8             ; 34             ld h, 0F0h
04668   18C8             ; 35             push hl
04669   18C8             ; 36             ld h, 03Fh
04670   18C8             ; 37             push hl
04671   18C8             ; 38             ld h, 0C0h
04672   18C8             ; 39             ld bc, 000A8h  // NOP + XOR B
04673   18C8             ; 40             jp PrintColor_3
04674   18C8             ; 41 PrintColor_2:
04675   18C8             ; 42             ld hl, 0FCF6h  // F6 = OR
04676   18C8             ; 43             push hl
04677   18C8             ; 44             ld h, 003h
04678   18C8             ; 45             push hl
04679   18C8             ; 46             ld h, 0F0h
04680   18C8             ; 47             push hl
04681   18C8             ; 48             ld h, 00Fh
04682   18C8             ; 49             push hl
04683   18C8             ; 50             ld h, 0C0h
04684   18C8             ; 51             push hl
04685   18C8             ; 52             ld h, 03Fh
04686   18C8             ; 53             ld bc, 0A800h  // NOP + XOR B
04687   18C8             ; 54 PrintColor_3:
04688   18C8             ; 55         ; Text color
04689   18C8             ; 56         ld a, (SetTextColorInternal_2_a)
04690   18C8             ; 57         or a
04691   18C8             ; 58         jp z, PrintColor_4
04692   18C8             ; 59             ld b, c
04693   18C8             ; 60 PrintColor_4:
04694   18C8             ; 61         ld a, (SetTextColorInternal_1_a)
04695   18C8             ; 62         or a
04696   18C8             ; 63         ld a, b
04697   18C8             ; 64         jp nz, PrintColor_5
04698   18C8             ; 65             ld (print_m1 + 2), a
04699   18C8             ; 66             ld (print_m3 + 2), a
04700   18C8             ; 67             ld (print_m5 + 2), a
04701   18C8             ; 68             ld (print_m7 + 2), a
04702   18C8             ; 69             ld (print_m9 + 2), a
04703   18C8             ; 70             ld (print_m11 + 2), a
04704   18C8             ; 71             ld (print_m11), hl
04705   18C8             ; 72             pop hl
04706   18C8             ; 73             ld (print_m9), hl
04707   18C8             ; 74             pop hl
04708   18C8             ; 75             ld (print_m7), hl
04709   18C8             ; 76             pop hl
04710   18C8             ; 77             ld (print_m5), hl
04711   18C8             ; 78             pop hl
04712   18C8             ; 79             ld (print_m3), hl
04713   18C8             ; 80             pop hl
04714   18C8             ; 81             ld (print_m1), hl
04715   18C8             ; 82             jp PrintColor_6
04716   18C8             ; 83 PrintColor_5:
04717   18C8             ; 84             ld (print_m2 + 2), a
04718   18C8             ; 85             ld (print_m4 + 2), a
04719   18C8             ; 86             ld (print_m6 + 2), a
04720   18C8             ; 87             ld (print_m8 + 2), a
04721   18C8             ; 88             ld (print_m10 + 2), a
04722   18C8             ; 89             ld (print_m12 + 2), a
04723   18C8             ; 90             ld (print_m12), hl
04724   18C8             ; 91             pop hl
04725   18C8             ; 92             ld (print_m10), hl
04726   18C8             ; 93             pop hl
04727   18C8             ; 94             ld (print_m8), hl
04728   18C8             ; 95             pop hl
04729   18C8             ; 96             ld (print_m6), hl
04730   18C8             ; 97             pop hl
04731   18C8             ; 98             ld (print_m4), hl
04732   18C8             ; 99             pop hl
04733   18C8             ; 100             ld (print_m2), hl
04734   18C8             ; 101 PrintColor_6:
04735   18C8             ; 102     }
04736   18C8             ; 103 }
04737   18C8             ; 104 
04738   18C8             ; 105 void SetTextColor(uint8_t color) {
04739   18C8             ; 106     if (textColor == color) return;
04740   18C8             ; 107     textColor = color;
04741   18C8             ; 108     SetTextColorInternal(0, color & 1, color & 4);
04742   18C8             ; 109     SetTextColorInternal(1, color & 2, color & 8);
04743   18C8             ; 110 }
04744   18C8             ; 111 
04745   18C8             ; 112 static uint8_t DrawChar(uint8_t offset, const uint8_t* source, uint8_t* destination) {
04746   18C8 22 BE 5E    	ld (DrawChar_3_a), hl
04747   18CB             
04748   18CB C5                  push bc
04749   18CC EB                  ex de, hl
04750   18CD 2A BC 5E            ld hl, (DrawChar_2_a)
04751   18D0 EB                  ex de, hl
04752   18D1 0E 08               ld c, 8
04753   18D3 3A BB 5E            ld a, (DrawChar_1_a)
04754   18D6 3D                  dec a
04755   18D7 CA 02 19            jp z, print_o1
04756   18DA 3D                  dec a
04757   18DB CA 40 19            jp z, print_o2
04758   18DE 3D                  dec a
04759   18DF CA 7D 19            jp z, print_o3
04760   18E2             
04761   18E2                     ; OFFSET 0
04762   18E2             print_o0: 
04763   18E2 1A                  ld a, (de) ; Read
04764   18E3 87                  add a
04765   18E4 87                  add a
04766   18E5 47                  ld b, a
04767   18E6 7E                  ld a, (hl) ; Copy
04768   18E7             print_m1: 
04769   18E7 E6 03               and 3
04770   18E9 A8                  xor b
04771   18EA 77                  ld (hl), a
04772   18EB 7C                  ld a, h ; Plane 2
04773   18EC EE 40               xor 40h
04774   18EE 67                  ld h, a
04775   18EF 7E                  ld a, (hl) ; Copy
04776   18F0             print_m2: 
04777   18F0 E6 03               and 3
04778   18F2 A8                  xor b
04779   18F3 77                  ld (hl), a
04780   18F4 7C                  ld a, h ; Plane 1
04781   18F5 EE 40               xor 40h
04782   18F7 67                  ld h, a
04783   18F8 13                  inc de ; Next
04784   18F9 2D                  dec l
04785   18FA 0D                  dec c
04786   18FB C2 E2 18            jp nz, print_o0
04787   18FE C1                  pop bc
04788   18FF 3E 01               ld a, 1
04789   1901 C9                  ret
04790   1902             
04791   1902                     ; OFFSET 1
04792   1902             print_o1: 
04793   1902 1A                  ld a, (de) ; Read
04794   1903 87                  add a
04795   1904 8F                  adc a
04796   1905 8F                  adc a
04797   1906 8F                  adc a
04798   1907 F5                  push af ; Left side
04799   1908 8F                  adc a
04800   1909 E6 03               and 00000011b
04801   190B 47                  ld b, a
04802   190C 7E                  ld a, (hl) ; Copy
04803   190D             print_m3: 
04804   190D E6 FC               and 0FCh
04805   190F A8                  xor b
04806   1910 77                  ld (hl), a
04807   1911 7C                  ld a, h ; Plane 2
04808   1912 EE 40               xor 40h
04809   1914 67                  ld h, a
04810   1915 7E                  ld a, (hl) ; Copy
04811   1916             print_m4: 
04812   1916 E6 FC               and 0FCh
04813   1918 A8                  xor b
04814   1919 77                  ld (hl), a
04815   191A 7C                  ld a, h ; Plane 1
04816   191B EE 40               xor 40h
04817   191D 67                  ld h, a
04818   191E F1                  pop af ; Right side
04819   191F 25                  dec h
04820   1920 E6 F0               and 011110000b
04821   1922 47                  ld b, a
04822   1923 7E                  ld a, (hl) ; Copy
04823   1924             print_m5: 
04824   1924 E6 0F               and 00Fh
04825   1926 A8                  xor b
04826   1927 77                  ld (hl), a
04827   1928 7C                  ld a, h ; Plane 2
04828   1929 EE 40               xor 40h
04829   192B 67                  ld h, a
04830   192C 7E                  ld a, (hl) ; Copy
04831   192D             print_m6: 
04832   192D E6 0F               and 00Fh
04833   192F A8                  xor b
04834   1930 77                  ld (hl), a
04835   1931 7C                  ld a, h ; Plane 1
04836   1932 EE 40               xor 40h
04837   1934 67                  ld h, a
04838   1935 24                  inc h ; Next
04839   1936 13                  inc de
04840   1937 2D                  dec l
04841   1938 0D                  dec c
04842   1939 C2 02 19            jp nz, print_o1
04843   193C C1                  pop bc
04844   193D 3E 02               ld a, 2
04845   193F C9                  ret
04846   1940             
04847   1940                     ; OFFSET 2
04848   1940             print_o2: 
04849   1940 1A                  ld a, (de) ; Read
04850   1941 1F                  rra
04851   1942 1F                  rra
04852   1943 E6 0F               and 00001111b
04853   1945 47                  ld b, a
04854   1946 7E                  ld a, (hl) ; Copy
04855   1947             print_m7: 
04856   1947 E6 F0               and 0F0h
04857   1949 A8                  xor b
04858   194A 77                  ld (hl), a
04859   194B 7C                  ld a, h ; Plane 2
04860   194C EE 40               xor 40h
04861   194E 67                  ld h, a
04862   194F 7E                  ld a, (hl) ; Copy
04863   1950             print_m8: 
04864   1950 E6 F0               and 0F0h
04865   1952 A8                  xor b
04866   1953 77                  ld (hl), a
04867   1954 7C                  ld a, h ; Plane 1
04868   1955 EE 40               xor 40h
04869   1957 67                  ld h, a
04870   1958 25                  dec h ; Right side
04871   1959 1A                  ld a, (de)
04872   195A 1F                  rra
04873   195B 1F                  rra
04874   195C 1F                  rra
04875   195D E6 C0               and 11000000b
04876   195F 47                  ld b, a
04877   1960 7E                  ld a, (hl)  ; Copy
04878   1961             print_m9: 
04879   1961 E6 3F               and 03Fh
04880   1963 A8                  xor b
04881   1964 77                  ld (hl), a
04882   1965 7C                  ld a, h ; Plane 2
04883   1966 EE 40               xor 40h
04884   1968 67                  ld h, a
04885   1969 7E                  ld a, (hl)  ; Copy
04886   196A             print_m10: 
04887   196A E6 3F               and 03Fh
04888   196C A8                  xor b
04889   196D 77                  ld (hl), a
04890   196E 7C                  ld a, h ; Plane 1
04891   196F EE 40               xor 40h
04892   1971 67                  ld h, a
04893   1972 24                  inc h ; Next
04894   1973 13                  inc de
04895   1974 2D                  dec l
04896   1975 0D                  dec c
04897   1976 C2 40 19            jp nz, print_o2
04898   1979 C1                  pop bc
04899   197A 3E 03               ld a, 3
04900   197C C9                  ret
04901   197D             
04902   197D                     ; OFFSET 3
04903   197D             print_o3: 
04904   197D 1A                  ld a, (de) ; Read
04905   197E E6 3F               and 03Fh
04906   1980 47                  ld b, a
04907   1981 7E                  ld a, (hl) ; Copy
04908   1982             print_m11: 
04909   1982 E6 C0               and 0C0h
04910   1984 A8                  xor b
04911   1985 77                  ld (hl), a
04912   1986 7C                  ld a, h ; Plane 2
04913   1987 EE 40               xor 40h
04914   1989 67                  ld h, a
04915   198A 7E                  ld a, (hl) ; Copy
04916   198B             print_m12: 
04917   198B E6 C0               and 0C0h
04918   198D A8                  xor b
04919   198E 77                  ld (hl), a
04920   198F 7C                  ld a, h ; Plane 1
04921   1990 EE 40               xor 40h
04922   1992 67                  ld h, a
04923   1993 13                  inc de ; Next
04924   1994 2D                  dec l
04925   1995 0D                  dec c
04926   1996 C2 7D 19            jp nz, print_o3
04927   1999 C1                  pop bc
04928   199A AF                  xor a
04929   199B                 
04930   199B C9          	ret
04931   199C             DrawCell1: 
04932   199C             	; Stack correction reset
04933   199C             ; 103  DrawCell1(uint8_t* graphAddr, uint8_t color) {
04934   199C 32 0F 5F    	ld (DrawCell1_2_a), a
04935   199F             ; 104     uint8_t* image;
04936   199F             ; 105     if (color == 0)
04937   199F             ; REMOVED
04938   199F B7          	or a
04939   19A0 C2 AC 19    	jp nz, l_351
04940   19A3             ; 106         image = imgBoard + BALL_IMAGE_SIZEOF * 4;
04941   19A3 21 82 57    	ld hl, (imgBoard) + (256)
04942   19A6 22 96 5F    	ld (DrawCell1_s + 0), hl
04943   19A9 C3 C5 19    	jp l_352
04944   19AC             l_351: 
04945   19AC             ; 107     else
04946   19AC             ; 108         image = imgBalls + (BALL_IMAGE_SIZEOF * 10) * (color - 1);
04947   19AC 2A 0F 5F    	ld hl, (DrawCell1_2_a)
04948   19AF 26 00       	ld h, 0
04949   19B1 2B          	dec hl
04950   19B2 54          	ld d, h
04951   19B3 5D          	ld e, l
04952   19B4 29          	add hl, hl
04953   19B5 29          	add hl, hl
04954   19B6 19          	add hl, de
04955   19B7 29          	add hl, hl
04956   19B8 29          	add hl, hl
04957   19B9 29          	add hl, hl
04958   19BA 29          	add hl, hl
04959   19BB 29          	add hl, hl
04960   19BC 29          	add hl, hl
04961   19BD 29          	add hl, hl
04962   19BE 11 02 45    	ld de, imgBalls
04963   19C1 19          	add hl, de
04964   19C2 22 96 5F    	ld (DrawCell1_s + 0), hl
04965   19C5             l_352: 
04966   19C5             ; 109     DrawImage(graphAddr, image, BALL_IMAGE_WH);
04967   19C5 2A 0D 5F    	ld hl, (DrawCell1_1_a)
04968   19C8 22 9F 5E    	ld (DrawImage_1_a), hl
04969   19CB 2A 96 5F    	ld hl, (DrawCell1_s + 0)
04970   19CE 22 A1 5E    	ld (DrawImage_2_a), hl
04971   19D1 21 10 02    	ld hl, 528
04972   19D4 C3 C9 17    	jp DrawImage
04973   19D7             ; REMOVED
04974   19D7             PathFounded: 
04975   19D7             	; Stack correction reset
04976   19D7             ; 29  uint8_t PathFounded(uint8_t* p) {
04977   19D7 22 FE 5E    	ld (PathFounded_1_a), hl
04978   19DA             ; 30     path_p1 = path_p = p;
04979   19DA             ; REMOVED
04980   19DA 22 E9 5D    	ld (path_p), hl
04981   19DD 22 EB 5D    	ld (path_p1), hl
04982   19E0             ; 31     path_x1 = path_x;
04983   19E0 3A E3 5D    	ld a, (path_x)
04984   19E3 32 EE 5D    	ld (path_x1), a
04985   19E6             ; 32     path_y1 = path_y;
04986   19E6 3A E4 5D    	ld a, (path_y)
04987   19E9 32 EF 5D    	ld (path_y1), a
04988   19EC             ; 33     path_n1 = path_n;
04989   19EC 3A E5 5D    	ld a, (path_n)
04990   19EF 32 ED 5D    	ld (path_n1), a
04991   19F2             ; 34     return 1;
04992   19F2 3E 01       	ld a, 1
04993   19F4 C9          	ret
04994   19F5             ; REMOVED
04995   19F5             DrawHiScoresLastLine: 
04996   19F5             	; Stack correction reset
04997   19F5             ; 327 HISCORE_COUNT - 1, HISCORE_COUNT - 1);
04998   19F5 3E 07       	ld a, 7
04999   19F7 32 25 5F    	ld (DrawHiScoresScreen1_1_a), a
05000   19FA             ; REMOVED
05001   19FA C3 A7 0D    	jp DrawHiScoresScreen1
05002   19FD             ; REMOVED
05003   19FD             DrawHiScoresScreen: 
05004   19FD             	; Stack correction reset
05005   19FD 32 F0 5E    	ld (DrawHiScoresScreen_1_a), a
05006   1A00 AF          	xor a
05007   1A01 32 25 5F    	ld (DrawHiScoresScreen1_1_a), a
05008   1A04 3A F0 5E    	ld a, (DrawHiScoresScreen_1_a)
05009   1A07 C3 A7 0D    	jp DrawHiScoresScreen1
05010   1A0A             ; REMOVED
05011   1A0A             ClearLine: 
05012   1A0A             	; Stack correction reset
05013   1A0A             ; 46  void ClearLine(uint8_t x0, uint8_t y0, uint8_t dx, uint8_t dy, uint8_t length) {
05014   1A0A 32 DD 5E    	ld (ClearLine_5_a), a
05015   1A0D             ; 47     register uint8_t x, y, o, i;
05016   1A0D             ; 48 
05017   1A0D             ; 49     // Анимация исчезновения шариков
05018   1A0D             ; 50     uint8_t color = game[x0][y0];  // TODO: const вызывает сбой
05019   1A0D 2A D9 5E    	ld hl, (ClearLine_1_a)
05020   1A10 26 00       	ld h, 0
05021   1A12 54          	ld d, h
05022   1A13 5D          	ld e, l
05023   1A14 29          	add hl, hl
05024   1A15 29          	add hl, hl
05025   1A16 29          	add hl, hl
05026   1A17 19          	add hl, de
05027   1A18 11 26 5D    	ld de, game
05028   1A1B 19          	add hl, de
05029   1A1C EB          	ex hl, de
05030   1A1D 2A DA 5E    	ld hl, (ClearLine_2_a)
05031   1A20 26 00       	ld h, 0
05032   1A22 19          	add hl, de
05033   1A23 7E          	ld a, (hl)
05034   1A24 32 9C 5F    	ld (ClearLine_s + 4), a
05035   1A27             ; 51     for (o = 0; o < REMOVE_ANIMATION_COUNT; o++) {
05036   1A27 AF          	xor a
05037   1A28 32 9A 5F    	ld (ClearLine_s + 2), a
05038   1A2B             l_353: 
05039   1A2B 3A 9A 5F    	ld a, (ClearLine_s + 2)
05040   1A2E FE 03       	cp 3
05041   1A30 D2 94 1A    	jp nc, l_355
05042   1A33             ; 52         x = x0;
05043   1A33 3A D9 5E    	ld a, (ClearLine_1_a)
05044   1A36 32 98 5F    	ld (ClearLine_s + 0), a
05045   1A39             ; 53         y = y0;
05046   1A39 3A DA 5E    	ld a, (ClearLine_2_a)
05047   1A3C 32 99 5F    	ld (ClearLine_s + 1), a
05048   1A3F             ; 54         for (i = length; i != 0; --i) {
05049   1A3F 3A DD 5E    	ld a, (ClearLine_5_a)
05050   1A42 32 9B 5F    	ld (ClearLine_s + 3), a
05051   1A45             l_356: 
05052   1A45 3A 9B 5F    	ld a, (ClearLine_s + 3)
05053   1A48 B7          	or a
05054   1A49 CA 84 1A    	jp z, l_358
05055   1A4C             ; 55             DrawSpriteRemove(x, y, color, o);
05056   1A4C 3A 98 5F    	ld a, (ClearLine_s + 0)
05057   1A4F 32 DE 5E    	ld (DrawSpriteRemove_1_a), a
05058   1A52 3A 99 5F    	ld a, (ClearLine_s + 1)
05059   1A55 32 DF 5E    	ld (DrawSpriteRemove_2_a), a
05060   1A58 3A 9C 5F    	ld a, (ClearLine_s + 4)
05061   1A5B 32 E0 5E    	ld (DrawSpriteRemove_3_a), a
05062   1A5E 3A 9A 5F    	ld a, (ClearLine_s + 2)
05063   1A61 CD F2 1A    	call DrawSpriteRemove
05064   1A64             ; 56             x += dx;
05065   1A64 3A DB 5E    	ld a, (ClearLine_3_a)
05066   1A67 57          	ld d, a
05067   1A68 3A 98 5F    	ld a, (ClearLine_s + 0)
05068   1A6B 82          	add d
05069   1A6C 32 98 5F    	ld (ClearLine_s + 0), a
05070   1A6F             ; 57             y += dy;
05071   1A6F 3A DC 5E    	ld a, (ClearLine_4_a)
05072   1A72 57          	ld d, a
05073   1A73 3A 99 5F    	ld a, (ClearLine_s + 1)
05074   1A76 82          	add d
05075   1A77 32 99 5F    	ld (ClearLine_s + 1), a
05076   1A7A             l_357: 
05077   1A7A 3A 9B 5F    	ld a, (ClearLine_s + 3)
05078   1A7D 3D          	dec a
05079   1A7E 32 9B 5F    	ld (ClearLine_s + 3), a
05080   1A81 C3 45 1A    	jp l_356
05081   1A84             l_358: 
05082   1A84             ; 58         }
05083   1A84             ; 59         Delay(REMOVE_ANIMATION_DELAY);
05084   1A84             ; 28 ; /* задерка в main */
05085   1A84 21 D0 07    	ld hl, 2000
05086   1A87 CD A2 04    	call Delay
05087   1A8A             l_354: 
05088   1A8A             ; 51 ) {
05089   1A8A 3A 9A 5F    	ld a, (ClearLine_s + 2)
05090   1A8D 3C          	inc a
05091   1A8E 32 9A 5F    	ld (ClearLine_s + 2), a
05092   1A91 C3 2B 1A    	jp l_353
05093   1A94             l_355: 
05094   1A94             ; 52         x = x0;
05095   1A94             ; 53         y = y0;
05096   1A94             ; 54         for (i = length; i != 0; --i) {
05097   1A94             ; 55             DrawSpriteRemove(x, y, color, o);
05098   1A94             ; 56             x += dx;
05099   1A94             ; 57             y += dy;
05100   1A94             ; 58         }
05101   1A94             ; 59         Delay(REMOVE_ANIMATION_DELAY);
05102   1A94             ; 60     }
05103   1A94             ; 61 
05104   1A94             ; 62     // Очищаем экран и массив
05105   1A94             ; 63     x = x0;
05106   1A94 3A D9 5E    	ld a, (ClearLine_1_a)
05107   1A97 32 98 5F    	ld (ClearLine_s + 0), a
05108   1A9A             ; 64     y = y0;
05109   1A9A 3A DA 5E    	ld a, (ClearLine_2_a)
05110   1A9D 32 99 5F    	ld (ClearLine_s + 1), a
05111   1AA0             ; 65     for (i = length; i != 0; --i) {
05112   1AA0 3A DD 5E    	ld a, (ClearLine_5_a)
05113   1AA3 32 9B 5F    	ld (ClearLine_s + 3), a
05114   1AA6             l_359: 
05115   1AA6 3A 9B 5F    	ld a, (ClearLine_s + 3)
05116   1AA9 B7          	or a
05117   1AAA CA F1 1A    	jp z, l_361
05118   1AAD             ; 66         game[x][y] = 0;
05119   1AAD 2A 98 5F    	ld hl, (ClearLine_s + 0)
05120   1AB0 26 00       	ld h, 0
05121   1AB2 54          	ld d, h
05122   1AB3 5D          	ld e, l
05123   1AB4 29          	add hl, hl
05124   1AB5 29          	add hl, hl
05125   1AB6 29          	add hl, hl
05126   1AB7 19          	add hl, de
05127   1AB8 11 26 5D    	ld de, game
05128   1ABB 19          	add hl, de
05129   1ABC EB          	ex hl, de
05130   1ABD 2A 99 5F    	ld hl, (ClearLine_s + 1)
05131   1AC0 26 00       	ld h, 0
05132   1AC2 19          	add hl, de
05133   1AC3 36 00       	ld (hl), 0
05134   1AC5             ; 67         DrawEmptyCell(x, y);
05135   1AC5 3A 98 5F    	ld a, (ClearLine_s + 0)
05136   1AC8 32 E2 5E    	ld (DrawEmptyCell_1_a), a
05137   1ACB 3A 99 5F    	ld a, (ClearLine_s + 1)
05138   1ACE CD D8 12    	call DrawEmptyCell
05139   1AD1             ; 68         x += dx;
05140   1AD1 3A DB 5E    	ld a, (ClearLine_3_a)
05141   1AD4 57          	ld d, a
05142   1AD5 3A 98 5F    	ld a, (ClearLine_s + 0)
05143   1AD8 82          	add d
05144   1AD9 32 98 5F    	ld (ClearLine_s + 0), a
05145   1ADC             ; 69         y += dy;
05146   1ADC 3A DC 5E    	ld a, (ClearLine_4_a)
05147   1ADF 57          	ld d, a
05148   1AE0 3A 99 5F    	ld a, (ClearLine_s + 1)
05149   1AE3 82          	add d
05150   1AE4 32 99 5F    	ld (ClearLine_s + 1), a
05151   1AE7             l_360: 
05152   1AE7 3A 9B 5F    	ld a, (ClearLine_s + 3)
05153   1AEA 3D          	dec a
05154   1AEB 32 9B 5F    	ld (ClearLine_s + 3), a
05155   1AEE C3 A6 1A    	jp l_359
05156   1AF1             l_361: 
05157   1AF1 C9          	ret
05158   1AF2             DrawSpriteRemove: 
05159   1AF2             	; Stack correction reset
05160   1AF2             ; 119  DrawSpriteRemove(uint8_t x, uint8_t y, uint8_t c, uint8_t n) {
05161   1AF2 32 E1 5E    	ld (DrawSpriteRemove_4_a), a
05162   1AF5             ; 120     DrawImage(CellAddress(x, y), removeAnimationImages[n] + (BALL_IMAGE_SIZEOF * 10) * (c - 1), BALL_IMAGE_WH);
05163   1AF5 3A DE 5E    	ld a, (DrawSpriteRemove_1_a)
05164   1AF8 32 04 5F    	ld (CellAddress_1_a), a
05165   1AFB 3A DF 5E    	ld a, (DrawSpriteRemove_2_a)
05166   1AFE CD 22 10    	call CellAddress
05167   1B01 22 9F 5E    	ld (DrawImage_1_a), hl
05168   1B04 2A E0 5E    	ld hl, (DrawSpriteRemove_3_a)
05169   1B07 26 00       	ld h, 0
05170   1B09 2B          	dec hl
05171   1B0A 54          	ld d, h
05172   1B0B 5D          	ld e, l
05173   1B0C 29          	add hl, hl
05174   1B0D 29          	add hl, hl
05175   1B0E 19          	add hl, de
05176   1B0F 29          	add hl, hl
05177   1B10 29          	add hl, hl
05178   1B11 29          	add hl, hl
05179   1B12 29          	add hl, hl
05180   1B13 29          	add hl, hl
05181   1B14 29          	add hl, hl
05182   1B15 29          	add hl, hl
05183   1B16 E5          	push hl
05184   1B17 2A E1 5E    	ld hl, (DrawSpriteRemove_4_a)
05185   1B1A 26 00       	ld h, 0
05186   1B1C 29          	add hl, hl
05187   1B1D 11 7B 5E    	ld de, removeAnimationImages
05188   1B20 19          	add hl, de
05189   1B21 5E          	ld e, (hl)
05190   1B22 23          	inc hl
05191   1B23 56          	ld d, (hl)
05192   1B24 EB          	ex hl, de
05193   1B25 D1          	pop de
05194   1B26 19          	add hl, de
05195   1B27 22 A1 5E    	ld (DrawImage_2_a), hl
05196   1B2A 21 10 02    	ld hl, 528
05197   1B2D C3 C9 17    	jp DrawImage
05198   1B30             ; REMOVED
05199   1B30             font_bin: 
05200   1B30 00          	db 0
05201   1B31 00          	db 0
05202   1B32 00          	db 0
05203   1B33 00          	db 0
05204   1B34 00          	db 0
05205   1B35 00          	db 0
05206   1B36 00          	db 0
05207   1B37 00          	db 0
05208   1B38 00          	db 0
05209   1B39 1E          	db 30
05210   1B3A 21          	db 33
05211   1B3B 33          	db 51
05212   1B3C 21          	db 33
05213   1B3D 2D          	db 45
05214   1B3E 21          	db 33
05215   1B3F 1E          	db 30
05216   1B40 00          	db 0
05217   1B41 1E          	db 30
05218   1B42 3F          	db 63
05219   1B43 2D          	db 45
05220   1B44 3F          	db 63
05221   1B45 33          	db 51
05222   1B46 3F          	db 63
05223   1B47 1E          	db 30
05224   1B48 00          	db 0
05225   1B49 00          	db 0
05226   1B4A 00          	db 0
05227   1B4B 0A          	db 10
05228   1B4C 1F          	db 31
05229   1B4D 1F          	db 31
05230   1B4E 0E          	db 14
05231   1B4F 04          	db 4
05232   1B50 00          	db 0
05233   1B51 00          	db 0
05234   1B52 00          	db 0
05235   1B53 04          	db 4
05236   1B54 0E          	db 14
05237   1B55 1F          	db 31
05238   1B56 0E          	db 14
05239   1B57 04          	db 4
05240   1B58 00          	db 0
05241   1B59 00          	db 0
05242   1B5A 00          	db 0
05243   1B5B 04          	db 4
05244   1B5C 0E          	db 14
05245   1B5D 1F          	db 31
05246   1B5E 04          	db 4
05247   1B5F 0E          	db 14
05248   1B60 00          	db 0
05249   1B61 00          	db 0
05250   1B62 00          	db 0
05251   1B63 04          	db 4
05252   1B64 0E          	db 14
05253   1B65 1F          	db 31
05254   1B66 0E          	db 14
05255   1B67 1F          	db 31
05256   1B68 00          	db 0
05257   1B69 00          	db 0
05258   1B6A 0C          	db 12
05259   1B6B 1E          	db 30
05260   1B6C 1E          	db 30
05261   1B6D 0C          	db 12
05262   1B6E 00          	db 0
05263   1B6F 00          	db 0
05264   1B70 3F          	db 63
05265   1B71 3F          	db 63
05266   1B72 33          	db 51
05267   1B73 21          	db 33
05268   1B74 21          	db 33
05269   1B75 33          	db 51
05270   1B76 3F          	db 63
05271   1B77 3F          	db 63
05272   1B78 00          	db 0
05273   1B79 00          	db 0
05274   1B7A 0C          	db 12
05275   1B7B 12          	db 18
05276   1B7C 12          	db 18
05277   1B7D 0C          	db 12
05278   1B7E 00          	db 0
05279   1B7F 00          	db 0
05280   1B80 3F          	db 63
05281   1B81 3F          	db 63
05282   1B82 33          	db 51
05283   1B83 2D          	db 45
05284   1B84 2D          	db 45
05285   1B85 33          	db 51
05286   1B86 3F          	db 63
05287   1B87 3F          	db 63
05288   1B88 00          	db 0
05289   1B89 00          	db 0
05290   1B8A 07          	db 7
05291   1B8B 03          	db 3
05292   1B8C 1D          	db 29
05293   1B8D 24          	db 36
05294   1B8E 24          	db 36
05295   1B8F 18          	db 24
05296   1B90 00          	db 0
05297   1B91 0E          	db 14
05298   1B92 11          	db 17
05299   1B93 11          	db 17
05300   1B94 0E          	db 14
05301   1B95 04          	db 4
05302   1B96 1F          	db 31
05303   1B97 04          	db 4
05304   1B98 00          	db 0
05305   1B99 1E          	db 30
05306   1B9A 12          	db 18
05307   1B9B 1E          	db 30
05308   1B9C 10          	db 16
05309   1B9D 10          	db 16
05310   1B9E 30          	db 48
05311   1B9F 30          	db 48
05312   1BA0 00          	db 0
05313   1BA1 1F          	db 31
05314   1BA2 11          	db 17
05315   1BA3 1F          	db 31
05316   1BA4 11          	db 17
05317   1BA5 11          	db 17
05318   1BA6 33          	db 51
05319   1BA7 33          	db 51
05320   1BA8 0C          	db 12
05321   1BA9 2D          	db 45
05322   1BAA 0C          	db 12
05323   1BAB 33          	db 51
05324   1BAC 33          	db 51
05325   1BAD 0C          	db 12
05326   1BAE 2D          	db 45
05327   1BAF 0C          	db 12
05328   1BB0 00          	db 0
05329   1BB1 30          	db 48
05330   1BB2 3C          	db 60
05331   1BB3 3F          	db 63
05332   1BB4 3F          	db 63
05333   1BB5 3C          	db 60
05334   1BB6 30          	db 48
05335   1BB7 00          	db 0
05336   1BB8 00          	db 0
05337   1BB9 03          	db 3
05338   1BBA 0F          	db 15
05339   1BBB 3F          	db 63
05340   1BBC 3F          	db 63
05341   1BBD 0F          	db 15
05342   1BBE 03          	db 3
05343   1BBF 00          	db 0
05344   1BC0 04          	db 4
05345   1BC1 0E          	db 14
05346   1BC2 1F          	db 31
05347   1BC3 04          	db 4
05348   1BC4 1F          	db 31
05349   1BC5 0E          	db 14
05350   1BC6 04          	db 4
05351   1BC7 00          	db 0
05352   1BC8 0A          	db 10
05353   1BC9 0A          	db 10
05354   1BCA 0A          	db 10
05355   1BCB 0A          	db 10
05356   1BCC 0A          	db 10
05357   1BCD 00          	db 0
05358   1BCE 0A          	db 10
05359   1BCF 00          	db 0
05360   1BD0 00          	db 0
05361   1BD1 1F          	db 31
05362   1BD2 29          	db 41
05363   1BD3 19          	db 25
05364   1BD4 09          	db 9
05365   1BD5 09          	db 9
05366   1BD6 09          	db 9
05367   1BD7 00          	db 0
05368   1BD8 0E          	db 14
05369   1BD9 10          	db 16
05370   1BDA 0C          	db 12
05371   1BDB 12          	db 18
05372   1BDC 12          	db 18
05373   1BDD 0C          	db 12
05374   1BDE 02          	db 2
05375   1BDF 1C          	db 28
05376   1BE0 00          	db 0
05377   1BE1 00          	db 0
05378   1BE2 00          	db 0
05379   1BE3 00          	db 0
05380   1BE4 00          	db 0
05381   1BE5 1F          	db 31
05382   1BE6 1F          	db 31
05383   1BE7 00          	db 0
05384   1BE8 04          	db 4
05385   1BE9 0E          	db 14
05386   1BEA 1F          	db 31
05387   1BEB 04          	db 4
05388   1BEC 1F          	db 31
05389   1BED 0E          	db 14
05390   1BEE 04          	db 4
05391   1BEF 1F          	db 31
05392   1BF0 04          	db 4
05393   1BF1 0E          	db 14
05394   1BF2 1F          	db 31
05395   1BF3 04          	db 4
05396   1BF4 04          	db 4
05397   1BF5 04          	db 4
05398   1BF6 04          	db 4
05399   1BF7 00          	db 0
05400   1BF8 04          	db 4
05401   1BF9 04          	db 4
05402   1BFA 04          	db 4
05403   1BFB 04          	db 4
05404   1BFC 1F          	db 31
05405   1BFD 0E          	db 14
05406   1BFE 04          	db 4
05407   1BFF 00          	db 0
05408   1C00 00          	db 0
05409   1C01 04          	db 4
05410   1C02 02          	db 2
05411   1C03 1F          	db 31
05412   1C04 02          	db 2
05413   1C05 04          	db 4
05414   1C06 00          	db 0
05415   1C07 00          	db 0
05416   1C08 00          	db 0
05417   1C09 04          	db 4
05418   1C0A 08          	db 8
05419   1C0B 1F          	db 31
05420   1C0C 08          	db 8
05421   1C0D 04          	db 4
05422   1C0E 00          	db 0
05423   1C0F 00          	db 0
05424   1C10 00          	db 0
05425   1C11 00          	db 0
05426   1C12 00          	db 0
05427   1C13 00          	db 0
05428   1C14 10          	db 16
05429   1C15 10          	db 16
05430   1C16 1F          	db 31
05431   1C17 00          	db 0
05432   1C18 00          	db 0
05433   1C19 12          	db 18
05434   1C1A 33          	db 51
05435   1C1B 3F          	db 63
05436   1C1C 3F          	db 63
05437   1C1D 33          	db 51
05438   1C1E 12          	db 18
05439   1C1F 00          	db 0
05440   1C20 00          	db 0
05441   1C21 0C          	db 12
05442   1C22 1E          	db 30
05443   1C23 3F          	db 63
05444   1C24 3F          	db 63
05445   1C25 00          	db 0
05446   1C26 00          	db 0
05447   1C27 00          	db 0
05448   1C28 00          	db 0
05449   1C29 00          	db 0
05450   1C2A 00          	db 0
05451   1C2B 3F          	db 63
05452   1C2C 3F          	db 63
05453   1C2D 1E          	db 30
05454   1C2E 0C          	db 12
05455   1C2F 00          	db 0
05456   1C30 00          	db 0
05457   1C31 00          	db 0
05458   1C32 00          	db 0
05459   1C33 00          	db 0
05460   1C34 00          	db 0
05461   1C35 00          	db 0
05462   1C36 00          	db 0
05463   1C37 00          	db 0
05464   1C38 04          	db 4
05465   1C39 04          	db 4
05466   1C3A 04          	db 4
05467   1C3B 04          	db 4
05468   1C3C 04          	db 4
05469   1C3D 00          	db 0
05470   1C3E 04          	db 4
05471   1C3F 00          	db 0
05472   1C40 0A          	db 10
05473   1C41 0A          	db 10
05474   1C42 0A          	db 10
05475   1C43 00          	db 0
05476   1C44 00          	db 0
05477   1C45 00          	db 0
05478   1C46 00          	db 0
05479   1C47 00          	db 0
05480   1C48 0A          	db 10
05481   1C49 0A          	db 10
05482   1C4A 1F          	db 31
05483   1C4B 0A          	db 10
05484   1C4C 1F          	db 31
05485   1C4D 0A          	db 10
05486   1C4E 0A          	db 10
05487   1C4F 00          	db 0
05488   1C50 04          	db 4
05489   1C51 0F          	db 15
05490   1C52 14          	db 20
05491   1C53 0E          	db 14
05492   1C54 05          	db 5
05493   1C55 1E          	db 30
05494   1C56 04          	db 4
05495   1C57 00          	db 0
05496   1C58 18          	db 24
05497   1C59 19          	db 25
05498   1C5A 02          	db 2
05499   1C5B 04          	db 4
05500   1C5C 08          	db 8
05501   1C5D 13          	db 19
05502   1C5E 03          	db 3
05503   1C5F 00          	db 0
05504   1C60 04          	db 4
05505   1C61 0A          	db 10
05506   1C62 0A          	db 10
05507   1C63 0C          	db 12
05508   1C64 15          	db 21
05509   1C65 12          	db 18
05510   1C66 0D          	db 13
05511   1C67 00          	db 0
05512   1C68 06          	db 6
05513   1C69 06          	db 6
05514   1C6A 02          	db 2
05515   1C6B 04          	db 4
05516   1C6C 00          	db 0
05517   1C6D 00          	db 0
05518   1C6E 00          	db 0
05519   1C6F 00          	db 0
05520   1C70 02          	db 2
05521   1C71 04          	db 4
05522   1C72 08          	db 8
05523   1C73 08          	db 8
05524   1C74 08          	db 8
05525   1C75 04          	db 4
05526   1C76 02          	db 2
05527   1C77 00          	db 0
05528   1C78 08          	db 8
05529   1C79 04          	db 4
05530   1C7A 02          	db 2
05531   1C7B 02          	db 2
05532   1C7C 02          	db 2
05533   1C7D 04          	db 4
05534   1C7E 08          	db 8
05535   1C7F 00          	db 0
05536   1C80 00          	db 0
05537   1C81 04          	db 4
05538   1C82 15          	db 21
05539   1C83 0E          	db 14
05540   1C84 15          	db 21
05541   1C85 04          	db 4
05542   1C86 00          	db 0
05543   1C87 00          	db 0
05544   1C88 00          	db 0
05545   1C89 04          	db 4
05546   1C8A 04          	db 4
05547   1C8B 1F          	db 31
05548   1C8C 04          	db 4
05549   1C8D 04          	db 4
05550   1C8E 00          	db 0
05551   1C8F 00          	db 0
05552   1C90 00          	db 0
05553   1C91 00          	db 0
05554   1C92 00          	db 0
05555   1C93 00          	db 0
05556   1C94 00          	db 0
05557   1C95 0C          	db 12
05558   1C96 04          	db 4
05559   1C97 08          	db 8
05560   1C98 00          	db 0
05561   1C99 00          	db 0
05562   1C9A 00          	db 0
05563   1C9B 1F          	db 31
05564   1C9C 00          	db 0
05565   1C9D 00          	db 0
05566   1C9E 00          	db 0
05567   1C9F 00          	db 0
05568   1CA0 00          	db 0
05569   1CA1 00          	db 0
05570   1CA2 00          	db 0
05571   1CA3 00          	db 0
05572   1CA4 00          	db 0
05573   1CA5 0C          	db 12
05574   1CA6 0C          	db 12
05575   1CA7 00          	db 0
05576   1CA8 00          	db 0
05577   1CA9 01          	db 1
05578   1CAA 02          	db 2
05579   1CAB 04          	db 4
05580   1CAC 08          	db 8
05581   1CAD 10          	db 16
05582   1CAE 00          	db 0
05583   1CAF 00          	db 0
05584   1CB0 0E          	db 14
05585   1CB1 11          	db 17
05586   1CB2 13          	db 19
05587   1CB3 15          	db 21
05588   1CB4 19          	db 25
05589   1CB5 11          	db 17
05590   1CB6 0E          	db 14
05591   1CB7 00          	db 0
05592   1CB8 04          	db 4
05593   1CB9 0C          	db 12
05594   1CBA 04          	db 4
05595   1CBB 04          	db 4
05596   1CBC 04          	db 4
05597   1CBD 04          	db 4
05598   1CBE 0E          	db 14
05599   1CBF 00          	db 0
05600   1CC0 0E          	db 14
05601   1CC1 11          	db 17
05602   1CC2 01          	db 1
05603   1CC3 06          	db 6
05604   1CC4 08          	db 8
05605   1CC5 10          	db 16
05606   1CC6 1F          	db 31
05607   1CC7 00          	db 0
05608   1CC8 1F          	db 31
05609   1CC9 01          	db 1
05610   1CCA 02          	db 2
05611   1CCB 06          	db 6
05612   1CCC 01          	db 1
05613   1CCD 11          	db 17
05614   1CCE 0E          	db 14
05615   1CCF 00          	db 0
05616   1CD0 02          	db 2
05617   1CD1 06          	db 6
05618   1CD2 0A          	db 10
05619   1CD3 12          	db 18
05620   1CD4 1F          	db 31
05621   1CD5 02          	db 2
05622   1CD6 02          	db 2
05623   1CD7 00          	db 0
05624   1CD8 1F          	db 31
05625   1CD9 10          	db 16
05626   1CDA 1E          	db 30
05627   1CDB 01          	db 1
05628   1CDC 01          	db 1
05629   1CDD 11          	db 17
05630   1CDE 0E          	db 14
05631   1CDF 00          	db 0
05632   1CE0 0E          	db 14
05633   1CE1 10          	db 16
05634   1CE2 10          	db 16
05635   1CE3 1E          	db 30
05636   1CE4 11          	db 17
05637   1CE5 11          	db 17
05638   1CE6 0E          	db 14
05639   1CE7 00          	db 0
05640   1CE8 1F          	db 31
05641   1CE9 01          	db 1
05642   1CEA 02          	db 2
05643   1CEB 04          	db 4
05644   1CEC 08          	db 8
05645   1CED 08          	db 8
05646   1CEE 08          	db 8
05647   1CEF 00          	db 0
05648   1CF0 0E          	db 14
05649   1CF1 11          	db 17
05650   1CF2 11          	db 17
05651   1CF3 0E          	db 14
05652   1CF4 11          	db 17
05653   1CF5 11          	db 17
05654   1CF6 0E          	db 14
05655   1CF7 00          	db 0
05656   1CF8 0E          	db 14
05657   1CF9 11          	db 17
05658   1CFA 11          	db 17
05659   1CFB 0F          	db 15
05660   1CFC 01          	db 1
05661   1CFD 01          	db 1
05662   1CFE 0E          	db 14
05663   1CFF 00          	db 0
05664   1D00 00          	db 0
05665   1D01 0C          	db 12
05666   1D02 0C          	db 12
05667   1D03 00          	db 0
05668   1D04 00          	db 0
05669   1D05 0C          	db 12
05670   1D06 0C          	db 12
05671   1D07 00          	db 0
05672   1D08 00          	db 0
05673   1D09 0C          	db 12
05674   1D0A 0C          	db 12
05675   1D0B 00          	db 0
05676   1D0C 00          	db 0
05677   1D0D 0C          	db 12
05678   1D0E 04          	db 4
05679   1D0F 08          	db 8
05680   1D10 02          	db 2
05681   1D11 04          	db 4
05682   1D12 08          	db 8
05683   1D13 10          	db 16
05684   1D14 08          	db 8
05685   1D15 04          	db 4
05686   1D16 02          	db 2
05687   1D17 00          	db 0
05688   1D18 00          	db 0
05689   1D19 00          	db 0
05690   1D1A 1F          	db 31
05691   1D1B 00          	db 0
05692   1D1C 1F          	db 31
05693   1D1D 00          	db 0
05694   1D1E 00          	db 0
05695   1D1F 00          	db 0
05696   1D20 08          	db 8
05697   1D21 04          	db 4
05698   1D22 02          	db 2
05699   1D23 01          	db 1
05700   1D24 02          	db 2
05701   1D25 04          	db 4
05702   1D26 08          	db 8
05703   1D27 00          	db 0
05704   1D28 0E          	db 14
05705   1D29 11          	db 17
05706   1D2A 01          	db 1
05707   1D2B 02          	db 2
05708   1D2C 04          	db 4
05709   1D2D 00          	db 0
05710   1D2E 04          	db 4
05711   1D2F 00          	db 0
05712   1D30 0E          	db 14
05713   1D31 11          	db 17
05714   1D32 13          	db 19
05715   1D33 15          	db 21
05716   1D34 17          	db 23
05717   1D35 10          	db 16
05718   1D36 0E          	db 14
05719   1D37 00          	db 0
05720   1D38 0E          	db 14
05721   1D39 11          	db 17
05722   1D3A 11          	db 17
05723   1D3B 11          	db 17
05724   1D3C 1F          	db 31
05725   1D3D 11          	db 17
05726   1D3E 11          	db 17
05727   1D3F 00          	db 0
05728   1D40 1E          	db 30
05729   1D41 11          	db 17
05730   1D42 11          	db 17
05731   1D43 1E          	db 30
05732   1D44 11          	db 17
05733   1D45 11          	db 17
05734   1D46 1E          	db 30
05735   1D47 00          	db 0
05736   1D48 0E          	db 14
05737   1D49 11          	db 17
05738   1D4A 10          	db 16
05739   1D4B 10          	db 16
05740   1D4C 10          	db 16
05741   1D4D 11          	db 17
05742   1D4E 0E          	db 14
05743   1D4F 00          	db 0
05744   1D50 1E          	db 30
05745   1D51 09          	db 9
05746   1D52 09          	db 9
05747   1D53 09          	db 9
05748   1D54 09          	db 9
05749   1D55 09          	db 9
05750   1D56 1E          	db 30
05751   1D57 00          	db 0
05752   1D58 1F          	db 31
05753   1D59 10          	db 16
05754   1D5A 10          	db 16
05755   1D5B 1E          	db 30
05756   1D5C 10          	db 16
05757   1D5D 10          	db 16
05758   1D5E 1F          	db 31
05759   1D5F 00          	db 0
05760   1D60 1F          	db 31
05761   1D61 10          	db 16
05762   1D62 10          	db 16
05763   1D63 1E          	db 30
05764   1D64 10          	db 16
05765   1D65 10          	db 16
05766   1D66 10          	db 16
05767   1D67 00          	db 0
05768   1D68 0E          	db 14
05769   1D69 11          	db 17
05770   1D6A 10          	db 16
05771   1D6B 10          	db 16
05772   1D6C 13          	db 19
05773   1D6D 11          	db 17
05774   1D6E 0F          	db 15
05775   1D6F 00          	db 0
05776   1D70 11          	db 17
05777   1D71 11          	db 17
05778   1D72 11          	db 17
05779   1D73 1F          	db 31
05780   1D74 11          	db 17
05781   1D75 11          	db 17
05782   1D76 11          	db 17
05783   1D77 00          	db 0
05784   1D78 0E          	db 14
05785   1D79 04          	db 4
05786   1D7A 04          	db 4
05787   1D7B 04          	db 4
05788   1D7C 04          	db 4
05789   1D7D 04          	db 4
05790   1D7E 0E          	db 14
05791   1D7F 00          	db 0
05792   1D80 01          	db 1
05793   1D81 01          	db 1
05794   1D82 01          	db 1
05795   1D83 01          	db 1
05796   1D84 11          	db 17
05797   1D85 11          	db 17
05798   1D86 0E          	db 14
05799   1D87 00          	db 0
05800   1D88 11          	db 17
05801   1D89 12          	db 18
05802   1D8A 14          	db 20
05803   1D8B 18          	db 24
05804   1D8C 14          	db 20
05805   1D8D 12          	db 18
05806   1D8E 11          	db 17
05807   1D8F 00          	db 0
05808   1D90 10          	db 16
05809   1D91 10          	db 16
05810   1D92 10          	db 16
05811   1D93 10          	db 16
05812   1D94 10          	db 16
05813   1D95 10          	db 16
05814   1D96 1F          	db 31
05815   1D97 00          	db 0
05816   1D98 11          	db 17
05817   1D99 1B          	db 27
05818   1D9A 15          	db 21
05819   1D9B 15          	db 21
05820   1D9C 11          	db 17
05821   1D9D 11          	db 17
05822   1D9E 11          	db 17
05823   1D9F 00          	db 0
05824   1DA0 11          	db 17
05825   1DA1 11          	db 17
05826   1DA2 19          	db 25
05827   1DA3 15          	db 21
05828   1DA4 13          	db 19
05829   1DA5 11          	db 17
05830   1DA6 11          	db 17
05831   1DA7 00          	db 0
05832   1DA8 0E          	db 14
05833   1DA9 11          	db 17
05834   1DAA 11          	db 17
05835   1DAB 11          	db 17
05836   1DAC 11          	db 17
05837   1DAD 11          	db 17
05838   1DAE 0E          	db 14
05839   1DAF 00          	db 0
05840   1DB0 1E          	db 30
05841   1DB1 11          	db 17
05842   1DB2 11          	db 17
05843   1DB3 1E          	db 30
05844   1DB4 10          	db 16
05845   1DB5 10          	db 16
05846   1DB6 10          	db 16
05847   1DB7 00          	db 0
05848   1DB8 0E          	db 14
05849   1DB9 11          	db 17
05850   1DBA 11          	db 17
05851   1DBB 11          	db 17
05852   1DBC 15          	db 21
05853   1DBD 12          	db 18
05854   1DBE 0D          	db 13
05855   1DBF 00          	db 0
05856   1DC0 1E          	db 30
05857   1DC1 11          	db 17
05858   1DC2 11          	db 17
05859   1DC3 1E          	db 30
05860   1DC4 14          	db 20
05861   1DC5 12          	db 18
05862   1DC6 11          	db 17
05863   1DC7 00          	db 0
05864   1DC8 0E          	db 14
05865   1DC9 11          	db 17
05866   1DCA 10          	db 16
05867   1DCB 0E          	db 14
05868   1DCC 01          	db 1
05869   1DCD 11          	db 17
05870   1DCE 0E          	db 14
05871   1DCF 00          	db 0
05872   1DD0 1F          	db 31
05873   1DD1 04          	db 4
05874   1DD2 04          	db 4
05875   1DD3 04          	db 4
05876   1DD4 04          	db 4
05877   1DD5 04          	db 4
05878   1DD6 04          	db 4
05879   1DD7 00          	db 0
05880   1DD8 11          	db 17
05881   1DD9 11          	db 17
05882   1DDA 11          	db 17
05883   1DDB 11          	db 17
05884   1DDC 11          	db 17
05885   1DDD 11          	db 17
05886   1DDE 0E          	db 14
05887   1DDF 00          	db 0
05888   1DE0 11          	db 17
05889   1DE1 11          	db 17
05890   1DE2 11          	db 17
05891   1DE3 0A          	db 10
05892   1DE4 0A          	db 10
05893   1DE5 04          	db 4
05894   1DE6 04          	db 4
05895   1DE7 00          	db 0
05896   1DE8 11          	db 17
05897   1DE9 11          	db 17
05898   1DEA 11          	db 17
05899   1DEB 15          	db 21
05900   1DEC 15          	db 21
05901   1DED 15          	db 21
05902   1DEE 0A          	db 10
05903   1DEF 00          	db 0
05904   1DF0 11          	db 17
05905   1DF1 11          	db 17
05906   1DF2 0A          	db 10
05907   1DF3 04          	db 4
05908   1DF4 0A          	db 10
05909   1DF5 11          	db 17
05910   1DF6 11          	db 17
05911   1DF7 00          	db 0
05912   1DF8 11          	db 17
05913   1DF9 11          	db 17
05914   1DFA 0A          	db 10
05915   1DFB 04          	db 4
05916   1DFC 04          	db 4
05917   1DFD 04          	db 4
05918   1DFE 04          	db 4
05919   1DFF 00          	db 0
05920   1E00 1F          	db 31
05921   1E01 01          	db 1
05922   1E02 02          	db 2
05923   1E03 04          	db 4
05924   1E04 08          	db 8
05925   1E05 10          	db 16
05926   1E06 1F          	db 31
05927   1E07 00          	db 0
05928   1E08 0E          	db 14
05929   1E09 08          	db 8
05930   1E0A 08          	db 8
05931   1E0B 08          	db 8
05932   1E0C 08          	db 8
05933   1E0D 08          	db 8
05934   1E0E 0E          	db 14
05935   1E0F 00          	db 0
05936   1E10 00          	db 0
05937   1E11 10          	db 16
05938   1E12 08          	db 8
05939   1E13 04          	db 4
05940   1E14 02          	db 2
05941   1E15 01          	db 1
05942   1E16 00          	db 0
05943   1E17 00          	db 0
05944   1E18 0E          	db 14
05945   1E19 02          	db 2
05946   1E1A 02          	db 2
05947   1E1B 02          	db 2
05948   1E1C 02          	db 2
05949   1E1D 02          	db 2
05950   1E1E 0E          	db 14
05951   1E1F 00          	db 0
05952   1E20 04          	db 4
05953   1E21 0A          	db 10
05954   1E22 11          	db 17
05955   1E23 00          	db 0
05956   1E24 00          	db 0
05957   1E25 00          	db 0
05958   1E26 00          	db 0
05959   1E27 00          	db 0
05960   1E28 00          	db 0
05961   1E29 00          	db 0
05962   1E2A 00          	db 0
05963   1E2B 00          	db 0
05964   1E2C 00          	db 0
05965   1E2D 00          	db 0
05966   1E2E 00          	db 0
05967   1E2F 1F          	db 31
05968   1E30 18          	db 24
05969   1E31 18          	db 24
05970   1E32 10          	db 16
05971   1E33 08          	db 8
05972   1E34 00          	db 0
05973   1E35 00          	db 0
05974   1E36 00          	db 0
05975   1E37 00          	db 0
05976   1E38 00          	db 0
05977   1E39 00          	db 0
05978   1E3A 0E          	db 14
05979   1E3B 01          	db 1
05980   1E3C 0F          	db 15
05981   1E3D 11          	db 17
05982   1E3E 0F          	db 15
05983   1E3F 00          	db 0
05984   1E40 00          	db 0
05985   1E41 10          	db 16
05986   1E42 1E          	db 30
05987   1E43 11          	db 17
05988   1E44 11          	db 17
05989   1E45 11          	db 17
05990   1E46 1E          	db 30
05991   1E47 00          	db 0
05992   1E48 00          	db 0
05993   1E49 00          	db 0
05994   1E4A 0F          	db 15
05995   1E4B 10          	db 16
05996   1E4C 10          	db 16
05997   1E4D 10          	db 16
05998   1E4E 0F          	db 15
05999   1E4F 00          	db 0
06000   1E50 01          	db 1
06001   1E51 01          	db 1
06002   1E52 0F          	db 15
06003   1E53 11          	db 17
06004   1E54 11          	db 17
06005   1E55 11          	db 17
06006   1E56 0F          	db 15
06007   1E57 00          	db 0
06008   1E58 00          	db 0
06009   1E59 00          	db 0
06010   1E5A 0E          	db 14
06011   1E5B 11          	db 17
06012   1E5C 1F          	db 31
06013   1E5D 10          	db 16
06014   1E5E 0F          	db 15
06015   1E5F 00          	db 0
06016   1E60 00          	db 0
06017   1E61 06          	db 6
06018   1E62 09          	db 9
06019   1E63 08          	db 8
06020   1E64 1C          	db 28
06021   1E65 08          	db 8
06022   1E66 08          	db 8
06023   1E67 00          	db 0
06024   1E68 00          	db 0
06025   1E69 00          	db 0
06026   1E6A 0F          	db 15
06027   1E6B 11          	db 17
06028   1E6C 11          	db 17
06029   1E6D 0F          	db 15
06030   1E6E 01          	db 1
06031   1E6F 0E          	db 14
06032   1E70 10          	db 16
06033   1E71 10          	db 16
06034   1E72 1E          	db 30
06035   1E73 11          	db 17
06036   1E74 11          	db 17
06037   1E75 11          	db 17
06038   1E76 11          	db 17
06039   1E77 00          	db 0
06040   1E78 04          	db 4
06041   1E79 00          	db 0
06042   1E7A 04          	db 4
06043   1E7B 04          	db 4
06044   1E7C 04          	db 4
06045   1E7D 04          	db 4
06046   1E7E 04          	db 4
06047   1E7F 00          	db 0
06048   1E80 01          	db 1
06049   1E81 00          	db 0
06050   1E82 01          	db 1
06051   1E83 01          	db 1
06052   1E84 01          	db 1
06053   1E85 11          	db 17
06054   1E86 0E          	db 14
06055   1E87 00          	db 0
06056   1E88 10          	db 16
06057   1E89 10          	db 16
06058   1E8A 11          	db 17
06059   1E8B 12          	db 18
06060   1E8C 1C          	db 28
06061   1E8D 12          	db 18
06062   1E8E 11          	db 17
06063   1E8F 00          	db 0
06064   1E90 0C          	db 12
06065   1E91 04          	db 4
06066   1E92 04          	db 4
06067   1E93 04          	db 4
06068   1E94 04          	db 4
06069   1E95 04          	db 4
06070   1E96 0E          	db 14
06071   1E97 00          	db 0
06072   1E98 00          	db 0
06073   1E99 00          	db 0
06074   1E9A 1A          	db 26
06075   1E9B 15          	db 21
06076   1E9C 15          	db 21
06077   1E9D 15          	db 21
06078   1E9E 15          	db 21
06079   1E9F 00          	db 0
06080   1EA0 00          	db 0
06081   1EA1 00          	db 0
06082   1EA2 1E          	db 30
06083   1EA3 11          	db 17
06084   1EA4 11          	db 17
06085   1EA5 11          	db 17
06086   1EA6 11          	db 17
06087   1EA7 00          	db 0
06088   1EA8 00          	db 0
06089   1EA9 00          	db 0
06090   1EAA 0E          	db 14
06091   1EAB 11          	db 17
06092   1EAC 11          	db 17
06093   1EAD 11          	db 17
06094   1EAE 0E          	db 14
06095   1EAF 00          	db 0
06096   1EB0 00          	db 0
06097   1EB1 00          	db 0
06098   1EB2 1E          	db 30
06099   1EB3 11          	db 17
06100   1EB4 11          	db 17
06101   1EB5 11          	db 17
06102   1EB6 1E          	db 30
06103   1EB7 10          	db 16
06104   1EB8 00          	db 0
06105   1EB9 00          	db 0
06106   1EBA 0F          	db 15
06107   1EBB 11          	db 17
06108   1EBC 11          	db 17
06109   1EBD 11          	db 17
06110   1EBE 0F          	db 15
06111   1EBF 01          	db 1
06112   1EC0 00          	db 0
06113   1EC1 00          	db 0
06114   1EC2 17          	db 23
06115   1EC3 18          	db 24
06116   1EC4 10          	db 16
06117   1EC5 10          	db 16
06118   1EC6 10          	db 16
06119   1EC7 00          	db 0
06120   1EC8 00          	db 0
06121   1EC9 00          	db 0
06122   1ECA 0F          	db 15
06123   1ECB 10          	db 16
06124   1ECC 0E          	db 14
06125   1ECD 01          	db 1
06126   1ECE 1E          	db 30
06127   1ECF 00          	db 0
06128   1ED0 10          	db 16
06129   1ED1 10          	db 16
06130   1ED2 3C          	db 60
06131   1ED3 10          	db 16
06132   1ED4 10          	db 16
06133   1ED5 11          	db 17
06134   1ED6 0E          	db 14
06135   1ED7 00          	db 0
06136   1ED8 00          	db 0
06137   1ED9 00          	db 0
06138   1EDA 11          	db 17
06139   1EDB 11          	db 17
06140   1EDC 11          	db 17
06141   1EDD 11          	db 17
06142   1EDE 0F          	db 15
06143   1EDF 00          	db 0
06144   1EE0 00          	db 0
06145   1EE1 00          	db 0
06146   1EE2 11          	db 17
06147   1EE3 11          	db 17
06148   1EE4 11          	db 17
06149   1EE5 0A          	db 10
06150   1EE6 04          	db 4
06151   1EE7 00          	db 0
06152   1EE8 00          	db 0
06153   1EE9 00          	db 0
06154   1EEA 11          	db 17
06155   1EEB 15          	db 21
06156   1EEC 15          	db 21
06157   1EED 15          	db 21
06158   1EEE 0A          	db 10
06159   1EEF 00          	db 0
06160   1EF0 00          	db 0
06161   1EF1 00          	db 0
06162   1EF2 11          	db 17
06163   1EF3 0A          	db 10
06164   1EF4 04          	db 4
06165   1EF5 0A          	db 10
06166   1EF6 11          	db 17
06167   1EF7 00          	db 0
06168   1EF8 00          	db 0
06169   1EF9 00          	db 0
06170   1EFA 11          	db 17
06171   1EFB 11          	db 17
06172   1EFC 0F          	db 15
06173   1EFD 01          	db 1
06174   1EFE 1E          	db 30
06175   1EFF 00          	db 0
06176   1F00 00          	db 0
06177   1F01 00          	db 0
06178   1F02 1F          	db 31
06179   1F03 02          	db 2
06180   1F04 04          	db 4
06181   1F05 08          	db 8
06182   1F06 1F          	db 31
06183   1F07 00          	db 0
06184   1F08 03          	db 3
06185   1F09 04          	db 4
06186   1F0A 04          	db 4
06187   1F0B 08          	db 8
06188   1F0C 04          	db 4
06189   1F0D 04          	db 4
06190   1F0E 03          	db 3
06191   1F0F 00          	db 0
06192   1F10 04          	db 4
06193   1F11 04          	db 4
06194   1F12 04          	db 4
06195   1F13 00          	db 0
06196   1F14 04          	db 4
06197   1F15 04          	db 4
06198   1F16 04          	db 4
06199   1F17 00          	db 0
06200   1F18 18          	db 24
06201   1F19 04          	db 4
06202   1F1A 04          	db 4
06203   1F1B 02          	db 2
06204   1F1C 04          	db 4
06205   1F1D 04          	db 4
06206   1F1E 18          	db 24
06207   1F1F 00          	db 0
06208   1F20 19          	db 25
06209   1F21 26          	db 38
06210   1F22 00          	db 0
06211   1F23 00          	db 0
06212   1F24 00          	db 0
06213   1F25 00          	db 0
06214   1F26 00          	db 0
06215   1F27 00          	db 0
06216   1F28 00          	db 0
06217   1F29 00          	db 0
06218   1F2A 04          	db 4
06219   1F2B 0A          	db 10
06220   1F2C 11          	db 17
06221   1F2D 11          	db 17
06222   1F2E 1F          	db 31
06223   1F2F 00          	db 0
06224   1F30 0E          	db 14
06225   1F31 11          	db 17
06226   1F32 11          	db 17
06227   1F33 11          	db 17
06228   1F34 1F          	db 31
06229   1F35 11          	db 17
06230   1F36 11          	db 17
06231   1F37 00          	db 0
06232   1F38 1F          	db 31
06233   1F39 10          	db 16
06234   1F3A 10          	db 16
06235   1F3B 1E          	db 30
06236   1F3C 11          	db 17
06237   1F3D 11          	db 17
06238   1F3E 1E          	db 30
06239   1F3F 00          	db 0
06240   1F40 1E          	db 30
06241   1F41 11          	db 17
06242   1F42 11          	db 17
06243   1F43 1E          	db 30
06244   1F44 11          	db 17
06245   1F45 11          	db 17
06246   1F46 1E          	db 30
06247   1F47 00          	db 0
06248   1F48 1F          	db 31
06249   1F49 10          	db 16
06250   1F4A 10          	db 16
06251   1F4B 10          	db 16
06252   1F4C 10          	db 16
06253   1F4D 10          	db 16
06254   1F4E 10          	db 16
06255   1F4F 00          	db 0
06256   1F50 06          	db 6
06257   1F51 0A          	db 10
06258   1F52 0A          	db 10
06259   1F53 0A          	db 10
06260   1F54 0A          	db 10
06261   1F55 0A          	db 10
06262   1F56 1F          	db 31
06263   1F57 11          	db 17
06264   1F58 1F          	db 31
06265   1F59 10          	db 16
06266   1F5A 10          	db 16
06267   1F5B 1E          	db 30
06268   1F5C 10          	db 16
06269   1F5D 10          	db 16
06270   1F5E 1F          	db 31
06271   1F5F 00          	db 0
06272   1F60 15          	db 21
06273   1F61 15          	db 21
06274   1F62 15          	db 21
06275   1F63 0E          	db 14
06276   1F64 15          	db 21
06277   1F65 15          	db 21
06278   1F66 15          	db 21
06279   1F67 00          	db 0
06280   1F68 0E          	db 14
06281   1F69 11          	db 17
06282   1F6A 01          	db 1
06283   1F6B 06          	db 6
06284   1F6C 01          	db 1
06285   1F6D 11          	db 17
06286   1F6E 0E          	db 14
06287   1F6F 00          	db 0
06288   1F70 11          	db 17
06289   1F71 11          	db 17
06290   1F72 13          	db 19
06291   1F73 15          	db 21
06292   1F74 19          	db 25
06293   1F75 11          	db 17
06294   1F76 11          	db 17
06295   1F77 00          	db 0
06296   1F78 15          	db 21
06297   1F79 11          	db 17
06298   1F7A 13          	db 19
06299   1F7B 15          	db 21
06300   1F7C 19          	db 25
06301   1F7D 11          	db 17
06302   1F7E 11          	db 17
06303   1F7F 00          	db 0
06304   1F80 11          	db 17
06305   1F81 12          	db 18
06306   1F82 14          	db 20
06307   1F83 18          	db 24
06308   1F84 14          	db 20
06309   1F85 12          	db 18
06310   1F86 11          	db 17
06311   1F87 00          	db 0
06312   1F88 07          	db 7
06313   1F89 09          	db 9
06314   1F8A 09          	db 9
06315   1F8B 09          	db 9
06316   1F8C 09          	db 9
06317   1F8D 09          	db 9
06318   1F8E 19          	db 25
06319   1F8F 00          	db 0
06320   1F90 11          	db 17
06321   1F91 1B          	db 27
06322   1F92 15          	db 21
06323   1F93 15          	db 21
06324   1F94 11          	db 17
06325   1F95 11          	db 17
06326   1F96 11          	db 17
06327   1F97 00          	db 0
06328   1F98 11          	db 17
06329   1F99 11          	db 17
06330   1F9A 11          	db 17
06331   1F9B 1F          	db 31
06332   1F9C 11          	db 17
06333   1F9D 11          	db 17
06334   1F9E 11          	db 17
06335   1F9F 00          	db 0
06336   1FA0 0E          	db 14
06337   1FA1 11          	db 17
06338   1FA2 11          	db 17
06339   1FA3 11          	db 17
06340   1FA4 11          	db 17
06341   1FA5 11          	db 17
06342   1FA6 0E          	db 14
06343   1FA7 00          	db 0
06344   1FA8 1F          	db 31
06345   1FA9 11          	db 17
06346   1FAA 11          	db 17
06347   1FAB 11          	db 17
06348   1FAC 11          	db 17
06349   1FAD 11          	db 17
06350   1FAE 11          	db 17
06351   1FAF 00          	db 0
06352   1FB0 1E          	db 30
06353   1FB1 11          	db 17
06354   1FB2 11          	db 17
06355   1FB3 1E          	db 30
06356   1FB4 10          	db 16
06357   1FB5 10          	db 16
06358   1FB6 10          	db 16
06359   1FB7 00          	db 0
06360   1FB8 0E          	db 14
06361   1FB9 11          	db 17
06362   1FBA 10          	db 16
06363   1FBB 10          	db 16
06364   1FBC 10          	db 16
06365   1FBD 11          	db 17
06366   1FBE 0E          	db 14
06367   1FBF 00          	db 0
06368   1FC0 1F          	db 31
06369   1FC1 04          	db 4
06370   1FC2 04          	db 4
06371   1FC3 04          	db 4
06372   1FC4 04          	db 4
06373   1FC5 04          	db 4
06374   1FC6 04          	db 4
06375   1FC7 00          	db 0
06376   1FC8 11          	db 17
06377   1FC9 11          	db 17
06378   1FCA 11          	db 17
06379   1FCB 0F          	db 15
06380   1FCC 01          	db 1
06381   1FCD 01          	db 1
06382   1FCE 1E          	db 30
06383   1FCF 00          	db 0
06384   1FD0 0E          	db 14
06385   1FD1 15          	db 21
06386   1FD2 15          	db 21
06387   1FD3 15          	db 21
06388   1FD4 15          	db 21
06389   1FD5 0E          	db 14
06390   1FD6 04          	db 4
06391   1FD7 00          	db 0
06392   1FD8 11          	db 17
06393   1FD9 11          	db 17
06394   1FDA 0A          	db 10
06395   1FDB 04          	db 4
06396   1FDC 0A          	db 10
06397   1FDD 11          	db 17
06398   1FDE 11          	db 17
06399   1FDF 00          	db 0
06400   1FE0 12          	db 18
06401   1FE1 12          	db 18
06402   1FE2 12          	db 18
06403   1FE3 12          	db 18
06404   1FE4 12          	db 18
06405   1FE5 12          	db 18
06406   1FE6 1F          	db 31
06407   1FE7 01          	db 1
06408   1FE8 11          	db 17
06409   1FE9 11          	db 17
06410   1FEA 11          	db 17
06411   1FEB 1F          	db 31
06412   1FEC 01          	db 1
06413   1FED 01          	db 1
06414   1FEE 01          	db 1
06415   1FEF 00          	db 0
06416   1FF0 11          	db 17
06417   1FF1 15          	db 21
06418   1FF2 15          	db 21
06419   1FF3 15          	db 21
06420   1FF4 15          	db 21
06421   1FF5 15          	db 21
06422   1FF6 1F          	db 31
06423   1FF7 00          	db 0
06424   1FF8 11          	db 17
06425   1FF9 15          	db 21
06426   1FFA 15          	db 21
06427   1FFB 15          	db 21
06428   1FFC 15          	db 21
06429   1FFD 15          	db 21
06430   1FFE 1F          	db 31
06431   1FFF 01          	db 1
06432   2000 30          	db 48
06433   2001 10          	db 16
06434   2002 1E          	db 30
06435   2003 11          	db 17
06436   2004 11          	db 17
06437   2005 11          	db 17
06438   2006 1E          	db 30
06439   2007 00          	db 0
06440   2008 11          	db 17
06441   2009 11          	db 17
06442   200A 19          	db 25
06443   200B 15          	db 21
06444   200C 15          	db 21
06445   200D 15          	db 21
06446   200E 19          	db 25
06447   200F 00          	db 0
06448   2010 10          	db 16
06449   2011 10          	db 16
06450   2012 1E          	db 30
06451   2013 11          	db 17
06452   2014 11          	db 17
06453   2015 11          	db 17
06454   2016 1E          	db 30
06455   2017 00          	db 0
06456   2018 0E          	db 14
06457   2019 11          	db 17
06458   201A 01          	db 1
06459   201B 07          	db 7
06460   201C 01          	db 1
06461   201D 11          	db 17
06462   201E 0E          	db 14
06463   201F 00          	db 0
06464   2020 12          	db 18
06465   2021 15          	db 21
06466   2022 15          	db 21
06467   2023 1D          	db 29
06468   2024 15          	db 21
06469   2025 15          	db 21
06470   2026 12          	db 18
06471   2027 00          	db 0
06472   2028 0F          	db 15
06473   2029 11          	db 17
06474   202A 11          	db 17
06475   202B 0F          	db 15
06476   202C 05          	db 5
06477   202D 09          	db 9
06478   202E 11          	db 17
06479   202F 00          	db 0
06480   2030 00          	db 0
06481   2031 00          	db 0
06482   2032 0E          	db 14
06483   2033 01          	db 1
06484   2034 0F          	db 15
06485   2035 11          	db 17
06486   2036 0F          	db 15
06487   2037 00          	db 0
06488   2038 01          	db 1
06489   2039 0E          	db 14
06490   203A 10          	db 16
06491   203B 1E          	db 30
06492   203C 11          	db 17
06493   203D 11          	db 17
06494   203E 0E          	db 14
06495   203F 00          	db 0
06496   2040 00          	db 0
06497   2041 00          	db 0
06498   2042 1C          	db 28
06499   2043 12          	db 18
06500   2044 1E          	db 30
06501   2045 11          	db 17
06502   2046 1E          	db 30
06503   2047 00          	db 0
06504   2048 00          	db 0
06505   2049 00          	db 0
06506   204A 1F          	db 31
06507   204B 10          	db 16
06508   204C 10          	db 16
06509   204D 10          	db 16
06510   204E 10          	db 16
06511   204F 00          	db 0
06512   2050 00          	db 0
06513   2051 00          	db 0
06514   2052 06          	db 6
06515   2053 0A          	db 10
06516   2054 0A          	db 10
06517   2055 0A          	db 10
06518   2056 1F          	db 31
06519   2057 11          	db 17
06520   2058 00          	db 0
06521   2059 00          	db 0
06522   205A 0E          	db 14
06523   205B 11          	db 17
06524   205C 1F          	db 31
06525   205D 10          	db 16
06526   205E 0F          	db 15
06527   205F 00          	db 0
06528   2060 00          	db 0
06529   2061 00          	db 0
06530   2062 15          	db 21
06531   2063 15          	db 21
06532   2064 0E          	db 14
06533   2065 15          	db 21
06534   2066 15          	db 21
06535   2067 00          	db 0
06536   2068 00          	db 0
06537   2069 00          	db 0
06538   206A 0E          	db 14
06539   206B 11          	db 17
06540   206C 06          	db 6
06541   206D 11          	db 17
06542   206E 0E          	db 14
06543   206F 00          	db 0
06544   2070 00          	db 0
06545   2071 00          	db 0
06546   2072 11          	db 17
06547   2073 13          	db 19
06548   2074 15          	db 21
06549   2075 19          	db 25
06550   2076 11          	db 17
06551   2077 00          	db 0
06552   2078 00          	db 0
06553   2079 04          	db 4
06554   207A 11          	db 17
06555   207B 13          	db 19
06556   207C 15          	db 21
06557   207D 19          	db 25
06558   207E 11          	db 17
06559   207F 00          	db 0
06560   2080 00          	db 0
06561   2081 00          	db 0
06562   2082 11          	db 17
06563   2083 12          	db 18
06564   2084 1C          	db 28
06565   2085 12          	db 18
06566   2086 11          	db 17
06567   2087 00          	db 0
06568   2088 00          	db 0
06569   2089 00          	db 0
06570   208A 07          	db 7
06571   208B 09          	db 9
06572   208C 09          	db 9
06573   208D 09          	db 9
06574   208E 19          	db 25
06575   208F 00          	db 0
06576   2090 00          	db 0
06577   2091 00          	db 0
06578   2092 11          	db 17
06579   2093 1B          	db 27
06580   2094 15          	db 21
06581   2095 11          	db 17
06582   2096 11          	db 17
06583   2097 00          	db 0
06584   2098 00          	db 0
06585   2099 00          	db 0
06586   209A 11          	db 17
06587   209B 11          	db 17
06588   209C 1F          	db 31
06589   209D 11          	db 17
06590   209E 11          	db 17
06591   209F 00          	db 0
06592   20A0 00          	db 0
06593   20A1 00          	db 0
06594   20A2 0E          	db 14
06595   20A3 11          	db 17
06596   20A4 11          	db 17
06597   20A5 11          	db 17
06598   20A6 0E          	db 14
06599   20A7 00          	db 0
06600   20A8 00          	db 0
06601   20A9 00          	db 0
06602   20AA 1F          	db 31
06603   20AB 11          	db 17
06604   20AC 11          	db 17
06605   20AD 11          	db 17
06606   20AE 11          	db 17
06607   20AF 00          	db 0
06608   20B0 11          	db 17
06609   20B1 04          	db 4
06610   20B2 11          	db 17
06611   20B3 04          	db 4
06612   20B4 11          	db 17
06613   20B5 04          	db 4
06614   20B6 11          	db 17
06615   20B7 04          	db 4
06616   20B8 15          	db 21
06617   20B9 2A          	db 42
06618   20BA 15          	db 21
06619   20BB 2A          	db 42
06620   20BC 15          	db 21
06621   20BD 2A          	db 42
06622   20BE 15          	db 21
06623   20BF 2A          	db 42
06624   20C0 2E          	db 46
06625   20C1 3B          	db 59
06626   20C2 2E          	db 46
06627   20C3 3B          	db 59
06628   20C4 2E          	db 46
06629   20C5 3B          	db 59
06630   20C6 2E          	db 46
06631   20C7 3B          	db 59
06632   20C8 04          	db 4
06633   20C9 04          	db 4
06634   20CA 04          	db 4
06635   20CB 04          	db 4
06636   20CC 04          	db 4
06637   20CD 04          	db 4
06638   20CE 04          	db 4
06639   20CF 04          	db 4
06640   20D0 04          	db 4
06641   20D1 04          	db 4
06642   20D2 04          	db 4
06643   20D3 3C          	db 60
06644   20D4 04          	db 4
06645   20D5 04          	db 4
06646   20D6 04          	db 4
06647   20D7 04          	db 4
06648   20D8 04          	db 4
06649   20D9 04          	db 4
06650   20DA 3C          	db 60
06651   20DB 04          	db 4
06652   20DC 3C          	db 60
06653   20DD 04          	db 4
06654   20DE 04          	db 4
06655   20DF 04          	db 4
06656   20E0 0A          	db 10
06657   20E1 0A          	db 10
06658   20E2 0A          	db 10
06659   20E3 3A          	db 58
06660   20E4 0A          	db 10
06661   20E5 0A          	db 10
06662   20E6 0A          	db 10
06663   20E7 0A          	db 10
06664   20E8 00          	db 0
06665   20E9 00          	db 0
06666   20EA 00          	db 0
06667   20EB 3F          	db 63
06668   20EC 0A          	db 10
06669   20ED 0A          	db 10
06670   20EE 0A          	db 10
06671   20EF 0A          	db 10
06672   20F0 00          	db 0
06673   20F1 00          	db 0
06674   20F2 3C          	db 60
06675   20F3 04          	db 4
06676   20F4 3C          	db 60
06677   20F5 04          	db 4
06678   20F6 04          	db 4
06679   20F7 04          	db 4
06680   20F8 0A          	db 10
06681   20F9 0A          	db 10
06682   20FA 3A          	db 58
06683   20FB 02          	db 2
06684   20FC 3A          	db 58
06685   20FD 0A          	db 10
06686   20FE 0A          	db 10
06687   20FF 0A          	db 10
06688   2100 0A          	db 10
06689   2101 0A          	db 10
06690   2102 0A          	db 10
06691   2103 0A          	db 10
06692   2104 0A          	db 10
06693   2105 0A          	db 10
06694   2106 0A          	db 10
06695   2107 0A          	db 10
06696   2108 00          	db 0
06697   2109 00          	db 0
06698   210A 3E          	db 62
06699   210B 02          	db 2
06700   210C 3A          	db 58
06701   210D 0A          	db 10
06702   210E 0A          	db 10
06703   210F 0A          	db 10
06704   2110 0A          	db 10
06705   2111 0A          	db 10
06706   2112 3A          	db 58
06707   2113 02          	db 2
06708   2114 3E          	db 62
06709   2115 00          	db 0
06710   2116 00          	db 0
06711   2117 00          	db 0
06712   2118 0A          	db 10
06713   2119 0A          	db 10
06714   211A 0A          	db 10
06715   211B 3E          	db 62
06716   211C 00          	db 0
06717   211D 00          	db 0
06718   211E 00          	db 0
06719   211F 00          	db 0
06720   2120 04          	db 4
06721   2121 04          	db 4
06722   2122 3C          	db 60
06723   2123 04          	db 4
06724   2124 3C          	db 60
06725   2125 00          	db 0
06726   2126 00          	db 0
06727   2127 00          	db 0
06728   2128 00          	db 0
06729   2129 00          	db 0
06730   212A 00          	db 0
06731   212B 3C          	db 60
06732   212C 04          	db 4
06733   212D 04          	db 4
06734   212E 04          	db 4
06735   212F 04          	db 4
06736   2130 04          	db 4
06737   2131 04          	db 4
06738   2132 04          	db 4
06739   2133 07          	db 7
06740   2134 00          	db 0
06741   2135 00          	db 0
06742   2136 00          	db 0
06743   2137 00          	db 0
06744   2138 04          	db 4
06745   2139 04          	db 4
06746   213A 04          	db 4
06747   213B 3F          	db 63
06748   213C 00          	db 0
06749   213D 00          	db 0
06750   213E 00          	db 0
06751   213F 00          	db 0
06752   2140 00          	db 0
06753   2141 00          	db 0
06754   2142 00          	db 0
06755   2143 3F          	db 63
06756   2144 04          	db 4
06757   2145 04          	db 4
06758   2146 04          	db 4
06759   2147 04          	db 4
06760   2148 04          	db 4
06761   2149 04          	db 4
06762   214A 04          	db 4
06763   214B 07          	db 7
06764   214C 04          	db 4
06765   214D 04          	db 4
06766   214E 04          	db 4
06767   214F 04          	db 4
06768   2150 00          	db 0
06769   2151 00          	db 0
06770   2152 00          	db 0
06771   2153 3F          	db 63
06772   2154 00          	db 0
06773   2155 00          	db 0
06774   2156 00          	db 0
06775   2157 00          	db 0
06776   2158 04          	db 4
06777   2159 04          	db 4
06778   215A 04          	db 4
06779   215B 3F          	db 63
06780   215C 04          	db 4
06781   215D 04          	db 4
06782   215E 04          	db 4
06783   215F 04          	db 4
06784   2160 00          	db 0
06785   2161 00          	db 0
06786   2162 07          	db 7
06787   2163 04          	db 4
06788   2164 07          	db 7
06789   2165 04          	db 4
06790   2166 04          	db 4
06791   2167 04          	db 4
06792   2168 0A          	db 10
06793   2169 0A          	db 10
06794   216A 0A          	db 10
06795   216B 0B          	db 11
06796   216C 0A          	db 10
06797   216D 0A          	db 10
06798   216E 0A          	db 10
06799   216F 0A          	db 10
06800   2170 0A          	db 10
06801   2171 0A          	db 10
06802   2172 0B          	db 11
06803   2173 08          	db 8
06804   2174 0F          	db 15
06805   2175 00          	db 0
06806   2176 00          	db 0
06807   2177 00          	db 0
06808   2178 00          	db 0
06809   2179 00          	db 0
06810   217A 0F          	db 15
06811   217B 08          	db 8
06812   217C 0B          	db 11
06813   217D 0A          	db 10
06814   217E 0A          	db 10
06815   217F 0A          	db 10
06816   2180 0A          	db 10
06817   2181 0A          	db 10
06818   2182 3B          	db 59
06819   2183 00          	db 0
06820   2184 3F          	db 63
06821   2185 00          	db 0
06822   2186 00          	db 0
06823   2187 00          	db 0
06824   2188 00          	db 0
06825   2189 00          	db 0
06826   218A 3F          	db 63
06827   218B 00          	db 0
06828   218C 3B          	db 59
06829   218D 0A          	db 10
06830   218E 0A          	db 10
06831   218F 0A          	db 10
06832   2190 0A          	db 10
06833   2191 0A          	db 10
06834   2192 0B          	db 11
06835   2193 08          	db 8
06836   2194 0B          	db 11
06837   2195 0A          	db 10
06838   2196 0A          	db 10
06839   2197 0A          	db 10
06840   2198 00          	db 0
06841   2199 00          	db 0
06842   219A 3F          	db 63
06843   219B 00          	db 0
06844   219C 3F          	db 63
06845   219D 00          	db 0
06846   219E 00          	db 0
06847   219F 00          	db 0
06848   21A0 0A          	db 10
06849   21A1 0A          	db 10
06850   21A2 3B          	db 59
06851   21A3 00          	db 0
06852   21A4 3B          	db 59
06853   21A5 0A          	db 10
06854   21A6 0A          	db 10
06855   21A7 0A          	db 10
06856   21A8 04          	db 4
06857   21A9 04          	db 4
06858   21AA 3F          	db 63
06859   21AB 00          	db 0
06860   21AC 3F          	db 63
06861   21AD 00          	db 0
06862   21AE 00          	db 0
06863   21AF 00          	db 0
06864   21B0 0A          	db 10
06865   21B1 0A          	db 10
06866   21B2 0A          	db 10
06867   21B3 3F          	db 63
06868   21B4 00          	db 0
06869   21B5 00          	db 0
06870   21B6 00          	db 0
06871   21B7 00          	db 0
06872   21B8 00          	db 0
06873   21B9 00          	db 0
06874   21BA 3F          	db 63
06875   21BB 00          	db 0
06876   21BC 3F          	db 63
06877   21BD 04          	db 4
06878   21BE 04          	db 4
06879   21BF 04          	db 4
06880   21C0 00          	db 0
06881   21C1 00          	db 0
06882   21C2 00          	db 0
06883   21C3 3F          	db 63
06884   21C4 0A          	db 10
06885   21C5 0A          	db 10
06886   21C6 0A          	db 10
06887   21C7 0A          	db 10
06888   21C8 0A          	db 10
06889   21C9 0A          	db 10
06890   21CA 0A          	db 10
06891   21CB 0F          	db 15
06892   21CC 00          	db 0
06893   21CD 00          	db 0
06894   21CE 00          	db 0
06895   21CF 00          	db 0
06896   21D0 04          	db 4
06897   21D1 04          	db 4
06898   21D2 07          	db 7
06899   21D3 04          	db 4
06900   21D4 07          	db 7
06901   21D5 00          	db 0
06902   21D6 00          	db 0
06903   21D7 00          	db 0
06904   21D8 00          	db 0
06905   21D9 00          	db 0
06906   21DA 07          	db 7
06907   21DB 04          	db 4
06908   21DC 07          	db 7
06909   21DD 04          	db 4
06910   21DE 04          	db 4
06911   21DF 04          	db 4
06912   21E0 00          	db 0
06913   21E1 00          	db 0
06914   21E2 00          	db 0
06915   21E3 0F          	db 15
06916   21E4 0A          	db 10
06917   21E5 0A          	db 10
06918   21E6 0A          	db 10
06919   21E7 0A          	db 10
06920   21E8 0A          	db 10
06921   21E9 0A          	db 10
06922   21EA 0A          	db 10
06923   21EB 3F          	db 63
06924   21EC 0A          	db 10
06925   21ED 0A          	db 10
06926   21EE 0A          	db 10
06927   21EF 0A          	db 10
06928   21F0 04          	db 4
06929   21F1 04          	db 4
06930   21F2 3F          	db 63
06931   21F3 04          	db 4
06932   21F4 3F          	db 63
06933   21F5 04          	db 4
06934   21F6 04          	db 4
06935   21F7 04          	db 4
06936   21F8 04          	db 4
06937   21F9 04          	db 4
06938   21FA 04          	db 4
06939   21FB 3C          	db 60
06940   21FC 00          	db 0
06941   21FD 00          	db 0
06942   21FE 00          	db 0
06943   21FF 00          	db 0
06944   2200 00          	db 0
06945   2201 00          	db 0
06946   2202 00          	db 0
06947   2203 07          	db 7
06948   2204 04          	db 4
06949   2205 04          	db 4
06950   2206 04          	db 4
06951   2207 04          	db 4
06952   2208 3F          	db 63
06953   2209 3F          	db 63
06954   220A 3F          	db 63
06955   220B 3F          	db 63
06956   220C 3F          	db 63
06957   220D 3F          	db 63
06958   220E 3F          	db 63
06959   220F 3F          	db 63
06960   2210 00          	db 0
06961   2211 00          	db 0
06962   2212 00          	db 0
06963   2213 00          	db 0
06964   2214 3F          	db 63
06965   2215 3F          	db 63
06966   2216 3F          	db 63
06967   2217 3F          	db 63
06968   2218 38          	db 56
06969   2219 38          	db 56
06970   221A 38          	db 56
06971   221B 38          	db 56
06972   221C 38          	db 56
06973   221D 38          	db 56
06974   221E 38          	db 56
06975   221F 38          	db 56
06976   2220 07          	db 7
06977   2221 07          	db 7
06978   2222 07          	db 7
06979   2223 07          	db 7
06980   2224 07          	db 7
06981   2225 07          	db 7
06982   2226 07          	db 7
06983   2227 07          	db 7
06984   2228 3F          	db 63
06985   2229 3F          	db 63
06986   222A 3F          	db 63
06987   222B 3F          	db 63
06988   222C 00          	db 0
06989   222D 00          	db 0
06990   222E 00          	db 0
06991   222F 00          	db 0
06992   2230 00          	db 0
06993   2231 00          	db 0
06994   2232 1E          	db 30
06995   2233 11          	db 17
06996   2234 11          	db 17
06997   2235 1E          	db 30
06998   2236 10          	db 16
06999   2237 00          	db 0
07000   2238 00          	db 0
07001   2239 00          	db 0
07002   223A 0E          	db 14
07003   223B 11          	db 17
07004   223C 10          	db 16
07005   223D 11          	db 17
07006   223E 0E          	db 14
07007   223F 00          	db 0
07008   2240 00          	db 0
07009   2241 00          	db 0
07010   2242 1F          	db 31
07011   2243 04          	db 4
07012   2244 04          	db 4
07013   2245 04          	db 4
07014   2246 04          	db 4
07015   2247 00          	db 0
07016   2248 00          	db 0
07017   2249 00          	db 0
07018   224A 11          	db 17
07019   224B 11          	db 17
07020   224C 0F          	db 15
07021   224D 01          	db 1
07022   224E 0E          	db 14
07023   224F 00          	db 0
07024   2250 00          	db 0
07025   2251 00          	db 0
07026   2252 0E          	db 14
07027   2253 15          	db 21
07028   2254 15          	db 21
07029   2255 0E          	db 14
07030   2256 04          	db 4
07031   2257 00          	db 0
07032   2258 00          	db 0
07033   2259 00          	db 0
07034   225A 11          	db 17
07035   225B 0A          	db 10
07036   225C 04          	db 4
07037   225D 0A          	db 10
07038   225E 11          	db 17
07039   225F 00          	db 0
07040   2260 00          	db 0
07041   2261 00          	db 0
07042   2262 12          	db 18
07043   2263 12          	db 18
07044   2264 12          	db 18
07045   2265 12          	db 18
07046   2266 1F          	db 31
07047   2267 01          	db 1
07048   2268 00          	db 0
07049   2269 00          	db 0
07050   226A 11          	db 17
07051   226B 11          	db 17
07052   226C 0F          	db 15
07053   226D 01          	db 1
07054   226E 01          	db 1
07055   226F 00          	db 0
07056   2270 00          	db 0
07057   2271 00          	db 0
07058   2272 15          	db 21
07059   2273 15          	db 21
07060   2274 15          	db 21
07061   2275 15          	db 21
07062   2276 1F          	db 31
07063   2277 00          	db 0
07064   2278 00          	db 0
07065   2279 00          	db 0
07066   227A 15          	db 21
07067   227B 15          	db 21
07068   227C 15          	db 21
07069   227D 15          	db 21
07070   227E 1F          	db 31
07071   227F 01          	db 1
07072   2280 00          	db 0
07073   2281 00          	db 0
07074   2282 30          	db 48
07075   2283 10          	db 16
07076   2284 1E          	db 30
07077   2285 11          	db 17
07078   2286 1E          	db 30
07079   2287 00          	db 0
07080   2288 00          	db 0
07081   2289 00          	db 0
07082   228A 11          	db 17
07083   228B 11          	db 17
07084   228C 1D          	db 29
07085   228D 15          	db 21
07086   228E 1D          	db 29
07087   228F 00          	db 0
07088   2290 00          	db 0
07089   2291 00          	db 0
07090   2292 10          	db 16
07091   2293 10          	db 16
07092   2294 1E          	db 30
07093   2295 11          	db 17
07094   2296 1E          	db 30
07095   2297 00          	db 0
07096   2298 00          	db 0
07097   2299 00          	db 0
07098   229A 1E          	db 30
07099   229B 01          	db 1
07100   229C 0F          	db 15
07101   229D 01          	db 1
07102   229E 1E          	db 30
07103   229F 00          	db 0
07104   22A0 00          	db 0
07105   22A1 00          	db 0
07106   22A2 12          	db 18
07107   22A3 15          	db 21
07108   22A4 1D          	db 29
07109   22A5 15          	db 21
07110   22A6 12          	db 18
07111   22A7 00          	db 0
07112   22A8 00          	db 0
07113   22A9 00          	db 0
07114   22AA 0F          	db 15
07115   22AB 11          	db 17
07116   22AC 0F          	db 15
07117   22AD 09          	db 9
07118   22AE 11          	db 17
07119   22AF 00          	db 0
07120   22B0 0A          	db 10
07121   22B1 1F          	db 31
07122   22B2 10          	db 16
07123   22B3 1C          	db 28
07124   22B4 10          	db 16
07125   22B5 10          	db 16
07126   22B6 1F          	db 31
07127   22B7 00          	db 0
07128   22B8 0A          	db 10
07129   22B9 00          	db 0
07130   22BA 0E          	db 14
07131   22BB 11          	db 17
07132   22BC 1F          	db 31
07133   22BD 10          	db 16
07134   22BE 0F          	db 15
07135   22BF 00          	db 0
07136   22C0 0C          	db 12
07137   22C1 12          	db 18
07138   22C2 04          	db 4
07139   22C3 08          	db 8
07140   22C4 1E          	db 30
07141   22C5 00          	db 0
07142   22C6 00          	db 0
07143   22C7 00          	db 0
07144   22C8 0C          	db 12
07145   22C9 12          	db 18
07146   22CA 04          	db 4
07147   22CB 12          	db 18
07148   22CC 0C          	db 12
07149   22CD 00          	db 0
07150   22CE 00          	db 0
07151   22CF 00          	db 0
07152   22D0 04          	db 4
07153   22D1 0C          	db 12
07154   22D2 14          	db 20
07155   22D3 1E          	db 30
07156   22D4 04          	db 4
07157   22D5 00          	db 0
07158   22D6 00          	db 0
07159   22D7 00          	db 0
07160   22D8 00          	db 0
07161   22D9 00          	db 0
07162   22DA 00          	db 0
07163   22DB 00          	db 0
07164   22DC 00          	db 0
07165   22DD 00          	db 0
07166   22DE 00          	db 0
07167   22DF 00          	db 0
07168   22E0 0C          	db 12
07169   22E1 0C          	db 12
07170   22E2 00          	db 0
07171   22E3 3F          	db 63
07172   22E4 00          	db 0
07173   22E5 0C          	db 12
07174   22E6 0C          	db 12
07175   22E7 00          	db 0
07176   22E8 00          	db 0
07177   22E9 0A          	db 10
07178   22EA 14          	db 20
07179   22EB 00          	db 0
07180   22EC 0A          	db 10
07181   22ED 14          	db 20
07182   22EE 00          	db 0
07183   22EF 00          	db 0
07184   22F0 00          	db 0
07185   22F1 08          	db 8
07186   22F2 14          	db 20
07187   22F3 08          	db 8
07188   22F4 00          	db 0
07189   22F5 00          	db 0
07190   22F6 00          	db 0
07191   22F7 00          	db 0
07192   22F8 00          	db 0
07193   22F9 00          	db 0
07194   22FA 00          	db 0
07195   22FB 00          	db 0
07196   22FC 0C          	db 12
07197   22FD 00          	db 0
07198   22FE 00          	db 0
07199   22FF 00          	db 0
07200   2300 1C          	db 28
07201   2301 1C          	db 28
07202   2302 00          	db 0
07203   2303 00          	db 0
07204   2304 00          	db 0
07205   2305 00          	db 0
07206   2306 00          	db 0
07207   2307 00          	db 0
07208   2308 01          	db 1
07209   2309 01          	db 1
07210   230A 02          	db 2
07211   230B 02          	db 2
07212   230C 24          	db 36
07213   230D 14          	db 20
07214   230E 08          	db 8
07215   230F 00          	db 0
07216   2310 03          	db 3
07217   2311 03          	db 3
07218   2312 24          	db 36
07219   2313 34          	db 52
07220   2314 2C          	db 44
07221   2315 24          	db 36
07222   2316 24          	db 36
07223   2317 00          	db 0
07224   2318 00          	db 0
07225   2319 00          	db 0
07226   231A 00          	db 0
07227   231B 00          	db 0
07228   231C 00          	db 0
07229   231D 00          	db 0
07230   231E 00          	db 0
07231   231F 00          	db 0
07232   2320 00          	db 0
07233   2321 1E          	db 30
07234   2322 1E          	db 30
07235   2323 1E          	db 30
07236   2324 00          	db 0
07237   2325 00          	db 0
07238   2326 00          	db 0
07239   2327 00          	db 0
07240   2328 00          	db 0
07241   2329 00          	db 0
07242   232A 00          	db 0
07243   232B 00          	db 0
07244   232C 00          	db 0
07245   232D 00          	db 0
07246   232E 00          	db 0
07247   232F 00          	db 0
07248   2330             textColor: 
07249   2330 FF          	db 255
07250   2331             scanCodes: 
07251   2331 36          	db 54
07252   2332 F5          	db 245
07253   2333 EA          	db 234
07254   2334 ED          	db 237
07255   2335 37          	db 55
07256   2336 E9          	db 233
07257   2337 EB          	db 235
07258   2338 60          	db 96
07259   2339 35          	db 53
07260   233A F9          	db 249
07261   233B E8          	db 232
07262   233C EE          	db 238
07263   233D 38          	db 56
07264   233E EF          	db 239
07265   233F EC          	db 236
07266   2340 40          	db 64
07267   2341 34          	db 52
07268   2342 F4          	db 244
07269   2343 E7          	db 231
07270   2344 E2          	db 226
07271   2345 39          	db 57
07272   2346 F0          	db 240
07273   2347 5B          	db 91
07274   2348 00          	db 0
07275   2349 04          	db 4
07276   234A 05          	db 5
07277   234B 06          	db 6
07278   234C 07          	db 7
07279   234D 0A          	db 10
07280   234E 08          	db 8
07281   234F 0B          	db 11
07282   2350 20          	db 32
07283   2351 33          	db 51
07284   2352 F2          	db 242
07285   2353 E6          	db 230
07286   2354 F6          	db 246
07287   2355 30          	db 48
07288   2356 7B          	db 123
07289   2357 5D          	db 93
07290   2358 2C          	db 44
07291   2359 32          	db 50
07292   235A E5          	db 229
07293   235B E4          	db 228
07294   235C E3          	db 227
07295   235D 2D          	db 45
07296   235E 7D          	db 125
07297   235F 3A          	db 58
07298   2360 2E          	db 46
07299   2361 31          	db 49
07300   2362 2E          	db 46
07301   2363 E1          	db 225
07302   2364 FA          	db 250
07303   2365 5E          	db 94
07304   2366 2F          	db 47
07305   2367 3B          	db 59
07306   2368 30          	db 48
07307   2369 14          	db 20
07308   236A F7          	db 247
07309   236B F3          	db 243
07310   236C F8          	db 248
07311   236D 0C          	db 12
07312   236E 0E          	db 14
07313   236F 19          	db 25
07314   2370 0F          	db 15
07315   2371 0D          	db 13
07316   2372 F1          	db 241
07317   2373 09          	db 9
07318   2374 10          	db 16
07319   2375 5C          	db 92
07320   2376 17          	db 23
07321   2377 11          	db 17
07322   2378 1A          	db 26
07323   2379 01          	db 1
07324   237A 15          	db 21
07325   237B 02          	db 2
07326   237C 03          	db 3
07327   237D 1B          	db 27
07328   237E 12          	db 18
07329   237F 18          	db 24
07330   2380 13          	db 19
07331   2381 26          	db 38
07332   2382 D5          	db 213
07333   2383 CA          	db 202
07334   2384 CD          	db 205
07335   2385 27          	db 39
07336   2386 C9          	db 201
07337   2387 CB          	db 203
07338   2388 60          	db 96
07339   2389 25          	db 37
07340   238A D9          	db 217
07341   238B C8          	db 200
07342   238C CE          	db 206
07343   238D 28          	db 40
07344   238E CF          	db 207
07345   238F CC          	db 204
07346   2390 40          	db 64
07347   2391 24          	db 36
07348   2392 D4          	db 212
07349   2393 C7          	db 199
07350   2394 C2          	db 194
07351   2395 29          	db 41
07352   2396 D0          	db 208
07353   2397 DB          	db 219
07354   2398 00          	db 0
07355   2399 04          	db 4
07356   239A 05          	db 5
07357   239B 06          	db 6
07358   239C 07          	db 7
07359   239D 0A          	db 10
07360   239E 08          	db 8
07361   239F 0B          	db 11
07362   23A0 20          	db 32
07363   23A1 23          	db 35
07364   23A2 D2          	db 210
07365   23A3 C6          	db 198
07366   23A4 D6          	db 214
07367   23A5 5F          	db 95
07368   23A6 7B          	db 123
07369   23A7 5D          	db 93
07370   23A8 3C          	db 60
07371   23A9 22          	db 34
07372   23AA C5          	db 197
07373   23AB C4          	db 196
07374   23AC C3          	db 195
07375   23AD 3D          	db 61
07376   23AE 7D          	db 125
07377   23AF 2A          	db 42
07378   23B0 3E          	db 62
07379   23B1 21          	db 33
07380   23B2 2E          	db 46
07381   23B3 C1          	db 193
07382   23B4 DA          	db 218
07383   23B5 7E          	db 126
07384   23B6 3F          	db 63
07385   23B7 2B          	db 43
07386   23B8 30          	db 48
07387   23B9 14          	db 20
07388   23BA D7          	db 215
07389   23BB D3          	db 211
07390   23BC D8          	db 216
07391   23BD 0C          	db 12
07392   23BE 0E          	db 14
07393   23BF 19          	db 25
07394   23C0 0F          	db 15
07395   23C1 0D          	db 13
07396   23C2 D1          	db 209
07397   23C3 09          	db 9
07398   23C4 10          	db 16
07399   23C5 7C          	db 124
07400   23C6 17          	db 23
07401   23C7 11          	db 17
07402   23C8 1A          	db 26
07403   23C9 01          	db 1
07404   23CA 15          	db 21
07405   23CB 02          	db 2
07406   23CC 03          	db 3
07407   23CD 1B          	db 27
07408   23CE 12          	db 18
07409   23CF 18          	db 24
07410   23D0 13          	db 19
07411   23D1 36          	db 54
07412   23D2 A3          	db 163
07413   23D3 AE          	db 174
07414   23D4 EC          	db 236
07415   23D5 37          	db 55
07416   23D6 E8          	db 232
07417   23D7 AB          	db 171
07418   23D8 A1          	db 161
07419   23D9 35          	db 53
07420   23DA AD          	db 173
07421   23DB E0          	db 224
07422   23DC E2          	db 226
07423   23DD 38          	db 56
07424   23DE E9          	db 233
07425   23DF A4          	db 164
07426   23E0 EE          	db 238
07427   23E1 34          	db 52
07428   23E2 A5          	db 165
07429   23E3 AF          	db 175
07430   23E4 A8          	db 168
07431   23E5 39          	db 57
07432   23E6 A7          	db 167
07433   23E7 A6          	db 166
07434   23E8 F1          	db 241
07435   23E9 04          	db 4
07436   23EA 05          	db 5
07437   23EB 06          	db 6
07438   23EC 07          	db 7
07439   23ED 0A          	db 10
07440   23EE 08          	db 8
07441   23EF 0B          	db 11
07442   23F0 20          	db 32
07443   23F1 33          	db 51
07444   23F2 AA          	db 170
07445   23F3 A0          	db 160
07446   23F4 AC          	db 172
07447   23F5 30          	db 48
07448   23F6 E5          	db 229
07449   23F7 ED          	db 237
07450   23F8 2C          	db 44
07451   23F9 32          	db 50
07452   23FA E3          	db 227
07453   23FB A2          	db 162
07454   23FC E1          	db 225
07455   23FD 2D          	db 45
07456   23FE EA          	db 234
07457   23FF 3A          	db 58
07458   2400 2E          	db 46
07459   2401 31          	db 49
07460   2402 2E          	db 46
07461   2403 E4          	db 228
07462   2404 EF          	db 239
07463   2405 5E          	db 94
07464   2406 2F          	db 47
07465   2407 3B          	db 59
07466   2408 30          	db 48
07467   2409 14          	db 20
07468   240A E6          	db 230
07469   240B EB          	db 235
07470   240C E7          	db 231
07471   240D 0C          	db 12
07472   240E 0E          	db 14
07473   240F 19          	db 25
07474   2410 0F          	db 15
07475   2411 0D          	db 13
07476   2412 A9          	db 169
07477   2413 09          	db 9
07478   2414 10          	db 16
07479   2415 5C          	db 92
07480   2416 17          	db 23
07481   2417 11          	db 17
07482   2418 1A          	db 26
07483   2419 01          	db 1
07484   241A 15          	db 21
07485   241B 02          	db 2
07486   241C 03          	db 3
07487   241D 1B          	db 27
07488   241E 12          	db 18
07489   241F 18          	db 24
07490   2420 13          	db 19
07491   2421 26          	db 38
07492   2422 83          	db 131
07493   2423 8E          	db 142
07494   2424 9C          	db 156
07495   2425 27          	db 39
07496   2426 98          	db 152
07497   2427 8B          	db 139
07498   2428 81          	db 129
07499   2429 25          	db 37
07500   242A 8D          	db 141
07501   242B 90          	db 144
07502   242C 92          	db 146
07503   242D 28          	db 40
07504   242E 99          	db 153
07505   242F 84          	db 132
07506   2430 9E          	db 158
07507   2431 24          	db 36
07508   2432 85          	db 133
07509   2433 8F          	db 143
07510   2434 88          	db 136
07511   2435 29          	db 41
07512   2436 87          	db 135
07513   2437 86          	db 134
07514   2438 F0          	db 240
07515   2439 04          	db 4
07516   243A 05          	db 5
07517   243B 06          	db 6
07518   243C 07          	db 7
07519   243D 0A          	db 10
07520   243E 08          	db 8
07521   243F 0B          	db 11
07522   2440 20          	db 32
07523   2441 23          	db 35
07524   2442 8A          	db 138
07525   2443 80          	db 128
07526   2444 8C          	db 140
07527   2445 5F          	db 95
07528   2446 95          	db 149
07529   2447 9D          	db 157
07530   2448 2C          	db 44
07531   2449 22          	db 34
07532   244A 93          	db 147
07533   244B 82          	db 130
07534   244C 91          	db 145
07535   244D 3D          	db 61
07536   244E 9A          	db 154
07537   244F 2A          	db 42
07538   2450 2E          	db 46
07539   2451 21          	db 33
07540   2452 2E          	db 46
07541   2453 94          	db 148
07542   2454 9F          	db 159
07543   2455 7E          	db 126
07544   2456 3F          	db 63
07545   2457 2B          	db 43
07546   2458 30          	db 48
07547   2459 14          	db 20
07548   245A 96          	db 150
07549   245B 9B          	db 155
07550   245C 97          	db 151
07551   245D 0C          	db 12
07552   245E 0E          	db 14
07553   245F 19          	db 25
07554   2460 0F          	db 15
07555   2461 0D          	db 13
07556   2462 89          	db 137
07557   2463 09          	db 9
07558   2464 10          	db 16
07559   2465 7C          	db 124
07560   2466 17          	db 23
07561   2467 11          	db 17
07562   2468 1A          	db 26
07563   2469 01          	db 1
07564   246A 15          	db 21
07565   246B 02          	db 2
07566   246C 03          	db 3
07567   246D 1B          	db 27
07568   246E 12          	db 18
07569   246F 18          	db 24
07570   2470 13          	db 19
07571   2471             keyboardMode: 
07572   2471 01          	db 1
07573   2472             keyboardPressedKey: 
07574   2472 00          	ds 1
07575   2473             currentPalette: 
07576   2473 00          	ds 2
07577   2475             imgTitle: 
07578   2475 00          	db 0
07579   2476 61          	db 97
07580   2477 D9          	db 217
07581   2478 FF          	db 255
07582   2479 81          	db 129
07583   247A FA          	db 250
07584   247B FF          	db 255
07585   247C FD          	db 253
07586   247D 18          	db 24
07587   247E 7C          	db 124
07588   247F F8          	db 248
07589   2480 F0          	db 240
07590   2481 C0          	db 192
07591   2482 80          	db 128
07592   2483 81          	db 129
07593   2484 F5          	db 245
07594   2485 FF          	db 255
07595   2486 FE          	db 254
07596   2487 01          	db 1
07597   2488 07          	db 7
07598   2489 1F          	db 31
07599   248A FF          	db 255
07600   248B D8          	db 216
07601   248C FE          	db 254
07602   248D F8          	db 248
07603   248E 87          	db 135
07604   248F FE          	db 254
07605   2490 FD          	db 253
07606   2491 20          	db 32
07607   2492 30          	db 48
07608   2493 10          	db 16
07609   2494 90          	db 144
07610   2495 70          	db 112
07611   2496 C0          	db 192
07612   2497 E3          	db 227
07613   2498 FF          	db 255
07614   2499 FE          	db 254
07615   249A FE          	db 254
07616   249B 82          	db 130
07617   249C BA          	db 186
07618   249D 8C          	db 140
07619   249E 8A          	db 138
07620   249F 20          	db 32
07621   24A0 4C          	db 76
07622   24A1 41          	db 65
07623   24A2 E7          	db 231
07624   24A3 02          	db 2
07625   24A4 8F          	db 143
07626   24A5 09          	db 9
07627   24A6 07          	db 7
07628   24A7 60          	db 96
07629   24A8 71          	db 113
07630   24A9 7E          	db 126
07631   24AA FF          	db 255
07632   24AB 0E          	db 14
07633   24AC 8C          	db 140
07634   24AD FF          	db 255
07635   24AE C7          	db 199
07636   24AF EE          	db 238
07637   24B0 3B          	db 59
07638   24B1 7F          	db 127
07639   24B2 CF          	db 207
07640   24B3 F6          	db 246
07641   24B4 9E          	db 158
07642   24B5 38          	db 56
07643   24B6 F0          	db 240
07644   24B7 E0          	db 224
07645   24B8 07          	db 7
07646   24B9 D7          	db 215
07647   24BA 7F          	db 127
07648   24BB E7          	db 231
07649   24BC 03          	db 3
07650   24BD 0E          	db 14
07651   24BE 1C          	db 28
07652   24BF 39          	db 57
07653   24C0 3B          	db 59
07654   24C1 1F          	db 31
07655   24C2 1F          	db 31
07656   24C3 7E          	db 126
07657   24C4 FC          	db 252
07658   24C5 E3          	db 227
07659   24C6 F8          	db 248
07660   24C7 F0          	db 240
07661   24C8 E0          	db 224
07662   24C9 D0          	db 208
07663   24CA C0          	db 192
07664   24CB FF          	db 255
07665   24CC 27          	db 39
07666   24CD 00          	db 0
07667   24CE FF          	db 255
07668   24CF 60          	db 96
07669   24D0 76          	db 118
07670   24D1 FF          	db 255
07671   24D2 FA          	db 250
07672   24D3 C0          	db 192
07673   24D4 F0          	db 240
07674   24D5 C7          	db 199
07675   24D6 F8          	db 248
07676   24D7 FF          	db 255
07677   24D8 F1          	db 241
07678   24D9 CF          	db 207
07679   24DA 87          	db 135
07680   24DB 83          	db 131
07681   24DC C1          	db 193
07682   24DD FC          	db 252
07683   24DE E0          	db 224
07684   24DF F0          	db 240
07685   24E0 79          	db 121
07686   24E1 3F          	db 63
07687   24E2 7B          	db 123
07688   24E3 0F          	db 15
07689   24E4 06          	db 6
07690   24E5 CE          	db 206
07691   24E6 DA          	db 218
07692   24E7 F0          	db 240
07693   24E8 80          	db 128
07694   24E9 80          	db 128
07695   24EA FB          	db 251
07696   24EB 70          	db 112
07697   24EC FE          	db 254
07698   24ED 06          	db 6
07699   24EE AB          	db 171
07700   24EF F9          	db 249
07701   24F0 40          	db 64
07702   24F1 06          	db 6
07703   24F2 AD          	db 173
07704   24F3 F4          	db 244
07705   24F4 50          	db 80
07706   24F5 01          	db 1
07707   24F6 03          	db 3
07708   24F7 07          	db 7
07709   24F8 FF          	db 255
07710   24F9 0C          	db 12
07711   24FA 20          	db 32
07712   24FB 07          	db 7
07713   24FC 6C          	db 108
07714   24FD 6D          	db 109
07715   24FE ED          	db 237
07716   24FF E0          	db 224
07717   2500 60          	db 96
07718   2501 A0          	db 160
07719   2502 4C          	db 76
07720   2503 FE          	db 254
07721   2504 59          	db 89
07722   2505 CC          	db 204
07723   2506 E0          	db 224
07724   2507 61          	db 97
07725   2508 5A          	db 90
07726   2509 FF          	db 255
07727   250A C0          	db 192
07728   250B 48          	db 72
07729   250C 31          	db 49
07730   250D FF          	db 255
07731   250E 6D          	db 109
07732   250F D7          	db 215
07733   2510 FF          	db 255
07734   2511 C8          	db 200
07735   2512 38          	db 56
07736   2513 FB          	db 251
07737   2514 C2          	db 194
07738   2515 40          	db 64
07739   2516 44          	db 68
07740   2517 DF          	db 223
07741   2518 09          	db 9
07742   2519 00          	db 0
07743   251A 05          	db 5
07744   251B 10          	db 16
07745   251C 02          	db 2
07746   251D FF          	db 255
07747   251E 14          	db 20
07748   251F 01          	db 1
07749   2520 95          	db 149
07750   2521 04          	db 4
07751   2522 8A          	db 138
07752   2523 89          	db 137
07753   2524 4A          	db 74
07754   2525 0A          	db 10
07755   2526 FF          	db 255
07756   2527 55          	db 85
07757   2528 AA          	db 170
07758   2529 D5          	db 213
07759   252A 2A          	db 42
07760   252B DA          	db 218
07761   252C 35          	db 53
07762   252D EB          	db 235
07763   252E AD          	db 173
07764   252F FF          	db 255
07765   2530 B5          	db 181
07766   2531 EF          	db 239
07767   2532 5A          	db 90
07768   2533 F7          	db 247
07769   2534 5D          	db 93
07770   2535 F5          	db 245
07771   2536 DF          	db 223
07772   2537 7B          	db 123
07773   2538 C7          	db 199
07774   2539 2E          	db 46
07775   253A 1C          	db 28
07776   253B 96          	db 150
07777   253C 08          	db 8
07778   253D FF          	db 255
07779   253E 61          	db 97
07780   253F 89          	db 137
07781   2540 E0          	db 224
07782   2541 BB          	db 187
07783   2542 D9          	db 217
07784   2543 7F          	db 127
07785   2544 C2          	db 194
07786   2545 5E          	db 94
07787   2546 4B          	db 75
07788   2547 26          	db 38
07789   2548 51          	db 81
07790   2549 4E          	db 78
07791   254A F0          	db 240
07792   254B BB          	db 187
07793   254C 36          	db 54
07794   254D 40          	db 64
07795   254E 71          	db 113
07796   254F 98          	db 152
07797   2550 87          	db 135
07798   2551 BF          	db 191
07799   2552 72          	db 114
07800   2553 F2          	db 242
07801   2554 60          	db 96
07802   2555 B8          	db 184
07803   2556 54          	db 84
07804   2557 AB          	db 171
07805   2558 76          	db 118
07806   2559 9F          	db 159
07807   255A FE          	db 254
07808   255B EB          	db 235
07809   255C 35          	db 53
07810   255D CE          	db 206
07811   255E 33          	db 51
07812   255F CC          	db 204
07813   2560 B1          	db 177
07814   2561 F7          	db 247
07815   2562 52          	db 82
07816   2563 D9          	db 217
07817   2564 F3          	db 243
07818   2565 CF          	db 207
07819   2566 09          	db 9
07820   2567 99          	db 153
07821   2568 FF          	db 255
07822   2569 7F          	db 127
07823   256A 3F          	db 63
07824   256B FF          	db 255
07825   256C 8F          	db 143
07826   256D 1F          	db 31
07827   256E 0F          	db 15
07828   256F AF          	db 175
07829   2570 07          	db 7
07830   2571 8C          	db 140
07831   2572 A1          	db 161
07832   2573 22          	db 34
07833   2574 39          	db 57
07834   2575 FF          	db 255
07835   2576 F8          	db 248
07836   2577 21          	db 33
07837   2578 76          	db 118
07838   2579 84          	db 132
07839   257A 84          	db 132
07840   257B 85          	db 133
07841   257C 04          	db 4
07842   257D 88          	db 136
07843   257E CF          	db 207
07844   257F 02          	db 2
07845   2580 08          	db 8
07846   2581 FE          	db 254
07847   2582 05          	db 5
07848   2583 80          	db 128
07849   2584 12          	db 18
07850   2585 1F          	db 31
07851   2586 14          	db 20
07852   2587 92          	db 146
07853   2588 C6          	db 198
07854   2589 19          	db 25
07855   258A 99          	db 153
07856   258B FC          	db 252
07857   258C 9A          	db 154
07858   258D 1C          	db 28
07859   258E 9D          	db 157
07860   258F 9C          	db 156
07861   2590 1D          	db 29
07862   2591 9E          	db 158
07863   2592 C4          	db 196
07864   2593 FF          	db 255
07865   2594 1E          	db 30
07866   2595 C7          	db 199
07867   2596 0C          	db 12
07868   2597 CD          	db 205
07869   2598 62          	db 98
07870   2599 87          	db 135
07871   259A 37          	db 55
07872   259B 37          	db 55
07873   259C AF          	db 175
07874   259D BF          	db 191
07875   259E 1F          	db 31
07876   259F 7B          	db 123
07877   25A0 4C          	db 76
07878   25A1 60          	db 96
07879   25A2 E0          	db 224
07880   25A3 FF          	db 255
07881   25A4 98          	db 152
07882   25A5 7C          	db 124
07883   25A6 F8          	db 248
07884   25A7 F6          	db 246
07885   25A8 CF          	db 207
07886   25A9 BF          	db 191
07887   25AA 7B          	db 123
07888   25AB 70          	db 112
07889   25AC FF          	db 255
07890   25AD 77          	db 119
07891   25AE BB          	db 187
07892   25AF DC          	db 220
07893   25B0 67          	db 103
07894   25B1 B9          	db 185
07895   25B2 5C          	db 92
07896   25B3 F8          	db 248
07897   25B4 E1          	db 225
07898   25B5 FD          	db 253
07899   25B6 87          	db 135
07900   25B7 8F          	db 143
07901   25B8 BF          	db 191
07902   25B9 FC          	db 252
07903   25BA FB          	db 251
07904   25BB F7          	db 247
07905   25BC 20          	db 32
07906   25BD DF          	db 223
07907   25BE FE          	db 254
07908   25BF AE          	db 174
07909   25C0 8D          	db 141
07910   25C1 30          	db 48
07911   25C2 9E          	db 158
07912   25C3 3D          	db 61
07913   25C4 8E          	db 142
07914   25C5 13          	db 19
07915   25C6 1E          	db 30
07916   25C7 0C          	db 12
07917   25C8 85          	db 133
07918   25C9 5D          	db 93
07919   25CA F9          	db 249
07920   25CB F2          	db 242
07921   25CC A0          	db 160
07922   25CD 58          	db 88
07923   25CE BC          	db 188
07924   25CF 57          	db 87
07925   25D0 08          	db 8
07926   25D1 9F          	db 159
07927   25D2 02          	db 2
07928   25D3 D5          	db 213
07929   25D4 7A          	db 122
07930   25D5 9D          	db 157
07931   25D6 E6          	db 230
07932   25D7 7B          	db 123
07933   25D8 E8          	db 232
07934   25D9 9C          	db 156
07935   25DA E3          	db 227
07936   25DB FC          	db 252
07937   25DC B4          	db 180
07938   25DD C3          	db 195
07939   25DE F2          	db 242
07940   25DF 01          	db 1
07941   25E0 21          	db 33
07942   25E1 72          	db 114
07943   25E2 71          	db 113
07944   25E3 70          	db 112
07945   25E4 6B          	db 107
07946   25E5 CB          	db 203
07947   25E6 AA          	db 170
07948   25E7 40          	db 64
07949   25E8 54          	db 84
07950   25E9 FF          	db 255
07951   25EA 44          	db 68
07952   25EB E0          	db 224
07953   25EC FD          	db 253
07954   25ED 42          	db 66
07955   25EE 48          	db 72
07956   25EF 40          	db 64
07957   25F0 52          	db 82
07958   25F1 87          	db 135
07959   25F2 45          	db 69
07960   25F3 41          	db 65
07961   25F4 0F          	db 15
07962   25F5 44          	db 68
07963   25F6 49          	db 73
07964   25F7 1C          	db 28
07965   25F8 48          	db 72
07966   25F9 4A          	db 74
07967   25FA 83          	db 131
07968   25FB 43          	db 67
07969   25FC 55          	db 85
07970   25FD 91          	db 145
07971   25FE 4D          	db 77
07972   25FF FC          	db 252
07973   2600 70          	db 112
07974   2601 5A          	db 90
07975   2602 56          	db 86
07976   2603 A1          	db 161
07977   2604 5B          	db 91
07978   2605 78          	db 120
07979   2606 1F          	db 31
07980   2607 16          	db 22
07981   2608 3E          	db 62
07982   2609 15          	db 21
07983   260A 98          	db 152
07984   260B 0B          	db 11
07985   260C 0F          	db 15
07986   260D F1          	db 241
07987   260E 06          	db 6
07988   260F EC          	db 236
07989   2610 04          	db 4
07990   2611 DD          	db 221
07991   2612 D2          	db 210
07992   2613 3A          	db 58
07993   2614 9F          	db 159
07994   2615 FF          	db 255
07995   2616 9E          	db 158
07996   2617 3D          	db 61
07997   2618 FC          	db 252
07998   2619 06          	db 6
07999   261A 58          	db 88
08000   261B 13          	db 19
08001   261C EE          	db 238
08002   261D F9          	db 249
08003   261E AC          	db 172
08004   261F E7          	db 231
08005   2620 87          	db 135
08006   2621 29          	db 41
08007   2622 87          	db 135
08008   2623 89          	db 137
08009   2624 7D          	db 125
08010   2625 FD          	db 253
08011   2626 09          	db 9
08012   2627 91          	db 145
08013   2628 F8          	db 248
08014   2629 91          	db 145
08015   262A BF          	db 191
08016   262B FF          	db 255
08017   262C 9F          	db 159
08018   262D 2F          	db 47
08019   262E 37          	db 55
08020   262F 17          	db 23
08021   2630 97          	db 151
08022   2631 EC          	db 236
08023   2632 77          	db 119
08024   2633 0F          	db 15
08025   2634 7E          	db 126
08026   2635 29          	db 41
08027   2636 7A          	db 122
08028   2637 05          	db 5
08029   2638 70          	db 112
08030   2639 E8          	db 232
08031   263A 56          	db 86
08032   263B BB          	db 187
08033   263C F9          	db 249
08034   263D 0C          	db 12
08035   263E FC          	db 252
08036   263F E7          	db 231
08037   2640 EA          	db 234
08038   2641 D5          	db 213
08039   2642 7B          	db 123
08040   2643 04          	db 4
08041   2644 79          	db 121
08042   2645 9E          	db 158
08043   2646 EF          	db 239
08044   2647 E7          	db 231
08045   2648 F9          	db 249
08046   2649 FE          	db 254
08047   264A 58          	db 88
08048   264B B3          	db 179
08049   264C 8F          	db 143
08050   264D A0          	db 160
08051   264E D0          	db 208
08052   264F EC          	db 236
08053   2650 66          	db 102
08054   2651 1F          	db 31
08055   2652 3F          	db 63
08056   2653 28          	db 40
08057   2654 FF          	db 255
08058   2655 FE          	db 254
08059   2656 E7          	db 231
08060   2657 C3          	db 195
08061   2658 C1          	db 193
08062   2659 1E          	db 30
08063   265A 80          	db 128
08064   265B CE          	db 206
08065   265C FC          	db 252
08066   265D 30          	db 48
08067   265E 10          	db 16
08068   265F 0E          	db 14
08069   2660 40          	db 64
08070   2661 02          	db 2
08071   2662 08          	db 8
08072   2663 04          	db 4
08073   2664 54          	db 84
08074   2665 0E          	db 14
08075   2666 24          	db 36
08076   2667 44          	db 68
08077   2668 10          	db 16
08078   2669 2C          	db 44
08079   266A 12          	db 18
08080   266B 3C          	db 60
08081   266C 48          	db 72
08082   266D 2A          	db 42
08083   266E C4          	db 196
08084   266F FE          	db 254
08085   2670 54          	db 84
08086   2671 FF          	db 255
08087   2672 5A          	db 90
08088   2673 D4          	db 212
08089   2674 AA          	db 170
08090   2675 AC          	db 172
08091   2676 6A          	db 106
08092   2677 DA          	db 218
08093   2678 B6          	db 182
08094   2679 6C          	db 108
08095   267A 0B          	db 11
08096   267B FE          	db 254
08097   267C 55          	db 85
08098   267D F8          	db 248
08099   267E FF          	db 255
08100   267F D6          	db 214
08101   2680 FC          	db 252
08102   2681 B8          	db 184
08103   2682 70          	db 112
08104   2683 F2          	db 242
08105   2684 20          	db 32
08106   2685 FF          	db 255
08107   2686 CC          	db 204
08108   2687 3B          	db 59
08109   2688 CA          	db 202
08110   2689 FC          	db 252
08111   268A 21          	db 33
08112   268B EF          	db 239
08113   268C C7          	db 199
08114   268D 07          	db 7
08115   268E 7F          	db 127
08116   268F 0F          	db 15
08117   2690 1A          	db 26
08118   2691 35          	db 53
08119   2692 6A          	db 106
08120   2693 ED          	db 237
08121   2694 D5          	db 213
08122   2695 AB          	db 171
08123   2696 FF          	db 255
08124   2697 F2          	db 242
08125   2698 29          	db 41
08126   2699 D7          	db 215
08127   269A E3          	db 227
08128   269B 95          	db 149
08129   269C FE          	db 254
08130   269D F9          	db 249
08131   269E F7          	db 247
08132   269F 08          	db 8
08133   26A0 7B          	db 123
08134   26A1 47          	db 71
08135   26A2 3F          	db 63
08136   26A3 B1          	db 177
08137   26A4 14          	db 20
08138   26A5 62          	db 98
08139   26A6 B0          	db 176
08140   26A7 19          	db 25
08141   26A8 93          	db 147
08142   26A9 3F          	db 63
08143   26AA 29          	db 41
08144   26AB 80          	db 128
08145   26AC 40          	db 64
08146   26AD B0          	db 176
08147   26AE 58          	db 88
08148   26AF EE          	db 238
08149   26B0 71          	db 113
08150   26B1 08          	db 8
08151   26B2 00          	db 0
08152   26B3 FC          	db 252
08153   26B4 FF          	db 255
08154   26B5 D5          	db 213
08155   26B6 3B          	db 59
08156   26B7 DD          	db 221
08157   26B8 E6          	db 230
08158   26B9 D9          	db 217
08159   26BA 3E          	db 62
08160   26BB CF          	db 207
08161   26BC F3          	db 243
08162   26BD DE          	db 222
08163   26BE FC          	db 252
08164   26BF 03          	db 3
08165   26C0 B1          	db 177
08166   26C1 AF          	db 175
08167   26C2 1F          	db 31
08168   26C3 31          	db 49
08169   26C4 FE          	db 254
08170   26C5 76          	db 118
08171   26C6 C7          	db 199
08172   26C7 E0          	db 224
08173   26C8 FD          	db 253
08174   26C9 F3          	db 243
08175   26CA DC          	db 220
08176   26CB 0A          	db 10
08177   26CC 7A          	db 122
08178   26CD F8          	db 248
08179   26CE 3F          	db 63
08180   26CF 3F          	db 63
08181   26D0 1E          	db 30
08182   26D1 0E          	db 14
08183   26D2 A1          	db 161
08184   26D3 06          	db 6
08185   26D4 45          	db 69
08186   26D5 FF          	db 255
08187   26D6 77          	db 119
08188   26D7 31          	db 49
08189   26D8 91          	db 145
08190   26D9 83          	db 131
08191   26DA 03          	db 3
08192   26DB F8          	db 248
08193   26DC 93          	db 147
08194   26DD 01          	db 1
08195   26DE 21          	db 33
08196   26DF DF          	db 223
08197   26E0 50          	db 80
08198   26E1 00          	db 0
08199   26E2 14          	db 20
08200   26E3 20          	db 32
08201   26E4 08          	db 8
08202   26E5 89          	db 137
08203   26E6 24          	db 36
08204   26E7 44          	db 68
08205   26E8 F9          	db 249
08206   26E9 54          	db 84
08207   26EA 49          	db 73
08208   26EB 4A          	db 74
08209   26EC 65          	db 101
08210   26ED 6A          	db 106
08211   26EE FE          	db 254
08212   26EF C7          	db 199
08213   26F0 72          	db 114
08214   26F1 75          	db 117
08215   26F2 FF          	db 255
08216   26F3 76          	db 118
08217   26F4 79          	db 121
08218   26F5 7B          	db 123
08219   26F6 7A          	db 122
08220   26F7 33          	db 51
08221   26F8 35          	db 53
08222   26F9 37          	db 55
08223   26FA 02          	db 2
08224   26FB B1          	db 177
08225   26FC 01          	db 1
08226   26FD 22          	db 34
08227   26FE 8A          	db 138
08228   26FF 23          	db 35
08229   2700 C2          	db 194
08230   2701 C1          	db 193
08231   2702 7E          	db 126
08232   2703 5A          	db 90
08233   2704 48          	db 72
08234   2705 06          	db 6
08235   2706 64          	db 100
08236   2707 29          	db 41
08237   2708 3C          	db 60
08238   2709 1E          	db 30
08239   270A 1F          	db 31
08240   270B BF          	db 191
08241   270C FF          	db 255
08242   270D FB          	db 251
08243   270E 6E          	db 110
08244   270F 0F          	db 15
08245   2710 04          	db 4
08246   2711 7C          	db 124
08247   2712 EC          	db 236
08248   2713 29          	db 41
08249   2714 70          	db 112
08250   2715 60          	db 96
08251   2716 79          	db 121
08252   2717 05          	db 5
08253   2718 C0          	db 192
08254   2719 F7          	db 247
08255   271A 70          	db 112
08256   271B BC          	db 188
08257   271C 56          	db 86
08258   271D EF          	db 239
08259   271E 1A          	db 26
08260   271F 08          	db 8
08261   2720 3E          	db 62
08262   2721 04          	db 4
08263   2722 CD          	db 205
08264   2723 F3          	db 243
08265   2724 DC          	db 220
08266   2725 7B          	db 123
08267   2726 9D          	db 157
08268   2727 5F          	db 95
08269   2728 0D          	db 13
08270   2729 F8          	db 248
08271   272A B7          	db 183
08272   272B 01          	db 1
08273   272C 5B          	db 91
08274   272D 3F          	db 63
08275   272E C7          	db 199
08276   272F BC          	db 188
08277   2730 1B          	db 27
08278   2731 13          	db 19
08279   2732 17          	db 23
08280   2733 F5          	db 245
08281   2734 CE          	db 206
08282   2735 EF          	db 239
08283   2736 85          	db 133
08284   2737 4C          	db 76
08285   2738 04          	db 4
08286   2739 F9          	db 249
08287   273A F0          	db 240
08288   273B 75          	db 117
08289   273C 96          	db 150
08290   273D 9F          	db 159
08291   273E FC          	db 252
08292   273F 47          	db 71
08293   2740 B9          	db 185
08294   2741 10          	db 16
08295   2742 FB          	db 251
08296   2743 24          	db 36
08297   2744 01          	db 1
08298   2745 00          	db 0
08299   2746 05          	db 5
08300   2747 81          	db 129
08301   2748 2A          	db 42
08302   2749 52          	db 82
08303   274A C0          	db 192
08304   274B 08          	db 8
08305   274C 22          	db 34
08306   274D 5F          	db 95
08307   274E 00          	db 0
08308   274F 16          	db 22
08309   2750 54          	db 84
08310   2751 2A          	db 42
08311   2752 42          	db 66
08312   2753 FE          	db 254
08313   2754 56          	db 86
08314   2755 8B          	db 139
08315   2756 5A          	db 90
08316   2757 3A          	db 58
08317   2758 FF          	db 255
08318   2759 6A          	db 106
08319   275A 2E          	db 46
08320   275B 7C          	db 124
08321   275C 5B          	db 91
08322   275D FB          	db 251
08323   275E 36          	db 54
08324   275F 7E          	db 126
08325   2760 2C          	db 44
08326   2761 8F          	db 143
08327   2762 3C          	db 60
08328   2763 18          	db 24
08329   2764 1E          	db 30
08330   2765 10          	db 16
08331   2766 C2          	db 194
08332   2767 AD          	db 173
08333   2768 FF          	db 255
08334   2769 38          	db 56
08335   276A 0F          	db 15
08336   276B 7F          	db 127
08337   276C FF          	db 255
08338   276D 78          	db 120
08339   276E 7C          	db 124
08340   276F 3F          	db 63
08341   2770 1E          	db 30
08342   2771 B1          	db 177
08343   2772 0C          	db 12
08344   2773 EC          	db 236
08345   2774 AE          	db 174
08346   2775 29          	db 41
08347   2776 7D          	db 125
08348   2777 1A          	db 26
08349   2778 F0          	db 240
08350   2779 5C          	db 92
08351   277A BA          	db 186
08352   277B 55          	db 85
08353   277C FE          	db 254
08354   277D 11          	db 17
08355   277E 08          	db 8
08356   277F 00          	db 0
08357   2780 CF          	db 207
08358   2781 F8          	db 248
08359   2782 4D          	db 77
08360   2783 F3          	db 243
08361   2784 5C          	db 92
08362   2785 FB          	db 251
08363   2786 D7          	db 215
08364   2787 1D          	db 29
08365   2788 E6          	db 230
08366   2789 9A          	db 154
08367   278A 0B          	db 11
08368   278B FF          	db 255
08369   278C 54          	db 84
08370   278D 00          	db 0
08371   278E F1          	db 241
08372   278F 70          	db 112
08373   2790 F5          	db 245
08374   2791 1D          	db 29
08375   2792 87          	db 135
08376   2793 F8          	db 248
08377   2794 8B          	db 139
08378   2795 18          	db 24
08379   2796 94          	db 148
08380   2797 5B          	db 91
08381   2798 FA          	db 250
08382   2799 03          	db 3
08383   279A 9F          	db 159
08384   279B FB          	db 251
08385   279C 0C          	db 12
08386   279D B8          	db 184
08387   279E 05          	db 5
08388   279F F3          	db 243
08389   27A0 59          	db 89
08390   27A1 46          	db 70
08391   27A2 FF          	db 255
08392   27A3 11          	db 17
08393   27A4 81          	db 129
08394   27A5 62          	db 98
08395   27A6 FD          	db 253
08396   27A7 21          	db 33
08397   27A8 05          	db 5
08398   27A9 41          	db 65
08399   27AA 85          	db 133
08400   27AB 49          	db 73
08401   27AC 51          	db 81
08402   27AD 0B          	db 11
08403   27AE A9          	db 169
08404   27AF 91          	db 145
08405   27B0 10          	db 16
08406   27B1 61          	db 97
08407   27B2 01          	db 1
08408   27B3 00          	db 0
08409   27B4 C0          	db 192
08410   27B5 FD          	db 253
08411   27B6 59          	db 89
08412   27B7 8A          	db 138
08413   27B8 69          	db 105
08414   27B9 34          	db 52
08415   27BA E9          	db 233
08416   27BB 23          	db 35
08417   27BC 62          	db 98
08418   27BD F4          	db 244
08419   27BE E1          	db 225
08420   27BF D8          	db 216
08421   27C0 F8          	db 248
08422   27C1 B0          	db 176
08423   27C2 03          	db 3
08424   27C3 60          	db 96
08425   27C4 1E          	db 30
08426   27C5 40          	db 64
08427   27C6 C1          	db 193
08428   27C7 37          	db 55
08429   27C8 2B          	db 43
08430   27C9 29          	db 41
08431   27CA 5C          	db 92
08432   27CB 24          	db 36
08433   27CC 58          	db 88
08434   27CD FC          	db 252
08435   27CE 57          	db 87
08436   27CF C6          	db 198
08437   27D0 0C          	db 12
08438   27D1 FF          	db 255
08439   27D2 A2          	db 162
08440   27D3 FB          	db 251
08441   27D4 FC          	db 252
08442   27D5 7F          	db 127
08443   27D6 F8          	db 248
08444   27D7 75          	db 117
08445   27D8 9B          	db 155
08446   27D9 67          	db 103
08447   27DA F9          	db 249
08448   27DB 56          	db 86
08449   27DC FB          	db 251
08450   27DD 35          	db 53
08451   27DE 5E          	db 94
08452   27DF 0B          	db 11
08453   27E0 DA          	db 218
08454   27E1 F8          	db 248
08455   27E2 07          	db 7
08456   27E3 B5          	db 181
08457   27E4 53          	db 83
08458   27E5 3F          	db 63
08459   27E6 C3          	db 195
08460   27E7 E4          	db 228
08461   27E8 08          	db 8
08462   27E9 F8          	db 248
08463   27EA A3          	db 163
08464   27EB 07          	db 7
08465   27EC C0          	db 192
08466   27ED 13          	db 19
08467   27EE 7A          	db 122
08468   27EF A6          	db 166
08469   27F0 70          	db 112
08470   27F1 78          	db 120
08471   27F2 7C          	db 124
08472   27F3 7F          	db 127
08473   27F4 30          	db 48
08474   27F5 FF          	db 255
08475   27F6 AB          	db 171
08476   27F7 CB          	db 203
08477   27F8 03          	db 3
08478   27F9 4B          	db 75
08479   27FA FD          	db 253
08480   27FB D7          	db 215
08481   27FC 56          	db 86
08482   27FD 04          	db 4
08483   27FE 70          	db 112
08484   27FF 31          	db 49
08485   2800 C0          	db 192
08486   2801 FB          	db 251
08487   2802 05          	db 5
08488   2803 33          	db 51
08489   2804 FF          	db 255
08490   2805 84          	db 132
08491   2806 FD          	db 253
08492   2807 44          	db 68
08493   2808 00          	db 0
08494   2809 60          	db 96
08495   280A 0F          	db 15
08496   280B FE          	db 254
08497   280C 24          	db 36
08498   280D 85          	db 133
08499   280E 20          	db 32
08500   280F F1          	db 241
08501   2810 40          	db 64
08502   2811 94          	db 148
08503   2812 22          	db 34
08504   2813 AA          	db 170
08505   2814 3C          	db 60
08506   2815 A4          	db 164
08507   2816 45          	db 69
08508   2817 A5          	db 165
08509   2818 44          	db 68
08510   2819 64          	db 100
08511   281A FF          	db 255
08512   281B 9F          	db 159
08513   281C 65          	db 101
08514   281D FD          	db 253
08515   281E E5          	db 229
08516   281F 41          	db 65
08517   2820 F1          	db 241
08518   2821 D3          	db 211
08519   2822 DD          	db 221
08520   2823 60          	db 96
08521   2824 E1          	db 225
08522   2825 A1          	db 161
08523   2826 16          	db 22
08524   2827 D8          	db 216
08525   2828 24          	db 36
08526   2829 E5          	db 229
08527   282A 29          	db 41
08528   282B 6B          	db 107
08529   282C CC          	db 204
08530   282D F8          	db 248
08531   282E 54          	db 84
08532   282F 2C          	db 44
08533   2830 0C          	db 12
08534   2831 96          	db 150
08535   2832 FE          	db 254
08536   2833 75          	db 117
08537   2834 9F          	db 159
08538   2835 89          	db 137
08539   2836 04          	db 4
08540   2837 FA          	db 250
08541   2838 E7          	db 231
08542   2839 69          	db 105
08543   283A B5          	db 181
08544   283B 30          	db 48
08545   283C D7          	db 215
08546   283D 09          	db 9
08547   283E 71          	db 113
08548   283F 0D          	db 13
08549   2840 FF          	db 255
08550   2841 05          	db 5
08551   2842 9A          	db 154
08552   2843 80          	db 128
08553   2844 F8          	db 248
08554   2845 F0          	db 240
08555   2846 58          	db 88
08556   2847 F3          	db 243
08557   2848 83          	db 131
08558   2849 DF          	db 223
08559   284A 7B          	db 123
08560   284B BF          	db 191
08561   284C C1          	db 193
08562   284D E3          	db 227
08563   284E F7          	db 247
08564   284F 53          	db 83
08565   2850 FF          	db 255
08566   2851 08          	db 8
08567   2852 B5          	db 181
08568   2853 FB          	db 251
08569   2854 78          	db 120
08570   2855 1F          	db 31
08571   2856 38          	db 56
08572   2857 30          	db 48
08573   2858 1D          	db 29
08574   2859 A7          	db 167
08575   285A 9A          	db 154
08576   285B 00          	db 0
08577   285C 29          	db 41
08578   285D FF          	db 255
08579   285E 12          	db 18
08580   285F FE          	db 254
08581   2860 11          	db 17
08582   2861 A4          	db 164
08583   2862 14          	db 20
08584   2863 FE          	db 254
08585   2864 92          	db 146
08586   2865 01          	db 1
08587   2866 E0          	db 224
08588   2867 94          	db 148
08589   2868 89          	db 137
08590   2869 95          	db 149
08591   286A 3C          	db 60
08592   286B FE          	db 254
08593   286C 15          	db 21
08594   286D 92          	db 146
08595   286E 16          	db 22
08596   286F CF          	db 207
08597   2870 FC          	db 252
08598   2871 93          	db 147
08599   2872 FC          	db 252
08600   2873 87          	db 135
08601   2874 CA          	db 202
08602   2875 CF          	db 207
08603   2876 EF          	db 239
08604   2877 83          	db 131
08605   2878 07          	db 7
08606   2879 02          	db 2
08607   287A CB          	db 203
08608   287B D5          	db 213
08609   287C 04          	db 4
08610   287D 6B          	db 107
08611   287E E8          	db 232
08612   287F 1D          	db 29
08613   2880 78          	db 120
08614   2881 FE          	db 254
08615   2882 10          	db 16
08616   2883 90          	db 144
08617   2884 0C          	db 12
08618   2885 77          	db 119
08619   2886 9A          	db 154
08620   2887 3C          	db 60
08621   2888 F8          	db 248
08622   2889 37          	db 55
08623   288A CF          	db 207
08624   288B 73          	db 115
08625   288C FC          	db 252
08626   288D EB          	db 235
08627   288E F4          	db 244
08628   288F F5          	db 245
08629   2890 1F          	db 31
08630   2891 6C          	db 108
08631   2892 16          	db 22
08632   2893 85          	db 133
08633   2894 5A          	db 90
08634   2895 E1          	db 225
08635   2896 DC          	db 220
08636   2897 0D          	db 13
08637   2898 69          	db 105
08638   2899 CB          	db 203
08639   289A 04          	db 4
08640   289B 00          	db 0
08641   289C BF          	db 191
08642   289D F4          	db 244
08643   289E 80          	db 128
08644   289F 01          	db 1
08645   28A0 8C          	db 140
08646   28A1 4B          	db 75
08647   28A2 AE          	db 174
08648   28A3 0F          	db 15
08649   28A4 7F          	db 127
08650   28A5 1A          	db 26
08651   28A6 1F          	db 31
08652   28A7 C2          	db 194
08653   28A8 EE          	db 238
08654   28A9 37          	db 55
08655   28AA FD          	db 253
08656   28AB BC          	db 188
08657   28AC F6          	db 246
08658   28AD D0          	db 208
08659   28AE E0          	db 224
08660   28AF FD          	db 253
08661   28B0 C1          	db 193
08662   28B1 C4          	db 196
08663   28B2 C0          	db 192
08664   28B3 C9          	db 201
08665   28B4 C6          	db 198
08666   28B5 45          	db 69
08667   28B6 50          	db 80
08668   28B7 91          	db 145
08669   28B8 04          	db 4
08670   28B9 06          	db 6
08671   28BA 7F          	db 127
08672   28BB 09          	db 9
08673   28BC 0A          	db 10
08674   28BD 92          	db 146
08675   28BE 05          	db 5
08676   28BF 15          	db 21
08677   28C0 8A          	db 138
08678   28C1 F1          	db 241
08679   28C2 55          	db 85
08680   28C3 4A          	db 74
08681   28C4 95          	db 149
08682   28C5 56          	db 86
08683   28C6 3F          	db 63
08684   28C7 ED          	db 237
08685   28C8 5B          	db 91
08686   28C9 B5          	db 181
08687   28CA 57          	db 87
08688   28CB FA          	db 250
08689   28CC AF          	db 175
08690   28CD FB          	db 251
08691   28CE F6          	db 246
08692   28CF DE          	db 222
08693   28D0 7B          	db 123
08694   28D1 6F          	db 111
08695   28D2 3E          	db 62
08696   28D3 F0          	db 240
08697   28D4 00          	db 0
08698   28D5 C3          	db 195
08699   28D6 FB          	db 251
08700   28D7 2E          	db 46
08701   28D8 A1          	db 161
08702   28D9 F4          	db 244
08703   28DA F9          	db 249
08704   28DB 76          	db 118
08705   28DC FF          	db 255
08706   28DD D5          	db 213
08707   28DE 08          	db 8
08708   28DF A3          	db 163
08709   28E0 DD          	db 221
08710   28E1 FC          	db 252
08711   28E2 DA          	db 218
08712   28E3 F8          	db 248
08713   28E4 7F          	db 127
08714   28E5 B7          	db 183
08715   28E6 F2          	db 242
08716   28E7 12          	db 18
08717   28E8 4D          	db 77
08718   28E9 F8          	db 248
08719   28EA 3F          	db 63
08720   28EB F9          	db 249
08721   28EC E0          	db 224
08722   28ED 94          	db 148
08723   28EE 3D          	db 61
08724   28EF 5C          	db 92
08725   28F0 0D          	db 13
08726   28F1 DA          	db 218
08727   28F2 87          	db 135
08728   28F3 7F          	db 127
08729   28F4 38          	db 56
08730   28F5 F6          	db 246
08731   28F6 C1          	db 193
08732   28F7 FE          	db 254
08733   28F8 C0          	db 192
08734   28F9 84          	db 132
08735   28FA FA          	db 250
08736   28FB 46          	db 70
08737   28FC 2D          	db 45
08738   28FD 95          	db 149
08739   28FE 00          	db 0
08740   28FF DB          	db 219
08741   2900 BA          	db 186
08742   2901 F8          	db 248
08743   2902 4F          	db 79
08744   2903 B0          	db 176
08745   2904 D7          	db 215
08746   2905 D6          	db 214
08747   2906 E2          	db 226
08748   2907 F8          	db 248
08749   2908 42          	db 66
08750   2909 81          	db 129
08751   290A FE          	db 254
08752   290B 09          	db 9
08753   290C 80          	db 128
08754   290D 10          	db 16
08755   290E 00          	db 0
08756   290F 08          	db 8
08757   2910 20          	db 32
08758   2911 04          	db 4
08759   2912 1F          	db 31
08760   2913 84          	db 132
08761   2914 12          	db 18
08762   2915 92          	db 146
08763   2916 0F          	db 15
08764   2917 81          	db 129
08765   2918 0A          	db 10
08766   2919 C7          	db 199
08767   291A 82          	db 130
08768   291B 15          	db 21
08769   291C 04          	db 4
08770   291D 5C          	db 92
08771   291E 99          	db 153
08772   291F 1A          	db 26
08773   2920 6F          	db 111
08774   2921 1B          	db 27
08775   2922 9C          	db 156
08776   2923 1D          	db 29
08777   2924 9D          	db 157
08778   2925 1F          	db 31
08779   2926 9E          	db 158
08780   2927 8C          	db 140
08781   2928 D8          	db 216
08782   2929 CC          	db 204
08783   292A 4D          	db 77
08784   292B 77          	db 119
08785   292C E6          	db 230
08786   292D 05          	db 5
08787   292E FC          	db 252
08788   292F 1A          	db 26
08789   2930 CD          	db 205
08790   2931 DC          	db 220
08791   2932 FE          	db 254
08792   2933 18          	db 24
08793   2934 FD          	db 253
08794   2935 21          	db 33
08795   2936 0C          	db 12
08796   2937 DF          	db 223
08797   2938 35          	db 53
08798   2939 6B          	db 107
08799   293A F8          	db 248
08800   293B 7F          	db 127
08801   293C 9F          	db 159
08802   293D EE          	db 238
08803   293E 0F          	db 15
08804   293F 36          	db 54
08805   2940 F8          	db 248
08806   2941 F6          	db 246
08807   2942 0B          	db 11
08808   2943 F0          	db 240
08809   2944 0F          	db 15
08810   2945 B1          	db 177
08811   2946 CD          	db 205
08812   2947 5F          	db 95
08813   2948 8D          	db 141
08814   2949 AF          	db 175
08815   294A 8F          	db 143
08816   294B E1          	db 225
08817   294C 53          	db 83
08818   294D A8          	db 168
08819   294E 57          	db 87
08820   294F 1F          	db 31
08821   2950 FE          	db 254
08822   2951 00          	db 0
08823   2952 2F          	db 47
08824   2953 5F          	db 95
08825   2954 BF          	db 191
08826   2955 DC          	db 220
08827   2956 1F          	db 31
08828   2957 E0          	db 224
08829   2958 E7          	db 231
08830   2959 ED          	db 237
08831   295A 40          	db 64
08832   295B 0F          	db 15
08833   295C 10          	db 16
08834   295D 35          	db 53
08835   295E 95          	db 149
08836   295F 40          	db 64
08837   2960 35          	db 53
08838   2961 B7          	db 183
08839   2962 20          	db 32
08840   2963 56          	db 86
08841   2964 6C          	db 108
08842   2965 1A          	db 26
08843   2966 F1          	db 241
08844   2967 01          	db 1
08845   2968 9F          	db 159
08846   2969 7B          	db 123
08847   296A F8          	db 248
08848   296B 40          	db 64
08849   296C 4B          	db 75
08850   296D CD          	db 205
08851   296E F9          	db 249
08852   296F 48          	db 72
08853   2970 FD          	db 253
08854   2971 49          	db 73
08855   2972 20          	db 32
08856   2973 FE          	db 254
08857   2974 55          	db 85
08858   2975 E6          	db 230
08859   2976 44          	db 68
08860   2977 52          	db 82
08861   2978 FE          	db 254
08862   2979 4A          	db 74
08863   297A 63          	db 99
08864   297B FC          	db 252
08865   297C 55          	db 85
08866   297D 86          	db 134
08867   297E 93          	db 147
08868   297F FE          	db 254
08869   2980 4D          	db 77
08870   2981 FE          	db 254
08871   2982 5B          	db 91
08872   2983 8E          	db 142
08873   2984 56          	db 86
08874   2985 2F          	db 47
08875   2986 16          	db 22
08876   2987 3B          	db 59
08877   2988 2F          	db 47
08878   2989 B5          	db 181
08879   298A 1D          	db 29
08880   298B C3          	db 195
08881   298C 00          	db 0
08882   298D 0D          	db 13
08883   298E 0A          	db 10
08884   298F 05          	db 5
08885   2990 B6          	db 182
08886   2991 F0          	db 240
08887   2992 FC          	db 252
08888   2993 9E          	db 158
08889   2994 28          	db 40
08890   2995 5D          	db 93
08891   2996 65          	db 101
08892   2997 6C          	db 108
08893   2998 F8          	db 248
08894   2999 78          	db 120
08895   299A 04          	db 4
08896   299B 07          	db 7
08897   299C FD          	db 253
08898   299D 17          	db 23
08899   299E BF          	db 191
08900   299F BF          	db 191
08901   29A0 0B          	db 11
08902   29A1 5F          	db 95
08903   29A2 AB          	db 171
08904   29A3 55          	db 85
08905   29A4 A8          	db 168
08906   29A5 05          	db 5
08907   29A6 2A          	db 42
08908   29A7 EA          	db 234
08909   29A8 15          	db 21
08910   29A9 A2          	db 162
08911   29AA 54          	db 84
08912   29AB EF          	db 239
08913   29AC AF          	db 175
08914   29AD 74          	db 116
08915   29AE FE          	db 254
08916   29AF 80          	db 128
08917   29B0 05          	db 5
08918   29B1 A0          	db 160
08919   29B2 FA          	db 250
08920   29B3 EB          	db 235
08921   29B4 AB          	db 171
08922   29B5 57          	db 87
08923   29B6 01          	db 1
08924   29B7 5C          	db 92
08925   29B8 5A          	db 90
08926   29B9 80          	db 128
08927   29BA 51          	db 81
08928   29BB 88          	db 136
08929   29BC 88          	db 136
08930   29BD E8          	db 232
08931   29BE 34          	db 52
08932   29BF 75          	db 117
08933   29C0 4F          	db 79
08934   29C1 D5          	db 213
08935   29C2 6A          	db 106
08936   29C3 B4          	db 180
08937   29C4 EA          	db 234
08938   29C5 C2          	db 194
08939   29C6 B5          	db 181
08940   29C7 EE          	db 238
08941   29C8 13          	db 19
08942   29C9 D4          	db 212
08943   29CA 2A          	db 42
08944   29CB 1B          	db 27
08945   29CC A0          	db 160
08946   29CD 00          	db 0
08947   29CE 8E          	db 142
08948   29CF F0          	db 240
08949   29D0 CA          	db 202
08950   29D1 30          	db 48
08951   29D2 29          	db 41
08952   29D3 D6          	db 214
08953   29D4 FA          	db 250
08954   29D5 F9          	db 249
08955   29D6 08          	db 8
08956   29D7 40          	db 64
08957   29D8 F8          	db 248
08958   29D9 03          	db 3
08959   29DA 11          	db 17
08960   29DB 0A          	db 10
08961   29DC 7F          	db 127
08962   29DD 44          	db 68
08963   29DE 10          	db 16
08964   29DF 12          	db 18
08965   29E0 24          	db 36
08966   29E1 08          	db 8
08967   29E2 54          	db 84
08968   29E3 1B          	db 27
08969   29E4 52          	db 82
08970   29E5 14          	db 20
08971   29E6 11          	db 17
08972   29E7 FA          	db 250
08973   29E8 00          	db 0
08974   29E9 83          	db 131
08975   29EA 36          	db 54
08976   29EB 5A          	db 90
08977   29EC 1F          	db 31
08978   29ED 56          	db 86
08979   29EE 7C          	db 124
08980   29EF 03          	db 3
08981   29F0 7E          	db 126
08982   29F1 EA          	db 234
08983   29F2 FB          	db 251
08984   29F3 DE          	db 222
08985   29F4 7B          	db 123
08986   29F5 EF          	db 239
08987   29F6 BE          	db 190
08988   29F7 F8          	db 248
08989   29F8 BA          	db 186
08990   29F9 D2          	db 210
08991   29FA C6          	db 198
08992   29FB 0C          	db 12
08993   29FC 1C          	db 28
08994   29FD 2B          	db 43
08995   29FE F5          	db 245
08996   29FF 65          	db 101
08997   2A00 3F          	db 63
08998   2A01 79          	db 121
08999   2A02 0D          	db 13
09000   2A03 AB          	db 171
09001   2A04 F7          	db 247
09002   2A05 E3          	db 227
09003   2A06 1C          	db 28
09004   2A07 64          	db 100
09005   2A08 BC          	db 188
09006   2A09 E8          	db 232
09007   2A0A FD          	db 253
09008   2A0B EA          	db 234
09009   2A0C D5          	db 213
09010   2A0D 2A          	db 42
09011   2A0E C4          	db 196
09012   2A0F 0E          	db 14
09013   2A10 04          	db 4
09014   2A11 6A          	db 106
09015   2A12 02          	db 2
09016   2A13 0A          	db 10
09017   2A14 15          	db 21
09018   2A15 50          	db 80
09019   2A16 20          	db 32
09020   2A17 F4          	db 244
09021   2A18 D3          	db 211
09022   2A19 16          	db 22
09023   2A1A F5          	db 245
09024   2A1B B6          	db 182
09025   2A1C 15          	db 21
09026   2A1D A8          	db 168
09027   2A1E A0          	db 160
09028   2A1F 55          	db 85
09029   2A20 04          	db 4
09030   2A21 9B          	db 155
09031   2A22 EE          	db 238
09032   2A23 DB          	db 219
09033   2A24 4E          	db 78
09034   2A25 84          	db 132
09035   2A26 EB          	db 235
09036   2A27 9E          	db 158
09037   2A28 FD          	db 253
09038   2A29 3D          	db 61
09039   2A2A 17          	db 23
09040   2A2B 02          	db 2
09041   2A2C 00          	db 0
09042   2A2D 03          	db 3
09043   2A2E C8          	db 200
09044   2A2F FF          	db 255
09045   2A30 F2          	db 242
09046   2A31 C3          	db 195
09047   2A32 5C          	db 92
09048   2A33 8E          	db 142
09049   2A34 FC          	db 252
09050   2A35 EE          	db 238
09051   2A36 41          	db 65
09052   2A37 C1          	db 193
09053   2A38 91          	db 145
09054   2A39 58          	db 88
09055   2A3A 03          	db 3
09056   2A3B D3          	db 211
09057   2A3C 11          	db 17
09058   2A3D 41          	db 65
09059   2A3E FE          	db 254
09060   2A3F 20          	db 32
09061   2A40 48          	db 72
09062   2A41 E2          	db 226
09063   2A42 50          	db 80
09064   2A43 84          	db 132
09065   2A44 28          	db 40
09066   2A45 C2          	db 194
09067   2A46 54          	db 84
09068   2A47 1A          	db 26
09069   2A48 A8          	db 168
09070   2A49 55          	db 85
09071   2A4A 04          	db 4
09072   2A4B A0          	db 160
09073   2A4C FD          	db 253
09074   2A4D 36          	db 54
09075   2A4E 7F          	db 127
09076   2A4F 6E          	db 110
09077   2A50 5C          	db 92
09078   2A51 6A          	db 106
09079   2A52 5E          	db 94
09080   2A53 7A          	db 122
09081   2A54 6F          	db 111
09082   2A55 FB          	db 251
09083   2A56 EE          	db 238
09084   2A57 D7          	db 215
09085   2A58 7F          	db 127
09086   2A59 1E          	db 30
09087   2A5A DB          	db 219
09088   2A5B 43          	db 67
09089   2A5C 0A          	db 10
09090   2A5D F8          	db 248
09091   2A5E 1A          	db 26
09092   2A5F C4          	db 196
09093   2A60 8B          	db 139
09094   2A61 05          	db 5
09095   2A62 CD          	db 205
09096   2A63 21          	db 33
09097   2A64 8F          	db 143
09098   2A65 04          	db 4
09099   2A66 F2          	db 242
09100   2A67 FF          	db 255
09101   2A68 6C          	db 108
09102   2A69 F8          	db 248
09103   2A6A F8          	db 248
09104   2A6B C7          	db 199
09105   2A6C 8B          	db 139
09106   2A6D 3B          	db 59
09107   2A6E 42          	db 66
09108   2A6F 7F          	db 127
09109   2A70 18          	db 24
09110   2A71 FE          	db 254
09111   2A72 FD          	db 253
09112   2A73 80          	db 128
09113   2A74 7D          	db 125
09114   2A75 FA          	db 250
09115   2A76 A1          	db 161
09116   2A77 F5          	db 245
09117   2A78 FE          	db 254
09118   2A79 0A          	db 10
09119   2A7A 81          	db 129
09120   2A7B FC          	db 252
09121   2A7C FD          	db 253
09122   2A7D 5C          	db 92
09123   2A7E EC          	db 236
09124   2A7F 7E          	db 126
09125   2A80 86          	db 134
09126   2A81 04          	db 4
09127   2A82 89          	db 137
09128   2A83 04          	db 4
09129   2A84 01          	db 1
09130   2A85 8D          	db 141
09131   2A86 F0          	db 240
09132   2A87 02          	db 2
09133   2A88 9C          	db 156
09134   2A89 05          	db 5
09135   2A8A FE          	db 254
09136   2A8B 0B          	db 11
09137   2A8C 06          	db 6
09138   2A8D 62          	db 98
09139   2A8E 75          	db 117
09140   2A8F 03          	db 3
09141   2A90 15          	db 21
09142   2A91 34          	db 52
09143   2A92 74          	db 116
09144   2A93 A4          	db 164
09145   2A94 29          	db 41
09146   2A95 87          	db 135
09147   2A96 DA          	db 218
09148   2A97 FF          	db 255
09149   2A98 CF          	db 207
09150   2A99 18          	db 24
09151   2A9A FF          	db 255
09152   2A9B E7          	db 231
09153   2A9C 4B          	db 75
09154   2A9D FB          	db 251
09155   2A9E FF          	db 255
09156   2A9F BA          	db 186
09157   2AA0 FA          	db 250
09158   2AA1 52          	db 82
09159   2AA2 59          	db 89
09160   2AA3 FF          	db 255
09161   2AA4 FD          	db 253
09162   2AA5 D5          	db 213
09163   2AA6 FD          	db 253
09164   2AA7 FE          	db 254
09165   2AA8 6E          	db 110
09166   2AA9 FF          	db 255
09167   2AAA 65          	db 101
09168   2AAB 18          	db 24
09169   2AAC D7          	db 215
09170   2AAD 61          	db 97
09171   2AAE 9B          	db 155
09172   2AAF 13          	db 19
09173   2AB0 FE          	db 254
09174   2AB1 30          	db 48
09175   2AB2 95          	db 149
09176   2AB3 CB          	db 203
09177   2AB4 37          	db 55
09178   2AB5 0E          	db 14
09179   2AB6 F3          	db 243
09180   2AB7 0B          	db 11
09181   2AB8 FA          	db 250
09182   2AB9 14          	db 20
09183   2ABA 37          	db 55
09184   2ABB 57          	db 87
09185   2ABC AE          	db 174
09186   2ABD 51          	db 81
09187   2ABE C9          	db 201
09188   2ABF 8F          	db 143
09189   2AC0 17          	db 23
09190   2AC1 FA          	db 250
09191   2AC2 F6          	db 246
09192   2AC3 ED          	db 237
09193   2AC4 3F          	db 63
09194   2AC5 43          	db 67
09195   2AC6 BC          	db 188
09196   2AC7 3F          	db 63
09197   2AC8 37          	db 55
09198   2AC9 78          	db 120
09199   2ACA AE          	db 174
09200   2ACB 07          	db 7
09201   2ACC 0D          	db 13
09202   2ACD 63          	db 99
09203   2ACE 01          	db 1
09204   2ACF BA          	db 186
09205   2AD0 0E          	db 14
09206   2AD1 D3          	db 211
09207   2AD2 A0          	db 160
09208   2AD3 80          	db 128
09209   2AD4 F7          	db 247
09210   2AD5 03          	db 3
09211   2AD6 AE          	db 174
09212   2AD7 1C          	db 28
09213   2AD8 56          	db 86
09214   2AD9 52          	db 82
09215   2ADA 40          	db 64
09216   2ADB D8          	db 216
09217   2ADC FF          	db 255
09218   2ADD 85          	db 133
09219   2ADE 1B          	db 27
09220   2ADF 05          	db 5
09221   2AE0 2D          	db 45
09222   2AE1 FF          	db 255
09223   2AE2 FC          	db 252
09224   2AE3 4E          	db 78
09225   2AE4 FF          	db 255
09226   2AE5 30          	db 48
09227   2AE6 48          	db 72
09228   2AE7 A8          	db 168
09229   2AE8 FF          	db 255
09230   2AE9 FF          	db 255
09231   2AEA 87          	db 135
09232   2AEB 01          	db 1
09233   2AEC 21          	db 33
09234   2AED 7F          	db 127
09235   2AEE F0          	db 240
09236   2AEF 00          	db 0
09237   2AF0 00          	db 0
09238   2AF1 50          	db 80
09239   2AF2 7C          	db 124
09240   2AF3 51          	db 81
09241   2AF4 83          	db 131
09242   2AF5 A3          	db 163
09243   2AF6 C7          	db 199
09244   2AF7 75          	db 117
09245   2AF8 B1          	db 177
09246   2AF9 E4          	db 228
09247   2AFA 60          	db 96
09248   2AFB EF          	db 239
09249   2AFC FF          	db 255
09250   2AFD 83          	db 131
09251   2AFE B3          	db 179
09252   2AFF 21          	db 33
09253   2B00 29          	db 41
09254   2B01 68          	db 104
09255   2B02 D4          	db 212
09256   2B03 59          	db 89
09257   2B04 12          	db 18
09258   2B05 79          	db 121
09259   2B06 61          	db 97
09260   2B07 FE          	db 254
09261   2B08 69          	db 105
09262   2B09 65          	db 101
09263   2B0A F8          	db 248
09264   2B0B 58          	db 88
09265   2B0C A5          	db 165
09266   2B0D 84          	db 132
09267   2B0E 8F          	db 143
09268   2B0F 05          	db 5
09269   2B10 40          	db 64
09270   2B11 70          	db 112
09271   2B12 78          	db 120
09272   2B13 7E          	db 126
09273   2B14 B1          	db 177
09274   2B15 7F          	db 127
09275   2B16 27          	db 39
09276   2B17 FF          	db 255
09277   2B18 1F          	db 31
09278   2B19 67          	db 103
09279   2B1A 79          	db 121
09280   2B1B 6A          	db 106
09281   2B1C E7          	db 231
09282   2B1D 69          	db 105
09283   2B1E EA          	db 234
09284   2B1F 02          	db 2
09285   2B20 5F          	db 95
09286   2B21 9B          	db 155
09287   2B22 25          	db 37
09288   2B23 21          	db 33
09289   2B24 FE          	db 254
09290   2B25 54          	db 84
09291   2B26 F7          	db 247
09292   2B27 A0          	db 160
09293   2B28 05          	db 5
09294   2B29 82          	db 130
09295   2B2A 50          	db 80
09296   2B2B 3D          	db 61
09297   2B2C F6          	db 246
09298   2B2D AB          	db 171
09299   2B2E 1F          	db 31
09300   2B2F 07          	db 7
09301   2B30 01          	db 1
09302   2B31 73          	db 115
09303   2B32 6B          	db 107
09304   2B33 44          	db 68
09305   2B34 20          	db 32
09306   2B35 C4          	db 196
09307   2B36 50          	db 80
09308   2B37 A8          	db 168
09309   2B38 E1          	db 225
09310   2B39 A9          	db 169
09311   2B3A D4          	db 212
09312   2B3B AA          	db 170
09313   2B3C 11          	db 17
09314   2B3D E6          	db 230
09315   2B3E 21          	db 33
09316   2B3F D0          	db 208
09317   2B40 01          	db 1
09318   2B41 B8          	db 184
09319   2B42 0A          	db 10
09320   2B43 A8          	db 168
09321   2B44 46          	db 70
09322   2B45 F0          	db 240
09323   2B46 67          	db 103
09324   2B47 E5          	db 229
09325   2B48 00          	db 0
09326   2B49 95          	db 149
09327   2B4A D6          	db 214
09328   2B4B 04          	db 4
09329   2B4C 19          	db 25
09330   2B4D F5          	db 245
09331   2B4E FE          	db 254
09332   2B4F CD          	db 205
09333   2B50 01          	db 1
09334   2B51 04          	db 4
09335   2B52 10          	db 16
09336   2B53 4A          	db 74
09337   2B54 01          	db 1
09338   2B55 41          	db 65
09339   2B56 BB          	db 187
09340   2B57 FC          	db 252
09341   2B58 90          	db 144
09342   2B59 03          	db 3
09343   2B5A 51          	db 81
09344   2B5B 81          	db 129
09345   2B5C F0          	db 240
09346   2B5D 29          	db 41
09347   2B5E 41          	db 65
09348   2B5F 10          	db 16
09349   2B60 54          	db 84
09350   2B61 35          	db 53
09351   2B62 A4          	db 164
09352   2B63 95          	db 149
09353   2B64 E5          	db 229
09354   2B65 01          	db 1
09355   2B66 7E          	db 126
09356   2B67 00          	db 0
09357   2B68 D9          	db 217
09358   2B69 50          	db 80
09359   2B6A 68          	db 104
09360   2B6B 1F          	db 31
09361   2B6C 79          	db 121
09362   2B6D D1          	db 209
09363   2B6E B9          	db 185
09364   2B6F FF          	db 255
09365   2B70 E8          	db 232
09366   2B71 58          	db 88
09367   2B72 FB          	db 251
09368   2B73 6F          	db 111
09369   2B74 FD          	db 253
09370   2B75 B7          	db 183
09371   2B76 FF          	db 255
09372   2B77 FC          	db 252
09373   2B78 61          	db 97
09374   2B79 1D          	db 29
09375   2B7A 96          	db 150
09376   2B7B FF          	db 255
09377   2B7C 6C          	db 108
09378   2B7D 75          	db 117
09379   2B7E 3F          	db 63
09380   2B7F 4F          	db 79
09381   2B80 BD          	db 189
09382   2B81 72          	db 114
09383   2B82 FC          	db 252
09384   2B83 F3          	db 243
09385   2B84 CF          	db 207
09386   2B85 A7          	db 167
09387   2B86 94          	db 148
09388   2B87 18          	db 24
09389   2B88 B3          	db 179
09390   2B89 DB          	db 219
09391   2B8A E7          	db 231
09392   2B8B 9F          	db 159
09393   2B8C DD          	db 221
09394   2B8D F5          	db 245
09395   2B8E D9          	db 217
09396   2B8F EA          	db 234
09397   2B90 D5          	db 213
09398   2B91 25          	db 37
09399   2B92 00          	db 0
09400   2B93 CD          	db 205
09401   2B94 0C          	db 12
09402   2B95 A8          	db 168
09403   2B96 45          	db 69
09404   2B97 FD          	db 253
09405   2B98 08          	db 8
09406   2B99 73          	db 115
09407   2B9A BB          	db 187
09408   2B9B 54          	db 84
09409   2B9C 8A          	db 138
09410   2B9D 7B          	db 123
09411   2B9E EA          	db 234
09412   2B9F EA          	db 234
09413   2BA0 B5          	db 181
09414   2BA1 FC          	db 252
09415   2BA2 FA          	db 250
09416   2BA3 EF          	db 239
09417   2BA4 DD          	db 221
09418   2BA5 FF          	db 255
09419   2BA6 F7          	db 247
09420   2BA7 FE          	db 254
09421   2BA8 AD          	db 173
09422   2BA9 CE          	db 206
09423   2BAA 0D          	db 13
09424   2BAB D1          	db 209
09425   2BAC D6          	db 214
09426   2BAD D8          	db 216
09427   2BAE 7D          	db 125
09428   2BAF 2A          	db 42
09429   2BB0 EC          	db 236
09430   2BB1 98          	db 152
09431   2BB2 07          	db 7
09432   2BB3 61          	db 97
09433   2BB4 99          	db 153
09434   2BB5 FC          	db 252
09435   2BB6 1E          	db 30
09436   2BB7 FF          	db 255
09437   2BB8 BA          	db 186
09438   2BB9 0C          	db 12
09439   2BBA 21          	db 33
09440   2BBB 6A          	db 106
09441   2BBC 9B          	db 155
09442   2BBD FF          	db 255
09443   2BBE 8C          	db 140
09444   2BBF DC          	db 220
09445   2BC0 FE          	db 254
09446   2BC1 4C          	db 76
09447   2BC2 0D          	db 13
09448   2BC3 4D          	db 77
09449   2BC4 10          	db 16
09450   2BC5 03          	db 3
09451   2BC6 02          	db 2
09452   2BC7 8D          	db 141
09453   2BC8 18          	db 24
09454   2BC9 22          	db 34
09455   2BCA 84          	db 132
09456   2BCB 43          	db 67
09457   2BCC FE          	db 254
09458   2BCD 84          	db 132
09459   2BCE CD          	db 205
09460   2BCF 40          	db 64
09461   2BD0 FD          	db 253
09462   2BD1 0F          	db 15
09463   2BD2 C1          	db 193
09464   2BD3 C3          	db 195
09465   2BD4 B2          	db 178
09466   2BD5 E3          	db 227
09467   2BD6 E4          	db 228
09468   2BD7 CC          	db 204
09469   2BD8 C3          	db 195
09470   2BD9 1F          	db 31
09471   2BDA B3          	db 179
09472   2BDB FB          	db 251
09473   2BDC FF          	db 255
09474   2BDD FC          	db 252
09475   2BDE F1          	db 241
09476   2BDF 2B          	db 43
09477   2BE0 F6          	db 246
09478   2BE1 B7          	db 183
09479   2BE2 16          	db 22
09480   2BE3 FA          	db 250
09481   2BE4 7C          	db 124
09482   2BE5 FA          	db 250
09483   2BE6 6F          	db 111
09484   2BE7 2A          	db 42
09485   2BE8 C5          	db 197
09486   2BE9 A0          	db 160
09487   2BEA D4          	db 212
09488   2BEB 2B          	db 43
09489   2BEC FA          	db 250
09490   2BED 9E          	db 158
09491   2BEE 18          	db 24
09492   2BEF C1          	db 193
09493   2BF0 1A          	db 26
09494   2BF1 FD          	db 253
09495   2BF2 FE          	db 254
09496   2BF3 BF          	db 191
09497   2BF4 98          	db 152
09498   2BF5 E0          	db 224
09499   2BF6 03          	db 3
09500   2BF7 8A          	db 138
09501   2BF8 95          	db 149
09502   2BF9 C6          	db 198
09503   2BFA 2A          	db 42
09504   2BFB 17          	db 23
09505   2BFC FC          	db 252
09506   2BFD 55          	db 85
09507   2BFE 2E          	db 46
09508   2BFF 5D          	db 93
09509   2C00 B7          	db 183
09510   2C01 6F          	db 111
09511   2C02 BF          	db 191
09512   2C03 9F          	db 159
09513   2C04 FE          	db 254
09514   2C05 58          	db 88
09515   2C06 5F          	db 95
09516   2C07 37          	db 55
09517   2C08 9F          	db 159
09518   2C09 CF          	db 207
09519   2C0A F6          	db 246
09520   2C0B 07          	db 7
09521   2C0C F2          	db 242
09522   2C0D 01          	db 1
09523   2C0E FE          	db 254
09524   2C0F 6E          	db 110
09525   2C10 23          	db 35
09526   2C11 B4          	db 180
09527   2C12 E0          	db 224
09528   2C13 C7          	db 199
09529   2C14 F1          	db 241
09530   2C15 A3          	db 163
09531   2C16 FB          	db 251
09532   2C17 FF          	db 255
09533   2C18 0D          	db 13
09534   2C19 0E          	db 14
09535   2C1A 01          	db 1
09536   2C1B EF          	db 239
09537   2C1C 06          	db 6
09538   2C1D F0          	db 240
09539   2C1E 70          	db 112
09540   2C1F 30          	db 48
09541   2C20 D2          	db 210
09542   2C21 20          	db 32
09543   2C22 22          	db 34
09544   2C23 B4          	db 180
09545   2C24 29          	db 41
09546   2C25 10          	db 16
09547   2C26 33          	db 51
09548   2C27 24          	db 36
09549   2C28 F7          	db 247
09550   2C29 28          	db 40
09551   2C2A 48          	db 72
09552   2C2B FE          	db 254
09553   2C2C 29          	db 41
09554   2C2D 51          	db 81
09555   2C2E 24          	db 36
09556   2C2F E2          	db 226
09557   2C30 25          	db 37
09558   2C31 F4          	db 244
09559   2C32 6A          	db 106
09560   2C33 EA          	db 234
09561   2C34 E5          	db 229
09562   2C35 FE          	db 254
09563   2C36 D0          	db 208
09564   2C37 EB          	db 235
09565   2C38 ED          	db 237
09566   2C39 FD          	db 253
09567   2C3A 40          	db 64
09568   2C3B BF          	db 191
09569   2C3C EE          	db 238
09570   2C3D CB          	db 203
09571   2C3E D6          	db 214
09572   2C3F 1F          	db 31
09573   2C40 0E          	db 14
09574   2C41 0B          	db 11
09575   2C42 7D          	db 125
09576   2C43 AC          	db 172
09577   2C44 42          	db 66
09578   2C45 02          	db 2
09579   2C46 2B          	db 43
09580   2C47 B6          	db 182
09581   2C48 0E          	db 14
09582   2C49 0F          	db 15
09583   2C4A 1F          	db 31
09584   2C4B CE          	db 206
09585   2C4C FB          	db 251
09586   2C4D FB          	db 251
09587   2C4E 7F          	db 127
09588   2C4F B7          	db 183
09589   2C50 02          	db 2
09590   2C51 FB          	db 251
09591   2C52 F2          	db 242
09592   2C53 EC          	db 236
09593   2C54 1D          	db 29
09594   2C55 DC          	db 220
09595   2C56 E3          	db 227
09596   2C57 FD          	db 253
09597   2C58 DA          	db 218
09598   2C59 F3          	db 243
09599   2C5A 0F          	db 15
09600   2C5B 79          	db 121
09601   2C5C 29          	db 41
09602   2C5D 73          	db 115
09603   2C5E 63          	db 99
09604   2C5F 82          	db 130
09605   2C60 7E          	db 126
09606   2C61 2B          	db 43
09607   2C62 0D          	db 13
09608   2C63 AE          	db 174
09609   2C64 2E          	db 46
09610   2C65 A8          	db 168
09611   2C66 F4          	db 244
09612   2C67 CE          	db 206
09613   2C68 A3          	db 163
09614   2C69 FA          	db 250
09615   2C6A 4C          	db 76
09616   2C6B B4          	db 180
09617   2C6C 16          	db 22
09618   2C6D DB          	db 219
09619   2C6E 0F          	db 15
09620   2C6F 04          	db 4
09621   2C70 33          	db 51
09622   2C71 FF          	db 255
09623   2C72 56          	db 86
09624   2C73 55          	db 85
09625   2C74 12          	db 18
09626   2C75 80          	db 128
09627   2C76 3C          	db 60
09628   2C77 A4          	db 164
09629   2C78 58          	db 88
09630   2C79 92          	db 146
09631   2C7A 78          	db 120
09632   2C7B A2          	db 162
09633   2C7C 84          	db 132
09634   2C7D 81          	db 129
09635   2C7E C1          	db 193
09636   2C7F 88          	db 136
09637   2C80 F8          	db 248
09638   2C81 25          	db 37
09639   2C82 14          	db 20
09640   2C83 12          	db 18
09641   2C84 A5          	db 165
09642   2C85 54          	db 84
09643   2C86 FB          	db 251
09644   2C87 91          	db 145
09645   2C88 C3          	db 195
09646   2C89 2A          	db 42
09647   2C8A 2C          	db 44
09648   2C8B D3          	db 211
09649   2C8C 38          	db 56
09650   2C8D C3          	db 195
09651   2C8E 09          	db 9
09652   2C8F BE          	db 190
09653   2C90 FB          	db 251
09654   2C91 C6          	db 198
09655   2C92 3E          	db 62
09656   2C93 FC          	db 252
09657   2C94 76          	db 118
09658   2C95 F7          	db 247
09659   2C96 E3          	db 227
09660   2C97 9C          	db 156
09661   2C98 63          	db 99
09662   2C99 E1          	db 225
09663   2C9A 7F          	db 127
09664   2C9B 8E          	db 142
09665   2C9C 8C          	db 140
09666   2C9D F1          	db 241
09667   2C9E D1          	db 209
09668   2C9F EE          	db 238
09669   2CA0 BF          	db 191
09670   2CA1 5B          	db 91
09671   2CA2 E6          	db 230
09672   2CA3 FA          	db 250
09673   2CA4 A8          	db 168
09674   2CA5 05          	db 5
09675   2CA6 28          	db 40
09676   2CA7 55          	db 85
09677   2CA8 AB          	db 171
09678   2CA9 7E          	db 126
09679   2CAA FE          	db 254
09680   2CAB A0          	db 160
09681   2CAC 07          	db 7
09682   2CAD A8          	db 168
09683   2CAE 5F          	db 95
09684   2CAF BF          	db 191
09685   2CB0 7F          	db 127
09686   2CB1 8C          	db 140
09687   2CB2 B2          	db 178
09688   2CB3 9A          	db 154
09689   2CB4 AD          	db 173
09690   2CB5 7D          	db 125
09691   2CB6 AF          	db 175
09692   2CB7 16          	db 22
09693   2CB8 30          	db 48
09694   2CB9 99          	db 153
09695   2CBA DC          	db 220
09696   2CBB 05          	db 5
09697   2CBC A6          	db 166
09698   2CBD 74          	db 116
09699   2CBE 3B          	db 59
09700   2CBF 78          	db 120
09701   2CC0 98          	db 152
09702   2CC1 FF          	db 255
09703   2CC2 FD          	db 253
09704   2CC3 90          	db 144
09705   2CC4 10          	db 16
09706   2CC5 28          	db 40
09707   2CC6 60          	db 96
09708   2CC7 A8          	db 168
09709   2CC8 61          	db 97
09710   2CC9 48          	db 72
09711   2CCA 88          	db 136
09712   2CCB 61          	db 97
09713   2CCC 20          	db 32
09714   2CCD 54          	db 84
09715   2CCE F1          	db 241
09716   2CCF 92          	db 146
09717   2CD0 2A          	db 42
09718   2CD1 A8          	db 168
09719   2CD2 D7          	db 215
09720   2CD3 27          	db 39
09721   2CD4 FE          	db 254
09722   2CD5 B4          	db 180
09723   2CD6 FE          	db 254
09724   2CD7 6C          	db 108
09725   2CD8 D8          	db 216
09726   2CD9 0F          	db 15
09727   2CDA D4          	db 212
09728   2CDB 7C          	db 124
09729   2CDC 20          	db 32
09730   2CDD FE          	db 254
09731   2CDE F9          	db 249
09732   2CDF FE          	db 254
09733   2CE0 EC          	db 236
09734   2CE1 BC          	db 188
09735   2CE2 78          	db 120
09736   2CE3 FF          	db 255
09737   2CE4 8F          	db 143
09738   2CE5 30          	db 48
09739   2CE6 20          	db 32
09740   2CE7 61          	db 97
09741   2CE8 AF          	db 175
09742   2CE9 EA          	db 234
09743   2CEA FB          	db 251
09744   2CEB 07          	db 7
09745   2CEC 0E          	db 14
09746   2CED F0          	db 240
09747   2CEE 4B          	db 75
09748   2CEF 2A          	db 42
09749   2CF0 77          	db 119
09750   2CF1 FD          	db 253
09751   2CF2 75          	db 117
09752   2CF3 F8          	db 248
09753   2CF4 7C          	db 124
09754   2CF5 7D          	db 125
09755   2CF6 01          	db 1
09756   2CF7 D8          	db 216
09757   2CF8 00          	db 0
09758   2CF9 AE          	db 174
09759   2CFA 7E          	db 126
09760   2CFB B7          	db 183
09761   2CFC F5          	db 245
09762   2CFD 3F          	db 63
09763   2CFE 6A          	db 106
09764   2CFF FA          	db 250
09765   2D00 04          	db 4
09766   2D01 FC          	db 252
09767   2D02 E3          	db 227
09768   2D03 D3          	db 211
09769   2D04 0B          	db 11
09770   2D05 F9          	db 249
09771   2D06 E2          	db 226
09772   2D07 00          	db 0
09773   2D08 AB          	db 171
09774   2D09 54          	db 84
09775   2D0A BF          	db 191
09776   2D0B F0          	db 240
09777   2D0C 73          	db 115
09778   2D0D E0          	db 224
09779   2D0E 02          	db 2
09780   2D0F FC          	db 252
09781   2D10 41          	db 65
09782   2D11 62          	db 98
09783   2D12 6E          	db 110
09784   2D13 A4          	db 164
09785   2D14 0F          	db 15
09786   2D15 1F          	db 31
09787   2D16 BF          	db 191
09788   2D17 39          	db 57
09789   2D18 FD          	db 253
09790   2D19 61          	db 97
09791   2D1A 97          	db 151
09792   2D1B 55          	db 85
09793   2D1C 02          	db 2
09794   2D1D 9D          	db 157
09795   2D1E 00          	db 0
09796   2D1F 74          	db 116
09797   2D20 2B          	db 43
09798   2D21 BC          	db 188
09799   2D22 30          	db 48
09800   2D23 FB          	db 251
09801   2D24 46          	db 70
09802   2D25 29          	db 41
09803   2D26 86          	db 134
09804   2D27 FC          	db 252
09805   2D28 26          	db 38
09806   2D29 0C          	db 12
09807   2D2A 63          	db 99
09808   2D2B FB          	db 251
09809   2D2C A6          	db 166
09810   2D2D 00          	db 0
09811   2D2E 22          	db 34
09812   2D2F FD          	db 253
09813   2D30 08          	db 8
09814   2D31 49          	db 73
09815   2D32 FE          	db 254
09816   2D33 66          	db 102
09817   2D34 84          	db 132
09818   2D35 C6          	db 198
09819   2D36 67          	db 103
09820   2D37 FF          	db 255
09821   2D38 E6          	db 230
09822   2D39 FE          	db 254
09823   2D3A A0          	db 160
09824   2D3B F1          	db 241
09825   2D3C 1C          	db 28
09826   2D3D 5B          	db 91
09827   2D3E E0          	db 224
09828   2D3F 0F          	db 15
09829   2D40 A4          	db 164
09830   2D41 FF          	db 255
09831   2D42 BF          	db 191
09832   2D43 FB          	db 251
09833   2D44 1D          	db 29
09834   2D45 46          	db 70
09835   2D46 10          	db 16
09836   2D47 F6          	db 246
09837   2D48 04          	db 4
09838   2D49 79          	db 121
09839   2D4A F8          	db 248
09840   2D4B FF          	db 255
09841   2D4C FC          	db 252
09842   2D4D 7B          	db 123
09843   2D4E F8          	db 248
09844   2D4F 8F          	db 143
09845   2D50 7F          	db 127
09846   2D51 75          	db 117
09847   2D52 36          	db 54
09848   2D53 18          	db 24
09849   2D54 E1          	db 225
09850   2D55 FE          	db 254
09851   2D56 4F          	db 79
09852   2D57 40          	db 64
09853   2D58 F8          	db 248
09854   2D59 D7          	db 215
09855   2D5A 7E          	db 126
09856   2D5B 80          	db 128
09857   2D5C 06          	db 6
09858   2D5D E0          	db 224
09859   2D5E C8          	db 200
09860   2D5F E8          	db 232
09861   2D60 05          	db 5
09862   2D61 FC          	db 252
09863   2D62 12          	db 18
09864   2D63 00          	db 0
09865   2D64 FE          	db 254
09866   2D65 BA          	db 186
09867   2D66 F9          	db 249
09868   2D67 C4          	db 196
09869   2D68 34          	db 52
09870   2D69 92          	db 146
09871   2D6A 38          	db 56
09872   2D6B 1C          	db 28
09873   2D6C 22          	db 34
09874   2D6D 63          	db 99
09875   2D6E E3          	db 227
09876   2D6F 78          	db 120
09877   2D70 77          	db 119
09878   2D71 A6          	db 166
09879   2D72 FF          	db 255
09880   2D73 F7          	db 247
09881   2D74 58          	db 88
09882   2D75 FE          	db 254
09883   2D76 59          	db 89
09884   2D77 58          	db 88
09885   2D78 FE          	db 254
09886   2D79 7C          	db 124
09887   2D7A F8          	db 248
09888   2D7B 3C          	db 60
09889   2D7C 38          	db 56
09890   2D7D EE          	db 238
09891   2D7E 84          	db 132
09892   2D7F 2D          	db 45
09893   2D80 02          	db 2
09894   2D81 55          	db 85
09895   2D82 37          	db 55
09896   2D83 02          	db 2
09897   2D84 20          	db 32
09898   2D85 FD          	db 253
09899   2D86 15          	db 21
09900   2D87 29          	db 41
09901   2D88 8F          	db 143
09902   2D89 06          	db 6
09903   2D8A 02          	db 2
09904   2D8B 1F          	db 31
09905   2D8C 54          	db 84
09906   2D8D 92          	db 146
09907   2D8E F0          	db 240
09908   2D8F 55          	db 85
09909   2D90 85          	db 133
09910   2D91 12          	db 18
09911   2D92 95          	db 149
09912   2D93 E2          	db 226
09913   2D94 15          	db 21
09914   2D95 C3          	db 195
09915   2D96 96          	db 150
09916   2D97 10          	db 16
09917   2D98 54          	db 84
09918   2D99 FB          	db 251
09919   2D9A 52          	db 82
09920   2D9B FF          	db 255
09921   2D9C 17          	db 23
09922   2D9D 85          	db 133
09923   2D9E 03          	db 3
09924   2D9F 60          	db 96
09925   2DA0 87          	db 135
09926   2DA1 25          	db 37
09927   2DA2 FF          	db 255
09928   2DA3 BD          	db 189
09929   2DA4 E6          	db 230
09930   2DA5 37          	db 55
09931   2DA6 7F          	db 127
09932   2DA7 D4          	db 212
09933   2DA8 08          	db 8
09934   2DA9 BA          	db 186
09935   2DAA 5D          	db 93
09936   2DAB 6F          	db 111
09937   2DAC 04          	db 4
09938   2DAD 7A          	db 122
09939   2DAE F8          	db 248
09940   2DAF 76          	db 118
09941   2DB0 F9          	db 249
09942   2DB1 67          	db 103
09943   2DB2 9F          	db 159
09944   2DB3 7D          	db 125
09945   2DB4 F8          	db 248
09946   2DB5 FE          	db 254
09947   2DB6 79          	db 121
09948   2DB7 E7          	db 231
09949   2DB8 83          	db 131
09950   2DB9 7C          	db 124
09951   2DBA 94          	db 148
09952   2DBB 60          	db 96
09953   2DBC ED          	db 237
09954   2DBD F1          	db 241
09955   2DBE 8F          	db 143
09956   2DBF 70          	db 112
09957   2DC0 5D          	db 93
09958   2DC1 F6          	db 246
09959   2DC2 C1          	db 193
09960   2DC3 3F          	db 63
09961   2DC4 01          	db 1
09962   2DC5 68          	db 104
09963   2DC6 FC          	db 252
09964   2DC7 46          	db 70
09965   2DC8 6D          	db 109
09966   2DC9 17          	db 23
09967   2DCA 00          	db 0
09968   2DCB FE          	db 254
09969   2DCC 70          	db 112
09970   2DCD 88          	db 136
09971   2DCE 8C          	db 140
09972   2DCF DC          	db 220
09973   2DD0 D8          	db 216
09974   2DD1 F8          	db 248
09975   2DD2 B2          	db 178
09976   2DD3 0C          	db 12
09977   2DD4 2B          	db 43
09978   2DD5 5F          	db 95
09979   2DD6 B0          	db 176
09980   2DD7 C9          	db 201
09981   2DD8 D6          	db 214
09982   2DD9 58          	db 88
09983   2DDA FE          	db 254
09984   2DDB D0          	db 208
09985   2DDC C1          	db 193
09986   2DDD 31          	db 49
09987   2DDE C2          	db 194
09988   2DDF 06          	db 6
09989   2DE0 85          	db 133
09990   2DE1 C8          	db 200
09991   2DE2 C4          	db 196
09992   2DE3 8C          	db 140
09993   2DE4 D1          	db 209
09994   2DE5 79          	db 121
09995   2DE6 FD          	db 253
09996   2DE7 C5          	db 197
09997   2DE8 C9          	db 201
09998   2DE9 CA          	db 202
09999   2DEA FE          	db 254
10000   2DEB 30          	db 48
10001   2DEC FF          	db 255
10002   2DED D5          	db 213
10003   2DEE A2          	db 162
10004   2DEF D6          	db 214
10005   2DF0 FE          	db 254
10006   2DF1 56          	db 86
10007   2DF2 5A          	db 90
10008   2DF3 55          	db 85
10009   2DF4 17          	db 23
10010   2DF5 1A          	db 26
10011   2DF6 57          	db 87
10012   2DF7 18          	db 24
10013   2DF8 DC          	db 220
10014   2DF9 1E          	db 30
10015   2DFA 2B          	db 43
10016   2DFB 3F          	db 63
10017   2DFC 5D          	db 93
10018   2DFD 17          	db 23
10019   2DFE 0F          	db 15
10020   2DFF 8F          	db 143
10021   2E00 D1          	db 209
10022   2E01 FF          	db 255
10023   2E02 85          	db 133
10024   2E03 7A          	db 122
10025   2E04 E1          	db 225
10026   2E05 37          	db 55
10027   2E06 04          	db 4
10028   2E07 57          	db 87
10029   2E08 9E          	db 158
10030   2E09 00          	db 0
10031   2E0A F8          	db 248
10032   2E0B 6B          	db 107
10033   2E0C FE          	db 254
10034   2E0D FC          	db 252
10035   2E0E 57          	db 87
10036   2E0F FC          	db 252
10037   2E10 73          	db 115
10038   2E11 EE          	db 238
10039   2E12 B7          	db 183
10040   2E13 F5          	db 245
10041   2E14 82          	db 130
10042   2E15 07          	db 7
10043   2E16 EB          	db 235
10044   2E17 F8          	db 248
10045   2E18 5D          	db 93
10046   2E19 BF          	db 191
10047   2E1A 55          	db 85
10048   2E1B 8B          	db 139
10049   2E1C 07          	db 7
10050   2E1D 8D          	db 141
10051   2E1E 00          	db 0
10052   2E1F 30          	db 48
10053   2E20 1B          	db 27
10054   2E21 03          	db 3
10055   2E22 04          	db 4
10056   2E23 62          	db 98
10057   2E24 FF          	db 255
10058   2E25 C2          	db 194
10059   2E26 74          	db 116
10060   2E27 C3          	db 195
10061   2E28 14          	db 20
10062   2E29 14          	db 20
10063   2E2A 63          	db 99
10064   2E2B FF          	db 255
10065   2E2C 79          	db 121
10066   2E2D 70          	db 112
10067   2E2E FF          	db 255
10068   2E2F 64          	db 100
10069   2E30 4A          	db 74
10070   2E31 16          	db 22
10071   2E32 34          	db 52
10072   2E33 6F          	db 111
10073   2E34 54          	db 84
10074   2E35 3E          	db 62
10075   2E36 F1          	db 241
10076   2E37 36          	db 54
10077   2E38 1A          	db 26
10078   2E39 7E          	db 126
10079   2E3A 56          	db 86
10080   2E3B B6          	db 182
10081   2E3C FE          	db 254
10082   2E3D F0          	db 240
10083   2E3E 1E          	db 30
10084   2E3F 49          	db 73
10085   2E40 FD          	db 253
10086   2E41 69          	db 105
10087   2E42 52          	db 82
10088   2E43 AF          	db 175
10089   2E44 D9          	db 217
10090   2E45 91          	db 145
10091   2E46 1A          	db 26
10092   2E47 E1          	db 225
10093   2E48 AF          	db 175
10094   2E49 15          	db 21
10095   2E4A 37          	db 55
10096   2E4B F6          	db 246
10097   2E4C 83          	db 131
10098   2E4D 00          	db 0
10099   2E4E D7          	db 215
10100   2E4F 02          	db 2
10101   2E50 35          	db 53
10102   2E51 1F          	db 31
10103   2E52 FA          	db 250
10104   2E53 D1          	db 209
10105   2E54 F5          	db 245
10106   2E55 54          	db 84
10107   2E56 DB          	db 219
10108   2E57 08          	db 8
10109   2E58 D4          	db 212
10110   2E59 E3          	db 227
10111   2E5A BE          	db 190
10112   2E5B 06          	db 6
10113   2E5C 32          	db 50
10114   2E5D F4          	db 244
10115   2E5E E0          	db 224
10116   2E5F CB          	db 203
10117   2E60 96          	db 150
10118   2E61 FF          	db 255
10119   2E62 3F          	db 63
10120   2E63 86          	db 134
10121   2E64 FF          	db 255
10122   2E65 A6          	db 166
10123   2E66 3D          	db 61
10124   2E67 08          	db 8
10125   2E68 54          	db 84
10126   2E69 02          	db 2
10127   2E6A 05          	db 5
10128   2E6B D4          	db 212
10129   2E6C 02          	db 2
10130   2E6D C6          	db 198
10131   2E6E 04          	db 4
10132   2E6F 50          	db 80
10133   2E70 AA          	db 170
10134   2E71 10          	db 16
10135   2E72 46          	db 70
10136   2E73 00          	db 0
10137   2E74 48          	db 72
10138   2E75 DA          	db 218
10139   2E76 24          	db 36
10140   2E77 14          	db 20
10141   2E78 53          	db 83
10142   2E79 00          	db 0
10143   2E7A 5A          	db 90
10144   2E7B 24          	db 36
10145   2E7C E1          	db 225
10146   2E7D 5E          	db 94
10147   2E7E 34          	db 52
10148   2E7F 6A          	db 106
10149   2E80 D5          	db 213
10150   2E81 6E          	db 110
10151   2E82 62          	db 98
10152   2E83 01          	db 1
10153   2E84 76          	db 118
10154   2E85 8D          	db 141
10155   2E86 FF          	db 255
10156   2E87 AE          	db 174
10157   2E88 6D          	db 109
10158   2E89 C7          	db 199
10159   2E8A 71          	db 113
10160   2E8B 3C          	db 60
10161   2E8C B0          	db 176
10162   2E8D 18          	db 24
10163   2E8E EB          	db 235
10164   2E8F 47          	db 71
10165   2E90 F8          	db 248
10166   2E91 BE          	db 190
10167   2E92 F3          	db 243
10168   2E93 E1          	db 225
10169   2E94 C7          	db 199
10170   2E95 C1          	db 193
10171   2E96 83          	db 131
10172   2E97 F5          	db 245
10173   2E98 07          	db 7
10174   2E99 0F          	db 15
10175   2E9A 9E          	db 158
10176   2E9B FC          	db 252
10177   2E9C 96          	db 150
10178   2E9D 1C          	db 28
10179   2E9E AF          	db 175
10180   2E9F E9          	db 233
10181   2EA0 0D          	db 13
10182   2EA1 1F          	db 31
10183   2EA2 75          	db 117
10184   2EA3 EE          	db 238
10185   2EA4 4A          	db 74
10186   2EA5 02          	db 2
10187   2EA6 EF          	db 239
10188   2EA7 26          	db 38
10189   2EA8 FC          	db 252
10190   2EA9 F8          	db 248
10191   2EAA 57          	db 87
10192   2EAB EC          	db 236
10193   2EAC BF          	db 191
10194   2EAD FC          	db 252
10195   2EAE EF          	db 239
10196   2EAF AF          	db 175
10197   2EB0 56          	db 86
10198   2EB1 2D          	db 45
10199   2EB2 F2          	db 242
10200   2EB3 B5          	db 181
10201   2EB4 F7          	db 247
10202   2EB5 F6          	db 246
10203   2EB6 02          	db 2
10204   2EB7 E1          	db 225
10205   2EB8 1F          	db 31
10206   2EB9 A0          	db 160
10207   2EBA 06          	db 6
10208   2EBB E8          	db 232
10209   2EBC B7          	db 183
10210   2EBD E5          	db 229
10211   2EBE F2          	db 242
10212   2EBF 00          	db 0
10213   2EC0 F3          	db 243
10214   2EC1 45          	db 69
10215   2EC2 04          	db 4
10216   2EC3 6F          	db 111
10217   2EC4 2C          	db 44
10218   2EC5 FB          	db 251
10219   2EC6 B1          	db 177
10220   2EC7 A2          	db 162
10221   2EC8 7D          	db 125
10222   2EC9 7A          	db 122
10223   2ECA E0          	db 224
10224   2ECB A7          	db 167
10225   2ECC 23          	db 35
10226   2ECD 61          	db 97
10227   2ECE 50          	db 80
10228   2ECF A4          	db 164
10229   2ED0 02          	db 2
10230   2ED1 74          	db 116
10231   2ED2 41          	db 65
10232   2ED3 BF          	db 191
10233   2ED4 6E          	db 110
10234   2ED5 7E          	db 126
10235   2ED6 6D          	db 109
10236   2ED7 7F          	db 127
10237   2ED8 0F          	db 15
10238   2ED9 01          	db 1
10239   2EDA 61          	db 97
10240   2EDB 6F          	db 111
10241   2EDC E7          	db 231
10242   2EDD 0F          	db 15
10243   2EDE F0          	db 240
10244   2EDF A6          	db 166
10245   2EE0 1E          	db 30
10246   2EE1 3E          	db 62
10247   2EE2 C0          	db 192
10248   2EE3 FC          	db 252
10249   2EE4 78          	db 120
10250   2EE5 FC          	db 252
10251   2EE6 C0          	db 192
10252   2EE7 70          	db 112
10253   2EE8 38          	db 56
10254   2EE9 9C          	db 156
10255   2EEA DC          	db 220
10256   2EEB F8          	db 248
10257   2EEC 7E          	db 126
10258   2EED 7E          	db 126
10259   2EEE 3F          	db 63
10260   2EEF 1F          	db 31
10261   2EF0 D2          	db 210
10262   2EF1 62          	db 98
10263   2EF2 8D          	db 141
10264   2EF3 84          	db 132
10265   2EF4 E0          	db 224
10266   2EF5 FF          	db 255
10267   2EF6 0C          	db 12
10268   2EF7 CD          	db 205
10269   2EF8 F4          	db 244
10270   2EF9 E6          	db 230
10271   2EFA 2E          	db 46
10272   2EFB D5          	db 213
10273   2EFC BF          	db 191
10274   2EFD 00          	db 0
10275   2EFE A2          	db 162
10276   2EFF FB          	db 251
10277   2F00 FC          	db 252
10278   2F01 7E          	db 126
10279   2F02 F8          	db 248
10280   2F03 59          	db 89
10281   2F04 E7          	db 231
10282   2F05 9D          	db 157
10283   2F06 6F          	db 111
10284   2F07 DC          	db 220
10285   2F08 B3          	db 179
10286   2F09 DF          	db 223
10287   2F0A A5          	db 165
10288   2F0B F5          	db 245
10289   2F0C 09          	db 9
10290   2F0D 79          	db 121
10291   2F0E FB          	db 251
10292   2F0F FF          	db 255
10293   2F10 FE          	db 254
10294   2F11 6A          	db 106
10295   2F12 D0          	db 208
10296   2F13 96          	db 150
10297   2F14 C1          	db 193
10298   2F15 FF          	db 255
10299   2F16 1E          	db 30
10300   2F17 1B          	db 27
10301   2F18 0A          	db 10
10302   2F19 D5          	db 213
10303   2F1A 06          	db 6
10304   2F1B E9          	db 233
10305   2F1C FF          	db 255
10306   2F1D 11          	db 17
10307   2F1E F5          	db 245
10308   2F1F 9E          	db 158
10309   2F20 20          	db 32
10310   2F21 FA          	db 250
10311   2F22 93          	db 147
10312   2F23 83          	db 131
10313   2F24 C7          	db 199
10314   2F25 3B          	db 59
10315   2F26 F4          	db 244
10316   2F27 E9          	db 233
10317   2F28 EB          	db 235
10318   2F29 CC          	db 204
10319   2F2A 46          	db 70
10320   2F2B EF          	db 239
10321   2F2C F4          	db 244
10322   2F2D 93          	db 147
10323   2F2E 7F          	db 127
10324   2F2F 21          	db 33
10325   2F30 39          	db 57
10326   2F31 50          	db 80
10327   2F32 6C          	db 108
10328   2F33 F8          	db 248
10329   2F34 68          	db 104
10330   2F35 28          	db 40
10331   2F36 78          	db 120
10332   2F37 29          	db 41
10333   2F38 79          	db 121
10334   2F39 1D          	db 29
10335   2F3A F1          	db 241
10336   2F3B D8          	db 216
10337   2F3C B8          	db 184
10338   2F3D 89          	db 137
10339   2F3E 57          	db 87
10340   2F3F 00          	db 0
10341   2F40 E0          	db 224
10342   2F41 F0          	db 240
10343   2F42 1F          	db 31
10344   2F43 D0          	db 208
10345   2F44 B0          	db 176
10346   2F45 0D          	db 13
10347   2F46 BF          	db 191
10348   2F47 A0          	db 160
10349   2F48 1F          	db 31
10350   2F49 60          	db 96
10351   2F4A 50          	db 80
10352   2F4B 70          	db 112
10353   2F4C FF          	db 255
10354   2F4D FF          	db 255
10355   2F4E FB          	db 251
10356   2F4F 78          	db 120
10357   2F50 E8          	db 232
10358   2F51 58          	db 88
10359   2F52 A8          	db 168
10360   2F53 D8          	db 216
10361   2F54 AC          	db 172
10362   2F55 DF          	db 223
10363   2F56 4F          	db 79
10364   2F57 4F          	db 79
10365   2F58 20          	db 32
10366   2F59 00          	db 0
10367   2F5A DC          	db 220
10368   2F5B FE          	db 254
10369   2F5C FC          	db 252
10370   2F5D F3          	db 243
10371   2F5E 79          	db 121
10372   2F5F 0C          	db 12
10373   2F60 30          	db 48
10374   2F61 3E          	db 62
10375   2F62 0E          	db 14
10376   2F63 7B          	db 123
10377   2F64 04          	db 4
10378   2F65 08          	db 8
10379   2F66 39          	db 57
10380   2F67 EB          	db 235
10381   2F68 1E          	db 30
10382   2F69 B9          	db 185
10383   2F6A 35          	db 53
10384   2F6B 00          	db 0
10385   2F6C BB          	db 187
10386   2F6D 71          	db 113
10387   2F6E FC          	db 252
10388   2F6F AF          	db 175
10389   2F70 EF          	db 239
10390   2F71 FC          	db 252
10391   2F72 E3          	db 227
10392   2F73 C2          	db 194
10393   2F74 DA          	db 218
10394   2F75 A2          	db 162
10395   2F76 07          	db 7
10396   2F77 DA          	db 218
10397   2F78 F3          	db 243
10398   2F79 04          	db 4
10399   2F7A F6          	db 246
10400   2F7B CA          	db 202
10401   2F7C 9C          	db 156
10402   2F7D 1B          	db 27
10403   2F7E 1F          	db 31
10404   2F7F 76          	db 118
10405   2F80 1E          	db 30
10406   2F81 D5          	db 213
10407   2F82 06          	db 6
10408   2F83 BA          	db 186
10409   2F84 B3          	db 179
10410   2F85 41          	db 65
10411   2F86 A0          	db 160
10412   2F87 A2          	db 162
10413   2F88 A9          	db 169
10414   2F89 00          	db 0
10415   2F8A 51          	db 81
10416   2F8B 07          	db 7
10417   2F8C 91          	db 145
10418   2F8D 11          	db 17
10419   2F8E FC          	db 252
10420   2F8F A0          	db 160
10421   2F90 88          	db 136
10422   2F91 10          	db 16
10423   2F92 52          	db 82
10424   2F93 94          	db 148
10425   2F94 A2          	db 162
10426   2F95 6E          	db 110
10427   2F96 A8          	db 168
10428   2F97 51          	db 81
10429   2F98 A9          	db 169
10430   2F99 3B          	db 59
10431   2F9A AB          	db 171
10432   2F9B 00          	db 0
10433   2F9C B0          	db 176
10434   2F9D C4          	db 196
10435   2F9E A8          	db 168
10436   2F9F E9          	db 233
10437   2FA0 06          	db 6
10438   2FA1 F9          	db 249
10439   2FA2 1F          	db 31
10440   2FA3 F8          	db 248
10441   2FA4 DB          	db 219
10442   2FA5 FF          	db 255
10443   2FA6 D8          	db 216
10444   2FA7 ED          	db 237
10445   2FA8 BF          	db 191
10446   2FA9 8D          	db 141
10447   2FAA 6E          	db 110
10448   2FAB 00          	db 0
10449   2FAC EF          	db 239
10450   2FAD 86          	db 134
10451   2FAE 36          	db 54
10452   2FAF E3          	db 227
10453   2FB0 E0          	db 224
10454   2FB1 3E          	db 62
10455   2FB2 50          	db 80
10456   2FB3 A8          	db 168
10457   2FB4 E8          	db 232
10458   2FB5 7E          	db 126
10459   2FB6 4F          	db 79
10460   2FB7 FF          	db 255
10461   2FB8 00          	db 0
10462   2FB9 7F          	db 127
10463   2FBA 41          	db 65
10464   2FBB 5D          	db 93
10465   2FBC 51          	db 81
10466   2FBD 30          	db 48
10467   2FBE 81          	db 129
10468   2FBF 00          	db 0
10469   2FC0 DB          	db 219
10470   2FC1 9F          	db 159
10471   2FC2 A3          	db 163
10472   2FC3 9F          	db 159
10473   2FC4 EF          	db 239
10474   2FC5 10          	db 16
10475   2FC6 DE          	db 222
10476   2FC7 E2          	db 226
10477   2FC8 9F          	db 159
10478   2FC9 FC          	db 252
10479   2FCA F7          	db 247
10480   2FCB 1F          	db 31
10481   2FCC 46          	db 70
10482   2FCD 98          	db 152
10483   2FCE 90          	db 144
10484   2FCF B0          	db 176
10485   2FD0 E0          	db 224
10486   2FD1 93          	db 147
10487   2FD2 7D          	db 125
10488   2FD3 E6          	db 230
10489   2FD4 06          	db 6
10490   2FD5 0D          	db 13
10491   2FD6 3B          	db 59
10492   2FD7 2D          	db 45
10493   2FD8 00          	db 0
10494   2FD9 AB          	db 171
10495   2FDA 3F          	db 63
10496   2FDB FC          	db 252
10497   2FDC 5D          	db 93
10498   2FDD FB          	db 251
10499   2FDE B3          	db 179
10500   2FDF CD          	db 205
10501   2FE0 3E          	db 62
10502   2FE1 F1          	db 241
10503   2FE2 E7          	db 231
10504   2FE3 B8          	db 184
10505   2FE4 F7          	db 247
10506   2FE5 D7          	db 215
10507   2FE6 0C          	db 12
10508   2FE7 EB          	db 235
10509   2FE8 B9          	db 185
10510   2FE9 B0          	db 176
10511   2FEA 0A          	db 10
10512   2FEB E6          	db 230
10513   2FEC AB          	db 171
10514   2FED 02          	db 2
10515   2FEE 2E          	db 46
10516   2FEF 05          	db 5
10517   2FF0 AD          	db 173
10518   2FF1 06          	db 6
10519   2FF2 04          	db 4
10520   2FF3 74          	db 116
10521   2FF4 07          	db 7
10522   2FF5 37          	db 55
10523   2FF6 A0          	db 160
10524   2FF7 FF          	db 255
10525   2FF8 0D          	db 13
10526   2FF9 AA          	db 170
10527   2FFA AA          	db 170
10528   2FFB 06          	db 6
10529   2FFC F1          	db 241
10530   2FFD 00          	db 0
10531   2FFE 1C          	db 28
10532   2FFF 3C          	db 60
10533   3000 3D          	db 61
10534   3001 42          	db 66
10535   3002 75          	db 117
10536   3003 45          	db 69
10537   3004 00          	db 0
10538   3005 1A          	db 26
10539   3006 4D          	db 77
10540   3007 11          	db 17
10541   3008 FE          	db 254
10542   3009 82          	db 130
10543   300A CD          	db 205
10544   300B 7F          	db 127
10545   300C FD          	db 253
10546   300D 45          	db 69
10547   300E A4          	db 164
10548   300F E5          	db 229
10549   3010 C8          	db 200
10550   3011 9A          	db 154
10551   3012 83          	db 131
10552   3013 8E          	db 142
10553   3014 81          	db 129
10554   3015 C4          	db 196
10555   3016 79          	db 121
10556   3017 01          	db 1
10557   3018 70          	db 112
10558   3019 A4          	db 164
10559   301A F9          	db 249
10560   301B FF          	db 255
10561   301C 79          	db 121
10562   301D 7D          	db 125
10563   301E 3F          	db 63
10564   301F F5          	db 245
10565   3020 04          	db 4
10566   3021 02          	db 2
10567   3022 52          	db 82
10568   3023 23          	db 35
10569   3024 26          	db 38
10570   3025 6E          	db 110
10571   3026 FB          	db 251
10572   3027 E1          	db 225
10573   3028 CA          	db 202
10574   3029 EA          	db 234
10575   302A B0          	db 176
10576   302B A8          	db 168
10577   302C 1E          	db 30
10578   302D FF          	db 255
10579   302E F9          	db 249
10580   302F F4          	db 244
10581   3030 EC          	db 236
10582   3031 E8          	db 232
10583   3032 E9          	db 233
10584   3033 EC          	db 236
10585   3034 EE          	db 238
10586   3035 F0          	db 240
10587   3036 7E          	db 126
10588   3037 2A          	db 42
10589   3038 D7          	db 215
10590   3039 E1          	db 225
10591   303A 0B          	db 11
10592   303B 35          	db 53
10593   303C 6E          	db 110
10594   303D 58          	db 88
10595   303E 01          	db 1
10596   303F 77          	db 119
10597   3040 FF          	db 255
10598   3041 F8          	db 248
10599   3042 EF          	db 239
10600   3043 5C          	db 92
10601   3044 B3          	db 179
10602   3045 CF          	db 207
10603   3046 3C          	db 60
10604   3047 F3          	db 243
10605   3048 DA          	db 218
10606   3049 8F          	db 143
10607   304A 3F          	db 63
10608   304B 61          	db 97
10609   304C EB          	db 235
10610   304D B6          	db 182
10611   304E 1B          	db 27
10612   304F 0D          	db 13
10613   3050 18          	db 24
10614   3051 FF          	db 255
10615   3052 6B          	db 107
10616   3053 BB          	db 187
10617   3054 0B          	db 11
10618   3055 1F          	db 31
10619   3056 21          	db 33
10620   3057 94          	db 148
10621   3058 10          	db 16
10622   3059 72          	db 114
10623   305A FF          	db 255
10624   305B 11          	db 17
10625   305C 8B          	db 139
10626   305D FD          	db 253
10627   305E 30          	db 48
10628   305F 01          	db 1
10629   3060 92          	db 146
10630   3061 7F          	db 127
10631   3062 02          	db 2
10632   3063 88          	db 136
10633   3064 15          	db 21
10634   3065 50          	db 80
10635   3066 45          	db 69
10636   3067 0A          	db 10
10637   3068 F8          	db 248
10638   3069 94          	db 148
10639   306A 11          	db 17
10640   306B 92          	db 146
10641   306C 12          	db 18
10642   306D 95          	db 149
10643   306E D1          	db 209
10644   306F 93          	db 147
10645   3070 62          	db 98
10646   3071 15          	db 21
10647   3072 81          	db 129
10648   3073 97          	db 151
10649   3074 3F          	db 63
10650   3075 FC          	db 252
10651   3076 85          	db 133
10652   3077 8F          	db 143
10653   3078 8A          	db 138
10654   3079 DF          	db 223
10655   307A B6          	db 182
10656   307B 77          	db 119
10657   307C 2C          	db 44
10658   307D 01          	db 1
10659   307E C0          	db 192
10660   307F F3          	db 243
10661   3080 57          	db 87
10662   3081 97          	db 151
10663   3082 B3          	db 179
10664   3083 BD          	db 189
10665   3084 17          	db 23
10666   3085 6B          	db 107
10667   3086 7F          	db 127
10668   3087 2D          	db 45
10669   3088 19          	db 25
10670   3089 3E          	db 62
10671   308A 1F          	db 31
10672   308B 6F          	db 111
10673   308C F3          	db 243
10674   308D FD          	db 253
10675   308E FF          	db 255
10676   308F DE          	db 222
10677   3090 0E          	db 14
10678   3091 EE          	db 238
10679   3092 DD          	db 221
10680   3093 3B          	db 59
10681   3094 E7          	db 231
10682   3095 9F          	db 159
10683   3096 3F          	db 63
10684   3097 F8          	db 248
10685   3098 1F          	db 31
10686   3099 87          	db 135
10687   309A E1          	db 225
10688   309B F1          	db 241
10689   309C FD          	db 253
10690   309D 5B          	db 91
10691   309E DF          	db 223
10692   309F EF          	db 239
10693   30A0 FA          	db 250
10694   30A1 AF          	db 175
10695   30A2 BA          	db 186
10696   30A3 07          	db 7
10697   30A4 37          	db 55
10698   30A5 79          	db 121
10699   30A6 E0          	db 224
10700   30A7 C0          	db 192
10701   30A8 EC          	db 236
10702   30A9 C8          	db 200
10703   30AA 78          	db 120
10704   30AB 30          	db 48
10705   30AC 2A          	db 42
10706   30AD CF          	db 207
10707   30AE DC          	db 220
10708   30AF 02          	db 2
10709   30B0 0D          	db 13
10710   30B1 1E          	db 30
10711   30B2 A9          	db 169
10712   30B3 75          	db 117
10713   30B4 2B          	db 43
10714   30B5 FD          	db 253
10715   30B6 FE          	db 254
10716   30B7 03          	db 3
10717   30B8 AF          	db 175
10718   30B9 5C          	db 92
10719   30BA B3          	db 179
10720   30BB 6D          	db 109
10721   30BC 9C          	db 156
10722   30BD 63          	db 99
10723   30BE EE          	db 238
10724   30BF B2          	db 178
10725   30C0 F5          	db 245
10726   30C1 52          	db 82
10727   30C2 E0          	db 224
10728   30C3 7C          	db 124
10729   30C4 FF          	db 255
10730   30C5 C3          	db 195
10731   30C6 2D          	db 45
10732   30C7 F5          	db 245
10733   30C8 FC          	db 252
10734   30C9 7F          	db 127
10735   30CA 39          	db 57
10736   30CB 30          	db 48
10737   30CC 62          	db 98
10738   30CD 3A          	db 58
10739   30CE FF          	db 255
10740   30CF DA          	db 218
10741   30D0 F4          	db 244
10742   30D1 C1          	db 193
10743   30D2 C0          	db 192
10744   30D3 FF          	db 255
10745   30D4 87          	db 135
10746   30D5 C2          	db 194
10747   30D6 C4          	db 196
10748   30D7 38          	db 56
10749   30D8 FB          	db 251
10750   30D9 C5          	db 197
10751   30DA C8          	db 200
10752   30DB 12          	db 18
10753   30DC CA          	db 202
10754   30DD FE          	db 254
10755   30DE 1C          	db 28
10756   30DF C1          	db 193
10757   30E0 3D          	db 61
10758   30E1 C9          	db 201
10759   30E2 D2          	db 210
10760   30E3 66          	db 102
10761   30E4 00          	db 0
10762   30E5 D5          	db 213
10763   30E6 98          	db 152
10764   30E7 FE          	db 254
10765   30E8 DA          	db 218
10766   30E9 CB          	db 203
10767   30EA DC          	db 220
10768   30EB D6          	db 214
10769   30EC CD          	db 205
10770   30ED DB          	db 219
10771   30EE 60          	db 96
10772   30EF 60          	db 96
10773   30F0 CF          	db 207
10774   30F1 FD          	db 253
10775   30F2 0F          	db 15
10776   30F3 3D          	db 61
10777   30F4 37          	db 55
10778   30F5 1F          	db 31
10779   30F6 1D          	db 29
10780   30F7 88          	db 136
10781   30F8 E5          	db 229
10782   30F9 00          	db 0
10783   30FA 75          	db 117
10784   30FB 7A          	db 122
10785   30FC 5D          	db 93
10786   30FD EB          	db 235
10787   30FE 94          	db 148
10788   30FF EF          	db 239
10789   3100 01          	db 1
10790   3101 DC          	db 220
10791   3102 22          	db 34
10792   3103 AC          	db 172
10793   3104 06          	db 6
10794   3105 8E          	db 142
10795   3106 20          	db 32
10796   3107 09          	db 9
10797   3108 3F          	db 63
10798   3109 2C          	db 44
10799   310A F4          	db 244
10800   310B 3F          	db 63
10801   310C BF          	db 191
10802   310D D0          	db 208
10803   310E 03          	db 3
10804   310F 0E          	db 14
10805   3110 15          	db 21
10806   3111 BE          	db 190
10807   3112 6A          	db 106
10808   3113 BF          	db 191
10809   3114 F7          	db 247
10810   3115 EB          	db 235
10811   3116 56          	db 86
10812   3117 B9          	db 185
10813   3118 66          	db 102
10814   3119 99          	db 153
10815   311A B2          	db 178
10816   311B 77          	db 119
10817   311C F8          	db 248
10818   311D 83          	db 131
10819   311E 3B          	db 59
10820   311F 0C          	db 12
10821   3120 F7          	db 247
10822   3121 10          	db 16
10823   3122 FC          	db 252
10824   3123 1E          	db 30
10825   3124 78          	db 120
10826   3125 CD          	db 205
10827   3126 FD          	db 253
10828   3127 78          	db 120
10829   3128 20          	db 32
10830   3129 7E          	db 126
10831   312A F8          	db 248
10832   312B 10          	db 16
10833   312C 00          	db 0
10834   312D C0          	db 192
10835   312E E2          	db 226
10836   312F 80          	db 128
10837   3130 14          	db 20
10838   3131 C3          	db 195
10839   3132 88          	db 136
10840   3133 C7          	db 199
10841   3134 24          	db 36
10842   3135 48          	db 72
10843   3136 C4          	db 196
10844   3137 90          	db 144
10845   3138 54          	db 84
10846   3139 8A          	db 138
10847   313A A8          	db 168
10848   313B FA          	db 250
10849   313C F8          	db 248
10850   313D 00          	db 0
10851   313E AC          	db 172
10852   313F 68          	db 104
10853   3140 DC          	db 220
10854   3141 D8          	db 216
10855   3142 1F          	db 31
10856   3143 FC          	db 252
10857   3144 D4          	db 212
10858   3145 BC          	db 188
10859   3146 F4          	db 244
10860   3147 6E          	db 110
10861   3148 C1          	db 193
10862   3149 FE          	db 254
10863   314A DC          	db 220
10864   314B 61          	db 97
10865   314C B5          	db 181
10866   314D 58          	db 88
10867   314E 00          	db 0
10868   314F 7F          	db 127
10869   3150 80          	db 128
10870   3151 D7          	db 215
10871   3152 7B          	db 123
10872   3153 03          	db 3
10873   3154 05          	db 5
10874   3155 06          	db 6
10875   3156 53          	db 83
10876   3157 FE          	db 254
10877   3158 39          	db 57
10878   3159 D4          	db 212
10879   315A 07          	db 7
10880   315B 61          	db 97
10881   315C 71          	db 113
10882   315D FF          	db 255
10883   315E 9F          	db 159
10884   315F FA          	db 250
10885   3160 70          	db 112
10886   3161 02          	db 2
10887   3162 43          	db 67
10888   3163 FF          	db 255
10889   3164 42          	db 66
10890   3165 99          	db 153
10891   3166 82          	db 130
10892   3167 FB          	db 251
10893   3168 22          	db 34
10894   3169 FC          	db 252
10895   316A 81          	db 129
10896   316B A2          	db 162
10897   316C 92          	db 146
10898   316D 8C          	db 140
10899   316E 42          	db 66
10900   316F 00          	db 0
10901   3170 E2          	db 226
10902   3171 44          	db 68
10903   3172 52          	db 82
10904   3173 8A          	db 138
10905   3174 A2          	db 162
10906   3175 E6          	db 230
10907   3176 FE          	db 254
10908   3177 D2          	db 210
10909   3178 B2          	db 178
10910   3179 06          	db 6
10911   317A 72          	db 114
10912   317B 62          	db 98
10913   317C 04          	db 4
10914   317D F2          	db 242
10915   317E FB          	db 251
10916   317F FE          	db 254
10917   3180 D0          	db 208
10918   3181 B9          	db 185
10919   3182 F9          	db 249
10920   3183 70          	db 112
10921   3184 5B          	db 91
10922   3185 30          	db 48
10923   3186 D3          	db 211
10924   3187 C4          	db 196
10925   3188 2F          	db 47
10926   3189 C3          	db 195
10927   318A FC          	db 252
10928   318B 30          	db 48
10929   318C D7          	db 215
10930   318D 62          	db 98
10931   318E 5D          	db 93
10932   318F FF          	db 255
10933   3190 01          	db 1
10934   3191 F4          	db 244
10935   3192 F4          	db 244
10936   3193 FD          	db 253
10937   3194 5A          	db 90
10938   3195 F1          	db 241
10939   3196 05          	db 5
10940   3197 1A          	db 26
10941   3198 FD          	db 253
10942   3199 01          	db 1
10943   319A FE          	db 254
10944   319B 5E          	db 94
10945   319C 1F          	db 31
10946   319D 40          	db 64
10947   319E FD          	db 253
10948   319F 02          	db 2
10949   31A0 DF          	db 223
10950   31A1 05          	db 5
10951   31A2 07          	db 7
10952   31A3 56          	db 86
10953   31A4 03          	db 3
10954   31A5 0B          	db 11
10955   31A6 86          	db 134
10956   31A7 7D          	db 125
10957   31A8 2F          	db 47
10958   31A9 86          	db 134
10959   31AA D7          	db 215
10960   31AB 06          	db 6
10961   31AC 81          	db 129
10962   31AD FF          	db 255
10963   31AE F8          	db 248
10964   31AF D7          	db 215
10965   31B0 66          	db 102
10966   31B1 1F          	db 31
10967   31B2 EE          	db 238
10968   31B3 80          	db 128
10969   31B4 D7          	db 215
10970   31B5 18          	db 24
10971   31B6 1C          	db 28
10972   31B7 86          	db 134
10973   31B8 FF          	db 255
10974   31B9 F8          	db 248
10975   31BA D7          	db 215
10976   31BB 62          	db 98
10977   31BC 12          	db 18
10978   31BD 30          	db 48
10979   31BE 8F          	db 143
10980   31BF 90          	db 144
10981   31C0 E0          	db 224
10982   31C1 60          	db 96
10983   31C2 6F          	db 111
10984   31C3 BA          	db 186
10985   31C4 02          	db 2
10986   31C5 80          	db 128
10987   31C6 E0          	db 224
10988   31C7 F8          	db 248
10989   31C8 BB          	db 187
10990   31C9 EC          	db 236
10991   31CA 10          	db 16
10992   31CB EF          	db 239
10993   31CC B2          	db 178
10994   31CD 04          	db 4
10995   31CE 0C          	db 12
10996   31CF 08          	db 8
10997   31D0 D8          	db 216
10998   31D1 09          	db 9
10999   31D2 0E          	db 14
11000   31D3 1B          	db 27
11001   31D4 EF          	db 239
11002   31D5 02          	db 2
11003   31D6 18          	db 24
11004   31D7 3E          	db 62
11005   31D8 1F          	db 31
11006   31D9 0F          	db 15
11007   31DA 59          	db 89
11008   31DB CB          	db 203
11009   31DC 60          	db 96
11010   31DD 5D          	db 93
11011   31DE 98          	db 152
11012   31DF FF          	db 255
11013   31E0 1F          	db 31
11014   31E1 A6          	db 166
11015   31E2 FF          	db 255
11016   31E3 01          	db 1
11017   31E4 00          	db 0
11018   31E5 61          	db 97
11019   31E6 73          	db 115
11020   31E7 FF          	db 255
11021   31E8 80          	db 128
11022   31E9 C0          	db 192
11023   31EA 40          	db 64
11024   31EB FF          	db 255
11025   31EC D9          	db 217
11026   31ED 40          	db 64
11027   31EE EF          	db 239
11028   31EF 0C          	db 12
11029   31F0 F0          	db 240
11030   31F1 E0          	db 224
11031   31F2 78          	db 120
11032   31F3 60          	db 96
11033   31F4 22          	db 34
11034   31F5 47          	db 71
11035   31F6 F0          	db 240
11036   31F7 04          	db 4
11037   31F8 3A          	db 58
11038   31F9 40          	db 64
11039   31FA 16          	db 22
11040   31FB E4          	db 228
11041   31FC EF          	db 239
11042   31FD 06          	db 6
11043   31FE D2          	db 210
11044   31FF FF          	db 255
11045   3200 FF          	db 255
11046   3201 9A          	db 154
11047   3202 FF          	db 255
11048   3203 BF          	db 191
11049   3204 1F          	db 31
11050   3205 7F          	db 127
11051   3206 F7          	db 247
11052   3207 C0          	db 192
11053   3208 60          	db 96
11054   3209 E0          	db 224
11055   320A 98          	db 152
11056   320B 7C          	db 124
11057   320C F8          	db 248
11058   320D F6          	db 246
11059   320E FF          	db 255
11060   320F CF          	db 207
11061   3210 BF          	db 191
11062   3211 7B          	db 123
11063   3212 70          	db 112
11064   3213 77          	db 119
11065   3214 BB          	db 187
11066   3215 DC          	db 220
11067   3216 67          	db 103
11068   3217 FF          	db 255
11069   3218 B9          	db 185
11070   3219 5C          	db 92
11071   321A F8          	db 248
11072   321B E1          	db 225
11073   321C 87          	db 135
11074   321D 8F          	db 143
11075   321E BF          	db 191
11076   321F FC          	db 252
11077   3220 D2          	db 210
11078   3221 FB          	db 251
11079   3222 F7          	db 247
11080   3223 DF          	db 223
11081   3224 FE          	db 254
11082   3225 08          	db 8
11083   3226 18          	db 24
11084   3227 F8          	db 248
11085   3228 F0          	db 240
11086   3229 DF          	db 223
11087   322A 9E          	db 158
11088   322B 07          	db 7
11089   322C 03          	db 3
11090   322D 13          	db 19
11091   322E 1E          	db 30
11092   322F B0          	db 176
11093   3230 0C          	db 12
11094   3231 33          	db 51
11095   3232 5A          	db 90
11096   3233 00          	db 0
11097   3234 0E          	db 14
11098   3235 9F          	db 159
11099   3236 47          	db 71
11100   3237 FF          	db 255
11101   3238 9E          	db 158
11102   3239 F1          	db 241
11103   323A FC          	db 252
11104   323B 57          	db 87
11105   323C AA          	db 170
11106   323D 55          	db 85
11107   323E 84          	db 132
11108   323F F2          	db 242
11109   3240 EE          	db 238
11110   3241 F9          	db 249
11111   3242 E7          	db 231
11112   3243 1F          	db 31
11113   3244 13          	db 19
11114   3245 1E          	db 30
11115   3246 87          	db 135
11116   3247 7D          	db 125
11117   3248 24          	db 36
11118   3249 FD          	db 253
11119   324A 20          	db 32
11120   324B 1B          	db 27
11121   324C 31          	db 49
11122   324D FF          	db 255
11123   324E 7F          	db 127
11124   324F BF          	db 191
11125   3250 FA          	db 250
11126   3251 9F          	db 159
11127   3252 0F          	db 15
11128   3253 07          	db 7
11129   3254 07          	db 7
11130   3255 FF          	db 255
11131   3256 7E          	db 126
11132   3257 60          	db 96
11133   3258 68          	db 104
11134   3259 FD          	db 253
11135   325A 00          	db 0
11136   325B DF          	db 223
11137   325C 21          	db 33
11138   325D D3          	db 211
11139   325E EF          	db 239
11140   325F C7          	db 199
11141   3260 23          	db 35
11142   3261 1A          	db 26
11143   3262 35          	db 53
11144   3263 FF          	db 255
11145   3264 6A          	db 106
11146   3265 D5          	db 213
11147   3266 AB          	db 171
11148   3267 FF          	db 255
11149   3268 00          	db 0
11150   3269 FE          	db 254
11151   326A 82          	db 130
11152   326B BA          	db 186
11153   326C 8C          	db 140
11154   326D 8A          	db 138
11155   326E 20          	db 32
11156   326F 40          	db 64
11157   3270 34          	db 52
11158   3271 00          	db 0
11159   3272 04          	db 4
11160   3273 3F          	db 63
11161   3274 F9          	db 249
11162   3275 F7          	db 247
11163   3276 08          	db 8
11164   3277 E7          	db 231
11165   3278 7B          	db 123
11166   3279 47          	db 71
11167   327A 3F          	db 63
11168   327B F7          	db 247
11169   327C F8          	db 248
11170   327D 60          	db 96
11171   327E B0          	db 176
11172   327F 10          	db 16
11173   3280 34          	db 52
11174   3281 FC          	db 252
11175   3282 00          	db 0
11176   3283 50          	db 80
11177   3284 07          	db 7
11178   3285 FF          	db 255
11179   3286 36          	db 54
11180   3287 AE          	db 174
11181   3288 F3          	db 243
11182   3289 01          	db 1
11183   328A 03          	db 3
11184   328B 06          	db 6
11185   328C 05          	db 5
11186   328D 0E          	db 14
11187   328E 0E          	db 14
11188   328F FF          	db 255
11189   3290 FB          	db 251
11190   3291 1E          	db 30
11191   3292 1F          	db 31
11192   3293 84          	db 132
11193   3294 FF          	db 255
11194   3295 09          	db 9
11195   3296 FF          	db 255
11196   3297 FF          	db 255
11197   3298 0F          	db 15
11198   3299 04          	db 4
11199   329A 00          	db 0
11200   329B 3B          	db 59
11201   329C 7F          	db 127
11202   329D CF          	db 207
11203   329E 9E          	db 158
11204   329F AE          	db 174
11205   32A0 38          	db 56
11206   32A1 76          	db 118
11207   32A2 F3          	db 243
11208   32A3 70          	db 112
11209   32A4 60          	db 96
11210   32A5 00          	db 0
11211   32A6 07          	db 7
11212   32A7 6B          	db 107
11213   32A8 FF          	db 255
11214   32A9 01          	db 1
11215   32AA 0F          	db 15
11216   32AB FF          	db 255
11217   32AC 7F          	db 127
11218   32AD FF          	db 255
11219   32AE 78          	db 120
11220   32AF 7C          	db 124
11221   32B0 3F          	db 63
11222   32B1 1E          	db 30
11223   32B2 0C          	db 12
11224   32B3 03          	db 3
11225   32B4 F8          	db 248
11226   32B5 0E          	db 14
11227   32B6 1C          	db 28
11228   32B7 39          	db 57
11229   32B8 3B          	db 59
11230   32B9 1F          	db 31
11231   32BA F5          	db 245
11232   32BB 7E          	db 126
11233   32BC C8          	db 200
11234   32BD F9          	db 249
11235   32BE E0          	db 224
11236   32BF EE          	db 238
11237   32C0 D8          	db 216
11238   32C1 CE          	db 206
11239   32C2 4E          	db 78
11240   32C3 00          	db 0
11241   32C4 FF          	db 255
11242   32C5 C0          	db 192
11243   32C6 ED          	db 237
11244   32C7 FF          	db 255
11245   32C8 F1          	db 241
11246   32C9 C0          	db 192
11247   32CA F0          	db 240
11248   32CB F8          	db 248
11249   32CC 8F          	db 143
11250   32CD FF          	db 255
11251   32CE CF          	db 207
11252   32CF E3          	db 227
11253   32D0 87          	db 135
11254   32D1 83          	db 131
11255   32D2 C1          	db 193
11256   32D3 F8          	db 248
11257   32D4 E0          	db 224
11258   32D5 F0          	db 240
11259   32D6 79          	db 121
11260   32D7 3F          	db 63
11261   32D8 EB          	db 235
11262   32D9 CC          	db 204
11263   32DA C9          	db 201
11264   32DB 13          	db 19
11265   32DC D1          	db 209
11266   32DD FF          	db 255
11267   32DE 80          	db 128
11268   32DF D6          	db 214
11269   32E0 98          	db 152
11270   32E1 8E          	db 142
11271   32E2 52          	db 82
11272   32E3 FF          	db 255
11273   32E4 46          	db 70
11274   32E5 D2          	db 210
11275   32E6 0D          	db 13
11276   32E7 3E          	db 62
11277   32E8 F1          	db 241
11278   32E9 BB          	db 187
11279   32EA 03          	db 3
11280   32EB 61          	db 97
11281   32EC F9          	db 249
11282   32ED 84          	db 132
11283   32EE 00          	db 0
11284   32EF ED          	db 237
11285   32F0 9D          	db 157
11286   32F1 52          	db 82
11287   32F2 E0          	db 224
11288   32F3 60          	db 96
11289   32F4 A0          	db 160
11290   32F5 A9          	db 169
11291   32F6 FE          	db 254
11292   32F7 8B          	db 139
11293   32F8 0C          	db 12
11294   32F9 CC          	db 204
11295   32FA E5          	db 229
11296   32FB C0          	db 192
11297   32FC 69          	db 105
11298   32FD 40          	db 64
11299   32FE FE          	db 254
11300   32FF 72          	db 114
11301   3300 FF          	db 255
11302   3301 00          	db 0
11303   3302 08          	db 8
11304   3303 D1          	db 209
11305   3304 20          	db 32
11306   3305 00          	db 0
11307   3306 62          	db 98
11308   3307 CC          	db 204
11309   3308 D7          	db 215
11310   3309 04          	db 4
11311   330A 06          	db 6
11312   330B 75          	db 117
11313   330C D5          	db 213
11314   330D 76          	db 118
11315   330E D1          	db 209
11316   330F 8B          	db 139
11317   3310 C4          	db 196
11318   3311 62          	db 98
11319   3312 A7          	db 167
11320   3313 FF          	db 255
11321   3314 6E          	db 110
11322   3315 56          	db 86
11323   3316 DF          	db 223
11324   3317 96          	db 150
11325   3318 FF          	db 255
11326   3319 FF          	db 255
11327   331A 63          	db 99
11328   331B FF          	db 255
11329   331C 7F          	db 127
11330   331D 3E          	db 62
11331   331E 8F          	db 143
11332   331F 1C          	db 28
11333   3320 08          	db 8
11334   3321 2C          	db 44
11335   3322 FF          	db 255
11336   3323 1B          	db 27
11337   3324 7D          	db 125
11338   3325 F4          	db 244
11339   3326 80          	db 128
11340   3327 FD          	db 253
11341   3328 60          	db 96
11342   3329 B8          	db 184
11343   332A 54          	db 84
11344   332B AB          	db 171
11345   332C 55          	db 85
11346   332D AA          	db 170
11347   332E 3E          	db 62
11348   332F FE          	db 254
11349   3330 EB          	db 235
11350   3331 35          	db 53
11351   3332 CE          	db 206
11352   3333 33          	db 51
11353   3334 0C          	db 12
11354   3335 C5          	db 197
11355   3336 BD          	db 189
11356   3337 F5          	db 245
11357   3338 B0          	db 176
11358   3339 F4          	db 244
11359   333A 6F          	db 111
11360   333B DA          	db 218
11361   333C D6          	db 214
11362   333D 5A          	db 90
11363   333E DB          	db 219
11364   333F 17          	db 23
11365   3340 A9          	db 169
11366   3341 92          	db 146
11367   3342 FC          	db 252
11368   3343 A5          	db 165
11369   3344 4A          	db 74
11370   3345 08          	db 8
11371   3346 51          	db 81
11372   3347 85          	db 133
11373   3348 10          	db 16
11374   3349 1D          	db 29
11375   334A 00          	db 0
11376   334B 91          	db 145
11377   334C 8E          	db 142
11378   334D FF          	db 255
11379   334E 00          	db 0
11380   334F E0          	db 224
11381   3350 F0          	db 240
11382   3351 8E          	db 142
11383   3352 F8          	db 248
11384   3353 2B          	db 43
11385   3354 C0          	db 192
11386   3355 FF          	db 255
11387   3356 26          	db 38
11388   3357 FF          	db 255
11389   3358 FC          	db 252
11390   3359 BC          	db 188
11391   335A 71          	db 113
11392   335B FF          	db 255
11393   335C BE          	db 190
11394   335D 9E          	db 158
11395   335E CD          	db 205
11396   335F 06          	db 6
11397   3360 8F          	db 143
11398   3361 29          	db 41
11399   3362 FF          	db 255
11400   3363 87          	db 135
11401   3364 FF          	db 255
11402   3365 83          	db 131
11403   3366 4A          	db 74
11404   3367 FF          	db 255
11405   3368 81          	db 129
11406   3369 34          	db 52
11407   336A FF          	db 255
11408   336B FC          	db 252
11409   336C 00          	db 0
11410   336D C1          	db 193
11411   336E 76          	db 118
11412   336F 10          	db 16
11413   3370 63          	db 99
11414   3371 60          	db 96
11415   3372 18          	db 24
11416   3373 7C          	db 124
11417   3374 2C          	db 44
11418   3375 B0          	db 176
11419   3376 12          	db 18
11420   3377 BD          	db 189
11421   3378 D9          	db 217
11422   3379 C0          	db 192
11423   337A EB          	db 235
11424   337B A0          	db 160
11425   337C 58          	db 88
11426   337D BC          	db 188
11427   337E 29          	db 41
11428   337F D1          	db 209
11429   3380 02          	db 2
11430   3381 D5          	db 213
11431   3382 FD          	db 253
11432   3383 7A          	db 122
11433   3384 9D          	db 157
11434   3385 E6          	db 230
11435   3386 7B          	db 123
11436   3387 1C          	db 28
11437   3388 03          	db 3
11438   3389 8C          	db 140
11439   338A 3F          	db 63
11440   338B D5          	db 213
11441   338C A8          	db 168
11442   338D F7          	db 247
11443   338E AD          	db 173
11444   338F 76          	db 118
11445   3390 AA          	db 170
11446   3391 DB          	db 219
11447   3392 73          	db 115
11448   3393 00          	db 0
11449   3394 54          	db 84
11450   3395 92          	db 146
11451   3396 FC          	db 252
11452   3397 A4          	db 164
11453   3398 49          	db 73
11454   3399 15          	db 21
11455   339A A0          	db 160
11456   339B 0A          	db 10
11457   339C 20          	db 32
11458   339D 23          	db 35
11459   339E EB          	db 235
11460   339F 24          	db 36
11461   33A0 62          	db 98
11462   33A1 FE          	db 254
11463   33A2 A0          	db 160
11464   33A3 31          	db 49
11465   33A4 FF          	db 255
11466   33A5 03          	db 3
11467   33A6 F7          	db 247
11468   33A7 07          	db 7
11469   33A8 0F          	db 15
11470   33A9 79          	db 121
11471   33AA FD          	db 253
11472   33AB 84          	db 132
11473   33AC A7          	db 167
11474   33AD FF          	db 255
11475   33AE 97          	db 151
11476   33AF D5          	db 213
11477   33B0 A3          	db 163
11478   33B1 C9          	db 201
11479   33B2 06          	db 6
11480   33B3 D8          	db 216
11481   33B4 04          	db 4
11482   33B5 DF          	db 223
11483   33B6 B5          	db 181
11484   33B7 47          	db 71
11485   33B8 07          	db 7
11486   33B9 1F          	db 31
11487   33BA AB          	db 171
11488   33BB 3E          	db 62
11489   33BC 80          	db 128
11490   33BD 04          	db 4
11491   33BE 17          	db 23
11492   33BF 05          	db 5
11493   33C0 70          	db 112
11494   33C1 E8          	db 232
11495   33C2 56          	db 86
11496   33C3 A1          	db 161
11497   33C4 BB          	db 187
11498   33C5 31          	db 49
11499   33C6 FC          	db 252
11500   33C7 E7          	db 231
11501   33C8 EA          	db 234
11502   33C9 D5          	db 213
11503   33CA 7B          	db 123
11504   33CB 04          	db 4
11505   33CC 79          	db 121
11506   33CD 1E          	db 30
11507   33CE D8          	db 216
11508   33CF 07          	db 7
11509   33D0 01          	db 1
11510   33D1 DB          	db 219
11511   33D2 D0          	db 208
11512   33D3 0D          	db 13
11513   33D4 06          	db 6
11514   33D5 F4          	db 244
11515   33D6 1D          	db 29
11516   33D7 2B          	db 43
11517   33D8 5A          	db 90
11518   33D9 B6          	db 182
11519   33DA CF          	db 207
11520   33DB 8B          	db 139
11521   33DC A5          	db 165
11522   33DD 94          	db 148
11523   33DE C5          	db 197
11524   33DF 52          	db 82
11525   33E0 25          	db 37
11526   33E1 F3          	db 243
11527   33E2 40          	db 64
11528   33E3 95          	db 149
11529   33E4 00          	db 0
11530   33E5 54          	db 84
11531   33E6 EB          	db 235
11532   33E7 49          	db 73
11533   33E8 63          	db 99
11534   33E9 0C          	db 12
11535   33EA D0          	db 208
11536   33EB 10          	db 16
11537   33EC 18          	db 24
11538   33ED 79          	db 121
11539   33EE 3C          	db 60
11540   33EF FF          	db 255
11541   33F0 8F          	db 143
11542   33F1 7E          	db 126
11543   33F2 FF          	db 255
11544   33F3 1C          	db 28
11545   33F4 46          	db 70
11546   33F5 34          	db 52
11547   33F6 FF          	db 255
11548   33F7 B7          	db 183
11549   33F8 FE          	db 254
11550   33F9 3A          	db 58
11551   33FA FF          	db 255
11552   33FB F8          	db 248
11553   33FC 64          	db 100
11554   33FD F8          	db 248
11555   33FE 70          	db 112
11556   33FF F2          	db 242
11557   3400 20          	db 32
11558   3401 FF          	db 255
11559   3402 C6          	db 198
11560   3403 CD          	db 205
11561   3404 78          	db 120
11562   3405 B2          	db 178
11563   3406 29          	db 41
11564   3407 C3          	db 195
11565   3408 9F          	db 159
11566   3409 7B          	db 123
11567   340A 10          	db 16
11568   340B 40          	db 64
11569   340C B0          	db 176
11570   340D 58          	db 88
11571   340E EE          	db 238
11572   340F 88          	db 136
11573   3410 08          	db 8
11574   3411 FC          	db 252
11575   3412 07          	db 7
11576   3413 D5          	db 213
11577   3414 3B          	db 59
11578   3415 DD          	db 221
11579   3416 FB          	db 251
11580   3417 E6          	db 230
11581   3418 D9          	db 217
11582   3419 3E          	db 62
11583   341A 0F          	db 15
11584   341B 03          	db 3
11585   341C 08          	db 8
11586   341D 9D          	db 157
11587   341E C7          	db 199
11588   341F A0          	db 160
11589   3420 B5          	db 181
11590   3421 6D          	db 109
11591   3422 DD          	db 221
11592   3423 D9          	db 217
11593   3424 FC          	db 252
11594   3425 92          	db 146
11595   3426 54          	db 84
11596   3427 25          	db 37
11597   3428 4A          	db 74
11598   3429 A8          	db 168
11599   342A 02          	db 2
11600   342B CD          	db 205
11601   342C 02          	db 2
11602   342D A9          	db 169
11603   342E EE          	db 238
11604   342F 92          	db 146
11605   3430 84          	db 132
11606   3431 55          	db 85
11607   3432 6A          	db 106
11608   3433 64          	db 100
11609   3434 69          	db 105
11610   3435 99          	db 153
11611   3436 FD          	db 253
11612   3437 F6          	db 246
11613   3438 8F          	db 143
11614   3439 78          	db 120
11615   343A 7C          	db 124
11616   343B 1E          	db 30
11617   343C 3C          	db 60
11618   343D 3C          	db 60
11619   343E 3E          	db 62
11620   343F 78          	db 120
11621   3440 1E          	db 30
11622   3441 EF          	db 239
11623   3442 F8          	db 248
11624   3443 10          	db 16
11625   3444 AF          	db 175
11626   3445 E2          	db 226
11627   3446 77          	db 119
11628   3447 25          	db 37
11629   3448 FF          	db 255
11630   3449 FA          	db 250
11631   344A 01          	db 1
11632   344B 84          	db 132
11633   344C 97          	db 151
11634   344D 18          	db 24
11635   344E 46          	db 70
11636   344F FF          	db 255
11637   3450 59          	db 89
11638   3451 EF          	db 239
11639   3452 BE          	db 190
11640   3453 58          	db 88
11641   3454 29          	db 41
11642   3455 42          	db 66
11643   3456 73          	db 115
11644   3457 F7          	db 247
11645   3458 70          	db 112
11646   3459 BC          	db 188
11647   345A 56          	db 86
11648   345B EF          	db 239
11649   345C 1A          	db 26
11650   345D 08          	db 8
11651   345E 3F          	db 63
11652   345F 04          	db 4
11653   3460 CD          	db 205
11654   3461 F3          	db 243
11655   3462 DC          	db 220
11656   3463 7B          	db 123
11657   3464 1D          	db 29
11658   3465 03          	db 3
11659   3466 61          	db 97
11660   3467 37          	db 55
11661   3468 FC          	db 252
11662   3469 C8          	db 200
11663   346A 6E          	db 110
11664   346B D5          	db 213
11665   346C 5B          	db 91
11666   346D B5          	db 181
11667   346E E2          	db 226
11668   346F 00          	db 0
11669   3470 52          	db 82
11670   3471 4A          	db 74
11671   3472 E0          	db 224
11672   3473 49          	db 73
11673   3474 92          	db 146
11674   3475 C0          	db 192
11675   3476 00          	db 0
11676   3477 1B          	db 27
11677   3478 88          	db 136
11678   3479 22          	db 34
11679   347A 0E          	db 14
11680   347B 44          	db 68
11681   347C C6          	db 198
11682   347D 92          	db 146
11683   347E D0          	db 208
11684   347F 04          	db 4
11685   3480 FF          	db 255
11686   3481 7A          	db 122
11687   3482 57          	db 87
11688   3483 1F          	db 31
11689   3484 3F          	db 63
11690   3485 7F          	db 127
11691   3486 E3          	db 227
11692   3487 28          	db 40
11693   3488 63          	db 99
11694   3489 FF          	db 255
11695   348A 19          	db 25
11696   348B F3          	db 243
11697   348C F7          	db 247
11698   348D FC          	db 252
11699   348E D7          	db 215
11700   348F BD          	db 189
11701   3490 CE          	db 206
11702   3491 18          	db 24
11703   3492 1D          	db 29
11704   3493 86          	db 134
11705   3494 77          	db 119
11706   3495 62          	db 98
11707   3496 63          	db 99
11708   3497 D9          	db 217
11709   3498 29          	db 41
11710   3499 5C          	db 92
11711   349A 1A          	db 26
11712   349B FA          	db 250
11713   349C F0          	db 240
11714   349D 5C          	db 92
11715   349E BA          	db 186
11716   349F 55          	db 85
11717   34A0 FE          	db 254
11718   34A1 23          	db 35
11719   34A2 08          	db 8
11720   34A3 00          	db 0
11721   34A4 9F          	db 159
11722   34A5 F8          	db 248
11723   34A6 4D          	db 77
11724   34A7 F3          	db 243
11725   34A8 5C          	db 92
11726   34A9 FB          	db 251
11727   34AA 1D          	db 29
11728   34AB D8          	db 216
11729   34AC 06          	db 6
11730   34AD 01          	db 1
11731   34AE 50          	db 80
11732   34AF 9D          	db 157
11733   34B0 FA          	db 250
11734   34B1 AD          	db 173
11735   34B2 DB          	db 219
11736   34B3 B6          	db 182
11737   34B4 6D          	db 109
11738   34B5 D5          	db 213
11739   34B6 EF          	db 239
11740   34B7 00          	db 0
11741   34B8 A5          	db 165
11742   34B9 9A          	db 154
11743   34BA A1          	db 161
11744   34BB FF          	db 255
11745   34BC 2A          	db 42
11746   34BD 42          	db 66
11747   34BE 14          	db 20
11748   34BF 51          	db 81
11749   34C0 84          	db 132
11750   34C1 10          	db 16
11751   34C2 02          	db 2
11752   34C3 20          	db 32
11753   34C4 63          	db 99
11754   34C5 9B          	db 155
11755   34C6 55          	db 85
11756   34C7 C7          	db 199
11757   34C8 40          	db 64
11758   34C9 60          	db 96
11759   34CA 7F          	db 127
11760   34CB 15          	db 21
11761   34CC 05          	db 5
11762   34CD 18          	db 24
11763   34CE 8D          	db 141
11764   34CF F9          	db 249
11765   34D0 FF          	db 255
11766   34D1 A1          	db 161
11767   34D2 DA          	db 218
11768   34D3 0D          	db 13
11769   34D4 D1          	db 209
11770   34D5 CC          	db 204
11771   34D6 40          	db 64
11772   34D7 82          	db 130
11773   34D8 6E          	db 110
11774   34D9 56          	db 86
11775   34DA 29          	db 41
11776   34DB B9          	db 185
11777   34DC 24          	db 36
11778   34DD 58          	db 88
11779   34DE FC          	db 252
11780   34DF 57          	db 87
11781   34E0 0C          	db 12
11782   34E1 8D          	db 141
11783   34E2 FF          	db 255
11784   34E3 FB          	db 251
11785   34E4 44          	db 68
11786   34E5 FC          	db 252
11787   34E6 F8          	db 248
11788   34E7 FE          	db 254
11789   34E8 75          	db 117
11790   34E9 9B          	db 155
11791   34EA 67          	db 103
11792   34EB F9          	db 249
11793   34EC 56          	db 86
11794   34ED FB          	db 251
11795   34EE 35          	db 53
11796   34EF BC          	db 188
11797   34F0 0B          	db 11
11798   34F1 C2          	db 194
11799   34F2 87          	db 135
11800   34F3 FF          	db 255
11801   34F4 70          	db 112
11802   34F5 68          	db 104
11803   34F6 5C          	db 92
11804   34F7 FA          	db 250
11805   34F8 75          	db 117
11806   34F9 2E          	db 46
11807   34FA 6A          	db 106
11808   34FB 5B          	db 91
11809   34FC AA          	db 170
11810   34FD 2E          	db 46
11811   34FE 00          	db 0
11812   34FF C7          	db 199
11813   3500 FF          	db 255
11814   3501 49          	db 73
11815   3502 E1          	db 225
11816   3503 12          	db 18
11817   3504 A2          	db 162
11818   3505 08          	db 8
11819   3506 F6          	db 246
11820   3507 00          	db 0
11821   3508 84          	db 132
11822   3509 21          	db 33
11823   350A 10          	db 16
11824   350B 60          	db 96
11825   350C FD          	db 253
11826   350D 68          	db 104
11827   350E E1          	db 225
11828   350F F1          	db 241
11829   3510 F3          	db 243
11830   3511 C4          	db 196
11831   3512 62          	db 98
11832   3513 05          	db 5
11833   3514 FF          	db 255
11834   3515 A6          	db 166
11835   3516 11          	db 17
11836   3517 59          	db 89
11837   3518 F0          	db 240
11838   3519 E4          	db 228
11839   351A DA          	db 218
11840   351B D1          	db 209
11841   351C 2C          	db 44
11842   351D CC          	db 204
11843   351E 12          	db 18
11844   351F 72          	db 114
11845   3520 29          	db 41
11846   3521 A5          	db 165
11847   3522 F5          	db 245
11848   3523 F8          	db 248
11849   3524 96          	db 150
11850   3525 54          	db 84
11851   3526 0C          	db 12
11852   3527 4B          	db 75
11853   3528 FE          	db 254
11854   3529 75          	db 117
11855   352A 9F          	db 159
11856   352B 43          	db 67
11857   352C 04          	db 4
11858   352D FA          	db 250
11859   352E 1F          	db 31
11860   352F B0          	db 176
11861   3530 07          	db 7
11862   3531 DB          	db 219
11863   3532 1F          	db 31
11864   3533 2B          	db 43
11865   3534 A1          	db 161
11866   3535 55          	db 85
11867   3536 A2          	db 162
11868   3537 A4          	db 164
11869   3538 41          	db 65
11870   3539 FF          	db 255
11871   353A 22          	db 34
11872   353B 21          	db 33
11873   353C 42          	db 66
11874   353D 12          	db 18
11875   353E 40          	db 64
11876   353F 4A          	db 74
11877   3540 00          	db 0
11878   3541 10          	db 16
11879   3542 B1          	db 177
11880   3543 84          	db 132
11881   3544 C1          	db 193
11882   3545 72          	db 114
11883   3546 FF          	db 255
11884   3547 7F          	db 127
11885   3548 63          	db 99
11886   3549 28          	db 40
11887   354A 8F          	db 143
11888   354B C7          	db 199
11889   354C C7          	db 199
11890   354D B1          	db 177
11891   354E 87          	db 135
11892   354F F4          	db 244
11893   3550 FF          	db 255
11894   3551 CF          	db 207
11895   3552 70          	db 112
11896   3553 1D          	db 29
11897   3554 C4          	db 196
11898   3555 F8          	db 248
11899   3556 CB          	db 203
11900   3557 60          	db 96
11901   3558 8D          	db 141
11902   3559 7D          	db 125
11903   355A 1D          	db 29
11904   355B 78          	db 120
11905   355C FE          	db 254
11906   355D 12          	db 18
11907   355E 10          	db 16
11908   355F 0C          	db 12
11909   3560 77          	db 119
11910   3561 13          	db 19
11911   3562 47          	db 71
11912   3563 F8          	db 248
11913   3564 37          	db 55
11914   3565 CF          	db 207
11915   3566 73          	db 115
11916   3567 99          	db 153
11917   3568 FC          	db 252
11918   3569 F4          	db 244
11919   356A F5          	db 245
11920   356B 04          	db 4
11921   356C 61          	db 97
11922   356D AB          	db 171
11923   356E 9E          	db 158
11924   356F 03          	db 3
11925   3570 06          	db 6
11926   3571 C7          	db 199
11927   3572 2D          	db 45
11928   3573 0A          	db 10
11929   3574 5B          	db 91
11930   3575 FF          	db 255
11931   3576 AE          	db 174
11932   3577 24          	db 36
11933   3578 7C          	db 124
11934   3579 FF          	db 255
11935   357A A9          	db 169
11936   357B 02          	db 2
11937   357C 48          	db 72
11938   357D 09          	db 9
11939   357E 20          	db 32
11940   357F 4B          	db 75
11941   3580 88          	db 136
11942   3581 53          	db 83
11943   3582 E6          	db 230
11944   3583 0C          	db 12
11945   3584 6E          	db 110
11946   3585 F6          	db 246
11947   3586 DE          	db 222
11948   3587 EC          	db 236
11949   3588 FC          	db 252
11950   3589 14          	db 20
11951   358A 31          	db 49
11952   358B 00          	db 0
11953   358C 80          	db 128
11954   358D 5D          	db 93
11955   358E F9          	db 249
11956   358F E9          	db 233
11957   3590 76          	db 118
11958   3591 FF          	db 255
11959   3592 D5          	db 213
11960   3593 08          	db 8
11961   3594 DD          	db 221
11962   3595 47          	db 71
11963   3596 FC          	db 252
11964   3597 BD          	db 189
11965   3598 F8          	db 248
11966   3599 7F          	db 127
11967   359A B7          	db 183
11968   359B CF          	db 207
11969   359C F3          	db 243
11970   359D 00          	db 0
11971   359E 04          	db 4
11972   359F AF          	db 175
11973   35A0 3F          	db 63
11974   35A1 30          	db 48
11975   35A2 0B          	db 11
11976   35A3 D9          	db 217
11977   35A4 AA          	db 170
11978   35A5 A0          	db 160
11979   35A6 FA          	db 250
11980   35A7 68          	db 104
11981   35A8 58          	db 88
11982   35A9 75          	db 117
11983   35AA 56          	db 86
11984   35AB AA          	db 170
11985   35AC 7F          	db 127
11986   35AD 00          	db 0
11987   35AE 95          	db 149
11988   35AF A9          	db 169
11989   35B0 92          	db 146
11990   35B1 A4          	db 164
11991   35B2 0A          	db 10
11992   35B3 A8          	db 168
11993   35B4 01          	db 1
11994   35B5 8D          	db 141
11995   35B6 54          	db 84
11996   35B7 20          	db 32
11997   35B8 B7          	db 183
11998   35B9 04          	db 4
11999   35BA EB          	db 235
12000   35BB 54          	db 84
12001   35BC 1F          	db 31
12002   35BD BB          	db 187
12003   35BE F8          	db 248
12004   35BF 1D          	db 29
12005   35C0 BB          	db 187
12006   35C1 FC          	db 252
12007   35C2 15          	db 21
12008   35C3 C4          	db 196
12009   35C4 00          	db 0
12010   35C5 FC          	db 252
12011   35C6 08          	db 8
12012   35C7 70          	db 112
12013   35C8 10          	db 16
12014   35C9 18          	db 24
12015   35CA 20          	db 32
12016   35CB 8C          	db 140
12017   35CC 58          	db 88
12018   35CD F8          	db 248
12019   35CE 4F          	db 79
12020   35CF 7E          	db 126
12021   35D0 34          	db 52
12022   35D1 F0          	db 240
12023   35D2 DC          	db 220
12024   35D3 FE          	db 254
12025   35D4 69          	db 105
12026   35D5 18          	db 24
12027   35D6 FD          	db 253
12028   35D7 0C          	db 12
12029   35D8 DF          	db 223
12030   35D9 09          	db 9
12031   35DA AB          	db 171
12032   35DB F8          	db 248
12033   35DC 7F          	db 127
12034   35DD 9F          	db 159
12035   35DE EE          	db 238
12036   35DF E7          	db 231
12037   35E0 F9          	db 249
12038   35E1 FE          	db 254
12039   35E2 58          	db 88
12040   35E3 F8          	db 248
12041   35E4 1F          	db 31
12042   35E5 77          	db 119
12043   35E6 5F          	db 95
12044   35E7 1A          	db 26
12045   35E8 F5          	db 245
12046   35E9 DF          	db 223
12047   35EA B5          	db 181
12048   35EB B7          	db 183
12049   35EC DC          	db 220
12050   35ED 55          	db 85
12051   35EE DB          	db 219
12052   35EF 00          	db 0
12053   35F0 FE          	db 254
12054   35F1 52          	db 82
12055   35F2 94          	db 148
12056   35F3 2A          	db 42
12057   35F4 50          	db 80
12058   35F5 85          	db 133
12059   35F6 28          	db 40
12060   35F7 82          	db 130
12061   35F8 17          	db 23
12062   35F9 01          	db 1
12063   35FA 10          	db 16
12064   35FB 04          	db 4
12065   35FC 6F          	db 111
12066   35FD 96          	db 150
12067   35FE 54          	db 84
12068   35FF 3F          	db 63
12069   3600 76          	db 118
12070   3601 F8          	db 248
12071   3602 1A          	db 26
12072   3603 62          	db 98
12073   3604 00          	db 0
12074   3605 F9          	db 249
12075   3606 04          	db 4
12076   3607 E0          	db 224
12077   3608 08          	db 8
12078   3609 30          	db 48
12079   360A 10          	db 16
12080   360B 19          	db 25
12081   360C 2C          	db 44
12082   360D F0          	db 240
12083   360E 21          	db 33
12084   360F 76          	db 118
12085   3610 05          	db 5
12086   3611 E0          	db 224
12087   3612 F0          	db 240
12088   3613 FC          	db 252
12089   3614 90          	db 144
12090   3615 15          	db 21
12091   3616 50          	db 80
12092   3617 F7          	db 247
12093   3618 6C          	db 108
12094   3619 F8          	db 248
12095   361A 79          	db 121
12096   361B 04          	db 4
12097   361C CD          	db 205
12098   361D F0          	db 240
12099   361E 3F          	db 63
12100   361F 07          	db 7
12101   3620 87          	db 135
12102   3621 5D          	db 93
12103   3622 A9          	db 169
12104   3623 CF          	db 207
12105   3624 F0          	db 240
12106   3625 B0          	db 176
12107   3626 02          	db 2
12108   3627 B6          	db 182
12109   3628 F6          	db 246
12110   3629 AD          	db 173
12111   362A C3          	db 195
12112   362B ED          	db 237
12113   362C 55          	db 85
12114   362D 9F          	db 159
12115   362E 6A          	db 106
12116   362F 00          	db 0
12117   3630 4A          	db 74
12118   3631 59          	db 89
12119   3632 92          	db 146
12120   3633 25          	db 37
12121   3634 FF          	db 255
12122   3635 2A          	db 42
12123   3636 A0          	db 160
12124   3637 0A          	db 10
12125   3638 50          	db 80
12126   3639 82          	db 130
12127   363A 08          	db 8
12128   363B 41          	db 65
12129   363C 10          	db 16
12130   363D 11          	db 17
12131   363E A1          	db 161
12132   363F E0          	db 224
12133   3640 87          	db 135
12134   3641 F7          	db 247
12135   3642 F9          	db 249
12136   3643 47          	db 71
12137   3644 FF          	db 255
12138   3645 DF          	db 223
12139   3646 FE          	db 254
12140   3647 F8          	db 248
12141   3648 E0          	db 224
12142   3649 66          	db 102
12143   364A 4E          	db 78
12144   364B F9          	db 249
12145   364C E3          	db 227
12146   364D 52          	db 82
12147   364E 02          	db 2
12148   364F FE          	db 254
12149   3650 33          	db 51
12150   3651 05          	db 5
12151   3652 E1          	db 225
12152   3653 8E          	db 142
12153   3654 B6          	db 182
12154   3655 05          	db 5
12155   3656 F8          	db 248
12156   3657 FC          	db 252
12157   3658 6D          	db 109
12158   3659 1C          	db 28
12159   365A B5          	db 181
12160   365B 0D          	db 13
12161   365C 5E          	db 94
12162   365D 0D          	db 13
12163   365E 79          	db 121
12164   365F F7          	db 247
12165   3660 DE          	db 222
12166   3661 0B          	db 11
12167   3662 61          	db 97
12168   3663 E3          	db 227
12169   3664 FF          	db 255
12170   3665 7F          	db 127
12171   3666 5B          	db 91
12172   3667 EB          	db 235
12173   3668 7E          	db 126
12174   3669 6B          	db 107
12175   366A 3E          	db 62
12176   366B 75          	db 117
12177   366C 00          	db 0
12178   366D DB          	db 219
12179   366E 65          	db 101
12180   366F FF          	db 255
12181   3670 9F          	db 159
12182   3671 FF          	db 255
12183   3672 94          	db 148
12184   3673 29          	db 41
12185   3674 49          	db 73
12186   3675 92          	db 146
12187   3676 87          	db 135
12188   3677 22          	db 34
12189   3678 10          	db 16
12190   3679 CA          	db 202
12191   367A 42          	db 66
12192   367B 88          	db 136
12193   367C 21          	db 33
12194   367D 30          	db 48
12195   367E E3          	db 227
12196   367F C7          	db 199
12197   3680 36          	db 54
12198   3681 FC          	db 252
12199   3682 FC          	db 252
12200   3683 E6          	db 230
12201   3684 FF          	db 255
12202   3685 42          	db 66
12203   3686 00          	db 0
12204   3687 7F          	db 127
12205   3688 EC          	db 236
12206   3689 5D          	db 93
12207   368A D7          	db 215
12208   368B 1F          	db 31
12209   368C B6          	db 182
12210   368D 43          	db 67
12211   368E 5A          	db 90
12212   368F 00          	db 0
12213   3690 86          	db 134
12214   3691 04          	db 4
12215   3692 C6          	db 198
12216   3693 08          	db 8
12217   3694 66          	db 102
12218   3695 16          	db 22
12219   3696 C3          	db 195
12220   3697 2F          	db 47
12221   3698 C6          	db 198
12222   3699 1A          	db 26
12223   369A 26          	db 38
12224   369B 05          	db 5
12225   369C DB          	db 219
12226   369D 7F          	db 127
12227   369E BF          	db 191
12228   369F 12          	db 18
12229   36A0 04          	db 4
12230   36A1 AE          	db 174
12231   36A2 01          	db 1
12232   36A3 C1          	db 193
12233   36A4 46          	db 70
12234   36A5 40          	db 64
12235   36A6 C1          	db 193
12236   36A7 52          	db 82
12237   36A8 02          	db 2
12238   36A9 FE          	db 254
12239   36AA 04          	db 4
12240   36AB 8C          	db 140
12241   36AC F7          	db 247
12242   36AD 25          	db 37
12243   36AE 0E          	db 14
12244   36AF D0          	db 208
12245   36B0 8C          	db 140
12246   36B1 29          	db 41
12247   36B2 83          	db 131
12248   36B3 FF          	db 255
12249   36B4 0A          	db 10
12250   36B5 10          	db 16
12251   36B6 6E          	db 110
12252   36B7 0F          	db 15
12253   36B8 1D          	db 29
12254   36B9 F8          	db 248
12255   36BA 45          	db 69
12256   36BB 0C          	db 12
12257   36BC 16          	db 22
12258   36BD 07          	db 7
12259   36BE 29          	db 41
12260   36BF 9B          	db 155
12261   36C0 13          	db 19
12262   36C1 FE          	db 254
12263   36C2 3C          	db 60
12264   36C3 06          	db 6
12265   36C4 D7          	db 215
12266   36C5 C8          	db 200
12267   36C6 0D          	db 13
12268   36C7 F8          	db 248
12269   36C8 C2          	db 194
12270   36C9 BF          	db 191
12271   36CA 31          	db 49
12272   36CB 0B          	db 11
12273   36CC BC          	db 188
12274   36CD E3          	db 227
12275   36CE 8B          	db 139
12276   36CF D8          	db 216
12277   36D0 F8          	db 248
12278   36D1 45          	db 69
12279   36D2 B8          	db 184
12280   36D3 C6          	db 198
12281   36D4 D0          	db 208
12282   36D5 78          	db 120
12283   36D6 0F          	db 15
12284   36D7 A8          	db 168
12285   36D8 6C          	db 108
12286   36D9 8B          	db 139
12287   36DA D8          	db 216
12288   36DB 54          	db 84
12289   36DC 38          	db 56
12290   36DD FE          	db 254
12291   36DE A4          	db 164
12292   36DF 48          	db 72
12293   36E0 7F          	db 127
12294   36E1 94          	db 148
12295   36E2 22          	db 34
12296   36E3 88          	db 136
12297   36E4 52          	db 82
12298   36E5 42          	db 66
12299   36E6 E0          	db 224
12300   36E7 08          	db 8
12301   36E8 21          	db 33
12302   36E9 00          	db 0
12303   36EA B0          	db 176
12304   36EB 94          	db 148
12305   36EC A0          	db 160
12306   36ED FF          	db 255
12307   36EE DE          	db 222
12308   36EF 01          	db 1
12309   36F0 78          	db 120
12310   36F1 FF          	db 255
12311   36F2 98          	db 152
12312   36F3 FC          	db 252
12313   36F4 FD          	db 253
12314   36F5 30          	db 48
12315   36F6 ED          	db 237
12316   36F7 BC          	db 188
12317   36F8 C8          	db 200
12318   36F9 01          	db 1
12319   36FA F5          	db 245
12320   36FB 46          	db 70
12321   36FC EE          	db 238
12322   36FD 87          	db 135
12323   36FE E7          	db 231
12324   36FF F9          	db 249
12325   3700 E8          	db 232
12326   3701 9C          	db 156
12327   3702 1C          	db 28
12328   3703 4A          	db 74
12329   3704 FE          	db 254
12330   3705 F8          	db 248
12331   3706 59          	db 89
12332   3707 FC          	db 252
12333   3708 FE          	db 254
12334   3709 BE          	db 190
12335   370A AA          	db 170
12336   370B D7          	db 215
12337   370C 70          	db 112
12338   370D 78          	db 120
12339   370E 98          	db 152
12340   370F D0          	db 208
12341   3710 8B          	db 139
12342   3711 FF          	db 255
12343   3712 1F          	db 31
12344   3713 67          	db 103
12345   3714 B5          	db 181
12346   3715 79          	db 121
12347   3716 31          	db 49
12348   3717 E7          	db 231
12349   3718 FF          	db 255
12350   3719 2D          	db 45
12351   371A 0B          	db 11
12352   371B F8          	db 248
12353   371C 45          	db 69
12354   371D 44          	db 68
12355   371E 20          	db 32
12356   371F 50          	db 80
12357   3720 A8          	db 168
12358   3721 9C          	db 156
12359   3722 A9          	db 169
12360   3723 D4          	db 212
12361   3724 AA          	db 170
12362   3725 21          	db 33
12363   3726 A2          	db 162
12364   3727 54          	db 84
12365   3728 42          	db 66
12366   3729 D0          	db 208
12367   372A 02          	db 2
12368   372B B8          	db 184
12369   372C 48          	db 72
12370   372D 24          	db 36
12371   372E F0          	db 240
12372   372F D6          	db 214
12373   3730 80          	db 128
12374   3731 7F          	db 127
12375   3732 7E          	db 126
12376   3733 03          	db 3
12377   3734 7D          	db 125
12378   3735 F7          	db 247
12379   3736 FF          	db 255
12380   3737 6B          	db 107
12381   3738 BE          	db 190
12382   3739 27          	db 39
12383   373A DD          	db 221
12384   373B 5B          	db 91
12385   373C F6          	db 246
12386   373D 8B          	db 139
12387   373E AD          	db 173
12388   373F B6          	db 182
12389   3740 D7          	db 215
12390   3741 6A          	db 106
12391   3742 55          	db 85
12392   3743 05          	db 5
12393   3744 FF          	db 255
12394   3745 FF          	db 255
12395   3746 29          	db 41
12396   3747 A2          	db 162
12397   3748 8A          	db 138
12398   3749 28          	db 40
12399   374A 42          	db 66
12400   374B 14          	db 20
12401   374C 41          	db 65
12402   374D 08          	db 8
12403   374E 74          	db 116
12404   374F D8          	db 216
12405   3750 FF          	db 255
12406   3751 45          	db 69
12407   3752 D6          	db 214
12408   3753 FE          	db 254
12409   3754 9E          	db 158
12410   3755 74          	db 116
12411   3756 65          	db 101
12412   3757 F5          	db 245
12413   3758 FE          	db 254
12414   3759 70          	db 112
12415   375A 54          	db 84
12416   375B 66          	db 102
12417   375C 67          	db 103
12418   375D 5E          	db 94
12419   375E EB          	db 235
12420   375F DC          	db 220
12421   3760 B3          	db 179
12422   3761 FC          	db 252
12423   3762 2D          	db 45
12424   3763 FF          	db 255
12425   3764 8C          	db 140
12426   3765 02          	db 2
12427   3766 98          	db 152
12428   3767 05          	db 5
12429   3768 FC          	db 252
12430   3769 9F          	db 159
12431   376A B5          	db 181
12432   376B 00          	db 0
12433   376C 2A          	db 42
12434   376D FA          	db 250
12435   376E 0F          	db 15
12436   376F AB          	db 171
12437   3770 A8          	db 168
12438   3771 11          	db 17
12439   3772 7B          	db 123
12440   3773 FF          	db 255
12441   3774 FC          	db 252
12442   3775 F3          	db 243
12443   3776 CF          	db 207
12444   3777 3F          	db 63
12445   3778 CB          	db 203
12446   3779 F7          	db 247
12447   377A 8C          	db 140
12448   377B B5          	db 181
12449   377C 7A          	db 122
12450   377D 9B          	db 155
12451   377E F0          	db 240
12452   377F 54          	db 84
12453   3780 8A          	db 138
12454   3781 E3          	db 227
12455   3782 0B          	db 11
12456   3783 EA          	db 234
12457   3784 FD          	db 253
12458   3785 B5          	db 181
12459   3786 FA          	db 250
12460   3787 EF          	db 239
12461   3788 DD          	db 221
12462   3789 FF          	db 255
12463   378A F7          	db 247
12464   378B 16          	db 22
12465   378C 71          	db 113
12466   378D 86          	db 134
12467   378E D1          	db 209
12468   378F EC          	db 236
12469   3790 D6          	db 214
12470   3791 7D          	db 125
12471   3792 2A          	db 42
12472   3793 D1          	db 209
12473   3794 D9          	db 217
12474   3795 68          	db 104
12475   3796 C5          	db 197
12476   3797 DF          	db 223
12477   3798 FB          	db 251
12478   3799 FF          	db 255
12479   379A EB          	db 235
12480   379B BF          	db 191
12481   379C 76          	db 118
12482   379D DB          	db 219
12483   379E BB          	db 187
12484   379F D6          	db 214
12485   37A0 BD          	db 189
12486   37A1 6B          	db 107
12487   37A2 8C          	db 140
12488   37A3 5A          	db 90
12489   37A4 9F          	db 159
12490   37A5 CE          	db 206
12491   37A6 2A          	db 42
12492   37A7 D2          	db 210
12493   37A8 15          	db 21
12494   37A9 A4          	db 164
12495   37AA 4A          	db 74
12496   37AB FA          	db 250
12497   37AC 90          	db 144
12498   37AD 45          	db 69
12499   37AE 08          	db 8
12500   37AF 21          	db 33
12501   37B0 44          	db 68
12502   37B1 9B          	db 155
12503   37B2 FF          	db 255
12504   37B3 08          	db 8
12505   37B4 8F          	db 143
12506   37B5 FF          	db 255
12507   37B6 8C          	db 140
12508   37B7 22          	db 34
12509   37B8 E3          	db 227
12510   37B9 71          	db 113
12511   37BA 18          	db 24
12512   37BB D9          	db 217
12513   37BC FF          	db 255
12514   37BD E2          	db 226
12515   37BE DF          	db 223
12516   37BF D7          	db 215
12517   37C0 CC          	db 204
12518   37C1 40          	db 64
12519   37C2 4B          	db 75
12520   37C3 F1          	db 241
12521   37C4 BC          	db 188
12522   37C5 19          	db 25
12523   37C6 FE          	db 254
12524   37C7 03          	db 3
12525   37C8 CC          	db 204
12526   37C9 F2          	db 242
12527   37CA 7B          	db 123
12528   37CB EC          	db 236
12529   37CC FB          	db 251
12530   37CD FF          	db 255
12531   37CE EC          	db 236
12532   37CF FC          	db 252
12533   37D0 F0          	db 240
12534   37D1 C0          	db 192
12535   37D2 6B          	db 107
12536   37D3 BE          	db 190
12537   37D4 6B          	db 107
12538   37D5 0A          	db 10
12539   37D6 15          	db 21
12540   37D7 2A          	db 42
12541   37D8 17          	db 23
12542   37D9 37          	db 55
12543   37DA 55          	db 85
12544   37DB 2E          	db 46
12545   37DC 5D          	db 93
12546   37DD E7          	db 231
12547   37DE B7          	db 183
12548   37DF 6F          	db 111
12549   37E0 BF          	db 191
12550   37E1 FE          	db 254
12551   37E2 7F          	db 127
12552   37E3 3F          	db 63
12553   37E4 FE          	db 254
12554   37E5 5F          	db 95
12555   37E6 37          	db 55
12556   37E7 1F          	db 31
12557   37E8 0F          	db 15
12558   37E9 07          	db 7
12559   37EA 02          	db 2
12560   37EB 01          	db 1
12561   37EC C4          	db 196
12562   37ED 27          	db 39
12563   37EE 41          	db 65
12564   37EF F1          	db 241
12565   37F0 FF          	db 255
12566   37F1 D1          	db 209
12567   37F2 FA          	db 250
12568   37F3 DB          	db 219
12569   37F4 7B          	db 123
12570   37F5 EB          	db 235
12571   37F6 BD          	db 189
12572   37F7 ED          	db 237
12573   37F8 B6          	db 182
12574   37F9 83          	db 131
12575   37FA 6D          	db 109
12576   37FB B5          	db 181
12577   37FC 70          	db 112
12578   37FD 00          	db 0
12579   37FE 58          	db 88
12580   37FF 24          	db 36
12581   3800 7F          	db 127
12582   3801 14          	db 20
12583   3802 A2          	db 162
12584   3803 28          	db 40
12585   3804 85          	db 133
12586   3805 10          	db 16
12587   3806 C5          	db 197
12588   3807 42          	db 66
12589   3808 04          	db 4
12590   3809 D8          	db 216
12591   380A 20          	db 32
12592   380B 02          	db 2
12593   380C FA          	db 250
12594   380D 03          	db 3
12595   380E 02          	db 2
12596   380F EB          	db 235
12597   3810 0C          	db 12
12598   3811 FD          	db 253
12599   3812 EB          	db 235
12600   3813 88          	db 136
12601   3814 FA          	db 250
12602   3815 C6          	db 198
12603   3816 CF          	db 207
12604   3817 FF          	db 255
12605   3818 3E          	db 62
12606   3819 DF          	db 223
12607   381A CC          	db 204
12608   381B 42          	db 66
12609   381C 95          	db 149
12610   381D AC          	db 172
12611   381E 31          	db 49
12612   381F 6E          	db 110
12613   3820 04          	db 4
12614   3821 B3          	db 179
12615   3822 04          	db 4
12616   3823 F3          	db 243
12617   3824 B1          	db 177
12618   3825 F8          	db 248
12619   3826 8B          	db 139
12620   3827 16          	db 22
12621   3828 0E          	db 14
12622   3829 C8          	db 200
12623   382A 23          	db 35
12624   382B FF          	db 255
12625   382C FB          	db 251
12626   382D FE          	db 254
12627   382E F9          	db 249
12628   382F E7          	db 231
12629   3830 9F          	db 159
12630   3831 68          	db 104
12631   3832 E9          	db 233
12632   3833 AF          	db 175
12633   3834 FC          	db 252
12634   3835 B0          	db 176
12635   3836 FC          	db 252
12636   3837 B4          	db 180
12637   3838 FF          	db 255
12638   3839 8D          	db 141
12639   383A CA          	db 202
12640   383B 66          	db 102
12641   383C 4C          	db 76
12642   383D F4          	db 244
12643   383E F6          	db 246
12644   383F EE          	db 238
12645   3840 2F          	db 47
12646   3841 DF          	db 223
12647   3842 F6          	db 246
12648   3843 BF          	db 191
12649   3844 F7          	db 247
12650   3845 FF          	db 255
12651   3846 BE          	db 190
12652   3847 EB          	db 235
12653   3848 DE          	db 222
12654   3849 B5          	db 181
12655   384A EF          	db 239
12656   384B 5A          	db 90
12657   384C D6          	db 214
12658   384D AD          	db 173
12659   384E 70          	db 112
12660   384F 00          	db 0
12661   3850 4F          	db 79
12662   3851 29          	db 41
12663   3852 45          	db 69
12664   3853 A8          	db 168
12665   3854 05          	db 5
12666   3855 FD          	db 253
12667   3856 28          	db 40
12668   3857 42          	db 66
12669   3858 08          	db 8
12670   3859 91          	db 145
12671   385A 00          	db 0
12672   385B 09          	db 9
12673   385C 84          	db 132
12674   385D 94          	db 148
12675   385E 53          	db 83
12676   385F BF          	db 191
12677   3860 FE          	db 254
12678   3861 8C          	db 140
12679   3862 72          	db 114
12680   3863 D1          	db 209
12681   3864 FF          	db 255
12682   3865 5B          	db 91
12683   3866 D8          	db 216
12684   3867 7C          	db 124
12685   3868 38          	db 56
12686   3869 F2          	db 242
12687   386A C7          	db 199
12688   386B CC          	db 204
12689   386C B9          	db 185
12690   386D 04          	db 4
12691   386E 8D          	db 141
12692   386F 5B          	db 91
12693   3870 FA          	db 250
12694   3871 01          	db 1
12695   3872 8E          	db 142
12696   3873 1D          	db 29
12697   3874 D9          	db 217
12698   3875 F6          	db 246
12699   3876 FB          	db 251
12700   3877 2F          	db 47
12701   3878 F6          	db 246
12702   3879 FC          	db 252
12703   387A 3F          	db 63
12704   387B D6          	db 214
12705   387C F5          	db 245
12706   387D 7B          	db 123
12707   387E B2          	db 178
12708   387F 01          	db 1
12709   3880 A1          	db 161
12710   3881 03          	db 3
12711   3882 A0          	db 160
12712   3883 48          	db 72
12713   3884 1B          	db 27
12714   3885 50          	db 80
12715   3886 84          	db 132
12716   3887 18          	db 24
12717   3888 FF          	db 255
12718   3889 FC          	db 252
12719   388A A1          	db 161
12720   388B 61          	db 97
12721   388C A3          	db 163
12722   388D 07          	db 7
12723   388E 0F          	db 15
12724   388F 36          	db 54
12725   3890 FF          	db 255
12726   3891 FF          	db 255
12727   3892 ED          	db 237
12728   3893 BF          	db 191
12729   3894 75          	db 117
12730   3895 DE          	db 222
12731   3896 7B          	db 123
12732   3897 D6          	db 214
12733   3898 5D          	db 93
12734   3899 EB          	db 235
12735   389A DC          	db 220
12736   389B 5A          	db 90
12737   389C B5          	db 181
12738   389D 00          	db 0
12739   389E FD          	db 253
12740   389F A9          	db 169
12741   38A0 A5          	db 165
12742   38A1 89          	db 137
12743   38A2 52          	db 82
12744   38A3 15          	db 21
12745   38A4 A0          	db 160
12746   38A5 7A          	db 122
12747   38A6 FF          	db 255
12748   38A7 08          	db 8
12749   38A8 C2          	db 194
12750   38A9 0D          	db 13
12751   38AA D7          	db 215
12752   38AB FF          	db 255
12753   38AC 20          	db 32
12754   38AD 28          	db 40
12755   38AE 1E          	db 30
12756   38AF 7E          	db 126
12757   38B0 79          	db 121
12758   38B1 BA          	db 186
12759   38B2 12          	db 18
12760   38B3 CB          	db 203
12761   38B4 2F          	db 47
12762   38B5 FF          	db 255
12763   38B6 80          	db 128
12764   38B7 ED          	db 237
12765   38B8 CD          	db 205
12766   38B9 25          	db 37
12767   38BA EE          	db 238
12768   38BB DE          	db 222
12769   38BC 78          	db 120
12770   38BD DB          	db 219
12771   38BE E3          	db 227
12772   38BF 64          	db 100
12773   38C0 DE          	db 222
12774   38C1 AB          	db 171
12775   38C2 CF          	db 207
12776   38C3 97          	db 151
12777   38C4 00          	db 0
12778   38C5 0F          	db 15
12779   38C6 18          	db 24
12780   38C7 FC          	db 252
12781   38C8 44          	db 68
12782   38C9 49          	db 73
12783   38CA F7          	db 247
12784   38CB 07          	db 7
12785   38CC 1F          	db 31
12786   38CD 3F          	db 63
12787   38CE FF          	db 255
12788   38CF 25          	db 37
12789   38D0 96          	db 150
12790   38D1 77          	db 119
12791   38D2 FD          	db 253
12792   38D3 BA          	db 186
12793   38D4 F8          	db 248
12794   38D5 7C          	db 124
12795   38D6 BA          	db 186
12796   38D7 F3          	db 243
12797   38D8 EC          	db 236
12798   38D9 58          	db 88
12799   38DA 00          	db 0
12800   38DB 7E          	db 126
12801   38DC 53          	db 83
12802   38DD ED          	db 237
12803   38DE F9          	db 249
12804   38DF A9          	db 169
12805   38E0 14          	db 20
12806   38E1 6F          	db 111
12807   38E2 F0          	db 240
12808   38E3 75          	db 117
12809   38E4 DB          	db 219
12810   38E5 EB          	db 235
12811   38E6 FD          	db 253
12812   38E7 FE          	db 254
12813   38E8 FB          	db 251
12814   38E9 87          	db 135
12815   38EA EF          	db 239
12816   38EB 48          	db 72
12817   38EC E9          	db 233
12818   38ED BE          	db 190
12819   38EE FF          	db 255
12820   38EF 14          	db 20
12821   38F0 00          	db 0
12822   38F1 0B          	db 11
12823   38F2 1F          	db 31
12824   38F3 37          	db 55
12825   38F4 9D          	db 157
12826   38F5 1B          	db 27
12827   38F6 AD          	db 173
12828   38F7 F7          	db 247
12829   38F8 BB          	db 187
12830   38F9 D6          	db 214
12831   38FA B5          	db 181
12832   38FB 6D          	db 109
12833   38FC 31          	db 49
12834   38FD 00          	db 0
12835   38FE A4          	db 164
12836   38FF 2A          	db 42
12837   3900 BF          	db 191
12838   3901 29          	db 41
12839   3902 42          	db 66
12840   3903 14          	db 20
12841   3904 A0          	db 160
12842   3905 0A          	db 10
12843   3906 40          	db 64
12844   3907 BC          	db 188
12845   3908 11          	db 17
12846   3909 00          	db 0
12847   390A C2          	db 194
12848   390B 19          	db 25
12849   390C 2E          	db 46
12850   390D FB          	db 251
12851   390E 8E          	db 142
12852   390F BB          	db 187
12853   3910 23          	db 35
12854   3911 1C          	db 28
12855   3912 3C          	db 60
12856   3913 FF          	db 255
12857   3914 DE          	db 222
12858   3915 CE          	db 206
12859   3916 91          	db 145
12860   3917 FF          	db 255
12861   3918 00          	db 0
12862   3919 BD          	db 189
12863   391A CC          	db 204
12864   391B FE          	db 254
12865   391C 8C          	db 140
12866   391D 61          	db 97
12867   391E 3F          	db 63
12868   391F F2          	db 242
12869   3920 44          	db 68
12870   3921 07          	db 7
12871   3922 1D          	db 29
12872   3923 10          	db 16
12873   3924 DE          	db 222
12874   3925 CF          	db 207
12875   3926 04          	db 4
12876   3927 35          	db 53
12877   3928 F8          	db 248
12878   3929 FA          	db 250
12879   392A FC          	db 252
12880   392B 58          	db 88
12881   392C F8          	db 248
12882   392D F0          	db 240
12883   392E 4B          	db 75
12884   392F EC          	db 236
12885   3930 F9          	db 249
12886   3931 05          	db 5
12887   3932 02          	db 2
12888   3933 69          	db 105
12889   3934 0B          	db 11
12890   3935 FE          	db 254
12891   3936 F8          	db 248
12892   3937 16          	db 22
12893   3938 0D          	db 13
12894   3939 17          	db 23
12895   393A 0F          	db 15
12896   393B 07          	db 7
12897   393C 03          	db 3
12898   393D 3F          	db 63
12899   393E 1F          	db 31
12900   393F 70          	db 112
12901   3940 22          	db 34
12902   3941 63          	db 99
12903   3942 C3          	db 195
12904   3943 61          	db 97
12905   3944 65          	db 101
12906   3945 F1          	db 241
12907   3946 A3          	db 163
12908   3947 62          	db 98
12909   3948 A1          	db 161
12910   3949 D2          	db 210
12911   394A 13          	db 19
12912   394B 00          	db 0
12913   394C A9          	db 169
12914   394D 4A          	db 74
12915   394E 0F          	db 15
12916   394F 24          	db 36
12917   3950 49          	db 73
12918   3951 91          	db 145
12919   3952 15          	db 21
12920   3953 01          	db 1
12921   3954 AE          	db 174
12922   3955 04          	db 4
12923   3956 30          	db 48
12924   3957 00          	db 0
12925   3958 8A          	db 138
12926   3959 BF          	db 191
12927   395A FE          	db 254
12928   395B 83          	db 131
12929   395C 87          	db 135
12930   395D C7          	db 199
12931   395E CF          	db 207
12932   395F 8F          	db 143
12933   3960 66          	db 102
12934   3961 CD          	db 205
12935   3962 10          	db 16
12936   3963 7D          	db 125
12937   3964 6B          	db 107
12938   3965 9F          	db 159
12939   3966 20          	db 32
12940   3967 FF          	db 255
12941   3968 19          	db 25
12942   3969 D2          	db 210
12943   396A FF          	db 255
12944   396B A4          	db 164
12945   396C 18          	db 24
12946   396D FE          	db 254
12947   396E 1F          	db 31
12948   396F B1          	db 177
12949   3970 FC          	db 252
12950   3971 FF          	db 255
12951   3972 B3          	db 179
12952   3973 00          	db 0
12953   3974 F7          	db 247
12954   3975 E6          	db 230
12955   3976 37          	db 55
12956   3977 BA          	db 186
12957   3978 7F          	db 127
12958   3979 97          	db 151
12959   397A 08          	db 8
12960   397B 5D          	db 93
12961   397C 4D          	db 77
12962   397D 04          	db 4
12963   397E EF          	db 239
12964   397F F8          	db 248
12965   3980 76          	db 118
12966   3981 F9          	db 249
12967   3982 67          	db 103
12968   3983 9F          	db 159
12969   3984 4D          	db 77
12970   3985 F8          	db 248
12971   3986 FE          	db 254
12972   3987 78          	db 120
12973   3988 85          	db 133
12974   3989 9D          	db 157
12975   398A F5          	db 245
12976   398B 01          	db 1
12977   398C 7F          	db 127
12978   398D 70          	db 112
12979   398E 88          	db 136
12980   398F 8C          	db 140
12981   3990 FF          	db 255
12982   3991 DC          	db 220
12983   3992 D8          	db 216
12984   3993 F8          	db 248
12985   3994 5C          	db 92
12986   3995 FA          	db 250
12987   3996 56          	db 86
12988   3997 7C          	db 124
12989   3998 EA          	db 234
12990   3999 C3          	db 195
12991   399A AF          	db 175
12992   399B 7A          	db 122
12993   399C 5F          	db 95
12994   399D 00          	db 0
12995   399E 77          	db 119
12996   399F F0          	db 240
12997   39A0 FE          	db 254
12998   39A1 25          	db 37
12999   39A2 49          	db 73
13000   39A3 71          	db 113
13001   39A4 80          	db 128
13002   39A5 2A          	db 42
13003   39A6 B8          	db 184
13004   39A7 11          	db 17
13005   39A8 44          	db 68
13006   39A9 00          	db 0
13007   39AA AC          	db 172
13008   39AB 34          	db 52
13009   39AC 93          	db 147
13010   39AD FE          	db 254
13011   39AE 1F          	db 31
13012   39AF A3          	db 163
13013   39B0 FF          	db 255
13014   39B1 0F          	db 15
13015   39B2 CF          	db 207
13016   39B3 FF          	db 255
13017   39B4 D1          	db 209
13018   39B5 E1          	db 225
13019   39B6 04          	db 4
13020   39B7 BC          	db 188
13021   39B8 57          	db 87
13022   39B9 00          	db 0
13023   39BA F3          	db 243
13024   39BB F8          	db 248
13025   39BC 5F          	db 95
13026   39BD F6          	db 246
13027   39BE FC          	db 252
13028   39BF 57          	db 87
13029   39C0 FC          	db 252
13030   39C1 70          	db 112
13031   39C2 3B          	db 59
13032   39C3 D7          	db 215
13033   39C4 F5          	db 245
13034   39C5 F5          	db 245
13035   39C6 72          	db 114
13036   39C7 AD          	db 173
13037   39C8 AE          	db 174
13038   39C9 AA          	db 170
13039   39CA EF          	db 239
13040   39CB 4F          	db 79
13041   39CC FB          	db 251
13042   39CD ED          	db 237
13043   39CE F9          	db 249
13044   39CF BD          	db 189
13045   39D0 F7          	db 247
13046   39D1 6F          	db 111
13047   39D2 FA          	db 250
13048   39D3 DD          	db 221
13049   39D4 7B          	db 123
13050   39D5 D6          	db 214
13051   39D6 5B          	db 91
13052   39D7 DB          	db 219
13053   39D8 EE          	db 238
13054   39D9 00          	db 0
13055   39DA AB          	db 171
13056   39DB 54          	db 84
13057   39DC 26          	db 38
13058   39DD 2A          	db 42
13059   39DE 49          	db 73
13060   39DF 37          	db 55
13061   39E0 50          	db 80
13062   39E1 42          	db 66
13063   39E2 14          	db 20
13064   39E3 1B          	db 27
13065   39E4 88          	db 136
13066   39E5 20          	db 32
13067   39E6 D8          	db 216
13068   39E7 01          	db 1
13069   39E8 44          	db 68
13070   39E9 7C          	db 124
13071   39EA 59          	db 89
13072   39EB 8F          	db 143
13073   39EC 04          	db 4
13074   39ED 0E          	db 14
13075   39EE F1          	db 241
13076   39EF 1E          	db 30
13077   39F0 3E          	db 62
13078   39F1 7F          	db 127
13079   39F2 7E          	db 126
13080   39F3 4B          	db 75
13081   39F4 FF          	db 255
13082   39F5 A8          	db 168
13083   39F6 FD          	db 253
13084   39F7 BC          	db 188
13085   39F8 5E          	db 94
13086   39F9 C3          	db 195
13087   39FA C9          	db 201
13088   39FB 3B          	db 59
13089   39FC 06          	db 6
13090   39FD AF          	db 175
13091   39FE B7          	db 183
13092   39FF EB          	db 235
13093   3A00 BC          	db 188
13094   3A01 7D          	db 125
13095   3A02 57          	db 87
13096   3A03 E1          	db 225
13097   3A04 15          	db 21
13098   3A05 9B          	db 155
13099   3A06 F6          	db 246
13100   3A07 C1          	db 193
13101   3A08 00          	db 0
13102   3A09 3B          	db 59
13103   3A0A 02          	db 2
13104   3A0B 73          	db 115
13105   3A0C CF          	db 207
13106   3A0D 35          	db 53
13107   3A0E BE          	db 190
13108   3A0F FC          	db 252
13109   3A10 C6          	db 198
13110   3A11 4E          	db 78
13111   3A12 97          	db 151
13112   3A13 B3          	db 179
13113   3A14 5E          	db 94
13114   3A15 5D          	db 93
13115   3A16 BF          	db 191
13116   3A17 5C          	db 92
13117   3A18 78          	db 120
13118   3A19 C1          	db 193
13119   3A1A F7          	db 247
13120   3A1B DF          	db 223
13121   3A1C BE          	db 190
13122   3A1D 6F          	db 111
13123   3A1E FD          	db 253
13124   3A1F 77          	db 119
13125   3A20 DD          	db 221
13126   3A21 60          	db 96
13127   3A22 FE          	db 254
13128   3A23 B5          	db 181
13129   3A24 FF          	db 255
13130   3A25 AA          	db 170
13131   3A26 6D          	db 109
13132   3A27 55          	db 85
13133   3A28 5A          	db 90
13134   3A29 52          	db 82
13135   3A2A AD          	db 173
13136   3A2B A9          	db 169
13137   3A2C FF          	db 255
13138   3A2D A5          	db 165
13139   3A2E 49          	db 73
13140   3A2F 95          	db 149
13141   3A30 54          	db 84
13142   3A31 81          	db 129
13143   3A32 2A          	db 42
13144   3A33 40          	db 64
13145   3A34 08          	db 8
13146   3A35 EC          	db 236
13147   3A36 22          	db 34
13148   3A37 00          	db 0
13149   3A38 44          	db 68
13150   3A39 11          	db 17
13151   3A3A 68          	db 104
13152   3A3B 02          	db 2
13153   3A3C F3          	db 243
13154   3A3D FF          	db 255
13155   3A3E 80          	db 128
13156   3A3F 92          	db 146
13157   3A40 1B          	db 27
13158   3A41 D0          	db 208
13159   3A42 18          	db 24
13160   3A43 0D          	db 13
13161   3A44 CB          	db 203
13162   3A45 00          	db 0
13163   3A46 47          	db 71
13164   3A47 F8          	db 248
13165   3A48 BE          	db 190
13166   3A49 F3          	db 243
13167   3A4A E1          	db 225
13168   3A4B C7          	db 199
13169   3A4C C1          	db 193
13170   3A4D 83          	db 131
13171   3A4E F1          	db 241
13172   3A4F 07          	db 7
13173   3A50 0F          	db 15
13174   3A51 9E          	db 158
13175   3A52 FC          	db 252
13176   3A53 F6          	db 246
13177   3A54 F0          	db 240
13178   3A55 E0          	db 224
13179   3A56 AF          	db 175
13180   3A57 E9          	db 233
13181   3A58 0D          	db 13
13182   3A59 1F          	db 31
13183   3A5A 75          	db 117
13184   3A5B EE          	db 238
13185   3A5C 4A          	db 74
13186   3A5D 02          	db 2
13187   3A5E EF          	db 239
13188   3A5F 26          	db 38
13189   3A60 FC          	db 252
13190   3A61 F8          	db 248
13191   3A62 57          	db 87
13192   3A63 EC          	db 236
13193   3A64 BF          	db 191
13194   3A65 FC          	db 252
13195   3A66 EF          	db 239
13196   3A67 EC          	db 236
13197   3A68 56          	db 86
13198   3A69 F8          	db 248
13199   3A6A 60          	db 96
13200   3A6B 6F          	db 111
13201   3A6C EA          	db 234
13202   3A6D 93          	db 147
13203   3A6E 8D          	db 141
13204   3A6F 49          	db 73
13205   3A70 3D          	db 61
13206   3A71 FB          	db 251
13207   3A72 BD          	db 189
13208   3A73 0F          	db 15
13209   3A74 FB          	db 251
13210   3A75 7F          	db 127
13211   3A76 F0          	db 240
13212   3A77 F7          	db 247
13213   3A78 DF          	db 223
13214   3A79 7D          	db 125
13215   3A7A D7          	db 215
13216   3A7B 21          	db 33
13217   3A7C D5          	db 213
13218   3A7D F5          	db 245
13219   3A7E B5          	db 181
13220   3A7F 6D          	db 109
13221   3A80 DB          	db 219
13222   3A81 A8          	db 168
13223   3A82 02          	db 2
13224   3A83 AA          	db 170
13225   3A84 FE          	db 254
13226   3A85 92          	db 146
13227   3A86 2A          	db 42
13228   3A87 A2          	db 162
13229   3A88 14          	db 20
13230   3A89 37          	db 55
13231   3A8A 0A          	db 10
13232   3A8B 20          	db 32
13233   3A8C 45          	db 69
13234   3A8D AB          	db 171
13235   3A8E 10          	db 16
13236   3A8F B0          	db 176
13237   3A90 FF          	db 255
13238   3A91 F5          	db 245
13239   3A92 FF          	db 255
13240   3A93 20          	db 32
13241   3A94 1F          	db 31
13242   3A95 70          	db 112
13243   3A96 78          	db 120
13244   3A97 E2          	db 226
13245   3A98 7C          	db 124
13246   3A99 FE          	db 254
13247   3A9A 7E          	db 126
13248   3A9B 97          	db 151
13249   3A9C FF          	db 255
13250   3A9D 4F          	db 79
13251   3A9E FD          	db 253
13252   3A9F 0F          	db 15
13253   3AA0 01          	db 1
13254   3AA1 61          	db 97
13255   3AA2 B7          	db 183
13256   3AA3 FE          	db 254
13257   3AA4 07          	db 7
13258   3AA5 70          	db 112
13259   3AA6 38          	db 56
13260   3AA7 9C          	db 156
13261   3AA8 DC          	db 220
13262   3AA9 F8          	db 248
13263   3AAA 3E          	db 62
13264   3AAB 7E          	db 126
13265   3AAC 3F          	db 63
13266   3AAD B0          	db 176
13267   3AAE 3C          	db 60
13268   3AAF B0          	db 176
13269   3AB0 BD          	db 189
13270   3AB1 FC          	db 252
13271   3AB2 23          	db 35
13272   3AB3 8C          	db 140
13273   3AB4 F7          	db 247
13274   3AB5 33          	db 51
13275   3AB6 7D          	db 125
13276   3AB7 E6          	db 230
13277   3AB8 2E          	db 46
13278   3AB9 D5          	db 213
13279   3ABA BF          	db 191
13280   3ABB 28          	db 40
13281   3ABC 00          	db 0
13282   3ABD FB          	db 251
13283   3ABE FC          	db 252
13284   3ABF 9F          	db 159
13285   3AC0 F8          	db 248
13286   3AC1 59          	db 89
13287   3AC2 E7          	db 231
13288   3AC3 9D          	db 157
13289   3AC4 6F          	db 111
13290   3AC5 DC          	db 220
13291   3AC6 B1          	db 177
13292   3AC7 B0          	db 176
13293   3AC8 8E          	db 142
13294   3AC9 AB          	db 171
13295   3ACA F5          	db 245
13296   3ACB B4          	db 180
13297   3ACC 6E          	db 110
13298   3ACD ED          	db 237
13299   3ACE FD          	db 253
13300   3ACF FD          	db 253
13301   3AD0 47          	db 71
13302   3AD1 B7          	db 183
13303   3AD2 AF          	db 175
13304   3AD3 FB          	db 251
13305   3AD4 FE          	db 254
13306   3AD5 DF          	db 223
13307   3AD6 7D          	db 125
13308   3AD7 EB          	db 235
13309   3AD8 BE          	db 190
13310   3AD9 6A          	db 106
13311   3ADA B7          	db 183
13312   3ADB 6D          	db 109
13313   3ADC AC          	db 172
13314   3ADD FF          	db 255
13315   3ADE 9F          	db 159
13316   3ADF 00          	db 0
13317   3AE0 4A          	db 74
13318   3AE1 A9          	db 169
13319   3AE2 24          	db 36
13320   3AE3 45          	db 69
13321   3AE4 28          	db 40
13322   3AE5 27          	db 39
13323   3AE6 02          	db 2
13324   3AE7 03          	db 3
13325   3AE8 12          	db 18
13326   3AE9 80          	db 128
13327   3AEA 61          	db 97
13328   3AEB AD          	db 173
13329   3AEC 58          	db 88
13330   3AED 06          	db 6
13331   3AEE C5          	db 197
13332   3AEF 58          	db 88
13333   3AF0 00          	db 0
13334   3AF1 FA          	db 250
13335   3AF2 FF          	db 255
13336   3AF3 70          	db 112
13337   3AF4 8C          	db 140
13338   3AF5 FF          	db 255
13339   3AF6 C7          	db 199
13340   3AF7 EE          	db 238
13341   3AF8 DC          	db 220
13342   3AF9 FE          	db 254
13343   3AFA F3          	db 243
13344   3AFB D8          	db 216
13345   3AFC 79          	db 121
13346   3AFD 0C          	db 12
13347   3AFE 4B          	db 75
13348   3AFF CD          	db 205
13349   3B00 EB          	db 235
13350   3B01 1E          	db 30
13351   3B02 35          	db 53
13352   3B03 CB          	db 203
13353   3B04 00          	db 0
13354   3B05 BB          	db 187
13355   3B06 8D          	db 141
13356   3B07 FC          	db 252
13357   3B08 7E          	db 126
13358   3B09 FC          	db 252
13359   3B0A B6          	db 182
13360   3B0B EE          	db 238
13361   3B0C C5          	db 197
13362   3B0D F7          	db 247
13363   3B0E 47          	db 71
13364   3B0F 1F          	db 31
13365   3B10 1D          	db 29
13366   3B11 78          	db 120
13367   3B12 00          	db 0
13368   3B13 52          	db 82
13369   3B14 03          	db 3
13370   3B15 16          	db 22
13371   3B16 FA          	db 250
13372   3B17 57          	db 87
13373   3B18 06          	db 6
13374   3B19 B6          	db 182
13375   3B1A DB          	db 219
13376   3B1B 3C          	db 60
13377   3B1C 75          	db 117
13378   3B1D 25          	db 37
13379   3B1E E4          	db 228
13380   3B1F FF          	db 255
13381   3B20 00          	db 0
13382   3B21 FF          	db 255
13383   3B22 52          	db 82
13384   3B23 A4          	db 164
13385   3B24 15          	db 21
13386   3B25 51          	db 81
13387   3B26 8A          	db 138
13388   3B27 11          	db 17
13389   3B28 44          	db 68
13390   3B29 88          	db 136
13391   3B2A EC          	db 236
13392   3B2B 22          	db 34
13393   3B2C 00          	db 0
13394   3B2D 24          	db 36
13395   3B2E 2B          	db 43
13396   3B2F AB          	db 171
13397   3B30 06          	db 6
13398   3B31 3E          	db 62
13399   3B32 AC          	db 172
13400   3B33 03          	db 3
13401   3B34 52          	db 82
13402   3B35 AC          	db 172
13403   3B36 00          	db 0
13404   3B37 72          	db 114
13405   3B38 3C          	db 60
13406   3B39 74          	db 116
13407   3B3A 41          	db 65
13408   3B3B 5D          	db 93
13409   3B3C 51          	db 81
13410   3B3D 61          	db 97
13411   3B3E 02          	db 2
13412   3B3F 61          	db 97
13413   3B40 D6          	db 214
13414   3B41 FA          	db 250
13415   3B42 E6          	db 230
13416   3B43 06          	db 6
13417   3B44 0D          	db 13
13418   3B45 3B          	db 59
13419   3B46 5A          	db 90
13420   3B47 00          	db 0
13421   3B48 AB          	db 171
13422   3B49 7F          	db 127
13423   3B4A FC          	db 252
13424   3B4B 5D          	db 93
13425   3B4C B3          	db 179
13426   3B4D D7          	db 215
13427   3B4E CD          	db 205
13428   3B4F 3E          	db 62
13429   3B50 59          	db 89
13430   3B51 D7          	db 215
13431   3B52 E6          	db 230
13432   3B53 FF          	db 255
13433   3B54 C3          	db 195
13434   3B55 6A          	db 106
13435   3B56 55          	db 85
13436   3B57 EF          	db 239
13437   3B58 30          	db 48
13438   3B59 FD          	db 253
13439   3B5A 6D          	db 109
13440   3B5B 7F          	db 127
13441   3B5C 77          	db 119
13442   3B5D DD          	db 221
13443   3B5E BB          	db 187
13444   3B5F EE          	db 238
13445   3B60 AA          	db 170
13446   3B61 7F          	db 127
13447   3B62 EE          	db 238
13448   3B63 D5          	db 213
13449   3B64 5B          	db 91
13450   3B65 6A          	db 106
13451   3B66 7C          	db 124
13452   3B67 00          	db 0
13453   3B68 2D          	db 45
13454   3B69 50          	db 80
13455   3B6A A5          	db 165
13456   3B6B 09          	db 9
13457   3B6C 54          	db 84
13458   3B6D EA          	db 234
13459   3B6E 00          	db 0
13460   3B6F 10          	db 16
13461   3B70 42          	db 66
13462   3B71 6C          	db 108
13463   3B72 FF          	db 255
13464   3B73 72          	db 114
13465   3B74 AA          	db 170
13466   3B75 08          	db 8
13467   3B76 BD          	db 189
13468   3B77 06          	db 6
13469   3B78 E1          	db 225
13470   3B79 E3          	db 227
13471   3B7A C3          	db 195
13472   3B7B 99          	db 153
13473   3B7C 5A          	db 90
13474   3B7D 17          	db 23
13475   3B7E 81          	db 129
13476   3B7F F8          	db 248
13477   3B80 A5          	db 165
13478   3B81 8C          	db 140
13479   3B82 C1          	db 193
13480   3B83 ED          	db 237
13481   3B84 DB          	db 219
13482   3B85 77          	db 119
13483   3B86 63          	db 99
13484   3B87 4B          	db 75
13485   3B88 81          	db 129
13486   3B89 B1          	db 177
13487   3B8A FF          	db 255
13488   3B8B 28          	db 40
13489   3B8C B1          	db 177
13490   3B8D 28          	db 40
13491   3B8E 15          	db 21
13492   3B8F D8          	db 216
13493   3B90 2C          	db 44
13494   3B91 01          	db 1
13495   3B92 21          	db 33
13496   3B93 6B          	db 107
13497   3B94 E1          	db 225
13498   3B95 0B          	db 11
13499   3B96 35          	db 53
13500   3B97 EF          	db 239
13501   3B98 6E          	db 110
13502   3B99 D5          	db 213
13503   3B9A AA          	db 170
13504   3B9B FF          	db 255
13505   3B9C F8          	db 248
13506   3B9D EF          	db 239
13507   3B9E 5C          	db 92
13508   3B9F B3          	db 179
13509   3BA0 D9          	db 217
13510   3BA1 CF          	db 207
13511   3BA2 3C          	db 60
13512   3BA3 DB          	db 219
13513   3BA4 85          	db 133
13514   3BA5 6F          	db 111
13515   3BA6 5F          	db 95
13516   3BA7 68          	db 104
13517   3BA8 BF          	db 191
13518   3BA9 FE          	db 254
13519   3BAA FB          	db 251
13520   3BAB FF          	db 255
13521   3BAC C6          	db 198
13522   3BAD EF          	db 239
13523   3BAE 7B          	db 123
13524   3BAF F0          	db 240
13525   3BB0 BD          	db 189
13526   3BB1 77          	db 119
13527   3BB2 EE          	db 238
13528   3BB3 AD          	db 173
13529   3BB4 A2          	db 162
13530   3BB5 D6          	db 214
13531   3BB6 BF          	db 191
13532   3BB7 FF          	db 255
13533   3BB8 00          	db 0
13534   3BB9 95          	db 149
13535   3BBA A9          	db 169
13536   3BBB 52          	db 82
13537   3BBC 0A          	db 10
13538   3BBD 51          	db 81
13539   3BBE F0          	db 240
13540   3BBF 8A          	db 138
13541   3BC0 21          	db 33
13542   3BC1 A4          	db 164
13543   3BC2 00          	db 0
13544   3BC3 AC          	db 172
13545   3BC4 20          	db 32
13546   3BC5 6B          	db 107
13547   3BC6 2F          	db 47
13548   3BC7 C4          	db 196
13549   3BC8 FE          	db 254
13550   3BC9 2E          	db 46
13551   3BCA DF          	db 223
13552   3BCB 8F          	db 143
13553   3BCC CE          	db 206
13554   3BCD CD          	db 205
13555   3BCE 06          	db 6
13556   3BCF 8F          	db 143
13557   3BD0 19          	db 25
13558   3BD1 EA          	db 234
13559   3BD2 E1          	db 225
13560   3BD3 EC          	db 236
13561   3BD4 EF          	db 239
13562   3BD5 DF          	db 223
13563   3BD6 31          	db 49
13564   3BD7 D2          	db 210
13565   3BD8 CD          	db 205
13566   3BD9 7A          	db 122
13567   3BDA 65          	db 101
13568   3BDB 18          	db 24
13569   3BDC 3E          	db 62
13570   3BDD 1F          	db 31
13571   3BDE 0F          	db 15
13572   3BDF C3          	db 195
13573   3BE0 70          	db 112
13574   3BE1 04          	db 4
13575   3BE2 88          	db 136
13576   3BE3 7A          	db 122
13577   3BE4 38          	db 56
13578   3BE5 02          	db 2
13579   3BE6 0D          	db 13
13580   3BE7 1E          	db 30
13581   3BE8 75          	db 117
13582   3BE9 92          	db 146
13583   3BEA FD          	db 253
13584   3BEB CF          	db 207
13585   3BEC 2D          	db 45
13586   3BED AF          	db 175
13587   3BEE 5C          	db 92
13588   3BEF B3          	db 179
13589   3BF0 D9          	db 217
13590   3BF1 6D          	db 109
13591   3BF2 9C          	db 156
13592   3BF3 DB          	db 219
13593   3BF4 EE          	db 238
13594   3BF5 5C          	db 92
13595   3BF6 6A          	db 106
13596   3BF7 76          	db 118
13597   3BF8 F1          	db 241
13598   3BF9 FC          	db 252
13599   3BFA EE          	db 238
13600   3BFB 7F          	db 127
13601   3BFC 3F          	db 63
13602   3BFD ED          	db 237
13603   3BFE 5F          	db 95
13604   3BFF FB          	db 251
13605   3C00 6F          	db 111
13606   3C01 BA          	db 186
13607   3C02 F7          	db 247
13608   3C03 F7          	db 247
13609   3C04 AD          	db 173
13610   3C05 6D          	db 109
13611   3C06 DA          	db 218
13612   3C07 B6          	db 182
13613   3C08 30          	db 48
13614   3C09 00          	db 0
13615   3C0A 54          	db 84
13616   3C0B 22          	db 34
13617   3C0C BF          	db 191
13618   3C0D 95          	db 149
13619   3C0E A0          	db 160
13620   3C0F 0A          	db 10
13621   3C10 50          	db 80
13622   3C11 02          	db 2
13623   3C12 08          	db 8
13624   3C13 8D          	db 141
13625   3C14 21          	db 33
13626   3C15 40          	db 64
13627   3C16 61          	db 97
13628   3C17 36          	db 54
13629   3C18 58          	db 88
13630   3C19 08          	db 8
13631   3C1A 2F          	db 47
13632   3C1B E5          	db 229
13633   3C1C 00          	db 0
13634   3C1D 87          	db 135
13635   3C1E 1A          	db 26
13636   3C1F CA          	db 202
13637   3C20 F7          	db 247
13638   3C21 0E          	db 14
13639   3C22 15          	db 21
13640   3C23 6A          	db 106
13641   3C24 D5          	db 213
13642   3C25 63          	db 99
13643   3C26 29          	db 41
13644   3C27 EB          	db 235
13645   3C28 56          	db 86
13646   3C29 EC          	db 236
13647   3C2A B9          	db 185
13648   3C2B 66          	db 102
13649   3C2C 98          	db 152
13650   3C2D BE          	db 190
13651   3C2E 47          	db 71
13652   3C2F A4          	db 164
13653   3C30 E0          	db 224
13654   3C31 2B          	db 43
13655   3C32 02          	db 2
13656   3C33 E1          	db 225
13657   3C34 02          	db 2
13658   3C35 E3          	db 227
13659   3C36 7B          	db 123
13660   3C37 DF          	db 223
13661   3C38 07          	db 7
13662   3C39 5D          	db 93
13663   3C3A FF          	db 255
13664   3C3B FB          	db 251
13665   3C3C 56          	db 86
13666   3C3D FD          	db 253
13667   3C3E AB          	db 171
13668   3C3F B6          	db 182
13669   3C40 6D          	db 109
13670   3C41 D5          	db 213
13671   3C42 95          	db 149
13672   3C43 E3          	db 227
13673   3C44 6A          	db 106
13674   3C45 4A          	db 74
13675   3C46 55          	db 85
13676   3C47 FF          	db 255
13677   3C48 92          	db 146
13678   3C49 54          	db 84
13679   3C4A 42          	db 66
13680   3C4B 14          	db 20
13681   3C4C 21          	db 33
13682   3C4D 44          	db 68
13683   3C4E 11          	db 17
13684   3C4F 85          	db 133
13685   3C50 00          	db 0
13686   3C51 08          	db 8
13687   3C52 62          	db 98
13688   3C53 BC          	db 188
13689   3C54 C3          	db 195
13690   3C55 5B          	db 91
13691   3C56 7E          	db 126
13692   3C57 BF          	db 191
13693   3C58 8F          	db 143
13694   3C59 0A          	db 10
13695   3C5A C3          	db 195
13696   3C5B AC          	db 172
13697   3C5C 29          	db 41
13698   3C5D 74          	db 116
13699   3C5E FF          	db 255
13700   3C5F CF          	db 207
13701   3C60 AB          	db 171
13702   3C61 00          	db 0
13703   3C62 06          	db 6
13704   3C63 03          	db 3
13705   3C64 0D          	db 13
13706   3C65 3F          	db 63
13707   3C66 00          	db 0
13708   3C67 D7          	db 215
13709   3C68 F6          	db 246
13710   3C69 03          	db 3
13711   3C6A 05          	db 5
13712   3C6B 06          	db 6
13713   3C6C A6          	db 166
13714   3C6D FE          	db 254
13715   3C6E 71          	db 113
13716   3C6F D4          	db 212
13717   3C70 DA          	db 218
13718   3C71 B8          	db 184
13719   3C72 4A          	db 74
13720   3C73 FC          	db 252
13721   3C74 05          	db 5
13722   3C75 48          	db 72
13723   3C76 FE          	db 254
13724   3C77 02          	db 2
13725   3C78 E2          	db 226
13726   3C79 22          	db 34
13727   3C7A 06          	db 6
13728   3C7B 61          	db 97
13729   3C7C FC          	db 252
13730   3C7D 01          	db 1
13731   3C7E 91          	db 145
13732   3C7F FF          	db 255
13733   3C80 09          	db 9
13734   3C81 FB          	db 251
13735   3C82 19          	db 25
13736   3C83 18          	db 24
13737   3C84 06          	db 6
13738   3C85 2B          	db 43
13739   3C86 85          	db 133
13740   3C87 2B          	db 43
13741   3C88 81          	db 129
13742   3C89 2A          	db 42
13743   3C8A DA          	db 218
13744   3C8B 47          	db 71
13745   3C8C 62          	db 98
13746   3C8D FD          	db 253
13747   3C8E F9          	db 249
13748   3C8F 1E          	db 30
13749   3C90 F0          	db 240
13750   3C91 C2          	db 194
13751   3C92 33          	db 51
13752   3C93 FF          	db 255
13753   3C94 8D          	db 141
13754   3C95 D8          	db 216
13755   3C96 0C          	db 12
13756   3C97 6B          	db 107
13757   3C98 18          	db 24
13758   3C99 0C          	db 12
13759   3C9A 00          	db 0
13760   3C9B FC          	db 252
13761   3C9C 30          	db 48
13762   3C9D D7          	db 215
13763   3C9E 56          	db 86
13764   3C9F 46          	db 70
13765   3CA0 98          	db 152
13766   3CA1 07          	db 7
13767   3CA2 61          	db 97
13768   3CA3 3A          	db 58
13769   3CA4 FF          	db 255
13770   3CA5 07          	db 7
13771   3CA6 3B          	db 59
13772   3CA7 EA          	db 234
13773   3CA8 03          	db 3
13774   3CA9 C1          	db 193
13775   3CAA 57          	db 87
13776   3CAB FF          	db 255
13777   3CAC 0F          	db 15
13778   3CAD F0          	db 240
13779   3CAE FE          	db 254
13780   3CAF FF          	db 255
13781   3CB0 1E          	db 30
13782   3CB1 3E          	db 62
13783   3CB2 D8          	db 216
13784   3CB3 FC          	db 252
13785   3CB4 78          	db 120
13786   3CB5 BE          	db 190
13787   3CB6 18          	db 24
13788   3CB7 D7          	db 215
13789   3CB8 18          	db 24
13790   3CB9 0C          	db 12
13791   3CBA FF          	db 255
13792   3CBB E0          	db 224
13793   3CBC F0          	db 240
13794   3CBD 7C          	db 124
13795   3CBE D0          	db 208
13796   3CBF B0          	db 176
13797   3CC0 36          	db 54
13798   3CC1 FE          	db 254
13799   3CC2 1F          	db 31
13800   3CC3 B4          	db 180
13801   3CC4 60          	db 96
13802   3CC5 C0          	db 192
13803   3CC6 D7          	db 215
13804   3CC7 7F          	db 127
13805   3CC8 78          	db 120
13806   3CC9 E8          	db 232
13807   3CCA 58          	db 88
13808   3CCB A8          	db 168
13809   3CCC D8          	db 216
13810   3CCD AD          	db 173
13811   3CCE AC          	db 172
13812   3CCF ED          	db 237
13813   3CD0 A2          	db 162
13814   3CD1 F0          	db 240
13815   3CD2 20          	db 32
13816   3CD3 31          	db 49
13817   3CD4 D7          	db 215
13818   3CD5 30          	db 48
13819   3CD6 C7          	db 199
13820   3CD7 3E          	db 62
13821   3CD8 0E          	db 14
13822   3CD9 5C          	db 92
13823   3CDA 9D          	db 157
13824   3CDB 60          	db 96
13825   3CDC 67          	db 103
13826   3CDD 9D          	db 157
13827   3CDE FF          	db 255
13828   3CDF CE          	db 206
13829   3CE0 92          	db 146
13830   3CE1 F7          	db 247
13831   3CE2 E3          	db 227
13832   3CE3 E0          	db 224
13833   3CE4 3F          	db 63
13834   3CE5 50          	db 80
13835   3CE6 A8          	db 168
13836   3CE7 54          	db 84
13837   3CE8 5C          	db 92
13838   3CE9 33          	db 51
13839   3CEA B7          	db 183
13840   3CEB FF          	db 255
13841   3CEC C3          	db 195
13842   3CED D7          	db 215
13843   3CEE 4B          	db 75
13844   3CEF 80          	db 128
13845   3CF0 3A          	db 58
13846   3CF1 3F          	db 63
13847   3CF2 9F          	db 159
13848   3CF3 EF          	db 239
13849   3CF4 10          	db 16
13850   3CF5 EB          	db 235
13851   3CF6 DE          	db 222
13852   3CF7 E2          	db 226
13853   3CF8 FC          	db 252
13854   3CF9 3B          	db 59
13855   3CFA C2          	db 194
13856   3CFB 06          	db 6
13857   3CFC 08          	db 8
13858   3CFD 03          	db 3
13859   3CFE 44          	db 68
13860   3CFF 02          	db 2
13861   3D00 AD          	db 173
13862   3D01 E8          	db 232
13863   3D02 F9          	db 249
13864   3D03 48          	db 72
13865   3D04 FF          	db 255
13866   3D05 79          	db 121
13867   3D06 FA          	db 250
13868   3D07 3F          	db 63
13869   3D08 F5          	db 245
13870   3D09 08          	db 8
13871   3D0A 02          	db 2
13872   3D0B 6B          	db 107
13873   3D0C 12          	db 18
13874   3D0D E7          	db 231
13875   3D0E 01          	db 1
13876   3D0F D7          	db 215
13877   3D10 E1          	db 225
13878   3D11 E1          	db 225
13879   3D12 FE          	db 254
13880   3D13 B2          	db 178
13881   3D14 58          	db 88
13882   3D15 FF          	db 255
13883   3D16 FE          	db 254
13884   3D17 FD          	db 253
13885   3D18 F7          	db 247
13886   3D19 F9          	db 249
13887   3D1A 70          	db 112
13888   3D1B 9D          	db 157
13889   3D1C 50          	db 80
13890   3D1D EC          	db 236
13891   3D1E 7E          	db 126
13892   3D1F 0D          	db 13
13893   3D20 13          	db 19
13894   3D21 00          	db 0
13895   3D22 BF          	db 191
13896   3D23 1B          	db 27
13897   3D24 BD          	db 189
13898   3D25 BF          	db 191
13899   3D26 F8          	db 248
13900   3D27 83          	db 131
13901   3D28 8B          	db 139
13902   3D29 FF          	db 255
13903   3D2A 19          	db 25
13904   3D2B 3E          	db 62
13905   3D2C 1F          	db 31
13906   3D2D 6F          	db 111
13907   3D2E F3          	db 243
13908   3D2F FD          	db 253
13909   3D30 DE          	db 222
13910   3D31 FF          	db 255
13911   3D32 0E          	db 14
13912   3D33 EE          	db 238
13913   3D34 DD          	db 221
13914   3D35 3B          	db 59
13915   3D36 E7          	db 231
13916   3D37 9F          	db 159
13917   3D38 3F          	db 63
13918   3D39 1F          	db 31
13919   3D3A F0          	db 240
13920   3D3B 87          	db 135
13921   3D3C E1          	db 225
13922   3D3D F1          	db 241
13923   3D3E FD          	db 253
13924   3D3F B7          	db 183
13925   3D40 DF          	db 223
13926   3D41 EF          	db 239
13927   3D42 01          	db 1
13928   3D43 DE          	db 222
13929   3D44 5D          	db 93
13930   3D45 07          	db 7
13931   3D46 1B          	db 27
13932   3D47 79          	db 121
13933   3D48 E0          	db 224
13934   3D49 F6          	db 246
13935   3D4A C0          	db 192
13936   3D4B C8          	db 200
13937   3D4C 78          	db 120
13938   3D4D 30          	db 48
13939   3D4E 06          	db 6
13940   3D4F 69          	db 105
13941   3D50 00          	db 0
13942   3D51 64          	db 100
13943   3D52 8D          	db 141
13944   3D53 66          	db 102
13945   3D54 5D          	db 93
13946   3D55 CB          	db 203
13947   3D56 E3          	db 227
13948   3D57 F4          	db 244
13949   3D58 B9          	db 185
13950   3D59 22          	db 34
13951   3D5A 06          	db 6
13952   3D5B 50          	db 80
13953   3D5C F7          	db 247
13954   3D5D 1C          	db 28
13955   3D5E 10          	db 16
13956   3D5F EE          	db 238
13957   3D60 02          	db 2
13958   3D61 DB          	db 219
13959   3D62 A3          	db 163
13960   3D63 02          	db 2
13961   3D64 A8          	db 168
13962   3D65 31          	db 49
13963   3D66 C0          	db 192
13964   3D67 20          	db 32
13965   3D68             imgScreen: 
13966   3D68 FF          	db 255
13967   3D69 38          	db 56
13968   3D6A FF          	db 255
13969   3D6B 1F          	db 31
13970   3D6C EF          	db 239
13971   3D6D F6          	db 246
13972   3D6E 6F          	db 111
13973   3D6F 4B          	db 75
13974   3D70 FF          	db 255
13975   3D71 EF          	db 239
13976   3D72 FF          	db 255
13977   3D73 60          	db 96
13978   3D74 76          	db 118
13979   3D75 A8          	db 168
13980   3D76 FF          	db 255
13981   3D77 00          	db 0
13982   3D78 FD          	db 253
13983   3D79 26          	db 38
13984   3D7A E0          	db 224
13985   3D7B 10          	db 16
13986   3D7C E0          	db 224
13987   3D7D FF          	db 255
13988   3D7E 40          	db 64
13989   3D7F 16          	db 22
13990   3D80 FF          	db 255
13991   3D81 34          	db 52
13992   3D82 D5          	db 213
13993   3D83 D8          	db 216
13994   3D84 01          	db 1
13995   3D85 00          	db 0
13996   3D86 16          	db 22
13997   3D87 C8          	db 200
13998   3D88 FF          	db 255
13999   3D89 01          	db 1
14000   3D8A EC          	db 236
14001   3D8B 71          	db 113
14002   3D8C 00          	db 0
14003   3D8D 44          	db 68
14004   3D8E B9          	db 185
14005   3D8F 45          	db 69
14006   3D90 FF          	db 255
14007   3D91 38          	db 56
14008   3D92 6C          	db 108
14009   3D93 00          	db 0
14010   3D94 C7          	db 199
14011   3D95 07          	db 7
14012   3D96 03          	db 3
14013   3D97 B2          	db 178
14014   3D98 E3          	db 227
14015   3D99 9B          	db 155
14016   3D9A FF          	db 255
14017   3D9B F3          	db 243
14018   3D9C FB          	db 251
14019   3D9D 43          	db 67
14020   3D9E D5          	db 213
14021   3D9F 02          	db 2
14022   3DA0 E4          	db 228
14023   3DA1 FF          	db 255
14024   3DA2 98          	db 152
14025   3DA3 41          	db 65
14026   3DA4 0F          	db 15
14027   3DA5 F7          	db 247
14028   3DA6 F6          	db 246
14029   3DA7 37          	db 55
14030   3DA8 4A          	db 74
14031   3DA9 FF          	db 255
14032   3DAA F7          	db 247
14033   3DAB C9          	db 201
14034   3DAC 4C          	db 76
14035   3DAD 00          	db 0
14036   3DAE 51          	db 81
14037   3DAF FF          	db 255
14038   3DB0 DF          	db 223
14039   3DB1 DB          	db 219
14040   3DB2 FD          	db 253
14041   3DB3 4E          	db 78
14042   3DB4 18          	db 24
14043   3DB5 00          	db 0
14044   3DB6 9F          	db 159
14045   3DB7 98          	db 152
14046   3DB8 F8          	db 248
14047   3DB9 FB          	db 251
14048   3DBA 00          	db 0
14049   3DBB E0          	db 224
14050   3DBC FC          	db 252
14051   3DBD FB          	db 251
14052   3DBE FE          	db 254
14053   3DBF FF          	db 255
14054   3DC0 3F          	db 63
14055   3DC1 CF          	db 207
14056   3DC2 F6          	db 246
14057   3DC3 02          	db 2
14058   3DC4 5C          	db 92
14059   3DC5 00          	db 0
14060   3DC6 03          	db 3
14061   3DC7 30          	db 48
14062   3DC8 3E          	db 62
14063   3DC9 CA          	db 202
14064   3DCA FA          	db 250
14065   3DCB 00          	db 0
14066   3DCC F6          	db 246
14067   3DCD 03          	db 3
14068   3DCE F7          	db 247
14069   3DCF 14          	db 20
14070   3DD0 3D          	db 61
14071   3DD1 E4          	db 228
14072   3DD2 BB          	db 187
14073   3DD3 00          	db 0
14074   3DD4 80          	db 128
14075   3DD5 C0          	db 192
14076   3DD6 61          	db 97
14077   3DD7 81          	db 129
14078   3DD8 00          	db 0
14079   3DD9 39          	db 57
14080   3DDA DF          	db 223
14081   3DDB 3F          	db 63
14082   3DDC C1          	db 193
14083   3DDD FE          	db 254
14084   3DDE FB          	db 251
14085   3DDF 60          	db 96
14086   3DE0 59          	db 89
14087   3DE1 17          	db 23
14088   3DE2 00          	db 0
14089   3DE3 A6          	db 166
14090   3DE4 03          	db 3
14091   3DE5 7D          	db 125
14092   3DE6 FD          	db 253
14093   3DE7 44          	db 68
14094   3DE8 C9          	db 201
14095   3DE9 FB          	db 251
14096   3DEA 08          	db 8
14097   3DEB 0C          	db 12
14098   3DEC D8          	db 216
14099   3DED 00          	db 0
14100   3DEE E0          	db 224
14101   3DEF 1F          	db 31
14102   3DF0 6C          	db 108
14103   3DF1 0A          	db 10
14104   3DF2 F4          	db 244
14105   3DF3 00          	db 0
14106   3DF4 E0          	db 224
14107   3DF5 D9          	db 217
14108   3DF6 FD          	db 253
14109   3DF7 F0          	db 240
14110   3DF8 26          	db 38
14111   3DF9 FF          	db 255
14112   3DFA 1C          	db 28
14113   3DFB 33          	db 51
14114   3DFC 00          	db 0
14115   3DFD 07          	db 7
14116   3DFE 3F          	db 63
14117   3DFF DE          	db 222
14118   3E00 FC          	db 252
14119   3E01 EC          	db 236
14120   3E02 E3          	db 227
14121   3E03 9F          	db 159
14122   3E04 7F          	db 127
14123   3E05 0A          	db 10
14124   3E06 73          	db 115
14125   3E07 00          	db 0
14126   3E08 0B          	db 11
14127   3E09 CC          	db 204
14128   3E0A FF          	db 255
14129   3E0B 7F          	db 127
14130   3E0C 79          	db 121
14131   3E0D 9A          	db 154
14132   3E0E 03          	db 3
14133   3E0F 07          	db 7
14134   3E10 FF          	db 255
14135   3E11 11          	db 17
14136   3E12 81          	db 129
14137   3E13 54          	db 84
14138   3E14 00          	db 0
14139   3E15 61          	db 97
14140   3E16 3E          	db 62
14141   3E17 58          	db 88
14142   3E18 00          	db 0
14143   3E19 18          	db 24
14144   3E1A 5B          	db 91
14145   3E1B 00          	db 0
14146   3E1C 5E          	db 94
14147   3E1D 24          	db 36
14148   3E1E B2          	db 178
14149   3E1F F8          	db 248
14150   3E20 4C          	db 76
14151   3E21 FF          	db 255
14152   3E22 AE          	db 174
14153   3E23 D9          	db 217
14154   3E24 00          	db 0
14155   3E25 F8          	db 248
14156   3E26 19          	db 25
14157   3E27 00          	db 0
14158   3E28 60          	db 96
14159   3E29 6A          	db 106
14160   3E2A 98          	db 152
14161   3E2B 00          	db 0
14162   3E2C E6          	db 230
14163   3E2D 7A          	db 122
14164   3E2E 00          	db 0
14165   3E2F 43          	db 67
14166   3E30 41          	db 65
14167   3E31 79          	db 121
14168   3E32 DD          	db 221
14169   3E33 FD          	db 253
14170   3E34 78          	db 120
14171   3E35 B3          	db 179
14172   3E36 D8          	db 216
14173   3E37 0F          	db 15
14174   3E38 07          	db 7
14175   3E39 1E          	db 30
14176   3E3A C7          	db 199
14177   3E3B CA          	db 202
14178   3E3C 6D          	db 109
14179   3E3D FF          	db 255
14180   3E3E E7          	db 231
14181   3E3F F7          	db 247
14182   3E40 9D          	db 157
14183   3E41 00          	db 0
14184   3E42 F8          	db 248
14185   3E43 08          	db 8
14186   3E44 E8          	db 232
14187   3E45 9E          	db 158
14188   3E46 FF          	db 255
14189   3E47 60          	db 96
14190   3E48 50          	db 80
14191   3E49 2C          	db 44
14192   3E4A EC          	db 236
14193   3E4B F0          	db 240
14194   3E4C 79          	db 121
14195   3E4D 00          	db 0
14196   3E4E 9E          	db 158
14197   3E4F C8          	db 200
14198   3E50 A1          	db 161
14199   3E51 21          	db 33
14200   3E52 FF          	db 255
14201   3E53 81          	db 129
14202   3E54 30          	db 48
14203   3E55 83          	db 131
14204   3E56 20          	db 32
14205   3E57 00          	db 0
14206   3E58 31          	db 49
14207   3E59 13          	db 19
14208   3E5A E7          	db 231
14209   3E5B 02          	db 2
14210   3E5C 84          	db 132
14211   3E5D EC          	db 236
14212   3E5E C7          	db 199
14213   3E5F 9E          	db 158
14214   3E60 00          	db 0
14215   3E61 E8          	db 232
14216   3E62 08          	db 8
14217   3E63 09          	db 9
14218   3E64 CE          	db 206
14219   3E65 30          	db 48
14220   3E66 81          	db 129
14221   3E67 32          	db 50
14222   3E68 16          	db 22
14223   3E69 00          	db 0
14224   3E6A 80          	db 128
14225   3E6B 07          	db 7
14226   3E6C 63          	db 99
14227   3E6D 00          	db 0
14228   3E6E 83          	db 131
14229   3E6F 82          	db 130
14230   3E70 E3          	db 227
14231   3E71 F2          	db 242
14232   3E72 8B          	db 139
14233   3E73 8A          	db 138
14234   3E74 DB          	db 219
14235   3E75 F3          	db 243
14236   3E76 16          	db 22
14237   3E77 00          	db 0
14238   3E78 18          	db 24
14239   3E79 3A          	db 58
14240   3E7A B3          	db 179
14241   3E7B 00          	db 0
14242   3E7C 08          	db 8
14243   3E7D EF          	db 239
14244   3E7E 67          	db 103
14245   3E7F 98          	db 152
14246   3E80 FF          	db 255
14247   3E81 13          	db 19
14248   3E82 C6          	db 198
14249   3E83 EC          	db 236
14250   3E84 53          	db 83
14251   3E85 00          	db 0
14252   3E86 39          	db 57
14253   3E87 BD          	db 189
14254   3E88 1F          	db 31
14255   3E89 8D          	db 141
14256   3E8A FD          	db 253
14257   3E8B 12          	db 18
14258   3E8C 8F          	db 143
14259   3E8D E3          	db 227
14260   3E8E F5          	db 245
14261   3E8F 1C          	db 28
14262   3E90 CB          	db 203
14263   3E91 00          	db 0
14264   3E92 03          	db 3
14265   3E93 57          	db 87
14266   3E94 FB          	db 251
14267   3E95 00          	db 0
14268   3E96 9F          	db 159
14269   3E97 DF          	db 223
14270   3E98 96          	db 150
14271   3E99 FF          	db 255
14272   3E9A C3          	db 195
14273   3E9B 30          	db 48
14274   3E9C 1C          	db 28
14275   3E9D 60          	db 96
14276   3E9E 6E          	db 110
14277   3E9F AF          	db 175
14278   3EA0 00          	db 0
14279   3EA1 0F          	db 15
14280   3EA2 59          	db 89
14281   3EA3 FD          	db 253
14282   3EA4 0C          	db 12
14283   3EA5 2D          	db 45
14284   3EA6 E3          	db 227
14285   3EA7 7F          	db 127
14286   3EA8 BF          	db 191
14287   3EA9 98          	db 152
14288   3EAA FF          	db 255
14289   3EAB 79          	db 121
14290   3EAC EB          	db 235
14291   3EAD 81          	db 129
14292   3EAE AF          	db 175
14293   3EAF EF          	db 239
14294   3EB0 00          	db 0
14295   3EB1 1C          	db 28
14296   3EB2 CF          	db 207
14297   3EB3 EE          	db 238
14298   3EB4 7E          	db 126
14299   3EB5 46          	db 70
14300   3EB6 FD          	db 253
14301   3EB7 67          	db 103
14302   3EB8 EC          	db 236
14303   3EB9 CF          	db 207
14304   3EBA 01          	db 1
14305   3EBB 93          	db 147
14306   3EBC FF          	db 255
14307   3EBD 03          	db 3
14308   3EBE 73          	db 115
14309   3EBF F8          	db 248
14310   3EC0 00          	db 0
14311   3EC1 9F          	db 159
14312   3EC2 D8          	db 216
14313   3EC3 1C          	db 28
14314   3EC4 BD          	db 189
14315   3EC5 BC          	db 188
14316   3EC6 BF          	db 191
14317   3EC7 B3          	db 179
14318   3EC8 FD          	db 253
14319   3EC9 B9          	db 185
14320   3ECA 00          	db 0
14321   3ECB 91          	db 145
14322   3ECC E3          	db 227
14323   3ECD 51          	db 81
14324   3ECE 12          	db 18
14325   3ECF 1C          	db 28
14326   3ED0 08          	db 8
14327   3ED1 13          	db 19
14328   3ED2 6E          	db 110
14329   3ED3 63          	db 99
14330   3ED4 00          	db 0
14331   3ED5 1F          	db 31
14332   3ED6 0F          	db 15
14333   3ED7 D9          	db 217
14334   3ED8 8F          	db 143
14335   3ED9 4D          	db 77
14336   3EDA FF          	db 255
14337   3EDB CF          	db 207
14338   3EDC EF          	db 239
14339   3EDD 81          	db 129
14340   3EDE 8A          	db 138
14341   3EDF 00          	db 0
14342   3EE0 5C          	db 92
14343   3EE1 12          	db 18
14344   3EE2 B8          	db 184
14345   3EE3 F7          	db 247
14346   3EE4 FF          	db 255
14347   3EE5 CE          	db 206
14348   3EE6 6E          	db 110
14349   3EE7 00          	db 0
14350   3EE8 FB          	db 251
14351   3EE9 14          	db 20
14352   3EEA 59          	db 89
14353   3EEB FF          	db 255
14354   3EEC E3          	db 227
14355   3EED 39          	db 57
14356   3EEE 00          	db 0
14357   3EEF 60          	db 96
14358   3EF0 67          	db 103
14359   3EF1 FA          	db 250
14360   3EF2 00          	db 0
14361   3EF3 0F          	db 15
14362   3EF4 C4          	db 196
14363   3EF5 4D          	db 77
14364   3EF6 E7          	db 231
14365   3EF7 DB          	db 219
14366   3EF8 00          	db 0
14367   3EF9 3B          	db 59
14368   3EFA 45          	db 69
14369   3EFB 96          	db 150
14370   3EFC FF          	db 255
14371   3EFD 38          	db 56
14372   3EFE 06          	db 6
14373   3EFF D6          	db 214
14374   3F00 03          	db 3
14375   3F01 00          	db 0
14376   3F02 63          	db 99
14377   3F03 59          	db 89
14378   3F04 00          	db 0
14379   3F05 BD          	db 189
14380   3F06 11          	db 17
14381   3F07 FF          	db 255
14382   3F08 1F          	db 31
14383   3F09 6C          	db 108
14384   3F0A 08          	db 8
14385   3F0B C1          	db 193
14386   3F0C FC          	db 252
14387   3F0D FE          	db 254
14388   3F0E 60          	db 96
14389   3F0F 73          	db 115
14390   3F10 95          	db 149
14391   3F11 00          	db 0
14392   3F12 EC          	db 236
14393   3F13 16          	db 22
14394   3F14 C0          	db 192
14395   3F15 95          	db 149
14396   3F16 FF          	db 255
14397   3F17 FF          	db 255
14398   3F18 81          	db 129
14399   3F19 A7          	db 167
14400   3F1A B6          	db 182
14401   3F1B 00          	db 0
14402   3F1C 28          	db 40
14403   3F1D 47          	db 71
14404   3F1E 60          	db 96
14405   3F1F 75          	db 117
14406   3F20 E5          	db 229
14407   3F21 00          	db 0
14408   3F22 8B          	db 139
14409   3F23 D6          	db 214
14410   3F24 FE          	db 254
14411   3F25 7F          	db 127
14412   3F26 CC          	db 204
14413   3F27 30          	db 48
14414   3F28 FF          	db 255
14415   3F29 3B          	db 59
14416   3F2A 89          	db 137
14417   3F2B 00          	db 0
14418   3F2C E8          	db 232
14419   3F2D 03          	db 3
14420   3F2E 64          	db 100
14421   3F2F 98          	db 152
14422   3F30 FF          	db 255
14423   3F31 1D          	db 29
14424   3F32 FE          	db 254
14425   3F33 00          	db 0
14426   3F34 7F          	db 127
14427   3F35 23          	db 35
14428   3F36 00          	db 0
14429   3F37 10          	db 16
14430   3F38 E3          	db 227
14431   3F39 20          	db 32
14432   3F3A C0          	db 192
14433   3F3B 16          	db 22
14434   3F3C FB          	db 251
14435   3F3D DC          	db 220
14436   3F3E 00          	db 0
14437   3F3F D9          	db 217
14438   3F40 3F          	db 63
14439   3F41 1F          	db 31
14440   3F42 8D          	db 141
14441   3F43 FF          	db 255
14442   3F44 9F          	db 159
14443   3F45 DF          	db 223
14444   3F46 81          	db 129
14445   3F47 BB          	db 187
14446   3F48 BC          	db 188
14447   3F49 00          	db 0
14448   3F4A 79          	db 121
14449   3F4B 05          	db 5
14450   3F4C 7A          	db 122
14451   3F4D 3D          	db 61
14452   3F4E CB          	db 203
14453   3F4F FF          	db 255
14454   3F50 03          	db 3
14455   3F51 DF          	db 223
14456   3F52 58          	db 88
14457   3F53 00          	db 0
14458   3F54 3E          	db 62
14459   3F55 A1          	db 161
14460   3F56 EE          	db 238
14461   3F57 30          	db 48
14462   3F58 FD          	db 253
14463   3F59 36          	db 54
14464   3F5A B1          	db 177
14465   3F5B 00          	db 0
14466   3F5C F8          	db 248
14467   3F5D 63          	db 99
14468   3F5E 4C          	db 76
14469   3F5F 00          	db 0
14470   3F60 07          	db 7
14471   3F61 08          	db 8
14472   3F62 18          	db 24
14473   3F63 01          	db 1
14474   3F64 42          	db 66
14475   3F65 04          	db 4
14476   3F66 D9          	db 217
14477   3F67 08          	db 8
14478   3F68 F8          	db 248
14479   3F69 58          	db 88
14480   3F6A FF          	db 255
14481   3F6B 60          	db 96
14482   3F6C 6A          	db 106
14483   3F6D 4E          	db 78
14484   3F6E 00          	db 0
14485   3F6F 01          	db 1
14486   3F70 06          	db 6
14487   3F71 BF          	db 191
14488   3F72 83          	db 131
14489   3F73 6C          	db 108
14490   3F74 FD          	db 253
14491   3F75 81          	db 129
14492   3F76 C5          	db 197
14493   3F77 CF          	db 207
14494   3F78 80          	db 128
14495   3F79 92          	db 146
14496   3F7A FF          	db 255
14497   3F7B 60          	db 96
14498   3F7C 6E          	db 110
14499   3F7D CB          	db 203
14500   3F7E 00          	db 0
14501   3F7F 33          	db 51
14502   3F80 9B          	db 155
14503   3F81 D1          	db 209
14504   3F82 DB          	db 219
14505   3F83 FB          	db 251
14506   3F84 FF          	db 255
14507   3F85 8C          	db 140
14508   3F86 98          	db 152
14509   3F87 1B          	db 27
14510   3F88 1B          	db 27
14511   3F89 92          	db 146
14512   3F8A 00          	db 0
14513   3F8B F3          	db 243
14514   3F8C 70          	db 112
14515   3F8D 3F          	db 63
14516   3F8E BB          	db 187
14517   3F8F F8          	db 248
14518   3F90 FD          	db 253
14519   3F91 FB          	db 251
14520   3F92 60          	db 96
14521   3F93 7B          	db 123
14522   3F94 C2          	db 194
14523   3F95 00          	db 0
14524   3F96 C0          	db 192
14525   3F97 06          	db 6
14526   3F98 EF          	db 239
14527   3F99 E1          	db 225
14528   3F9A 8C          	db 140
14529   3F9B FD          	db 253
14530   3F9C 96          	db 150
14531   3F9D E3          	db 227
14532   3F9E 01          	db 1
14533   3F9F FE          	db 254
14534   3FA0 3D          	db 61
14535   3FA1 06          	db 6
14536   3FA2 92          	db 146
14537   3FA3 FF          	db 255
14538   3FA4 B0          	db 176
14539   3FA5 FE          	db 254
14540   3FA6 37          	db 55
14541   3FA7 1D          	db 29
14542   3FA8 00          	db 0
14543   3FA9 C1          	db 193
14544   3FAA FC          	db 252
14545   3FAB DE          	db 222
14546   3FAC 2C          	db 44
14547   3FAD FF          	db 255
14548   3FAE C7          	db 199
14549   3FAF EE          	db 238
14550   3FB0 63          	db 99
14551   3FB1 00          	db 0
14552   3FB2 C0          	db 192
14553   3FB3 20          	db 32
14554   3FB4 8A          	db 138
14555   3FB5 13          	db 19
14556   3FB6 CD          	db 205
14557   3FB7 FF          	db 255
14558   3FB8 2D          	db 45
14559   3FB9 ED          	db 237
14560   3FBA 3F          	db 63
14561   3FBB 66          	db 102
14562   3FBC AC          	db 172
14563   3FBD FF          	db 255
14564   3FBE BF          	db 191
14565   3FBF 0C          	db 12
14566   3FC0 6F          	db 111
14567   3FC1 63          	db 99
14568   3FC2 00          	db 0
14569   3FC3 79          	db 121
14570   3FC4 7D          	db 125
14571   3FC5 E5          	db 229
14572   3FC6 0D          	db 13
14573   3FC7 FD          	db 253
14574   3FC8 FC          	db 252
14575   3FC9 9C          	db 156
14576   3FCA 00          	db 0
14577   3FCB C7          	db 199
14578   3FCC 23          	db 35
14579   3FCD 22          	db 34
14580   3FCE 4B          	db 75
14581   3FCF FD          	db 253
14582   3FD0 FA          	db 250
14583   3FD1 27          	db 39
14584   3FD2 56          	db 86
14585   3FD3 00          	db 0
14586   3FD4 FE          	db 254
14587   3FD5 51          	db 81
14588   3FD6 FF          	db 255
14589   3FD7 81          	db 129
14590   3FD8 91          	db 145
14591   3FD9 FB          	db 251
14592   3FDA 00          	db 0
14593   3FDB FE          	db 254
14594   3FDC 14          	db 20
14595   3FDD D6          	db 214
14596   3FDE 00          	db 0
14597   3FDF 7C          	db 124
14598   3FE0 02          	db 2
14599   3FE1 3E          	db 62
14600   3FE2 3E          	db 62
14601   3FE3 42          	db 66
14602   3FE4 58          	db 88
14603   3FE5 FF          	db 255
14604   3FE6 1B          	db 27
14605   3FE7 58          	db 88
14606   3FE8 00          	db 0
14607   3FE9 01          	db 1
14608   3FEA 85          	db 133
14609   3FEB 31          	db 49
14610   3FEC 00          	db 0
14611   3FED EC          	db 236
14612   3FEE F0          	db 240
14613   3FEF F8          	db 248
14614   3FF0 FC          	db 252
14615   3FF1 55          	db 85
14616   3FF2 00          	db 0
14617   3FF3 1F          	db 31
14618   3FF4 D8          	db 216
14619   3FF5 28          	db 40
14620   3FF6 2F          	db 47
14621   3FF7 81          	db 129
14622   3FF8 FF          	db 255
14623   3FF9 81          	db 129
14624   3FFA 3C          	db 60
14625   3FFB EC          	db 236
14626   3FFC D8          	db 216
14627   3FFD 20          	db 32
14628   3FFE 3F          	db 63
14629   3FFF E9          	db 233
14630   4000 00          	db 0
14631   4001 92          	db 146
14632   4002 FF          	db 255
14633   4003 63          	db 99
14634   4004 7B          	db 123
14635   4005 00          	db 0
14636   4006 60          	db 96
14637   4007 57          	db 87
14638   4008 98          	db 152
14639   4009 FF          	db 255
14640   400A F9          	db 249
14641   400B 28          	db 40
14642   400C 9F          	db 159
14643   400D D6          	db 214
14644   400E EE          	db 238
14645   400F 0F          	db 15
14646   4010 6B          	db 107
14647   4011 00          	db 0
14648   4012 E0          	db 224
14649   4013 3C          	db 60
14650   4014 FF          	db 255
14651   4015 D1          	db 209
14652   4016 E8          	db 232
14653   4017 80          	db 128
14654   4018 1D          	db 29
14655   4019 9E          	db 158
14656   401A E7          	db 231
14657   401B C7          	db 199
14658   401C F0          	db 240
14659   401D F8          	db 248
14660   401E 14          	db 20
14661   401F 09          	db 9
14662   4020 40          	db 64
14663   4021 FF          	db 255
14664   4022 C6          	db 198
14665   4023 4C          	db 76
14666   4024 FE          	db 254
14667   4025 42          	db 66
14668   4026 FA          	db 250
14669   4027 F6          	db 246
14670   4028 C2          	db 194
14671   4029 16          	db 22
14672   402A 00          	db 0
14673   402B 03          	db 3
14674   402C FD          	db 253
14675   402D 3D          	db 61
14676   402E 0D          	db 13
14677   402F 92          	db 146
14678   4030 FF          	db 255
14679   4031 B0          	db 176
14680   4032 FD          	db 253
14681   4033 BF          	db 191
14682   4034 2C          	db 44
14683   4035 00          	db 0
14684   4036 78          	db 120
14685   4037 42          	db 66
14686   4038 AB          	db 171
14687   4039 CA          	db 202
14688   403A 3F          	db 63
14689   403B F6          	db 246
14690   403C CF          	db 207
14691   403D F6          	db 246
14692   403E D8          	db 216
14693   403F A8          	db 168
14694   4040 1A          	db 26
14695   4041 BB          	db 187
14696   4042 FE          	db 254
14697   4043 F8          	db 248
14698   4044 38          	db 56
14699   4045 08          	db 8
14700   4046 46          	db 70
14701   4047 B7          	db 183
14702   4048 40          	db 64
14703   4049 80          	db 128
14704   404A F1          	db 241
14705   404B FE          	db 254
14706   404C 09          	db 9
14707   404D F1          	db 241
14708   404E C6          	db 198
14709   404F 4F          	db 79
14710   4050 6C          	db 108
14711   4051 FC          	db 252
14712   4052 FD          	db 253
14713   4053 7C          	db 124
14714   4054 3C          	db 60
14715   4055 18          	db 24
14716   4056 10          	db 16
14717   4057 88          	db 136
14718   4058 31          	db 49
14719   4059 93          	db 147
14720   405A 01          	db 1
14721   405B 03          	db 3
14722   405C C5          	db 197
14723   405D 73          	db 115
14724   405E F8          	db 248
14725   405F 06          	db 6
14726   4060 0F          	db 15
14727   4061 19          	db 25
14728   4062 84          	db 132
14729   4063 9F          	db 159
14730   4064 00          	db 0
14731   4065 67          	db 103
14732   4066 F9          	db 249
14733   4067 16          	db 22
14734   4068 86          	db 134
14735   4069 19          	db 25
14736   406A 00          	db 0
14737   406B 63          	db 99
14738   406C ED          	db 237
14739   406D 9E          	db 158
14740   406E 3F          	db 63
14741   406F C1          	db 193
14742   4070 C3          	db 195
14743   4071 C1          	db 193
14744   4072 FC          	db 252
14745   4073 FD          	db 253
14746   4074 61          	db 97
14747   4075 48          	db 72
14748   4076 FC          	db 252
14749   4077 26          	db 38
14750   4078 CD          	db 205
14751   4079 F4          	db 244
14752   407A 3F          	db 63
14753   407B 01          	db 1
14754   407C AB          	db 171
14755   407D B7          	db 183
14756   407E 08          	db 8
14757   407F 15          	db 21
14758   4080 E9          	db 233
14759   4081 0A          	db 10
14760   4082 05          	db 5
14761   4083 02          	db 2
14762   4084 F3          	db 243
14763   4085 04          	db 4
14764   4086 F1          	db 241
14765   4087 0E          	db 14
14766   4088 CE          	db 206
14767   4089 DF          	db 223
14768   408A 1F          	db 31
14769   408B 02          	db 2
14770   408C 6E          	db 110
14771   408D 9F          	db 159
14772   408E 8E          	db 142
14773   408F 40          	db 64
14774   4090 B2          	db 178
14775   4091 5C          	db 92
14776   4092 2C          	db 44
14777   4093 E0          	db 224
14778   4094 01          	db 1
14779   4095 BA          	db 186
14780   4096 F0          	db 240
14781   4097 D8          	db 216
14782   4098 A8          	db 168
14783   4099 F8          	db 248
14784   409A D2          	db 210
14785   409B F6          	db 246
14786   409C 70          	db 112
14787   409D A6          	db 166
14788   409E E8          	db 232
14789   409F 1E          	db 30
14790   40A0 1E          	db 30
14791   40A1 00          	db 0
14792   40A2 EA          	db 234
14793   40A3 69          	db 105
14794   40A4 5B          	db 91
14795   40A5 04          	db 4
14796   40A6 E0          	db 224
14797   40A7 1D          	db 29
14798   40A8 CB          	db 203
14799   40A9 00          	db 0
14800   40AA 1F          	db 31
14801   40AB 61          	db 97
14802   40AC 9E          	db 158
14803   40AD E0          	db 224
14804   40AE 1F          	db 31
14805   40AF B0          	db 176
14806   40B0 E1          	db 225
14807   40B1 FF          	db 255
14808   40B2 E0          	db 224
14809   40B3 6A          	db 106
14810   40B4 B8          	db 184
14811   40B5 C6          	db 198
14812   40B6 84          	db 132
14813   40B7 42          	db 66
14814   40B8 B4          	db 180
14815   40B9 40          	db 64
14816   40BA F2          	db 242
14817   40BB 0A          	db 10
14818   40BC 98          	db 152
14819   40BD 4D          	db 77
14820   40BE AC          	db 172
14821   40BF 94          	db 148
14822   40C0 9F          	db 159
14823   40C1 10          	db 16
14824   40C2 7A          	db 122
14825   40C3 1D          	db 29
14826   40C4 DC          	db 220
14827   40C5 7F          	db 127
14828   40C6 3F          	db 63
14829   40C7 0F          	db 15
14830   40C8 3A          	db 58
14831   40C9 7A          	db 122
14832   40CA DA          	db 218
14833   40CB AA          	db 170
14834   40CC 1C          	db 28
14835   40CD 58          	db 88
14836   40CE FA          	db 250
14837   40CF F6          	db 246
14838   40D0 75          	db 117
14839   40D1 09          	db 9
14840   40D2 0A          	db 10
14841   40D3 00          	db 0
14842   40D4 F8          	db 248
14843   40D5 1B          	db 27
14844   40D6 03          	db 3
14845   40D7 FD          	db 253
14846   40D8 FB          	db 251
14847   40D9 27          	db 39
14848   40DA 56          	db 86
14849   40DB 00          	db 0
14850   40DC FC          	db 252
14851   40DD 76          	db 118
14852   40DE 58          	db 88
14853   40DF 00          	db 0
14854   40E0 FB          	db 251
14855   40E1 00          	db 0
14856   40E2 07          	db 7
14857   40E3 3F          	db 63
14858   40E4 3F          	db 63
14859   40E5 DE          	db 222
14860   40E6 FC          	db 252
14861   40E7 E3          	db 227
14862   40E8 9F          	db 159
14863   40E9 7F          	db 127
14864   40EA DF          	db 223
14865   40EB 8D          	db 141
14866   40EC AB          	db 171
14867   40ED AD          	db 173
14868   40EE 61          	db 97
14869   40EF 48          	db 72
14870   40F0 FC          	db 252
14871   40F1 26          	db 38
14872   40F2 E9          	db 233
14873   40F3 F4          	db 244
14874   40F4 FC          	db 252
14875   40F5 7D          	db 125
14876   40F6 43          	db 67
14877   40F7 0B          	db 11
14878   40F8 FE          	db 254
14879   40F9 41          	db 65
14880   40FA FD          	db 253
14881   40FB AA          	db 170
14882   40FC 55          	db 85
14883   40FD 2A          	db 42
14884   40FE 84          	db 132
14885   40FF E0          	db 224
14886   4100 F0          	db 240
14887   4101 AE          	db 174
14888   4102 81          	db 129
14889   4103 7D          	db 125
14890   4104 AE          	db 174
14891   4105 F8          	db 248
14892   4106 B1          	db 177
14893   4107 19          	db 25
14894   4108 C3          	db 195
14895   4109 86          	db 134
14896   410A 0F          	db 15
14897   410B DC          	db 220
14898   410C 00          	db 0
14899   410D 80          	db 128
14900   410E BC          	db 188
14901   410F A2          	db 162
14902   4110 77          	db 119
14903   4111 19          	db 25
14904   4112 FD          	db 253
14905   4113 26          	db 38
14906   4114 00          	db 0
14907   4115 18          	db 24
14908   4116 F5          	db 245
14909   4117 00          	db 0
14910   4118 76          	db 118
14911   4119 6C          	db 108
14912   411A 07          	db 7
14913   411B 44          	db 68
14914   411C FF          	db 255
14915   411D 61          	db 97
14916   411E DB          	db 219
14917   411F 59          	db 89
14918   4120 01          	db 1
14919   4121 04          	db 4
14920   4122 7F          	db 127
14921   4123 51          	db 81
14922   4124 7A          	db 122
14923   4125 B9          	db 185
14924   4126 A2          	db 162
14925   4127 FF          	db 255
14926   4128 01          	db 1
14927   4129 3B          	db 59
14928   412A FA          	db 250
14929   412B EA          	db 234
14930   412C C1          	db 193
14931   412D 74          	db 116
14932   412E 00          	db 0
14933   412F 26          	db 38
14934   4130 0F          	db 15
14935   4131 08          	db 8
14936   4132 F3          	db 243
14937   4133 FF          	db 255
14938   4134 27          	db 39
14939   4135 2C          	db 44
14940   4136 00          	db 0
14941   4137 0D          	db 13
14942   4138 1D          	db 29
14943   4139 23          	db 35
14944   413A 00          	db 0
14945   413B 2C          	db 44
14946   413C 2B          	db 43
14947   413D CC          	db 204
14948   413E 2B          	db 43
14949   413F 30          	db 48
14950   4140 CD          	db 205
14951   4141 00          	db 0
14952   4142 80          	db 128
14953   4143 81          	db 129
14954   4144 70          	db 112
14955   4145 01          	db 1
14956   4146 B0          	db 176
14957   4147 80          	db 128
14958   4148 42          	db 66
14959   4149 C9          	db 201
14960   414A 00          	db 0
14961   414B D4          	db 212
14962   414C 60          	db 96
14963   414D 5A          	db 90
14964   414E 98          	db 152
14965   414F FF          	db 255
14966   4150 B9          	db 185
14967   4151 1C          	db 28
14968   4152 80          	db 128
14969   4153 40          	db 64
14970   4154 00          	db 0
14971   4155 73          	db 115
14972   4156 FF          	db 255
14973   4157 C0          	db 192
14974   4158 40          	db 64
14975   4159 64          	db 100
14976   415A 0C          	db 12
14977   415B FF          	db 255
14978   415C F2          	db 242
14979   415D E0          	db 224
14980   415E 56          	db 86
14981   415F 30          	db 48
14982   4160 FF          	db 255
14983   4161 B0          	db 176
14984   4162 80          	db 128
14985   4163 2D          	db 45
14986   4164 96          	db 150
14987   4165 FF          	db 255
14988   4166 00          	db 0
14989   4167 34          	db 52
14990   4168 FF          	db 255
14991   4169 A5          	db 165
14992   416A FF          	db 255
14993   416B 0B          	db 11
14994   416C 10          	db 16
14995   416D C0          	db 192
14996   416E FF          	db 255
14997   416F 9E          	db 158
14998   4170 F2          	db 242
14999   4171 62          	db 98
15000   4172 EC          	db 236
15001   4173 D8          	db 216
15002   4174 FE          	db 254
15003   4175 01          	db 1
15004   4176 06          	db 6
15005   4177 05          	db 5
15006   4178 B2          	db 178
15007   4179 FF          	db 255
15008   417A 01          	db 1
15009   417B C7          	db 199
15010   417C 5B          	db 91
15011   417D 00          	db 0
15012   417E 44          	db 68
15013   417F 45          	db 69
15014   4180 96          	db 150
15015   4181 FF          	db 255
15016   4182 38          	db 56
15017   4183 2C          	db 44
15018   4184 00          	db 0
15019   4185 81          	db 129
15020   4186 E0          	db 224
15021   4187 F8          	db 248
15022   4188 79          	db 121
15023   4189 E6          	db 230
15024   418A 81          	db 129
15025   418B 7C          	db 124
15026   418C FF          	db 255
15027   418D D9          	db 217
15028   418E E0          	db 224
15029   418F 20          	db 32
15030   4190 03          	db 3
15031   4191 FF          	db 255
15032   4192 F2          	db 242
15033   4193 F0          	db 240
15034   4194 64          	db 100
15035   4195 26          	db 38
15036   4196 00          	db 0
15037   4197 51          	db 81
15038   4198 FF          	db 255
15039   4199 DF          	db 223
15040   419A 6C          	db 108
15041   419B FD          	db 253
15042   419C 4E          	db 78
15043   419D B6          	db 182
15044   419E 00          	db 0
15045   419F 78          	db 120
15046   41A0 CC          	db 204
15047   41A1 98          	db 152
15048   41A2 FF          	db 255
15049   41A3 F8          	db 248
15050   41A4 C0          	db 192
15051   41A5 E0          	db 224
15052   41A6 38          	db 56
15053   41A7 EC          	db 236
15054   41A8 33          	db 51
15055   41A9 09          	db 9
15056   41AA 9B          	db 155
15057   41AB 00          	db 0
15058   41AC C0          	db 192
15059   41AD F0          	db 240
15060   41AE 02          	db 2
15061   41AF 65          	db 101
15062   41B0 00          	db 0
15063   41B1 FF          	db 255
15064   41B2 62          	db 98
15065   41B3 64          	db 100
15066   41B4 F2          	db 242
15067   41B5 F8          	db 248
15068   41B6 5E          	db 94
15069   41B7 03          	db 3
15070   41B8 C7          	db 199
15071   41B9 F7          	db 247
15072   41BA 14          	db 20
15073   41BB B2          	db 178
15074   41BC E4          	db 228
15075   41BD 56          	db 86
15076   41BE EA          	db 234
15077   41BF 40          	db 64
15078   41C0 52          	db 82
15079   41C1 FF          	db 255
15080   41C2 3F          	db 63
15081   41C3 C2          	db 194
15082   41C4 67          	db 103
15083   41C5 00          	db 0
15084   41C6 C0          	db 192
15085   41C7 FE          	db 254
15086   41C8 FF          	db 255
15087   41C9 1D          	db 29
15088   41CA 81          	db 129
15089   41CB 64          	db 100
15090   41CC 00          	db 0
15091   41CD 5E          	db 94
15092   41CE 03          	db 3
15093   41CF 9B          	db 155
15094   41D0 7D          	db 125
15095   41D1 FD          	db 253
15096   41D2 44          	db 68
15097   41D3 75          	db 117
15098   41D4 EA          	db 234
15099   41D5 01          	db 1
15100   41D6 9C          	db 156
15101   41D7 FF          	db 255
15102   41D8 B0          	db 176
15103   41D9 00          	db 0
15104   41DA 91          	db 145
15105   41DB 00          	db 0
15106   41DC 1F          	db 31
15107   41DD B0          	db 176
15108   41DE FF          	db 255
15109   41DF 2C          	db 44
15110   41E0 18          	db 24
15111   41E1 00          	db 0
15112   41E2 20          	db 32
15113   41E3 27          	db 39
15114   41E4 CC          	db 204
15115   41E5 A5          	db 165
15116   41E6 FF          	db 255
15117   41E7 1F          	db 31
15118   41E8 8D          	db 141
15119   41E9 18          	db 24
15120   41EA C2          	db 194
15121   41EB FB          	db 251
15122   41EC FF          	db 255
15123   41ED 03          	db 3
15124   41EE 1F          	db 31
15125   41EF B0          	db 176
15126   41F0 7F          	db 127
15127   41F1 2A          	db 42
15128   41F2 0C          	db 12
15129   41F3 00          	db 0
15130   41F4 2F          	db 47
15131   41F5 30          	db 48
15132   41F6 C2          	db 194
15133   41F7 2F          	db 47
15134   41F8 8C          	db 140
15135   41F9 FF          	db 255
15136   41FA F3          	db 243
15137   41FB 00          	db 0
15138   41FC 12          	db 18
15139   41FD CB          	db 203
15140   41FE 00          	db 0
15141   41FF 03          	db 3
15142   4200 61          	db 97
15143   4201 00          	db 0
15144   4202 10          	db 16
15145   4203 8C          	db 140
15146   4204 13          	db 19
15147   4205 CA          	db 202
15148   4206 59          	db 89
15149   4207 FF          	db 255
15150   4208 0F          	db 15
15151   4209 0B          	db 11
15152   420A 28          	db 40
15153   420B F8          	db 248
15154   420C 27          	db 39
15155   420D 2C          	db 44
15156   420E 00          	db 0
15157   420F 0D          	db 13
15158   4210 63          	db 99
15159   4211 00          	db 0
15160   4212 1A          	db 26
15161   4213 75          	db 117
15162   4214 28          	db 40
15163   4215 43          	db 67
15164   4216 41          	db 65
15165   4217 79          	db 121
15166   4218 BB          	db 187
15167   4219 FD          	db 253
15168   421A 78          	db 120
15169   421B 16          	db 22
15170   421C 40          	db 64
15171   421D 1A          	db 26
15172   421E C0          	db 192
15173   421F B1          	db 177
15174   4220 F0          	db 240
15175   4221 95          	db 149
15176   4222 00          	db 0
15177   4223 E0          	db 224
15178   4224 81          	db 129
15179   4225 3E          	db 62
15180   4226 EC          	db 236
15181   4227 B1          	db 177
15182   4228 F0          	db 240
15183   4229 E7          	db 231
15184   422A 00          	db 0
15185   422B 9E          	db 158
15186   422C A1          	db 161
15187   422D 21          	db 33
15188   422E 22          	db 34
15189   422F FF          	db 255
15190   4230 04          	db 4
15191   4231 CB          	db 203
15192   4232 68          	db 104
15193   4233 00          	db 0
15194   4234 F0          	db 240
15195   4235 18          	db 24
15196   4236 FF          	db 255
15197   4237 1C          	db 28
15198   4238 80          	db 128
15199   4239 7B          	db 123
15200   423A F8          	db 248
15201   423B 1E          	db 30
15202   423C CD          	db 205
15203   423D 00          	db 0
15204   423E FF          	db 255
15205   423F 81          	db 129
15206   4240 3E          	db 62
15207   4241 EC          	db 236
15208   4242 19          	db 25
15209   4243 8F          	db 143
15210   4244 3C          	db 60
15211   4245 00          	db 0
15212   4246 E8          	db 232
15213   4247 08          	db 8
15214   4248 09          	db 9
15215   4249 CE          	db 206
15216   424A 61          	db 97
15217   424B 02          	db 2
15218   424C 64          	db 100
15219   424D 8C          	db 140
15220   424E BE          	db 190
15221   424F 08          	db 8
15222   4250 81          	db 129
15223   4251 A1          	db 161
15224   4252 FD          	db 253
15225   4253 FB          	db 251
15226   4254 FF          	db 255
15227   4255 4B          	db 75
15228   4256 F8          	db 248
15229   4257 7F          	db 127
15230   4258 03          	db 3
15231   4259 79          	db 121
15232   425A 00          	db 0
15233   425B 83          	db 131
15234   425C F1          	db 241
15235   425D 82          	db 130
15236   425E F2          	db 242
15237   425F 8B          	db 139
15238   4260 8A          	db 138
15239   4261 ED          	db 237
15240   4262 F3          	db 243
15241   4263 D6          	db 214
15242   4264 BE          	db 190
15243   4265 02          	db 2
15244   4266 72          	db 114
15245   4267 FF          	db 255
15246   4268 01          	db 1
15247   4269 DD          	db 221
15248   426A A4          	db 164
15249   426B 08          	db 8
15250   426C 67          	db 103
15251   426D AC          	db 172
15252   426E FF          	db 255
15253   426F EF          	db 239
15254   4270 09          	db 9
15255   4271 E3          	db 227
15256   4272 EC          	db 236
15257   4273 29          	db 41
15258   4274 00          	db 0
15259   4275 8C          	db 140
15260   4276 33          	db 51
15261   4277 FF          	db 255
15262   4278 FC          	db 252
15263   4279 FD          	db 253
15264   427A F8          	db 248
15265   427B 79          	db 121
15266   427C F4          	db 244
15267   427D 85          	db 133
15268   427E 59          	db 89
15269   427F 00          	db 0
15270   4280 60          	db 96
15271   4281 63          	db 99
15272   4282 7E          	db 126
15273   4283 00          	db 0
15274   4284 C1          	db 193
15275   4285 F1          	db 241
15276   4286 FF          	db 255
15277   4287 00          	db 0
15278   4288 63          	db 99
15279   4289 06          	db 6
15280   428A FF          	db 255
15281   428B 06          	db 6
15282   428C E2          	db 226
15283   428D 00          	db 0
15284   428E E0          	db 224
15285   428F F5          	db 245
15286   4290 FD          	db 253
15287   4291 E7          	db 231
15288   4292 8C          	db 140
15289   4293 18          	db 24
15290   4294 1A          	db 26
15291   4295 AC          	db 172
15292   4296 58          	db 88
15293   4297 D4          	db 212
15294   4298 18          	db 24
15295   4299 DE          	db 222
15296   429A 00          	db 0
15297   429B C7          	db 199
15298   429C C7          	db 199
15299   429D 66          	db 102
15300   429E 71          	db 113
15301   429F FD          	db 253
15302   42A0 96          	db 150
15303   42A1 28          	db 40
15304   42A2 65          	db 101
15305   42A3 D6          	db 214
15306   42A4 18          	db 24
15307   42A5 FF          	db 255
15308   42A6 C0          	db 192
15309   42A7 DB          	db 219
15310   42A8 FF          	db 255
15311   42A9 00          	db 0
15312   42AA C0          	db 192
15313   42AB CF          	db 207
15314   42AC 8C          	db 140
15315   42AD 1E          	db 30
15316   42AE 8F          	db 143
15317   42AF 8C          	db 140
15318   42B0 FD          	db 253
15319   42B1 2C          	db 44
15320   42B2 AC          	db 172
15321   42B3 EA          	db 234
15322   42B4 80          	db 128
15323   42B5 0B          	db 11
15324   42B6 E0          	db 224
15325   42B7 03          	db 3
15326   42B8 1B          	db 27
15327   42B9 DB          	db 219
15328   42BA 00          	db 0
15329   42BB 3F          	db 63
15330   42BC 31          	db 49
15331   42BD CC          	db 204
15332   42BE FF          	db 255
15333   42BF 21          	db 33
15334   42C0 4C          	db 76
15335   42C1 00          	db 0
15336   42C2 60          	db 96
15337   42C3 FF          	db 255
15338   42C4 E0          	db 224
15339   42C5 44          	db 68
15340   42C6 FF          	db 255
15341   42C7 68          	db 104
15342   42C8 BE          	db 190
15343   42C9 60          	db 96
15344   42CA 61          	db 97
15345   42CB 79          	db 121
15346   42CC 00          	db 0
15347   42CD 9F          	db 159
15348   42CE 76          	db 118
15349   42CF E7          	db 231
15350   42D0 3D          	db 61
15351   42D1 FC          	db 252
15352   42D2 00          	db 0
15353   42D3 07          	db 7
15354   42D4 06          	db 6
15355   42D5 79          	db 121
15356   42D6 03          	db 3
15357   42D7 FF          	db 255
15358   42D8 60          	db 96
15359   42D9 6B          	db 107
15360   42DA E2          	db 226
15361   42DB 00          	db 0
15362   42DC FF          	db 255
15363   42DD C5          	db 197
15364   42DE D1          	db 209
15365   42DF 00          	db 0
15366   42E0 04          	db 4
15367   42E1 EC          	db 236
15368   42E2 05          	db 5
15369   42E3 A1          	db 161
15370   42E4 FF          	db 255
15371   42E5 F1          	db 241
15372   42E6 B0          	db 176
15373   42E7 03          	db 3
15374   42E8 36          	db 54
15375   42E9 18          	db 24
15376   42EA 00          	db 0
15377   42EB 80          	db 128
15378   42EC 9F          	db 159
15379   42ED CC          	db 204
15380   42EE A5          	db 165
15381   42EF FF          	db 255
15382   42F0 7F          	db 127
15383   42F1 81          	db 129
15384   42F2 A5          	db 165
15385   42F3 B6          	db 182
15386   42F4 00          	db 0
15387   42F5 2A          	db 42
15388   42F6 47          	db 71
15389   42F7 60          	db 96
15390   42F8 73          	db 115
15391   42F9 E5          	db 229
15392   42FA 00          	db 0
15393   42FB 8E          	db 142
15394   42FC 18          	db 24
15395   42FD 47          	db 71
15396   42FE 1F          	db 31
15397   42FF AB          	db 171
15398   4300 00          	db 0
15399   4301 FE          	db 254
15400   4302 26          	db 38
15401   4303 A8          	db 168
15402   4304 18          	db 24
15403   4305 EB          	db 235
15404   4306 C0          	db 192
15405   4307 EE          	db 238
15406   4308 F3          	db 243
15407   4309 00          	db 0
15408   430A 1F          	db 31
15409   430B CB          	db 203
15410   430C 00          	db 0
15411   430D F0          	db 240
15412   430E C8          	db 200
15413   430F C0          	db 192
15414   4310 EC          	db 236
15415   4311 DB          	db 219
15416   4312 00          	db 0
15417   4313 CB          	db 203
15418   4314 0D          	db 13
15419   4315 2F          	db 47
15420   4316 04          	db 4
15421   4317 3C          	db 60
15422   4318 FC          	db 252
15423   4319 BE          	db 190
15424   431A C0          	db 192
15425   431B F0          	db 240
15426   431C 65          	db 101
15427   431D 00          	db 0
15428   431E 03          	db 3
15429   431F 06          	db 6
15430   4320 FC          	db 252
15431   4321 54          	db 84
15432   4322 F0          	db 240
15433   4323 26          	db 38
15434   4324 99          	db 153
15435   4325 00          	db 0
15436   4326 60          	db 96
15437   4327 69          	db 105
15438   4328 7A          	db 122
15439   4329 00          	db 0
15440   432A 0F          	db 15
15441   432B C5          	db 197
15442   432C C6          	db 198
15443   432D 00          	db 0
15444   432E E4          	db 228
15445   432F 0A          	db 10
15446   4330 CA          	db 202
15447   4331 76          	db 118
15448   4332 FF          	db 255
15449   4333 09          	db 9
15450   4334 08          	db 8
15451   4335 07          	db 7
15452   4336 06          	db 6
15453   4337 37          	db 55
15454   4338 F1          	db 241
15455   4339 00          	db 0
15456   433A FC          	db 252
15457   433B 80          	db 128
15458   433C E4          	db 228
15459   433D F8          	db 248
15460   433E FD          	db 253
15461   433F 26          	db 38
15462   4340 52          	db 82
15463   4341 E0          	db 224
15464   4342 3F          	db 63
15465   4343 CC          	db 204
15466   4344 30          	db 48
15467   4345 D2          	db 210
15468   4346 37          	db 55
15469   4347 37          	db 55
15470   4348 00          	db 0
15471   4349 99          	db 153
15472   434A 8E          	db 142
15473   434B D9          	db 217
15474   434C 2C          	db 44
15475   434D 19          	db 25
15476   434E B2          	db 178
15477   434F FF          	db 255
15478   4350 56          	db 86
15479   4351 E1          	db 225
15480   4352 01          	db 1
15481   4353 62          	db 98
15482   4354 FF          	db 255
15483   4355 00          	db 0
15484   4356 C0          	db 192
15485   4357 DC          	db 220
15486   4358 96          	db 150
15487   4359 00          	db 0
15488   435A 1F          	db 31
15489   435B 98          	db 152
15490   435C 3A          	db 58
15491   435D 58          	db 88
15492   435E FD          	db 253
15493   435F 18          	db 24
15494   4360 1E          	db 30
15495   4361 F0          	db 240
15496   4362 00          	db 0
15497   4363 C7          	db 199
15498   4364 7F          	db 127
15499   4365 61          	db 97
15500   4366 71          	db 113
15501   4367 FD          	db 253
15502   4368 94          	db 148
15503   4369 E0          	db 224
15504   436A D9          	db 217
15505   436B FC          	db 252
15506   436C 04          	db 4
15507   436D 05          	db 5
15508   436E FF          	db 255
15509   436F 86          	db 134
15510   4370 F2          	db 242
15511   4371 06          	db 6
15512   4372 E3          	db 227
15513   4373 00          	db 0
15514   4374 7C          	db 124
15515   4375 C6          	db 198
15516   4376 70          	db 112
15517   4377 FF          	db 255
15518   4378 26          	db 38
15519   4379 16          	db 22
15520   437A 45          	db 69
15521   437B 00          	db 0
15522   437C 51          	db 81
15523   437D DB          	db 219
15524   437E 81          	db 129
15525   437F 8D          	db 141
15526   4380 E9          	db 233
15527   4381 00          	db 0
15528   4382 0C          	db 12
15529   4383 FF          	db 255
15530   4384 A3          	db 163
15531   4385 FC          	db 252
15532   4386 FC          	db 252
15533   4387 08          	db 8
15534   4388 57          	db 87
15535   4389 00          	db 0
15536   438A C0          	db 192
15537   438B 03          	db 3
15538   438C 09          	db 9
15539   438D 29          	db 41
15540   438E FF          	db 255
15541   438F 05          	db 5
15542   4390 FE          	db 254
15543   4391 60          	db 96
15544   4392 64          	db 100
15545   4393 66          	db 102
15546   4394 00          	db 0
15547   4395 03          	db 3
15548   4396 D0          	db 208
15549   4397 FF          	db 255
15550   4398 C2          	db 194
15551   4399 17          	db 23
15552   439A 00          	db 0
15553   439B 0F          	db 15
15554   439C 0C          	db 12
15555   439D 06          	db 6
15556   439E AD          	db 173
15557   439F 03          	db 3
15558   43A0 85          	db 133
15559   43A1 F2          	db 242
15560   43A2 07          	db 7
15561   43A3 60          	db 96
15562   43A4 69          	db 105
15563   43A5 61          	db 97
15564   43A6 00          	db 0
15565   43A7 8E          	db 142
15566   43A8 A3          	db 163
15567   43A9 00          	db 0
15568   43AA 10          	db 16
15569   43AB D9          	db 217
15570   43AC 14          	db 20
15571   43AD 4E          	db 78
15572   43AE FF          	db 255
15573   43AF 13          	db 19
15574   43B0 10          	db 16
15575   43B1 0F          	db 15
15576   43B2 D9          	db 217
15577   43B3 E6          	db 230
15578   43B4 20          	db 32
15579   43B5 B3          	db 179
15580   43B6 28          	db 40
15581   43B7 D6          	db 214
15582   43B8 FF          	db 255
15583   43B9 2F          	db 47
15584   43BA 04          	db 4
15585   43BB FA          	db 250
15586   43BC EC          	db 236
15587   43BD 3F          	db 63
15588   43BE C6          	db 198
15589   43BF D6          	db 214
15590   43C0 00          	db 0
15591   43C1 7F          	db 127
15592   43C2 13          	db 19
15593   43C3 E5          	db 229
15594   43C4 00          	db 0
15595   43C5 81          	db 129
15596   43C6 A6          	db 166
15597   43C7 FF          	db 255
15598   43C8 B3          	db 179
15599   43C9 02          	db 2
15600   43CA 16          	db 22
15601   43CB FF          	db 255
15602   43CC 01          	db 1
15603   43CD 0F          	db 15
15604   43CE 2B          	db 43
15605   43CF 00          	db 0
15606   43D0 E0          	db 224
15607   43D1 3D          	db 61
15608   43D2 FF          	db 255
15609   43D3 00          	db 0
15610   43D4 A7          	db 167
15611   43D5 F0          	db 240
15612   43D6 FF          	db 255
15613   43D7 10          	db 16
15614   43D8 B0          	db 176
15615   43D9 80          	db 128
15616   43DA 67          	db 103
15617   43DB B1          	db 177
15618   43DC E7          	db 231
15619   43DD F0          	db 240
15620   43DE F8          	db 248
15621   43DF C5          	db 197
15622   43E0 02          	db 2
15623   43E1 40          	db 64
15624   43E2 71          	db 113
15625   43E3 FF          	db 255
15626   43E4 4C          	db 76
15627   43E5 FE          	db 254
15628   43E6 90          	db 144
15629   43E7 FA          	db 250
15630   43E8 B0          	db 176
15631   43E9 F6          	db 246
15632   43EA 8D          	db 141
15633   43EB A0          	db 160
15634   43EC F8          	db 248
15635   43ED 64          	db 100
15636   43EE ED          	db 237
15637   43EF EA          	db 234
15638   43F0 69          	db 105
15639   43F1 08          	db 8
15640   43F2 87          	db 135
15641   43F3 B9          	db 185
15642   43F4 00          	db 0
15643   43F5 62          	db 98
15644   43F6 92          	db 146
15645   43F7 D7          	db 215
15646   43F8 EC          	db 236
15647   43F9 F0          	db 240
15648   43FA D8          	db 216
15649   43FB A8          	db 168
15650   43FC 35          	db 53
15651   43FD 72          	db 114
15652   43FE FE          	db 254
15653   43FF F8          	db 248
15654   4400 38          	db 56
15655   4401 C8          	db 200
15656   4402 2D          	db 45
15657   4403 3B          	db 59
15658   4404 A6          	db 166
15659   4405 90          	db 144
15660   4406 CD          	db 205
15661   4407 BF          	db 191
15662   4408 62          	db 98
15663   4409 80          	db 128
15664   440A C3          	db 195
15665   440B E1          	db 225
15666   440C 5B          	db 91
15667   440D 79          	db 121
15668   440E 09          	db 9
15669   440F 98          	db 152
15670   4410 E8          	db 232
15671   4411 8E          	db 142
15672   4412 03          	db 3
15673   4413 FF          	db 255
15674   4414 E3          	db 227
15675   4415 56          	db 86
15676   4416 06          	db 6
15677   4417 0F          	db 15
15678   4418 30          	db 48
15679   4419 D9          	db 217
15680   441A 3E          	db 62
15681   441B FF          	db 255
15682   441C 61          	db 97
15683   441D 86          	db 134
15684   441E 58          	db 88
15685   441F 00          	db 0
15686   4420 FB          	db 251
15687   4421 02          	db 2
15688   4422 FE          	db 254
15689   4423 FF          	db 255
15690   4424 26          	db 38
15691   4425 FF          	db 255
15692   4426 FC          	db 252
15693   4427 FD          	db 253
15694   4428 C2          	db 194
15695   4429 90          	db 144
15696   442A FC          	db 252
15697   442B 4D          	db 77
15698   442C 92          	db 146
15699   442D F4          	db 244
15700   442E 3F          	db 63
15701   442F 30          	db 48
15702   4430 E4          	db 228
15703   4431 C3          	db 195
15704   4432 F2          	db 242
15705   4433 A3          	db 163
15706   4434 14          	db 20
15707   4435 FF          	db 255
15708   4436 BF          	db 191
15709   4437 21          	db 33
15710   4438 E4          	db 228
15711   4439 8F          	db 143
15712   443A 0E          	db 14
15713   443B 1F          	db 31
15714   443C 1E          	db 30
15715   443D CE          	db 206
15716   443E 17          	db 23
15717   443F 10          	db 16
15718   4440 EB          	db 235
15719   4441 3F          	db 63
15720   4442 9C          	db 156
15721   4443 DF          	db 223
15722   4444 FF          	db 255
15723   4445 BF          	db 191
15724   4446 7F          	db 127
15725   4447 2F          	db 47
15726   4448 5F          	db 95
15727   4449 5E          	db 94
15728   444A DC          	db 220
15729   444B 30          	db 48
15730   444C 38          	db 56
15731   444D E6          	db 230
15732   444E E0          	db 224
15733   444F 00          	db 0
15734   4450 CB          	db 203
15735   4451 EB          	db 235
15736   4452 9D          	db 157
15737   4453 E3          	db 227
15738   4454 D2          	db 210
15739   4455 DA          	db 218
15740   4456 70          	db 112
15741   4457 98          	db 152
15742   4458 8B          	db 139
15743   4459 7C          	db 124
15744   445A 00          	db 0
15745   445B 4B          	db 75
15746   445C F8          	db 248
15747   445D 80          	db 128
15748   445E D6          	db 214
15749   445F FF          	db 255
15750   4460 E0          	db 224
15751   4461 3D          	db 61
15752   4462 96          	db 150
15753   4463 00          	db 0
15754   4464 3E          	db 62
15755   4465 FF          	db 255
15756   4466 D8          	db 216
15757   4467 1F          	db 31
15758   4468 FF          	db 255
15759   4469 70          	db 112
15760   446A FF          	db 255
15761   446B 4C          	db 76
15762   446C 82          	db 130
15763   446D F0          	db 240
15764   446E F9          	db 249
15765   446F 70          	db 112
15766   4470 34          	db 52
15767   4471 30          	db 48
15768   4472 10          	db 16
15769   4473 FF          	db 255
15770   4474 73          	db 115
15771   4475 B8          	db 184
15772   4476 7F          	db 127
15773   4477 07          	db 7
15774   4478 7E          	db 126
15775   4479 81          	db 129
15776   447A 50          	db 80
15777   447B E9          	db 233
15778   447C C0          	db 192
15779   447D BF          	db 191
15780   447E E0          	db 224
15781   447F 00          	db 0
15782   4480 EF          	db 239
15783   4481 E3          	db 227
15784   4482 F7          	db 247
15785   4483 E2          	db 226
15786   4484 D2          	db 210
15787   4485 F1          	db 241
15788   4486 DD          	db 221
15789   4487 62          	db 98
15790   4488 1F          	db 31
15791   4489 FF          	db 255
15792   448A 3F          	db 63
15793   448B 00          	db 0
15794   448C 3A          	db 58
15795   448D 7A          	db 122
15796   448E DA          	db 218
15797   448F AA          	db 170
15798   4490 1C          	db 28
15799   4491 58          	db 88
15800   4492 FA          	db 250
15801   4493 F8          	db 248
15802   4494 75          	db 117
15803   4495 02          	db 2
15804   4496 F1          	db 241
15805   4497 07          	db 7
15806   4498 58          	db 88
15807   4499 22          	db 34
15808   449A 28          	db 40
15809   449B 00          	db 0
15810   449C F8          	db 248
15811   449D 03          	db 3
15812   449E 6C          	db 108
15813   449F FD          	db 253
15814   44A0 FB          	db 251
15815   44A1 58          	db 88
15816   44A2 00          	db 0
15817   44A3 B2          	db 178
15818   44A4 00          	db 0
15819   44A5 C2          	db 194
15820   44A6 41          	db 65
15821   44A7 00          	db 0
15822   44A8 51          	db 81
15823   44A9 F1          	db 241
15824   44AA 1F          	db 31
15825   44AB 7F          	db 127
15826   44AC DF          	db 223
15827   44AD AB          	db 171
15828   44AE AC          	db 172
15829   44AF AD          	db 173
15830   44B0 29          	db 41
15831   44B1 04          	db 4
15832   44B2 FC          	db 252
15833   44B3 DD          	db 221
15834   44B4 F4          	db 244
15835   44B5 FC          	db 252
15836   44B6 FE          	db 254
15837   44B7 E0          	db 224
15838   44B8 9F          	db 159
15839   44B9 7F          	db 127
15840   44BA 3F          	db 63
15841   44BB 2F          	db 47
15842   44BC 26          	db 38
15843   44BD 1C          	db 28
15844   44BE D7          	db 215
15845   44BF CC          	db 204
15846   44C0 20          	db 32
15847   44C1 8F          	db 143
15848   44C2 48          	db 72
15849   44C3 16          	db 22
15850   44C4 0F          	db 15
15851   44C5 0B          	db 11
15852   44C6 E4          	db 228
15853   44C7 07          	db 7
15854   44C8 2D          	db 45
15855   44C9 07          	db 7
15856   44CA 03          	db 3
15857   44CB 8A          	db 138
15858   44CC F1          	db 241
15859   44CD 64          	db 100
15860   44CE 87          	db 135
15861   44CF EE          	db 238
15862   44D0 00          	db 0
15863   44D1 80          	db 128
15864   44D2 BC          	db 188
15865   44D3 A2          	db 162
15866   44D4 3B          	db 59
15867   44D5 8F          	db 143
15868   44D6 FD          	db 253
15869   44D7 32          	db 50
15870   44D8 F2          	db 242
15871   44D9 F0          	db 240
15872   44DA D6          	db 214
15873   44DB F3          	db 243
15874   44DC 8B          	db 139
15875   44DD 7C          	db 124
15876   44DE B0          	db 176
15877   44DF 00          	db 0
15878   44E0 2D          	db 45
15879   44E1 8C          	db 140
15880   44E2 FF          	db 255
15881   44E3 7F          	db 127
15882   44E4 F6          	db 246
15883   44E5 00          	db 0
15884   44E6 0F          	db 15
15885   44E7 9B          	db 155
15886   44E8 EC          	db 236
15887   44E9 63          	db 99
15888   44EA 39          	db 57
15889   44EB 00          	db 0
15890   44EC 60          	db 96
15891   44ED 61          	db 97
15892   44EE 2C          	db 44
15893   44EF 00          	db 0
15894   44F0 04          	db 4
15895   44F1 C5          	db 197
15896   44F2 FF          	db 255
15897   44F3 03          	db 3
15898   44F4 85          	db 133
15899   44F5 B9          	db 185
15900   44F6 00          	db 0
15901   44F7 D8          	db 216
15902   44F8 7F          	db 127
15903   44F9 80          	db 128
15904   44FA 1C          	db 28
15905   44FB 99          	db 153
15906   44FC 00          	db 0
15907   44FD 60          	db 96
15908   44FE 74          	db 116
15909   44FF 98          	db 152
15910   4500 FF          	db 255
15911   4501 04          	db 4
15912   4502             imgBalls: 
15913   4502 FF          	db 255
15914   4503 FC          	db 252
15915   4504 F0          	db 240
15916   4505 E6          	db 230
15917   4506 CE          	db 206
15918   4507 CC          	db 204
15919   4508 80          	db 128
15920   4509 80          	db 128
15921   450A 80          	db 128
15922   450B 80          	db 128
15923   450C C0          	db 192
15924   450D C0          	db 192
15925   450E E0          	db 224
15926   450F F0          	db 240
15927   4510 FC          	db 252
15928   4511 FF          	db 255
15929   4512 FF          	db 255
15930   4513 3F          	db 63
15931   4514 0F          	db 15
15932   4515 07          	db 7
15933   4516 03          	db 3
15934   4517 03          	db 3
15935   4518 01          	db 1
15936   4519 01          	db 1
15937   451A 01          	db 1
15938   451B 01          	db 1
15939   451C 03          	db 3
15940   451D 03          	db 3
15941   451E 07          	db 7
15942   451F 0F          	db 15
15943   4520 3F          	db 63
15944   4521 FF          	db 255
15945   4522 00          	db 0
15946   4523 00          	db 0
15947   4524 03          	db 3
15948   4525 0F          	db 15
15949   4526 1F          	db 31
15950   4527 1F          	db 31
15951   4528 3F          	db 63
15952   4529 3F          	db 63
15953   452A 3F          	db 63
15954   452B 3F          	db 63
15955   452C 1F          	db 31
15956   452D 1E          	db 30
15957   452E 00          	db 0
15958   452F 00          	db 0
15959   4530 00          	db 0
15960   4531 00          	db 0
15961   4532 00          	db 0
15962   4533 00          	db 0
15963   4534 C0          	db 192
15964   4535 F0          	db 240
15965   4536 F0          	db 240
15966   4537 F0          	db 240
15967   4538 F0          	db 240
15968   4539 E0          	db 224
15969   453A E0          	db 224
15970   453B C0          	db 192
15971   453C 80          	db 128
15972   453D 00          	db 0
15973   453E 00          	db 0
15974   453F 00          	db 0
15975   4540 00          	db 0
15976   4541 00          	db 0
15977   4542 FF          	db 255
15978   4543 FF          	db 255
15979   4544 FC          	db 252
15980   4545 F0          	db 240
15981   4546 E6          	db 230
15982   4547 EC          	db 236
15983   4548 C0          	db 192
15984   4549 C0          	db 192
15985   454A C0          	db 192
15986   454B E0          	db 224
15987   454C E0          	db 224
15988   454D E0          	db 224
15989   454E F0          	db 240
15990   454F FC          	db 252
15991   4550 FF          	db 255
15992   4551 FF          	db 255
15993   4552 FF          	db 255
15994   4553 FF          	db 255
15995   4554 3F          	db 63
15996   4555 0F          	db 15
15997   4556 07          	db 7
15998   4557 07          	db 7
15999   4558 03          	db 3
16000   4559 03          	db 3
16001   455A 03          	db 3
16002   455B 03          	db 3
16003   455C 07          	db 7
16004   455D 07          	db 7
16005   455E 0F          	db 15
16006   455F 3F          	db 63
16007   4560 FF          	db 255
16008   4561 FF          	db 255
16009   4562 00          	db 0
16010   4563 00          	db 0
16011   4564 00          	db 0
16012   4565 03          	db 3
16013   4566 0F          	db 15
16014   4567 0F          	db 15
16015   4568 1F          	db 31
16016   4569 1F          	db 31
16017   456A 1F          	db 31
16018   456B 0F          	db 15
16019   456C 0F          	db 15
16020   456D 00          	db 0
16021   456E 00          	db 0
16022   456F 00          	db 0
16023   4570 00          	db 0
16024   4571 00          	db 0
16025   4572 00          	db 0
16026   4573 00          	db 0
16027   4574 00          	db 0
16028   4575 C0          	db 192
16029   4576 F0          	db 240
16030   4577 F0          	db 240
16031   4578 F0          	db 240
16032   4579 E0          	db 224
16033   457A E0          	db 224
16034   457B C0          	db 192
16035   457C 00          	db 0
16036   457D 00          	db 0
16037   457E 00          	db 0
16038   457F 00          	db 0
16039   4580 00          	db 0
16040   4581 00          	db 0
16041   4582 FF          	db 255
16042   4583 FF          	db 255
16043   4584 FF          	db 255
16044   4585 FE          	db 254
16045   4586 F8          	db 248
16046   4587 F2          	db 242
16047   4588 F4          	db 244
16048   4589 E0          	db 224
16049   458A E0          	db 224
16050   458B F0          	db 240
16051   458C F0          	db 240
16052   458D F8          	db 248
16053   458E FE          	db 254
16054   458F FF          	db 255
16055   4590 FF          	db 255
16056   4591 FF          	db 255
16057   4592 FF          	db 255
16058   4593 FF          	db 255
16059   4594 FF          	db 255
16060   4595 7F          	db 127
16061   4596 1F          	db 31
16062   4597 0F          	db 15
16063   4598 0F          	db 15
16064   4599 07          	db 7
16065   459A 07          	db 7
16066   459B 0F          	db 15
16067   459C 0F          	db 15
16068   459D 1F          	db 31
16069   459E 7F          	db 127
16070   459F FF          	db 255
16071   45A0 FF          	db 255
16072   45A1 FF          	db 255
16073   45A2 00          	db 0
16074   45A3 00          	db 0
16075   45A4 00          	db 0
16076   45A5 00          	db 0
16077   45A6 01          	db 1
16078   45A7 07          	db 7
16079   45A8 07          	db 7
16080   45A9 0F          	db 15
16081   45AA 0F          	db 15
16082   45AB 07          	db 7
16083   45AC 00          	db 0
16084   45AD 00          	db 0
16085   45AE 00          	db 0
16086   45AF 00          	db 0
16087   45B0 00          	db 0
16088   45B1 00          	db 0
16089   45B2 00          	db 0
16090   45B3 00          	db 0
16091   45B4 00          	db 0
16092   45B5 00          	db 0
16093   45B6 80          	db 128
16094   45B7 E0          	db 224
16095   45B8 E0          	db 224
16096   45B9 C0          	db 192
16097   45BA C0          	db 192
16098   45BB 00          	db 0
16099   45BC 00          	db 0
16100   45BD 00          	db 0
16101   45BE 00          	db 0
16102   45BF 00          	db 0
16103   45C0 00          	db 0
16104   45C1 00          	db 0
16105   45C2 FF          	db 255
16106   45C3 FF          	db 255
16107   45C4 FF          	db 255
16108   45C5 FF          	db 255
16109   45C6 FF          	db 255
16110   45C7 FF          	db 255
16111   45C8 FE          	db 254
16112   45C9 FD          	db 253
16113   45CA FC          	db 252
16114   45CB FC          	db 252
16115   45CC FE          	db 254
16116   45CD FF          	db 255
16117   45CE FF          	db 255
16118   45CF FF          	db 255
16119   45D0 FF          	db 255
16120   45D1 FF          	db 255
16121   45D2 FF          	db 255
16122   45D3 FF          	db 255
16123   45D4 FF          	db 255
16124   45D5 FF          	db 255
16125   45D6 FF          	db 255
16126   45D7 FF          	db 255
16127   45D8 3F          	db 63
16128   45D9 1F          	db 31
16129   45DA 1F          	db 31
16130   45DB 1F          	db 31
16131   45DC 3F          	db 63
16132   45DD FF          	db 255
16133   45DE FF          	db 255
16134   45DF FF          	db 255
16135   45E0 FF          	db 255
16136   45E1 FF          	db 255
16137   45E2 00          	db 0
16138   45E3 00          	db 0
16139   45E4 00          	db 0
16140   45E5 00          	db 0
16141   45E6 00          	db 0
16142   45E7 00          	db 0
16143   45E8 00          	db 0
16144   45E9 01          	db 1
16145   45EA 01          	db 1
16146   45EB 01          	db 1
16147   45EC 00          	db 0
16148   45ED 00          	db 0
16149   45EE 00          	db 0
16150   45EF 00          	db 0
16151   45F0 00          	db 0
16152   45F1 00          	db 0
16153   45F2 00          	db 0
16154   45F3 00          	db 0
16155   45F4 00          	db 0
16156   45F5 00          	db 0
16157   45F6 00          	db 0
16158   45F7 00          	db 0
16159   45F8 00          	db 0
16160   45F9 C0          	db 192
16161   45FA 80          	db 128
16162   45FB 00          	db 0
16163   45FC 00          	db 0
16164   45FD 00          	db 0
16165   45FE 00          	db 0
16166   45FF 00          	db 0
16167   4600 00          	db 0
16168   4601 00          	db 0
16169   4602 FF          	db 255
16170   4603 FF          	db 255
16171   4604 FF          	db 255
16172   4605 FF          	db 255
16173   4606 FF          	db 255
16174   4607 FF          	db 255
16175   4608 FF          	db 255
16176   4609 FE          	db 254
16177   460A FC          	db 252
16178   460B FE          	db 254
16179   460C FF          	db 255
16180   460D FF          	db 255
16181   460E FF          	db 255
16182   460F FF          	db 255
16183   4610 FF          	db 255
16184   4611 FF          	db 255
16185   4612 FF          	db 255
16186   4613 FF          	db 255
16187   4614 FF          	db 255
16188   4615 FF          	db 255
16189   4616 FF          	db 255
16190   4617 FF          	db 255
16191   4618 FF          	db 255
16192   4619 FF          	db 255
16193   461A 7F          	db 127
16194   461B FF          	db 255
16195   461C FF          	db 255
16196   461D FF          	db 255
16197   461E FF          	db 255
16198   461F FF          	db 255
16199   4620 FF          	db 255
16200   4621 FF          	db 255
16201   4622 00          	db 0
16202   4623 00          	db 0
16203   4624 00          	db 0
16204   4625 00          	db 0
16205   4626 00          	db 0
16206   4627 00          	db 0
16207   4628 00          	db 0
16208   4629 00          	db 0
16209   462A 01          	db 1
16210   462B 00          	db 0
16211   462C 00          	db 0
16212   462D 00          	db 0
16213   462E 00          	db 0
16214   462F 00          	db 0
16215   4630 00          	db 0
16216   4631 00          	db 0
16217   4632 00          	db 0
16218   4633 00          	db 0
16219   4634 00          	db 0
16220   4635 00          	db 0
16221   4636 00          	db 0
16222   4637 00          	db 0
16223   4638 00          	db 0
16224   4639 00          	db 0
16225   463A 00          	db 0
16226   463B 00          	db 0
16227   463C 00          	db 0
16228   463D 00          	db 0
16229   463E 00          	db 0
16230   463F 00          	db 0
16231   4640 00          	db 0
16232   4641 00          	db 0
16233   4642 FF          	db 255
16234   4643 FB          	db 251
16235   4644 E1          	db 225
16236   4645 C1          	db 193
16237   4646 99          	db 153
16238   4647 81          	db 129
16239   4648 C3          	db 195
16240   4649 FF          	db 255
16241   464A FF          	db 255
16242   464B C3          	db 195
16243   464C 81          	db 129
16244   464D 81          	db 129
16245   464E C1          	db 193
16246   464F E1          	db 225
16247   4650 FB          	db 251
16248   4651 FF          	db 255
16249   4652 FF          	db 255
16250   4653 DF          	db 223
16251   4654 87          	db 135
16252   4655 83          	db 131
16253   4656 81          	db 129
16254   4657 81          	db 129
16255   4658 C3          	db 195
16256   4659 FF          	db 255
16257   465A FF          	db 255
16258   465B C3          	db 195
16259   465C 81          	db 129
16260   465D 81          	db 129
16261   465E 83          	db 131
16262   465F 87          	db 135
16263   4660 DF          	db 223
16264   4661 FF          	db 255
16265   4662 00          	db 0
16266   4663 00          	db 0
16267   4664 00          	db 0
16268   4665 1C          	db 28
16269   4666 38          	db 56
16270   4667 30          	db 48
16271   4668 00          	db 0
16272   4669 00          	db 0
16273   466A 00          	db 0
16274   466B 00          	db 0
16275   466C 3C          	db 60
16276   466D 08          	db 8
16277   466E 00          	db 0
16278   466F 00          	db 0
16279   4670 00          	db 0
16280   4671 00          	db 0
16281   4672 00          	db 0
16282   4673 00          	db 0
16283   4674 20          	db 32
16284   4675 38          	db 56
16285   4676 38          	db 56
16286   4677 20          	db 32
16287   4678 00          	db 0
16288   4679 00          	db 0
16289   467A 00          	db 0
16290   467B 00          	db 0
16291   467C 30          	db 48
16292   467D 30          	db 48
16293   467E 00          	db 0
16294   467F 00          	db 0
16295   4680 00          	db 0
16296   4681 00          	db 0
16297   4682 FF          	db 255
16298   4683 FF          	db 255
16299   4684 E7          	db 231
16300   4685 D3          	db 211
16301   4686 83          	db 131
16302   4687 C7          	db 199
16303   4688 FF          	db 255
16304   4689 FF          	db 255
16305   468A FF          	db 255
16306   468B FF          	db 255
16307   468C C7          	db 199
16308   468D 83          	db 131
16309   468E C3          	db 195
16310   468F E7          	db 231
16311   4690 FF          	db 255
16312   4691 FF          	db 255
16313   4692 FF          	db 255
16314   4693 FF          	db 255
16315   4694 E7          	db 231
16316   4695 C3          	db 195
16317   4696 C1          	db 193
16318   4697 E3          	db 227
16319   4698 FF          	db 255
16320   4699 FF          	db 255
16321   469A FF          	db 255
16322   469B FF          	db 255
16323   469C E3          	db 227
16324   469D C1          	db 193
16325   469E C3          	db 195
16326   469F E7          	db 231
16327   46A0 FF          	db 255
16328   46A1 FF          	db 255
16329   46A2 00          	db 0
16330   46A3 00          	db 0
16331   46A4 00          	db 0
16332   46A5 18          	db 24
16333   46A6 30          	db 48
16334   46A7 00          	db 0
16335   46A8 00          	db 0
16336   46A9 00          	db 0
16337   46AA 00          	db 0
16338   46AB 00          	db 0
16339   46AC 00          	db 0
16340   46AD 18          	db 24
16341   46AE 10          	db 16
16342   46AF 00          	db 0
16343   46B0 00          	db 0
16344   46B1 00          	db 0
16345   46B2 00          	db 0
16346   46B3 00          	db 0
16347   46B4 00          	db 0
16348   46B5 18          	db 24
16349   46B6 18          	db 24
16350   46B7 00          	db 0
16351   46B8 00          	db 0
16352   46B9 00          	db 0
16353   46BA 00          	db 0
16354   46BB 00          	db 0
16355   46BC 00          	db 0
16356   46BD 18          	db 24
16357   46BE 10          	db 16
16358   46BF 00          	db 0
16359   46C0 00          	db 0
16360   46C1 00          	db 0
16361   46C2 FF          	db 255
16362   46C3 FF          	db 255
16363   46C4 DF          	db 223
16364   46C5 8F          	db 143
16365   46C6 DF          	db 223
16366   46C7 FF          	db 255
16367   46C8 FF          	db 255
16368   46C9 FF          	db 255
16369   46CA FF          	db 255
16370   46CB FF          	db 255
16371   46CC FF          	db 255
16372   46CD DF          	db 223
16373   46CE 8F          	db 143
16374   46CF DF          	db 223
16375   46D0 FF          	db 255
16376   46D1 FF          	db 255
16377   46D2 FF          	db 255
16378   46D3 FF          	db 255
16379   46D4 FB          	db 251
16380   46D5 F1          	db 241
16381   46D6 FB          	db 251
16382   46D7 FF          	db 255
16383   46D8 FF          	db 255
16384   46D9 FF          	db 255
16385   46DA FF          	db 255
16386   46DB FF          	db 255
16387   46DC FF          	db 255
16388   46DD FB          	db 251
16389   46DE F1          	db 241
16390   46DF FB          	db 251
16391   46E0 FF          	db 255
16392   46E1 FF          	db 255
16393   46E2 00          	db 0
16394   46E3 00          	db 0
16395   46E4 00          	db 0
16396   46E5 20          	db 32
16397   46E6 00          	db 0
16398   46E7 00          	db 0
16399   46E8 00          	db 0
16400   46E9 00          	db 0
16401   46EA 00          	db 0
16402   46EB 00          	db 0
16403   46EC 00          	db 0
16404   46ED 00          	db 0
16405   46EE 20          	db 32
16406   46EF 00          	db 0
16407   46F0 00          	db 0
16408   46F1 00          	db 0
16409   46F2 00          	db 0
16410   46F3 00          	db 0
16411   46F4 00          	db 0
16412   46F5 04          	db 4
16413   46F6 00          	db 0
16414   46F7 00          	db 0
16415   46F8 00          	db 0
16416   46F9 00          	db 0
16417   46FA 00          	db 0
16418   46FB 00          	db 0
16419   46FC 00          	db 0
16420   46FD 00          	db 0
16421   46FE 04          	db 4
16422   46FF 00          	db 0
16423   4700 00          	db 0
16424   4701 00          	db 0
16425   4702 FF          	db 255
16426   4703 FF          	db 255
16427   4704 FC          	db 252
16428   4705 F0          	db 240
16429   4706 E6          	db 230
16430   4707 CE          	db 206
16431   4708 8C          	db 140
16432   4709 80          	db 128
16433   470A 80          	db 128
16434   470B 80          	db 128
16435   470C 80          	db 128
16436   470D C0          	db 192
16437   470E E0          	db 224
16438   470F F0          	db 240
16439   4710 FC          	db 252
16440   4711 FF          	db 255
16441   4712 FF          	db 255
16442   4713 FF          	db 255
16443   4714 3F          	db 63
16444   4715 0F          	db 15
16445   4716 07          	db 7
16446   4717 03          	db 3
16447   4718 01          	db 1
16448   4719 01          	db 1
16449   471A 01          	db 1
16450   471B 01          	db 1
16451   471C 01          	db 1
16452   471D 03          	db 3
16453   471E 07          	db 7
16454   471F 0F          	db 15
16455   4720 3F          	db 63
16456   4721 FF          	db 255
16457   4722 00          	db 0
16458   4723 00          	db 0
16459   4724 00          	db 0
16460   4725 03          	db 3
16461   4726 0F          	db 15
16462   4727 1F          	db 31
16463   4728 3F          	db 63
16464   4729 3F          	db 63
16465   472A 3F          	db 63
16466   472B 3F          	db 63
16467   472C 3F          	db 63
16468   472D 1E          	db 30
16469   472E 00          	db 0
16470   472F 00          	db 0
16471   4730 00          	db 0
16472   4731 00          	db 0
16473   4732 00          	db 0
16474   4733 00          	db 0
16475   4734 00          	db 0
16476   4735 C0          	db 192
16477   4736 F0          	db 240
16478   4737 F0          	db 240
16479   4738 F0          	db 240
16480   4739 F0          	db 240
16481   473A E0          	db 224
16482   473B C0          	db 192
16483   473C 80          	db 128
16484   473D 00          	db 0
16485   473E 00          	db 0
16486   473F 00          	db 0
16487   4740 00          	db 0
16488   4741 00          	db 0
16489   4742 FF          	db 255
16490   4743 FF          	db 255
16491   4744 FF          	db 255
16492   4745 F8          	db 248
16493   4746 E0          	db 224
16494   4747 C6          	db 198
16495   4748 CE          	db 206
16496   4749 8C          	db 140
16497   474A 80          	db 128
16498   474B 80          	db 128
16499   474C 80          	db 128
16500   474D C0          	db 192
16501   474E C0          	db 192
16502   474F E0          	db 224
16503   4750 F8          	db 248
16504   4751 FF          	db 255
16505   4752 FF          	db 255
16506   4753 FF          	db 255
16507   4754 FF          	db 255
16508   4755 1F          	db 31
16509   4756 07          	db 7
16510   4757 03          	db 3
16511   4758 03          	db 3
16512   4759 01          	db 1
16513   475A 01          	db 1
16514   475B 01          	db 1
16515   475C 01          	db 1
16516   475D 03          	db 3
16517   475E 03          	db 3
16518   475F 07          	db 7
16519   4760 1F          	db 31
16520   4761 FF          	db 255
16521   4762 00          	db 0
16522   4763 00          	db 0
16523   4764 00          	db 0
16524   4765 00          	db 0
16525   4766 07          	db 7
16526   4767 1F          	db 31
16527   4768 1F          	db 31
16528   4769 3F          	db 63
16529   476A 3F          	db 63
16530   476B 3F          	db 63
16531   476C 3F          	db 63
16532   476D 1E          	db 30
16533   476E 00          	db 0
16534   476F 00          	db 0
16535   4770 00          	db 0
16536   4771 00          	db 0
16537   4772 00          	db 0
16538   4773 00          	db 0
16539   4774 00          	db 0
16540   4775 00          	db 0
16541   4776 E0          	db 224
16542   4777 F0          	db 240
16543   4778 F0          	db 240
16544   4779 F0          	db 240
16545   477A F0          	db 240
16546   477B C0          	db 192
16547   477C 80          	db 128
16548   477D 00          	db 0
16549   477E 00          	db 0
16550   477F 00          	db 0
16551   4780 00          	db 0
16552   4781 00          	db 0
16553   4782 FF          	db 255
16554   4783 FC          	db 252
16555   4784 F3          	db 243
16556   4785 EF          	db 239
16557   4786 DF          	db 223
16558   4787 DF          	db 223
16559   4788 BF          	db 191
16560   4789 BF          	db 191
16561   478A BF          	db 191
16562   478B BF          	db 191
16563   478C DF          	db 223
16564   478D DE          	db 222
16565   478E E0          	db 224
16566   478F F0          	db 240
16567   4790 FC          	db 252
16568   4791 FF          	db 255
16569   4792 FF          	db 255
16570   4793 3F          	db 63
16571   4794 CF          	db 207
16572   4795 F7          	db 247
16573   4796 F3          	db 243
16574   4797 F3          	db 243
16575   4798 F1          	db 241
16576   4799 E1          	db 225
16577   479A E1          	db 225
16578   479B C1          	db 193
16579   479C 83          	db 131
16580   479D 03          	db 3
16581   479E 07          	db 7
16582   479F 0F          	db 15
16583   47A0 3F          	db 63
16584   47A1 FF          	db 255
16585   47A2 00          	db 0
16586   47A3 00          	db 0
16587   47A4 03          	db 3
16588   47A5 09          	db 9
16589   47A6 11          	db 17
16590   47A7 13          	db 19
16591   47A8 3F          	db 63
16592   47A9 3F          	db 63
16593   47AA 3F          	db 63
16594   47AB 3F          	db 63
16595   47AC 1F          	db 31
16596   47AD 1E          	db 30
16597   47AE 00          	db 0
16598   47AF 00          	db 0
16599   47B0 00          	db 0
16600   47B1 00          	db 0
16601   47B2 00          	db 0
16602   47B3 00          	db 0
16603   47B4 C0          	db 192
16604   47B5 F0          	db 240
16605   47B6 F0          	db 240
16606   47B7 F0          	db 240
16607   47B8 F0          	db 240
16608   47B9 E0          	db 224
16609   47BA E0          	db 224
16610   47BB C0          	db 192
16611   47BC 80          	db 128
16612   47BD 00          	db 0
16613   47BE 00          	db 0
16614   47BF 00          	db 0
16615   47C0 00          	db 0
16616   47C1 00          	db 0
16617   47C2 FF          	db 255
16618   47C3 FF          	db 255
16619   47C4 FC          	db 252
16620   47C5 F3          	db 243
16621   47C6 EF          	db 239
16622   47C7 EF          	db 239
16623   47C8 DF          	db 223
16624   47C9 DF          	db 223
16625   47CA DF          	db 223
16626   47CB EF          	db 239
16627   47CC EF          	db 239
16628   47CD E0          	db 224
16629   47CE F0          	db 240
16630   47CF FC          	db 252
16631   47D0 FF          	db 255
16632   47D1 FF          	db 255
16633   47D2 FF          	db 255
16634   47D3 FF          	db 255
16635   47D4 3F          	db 63
16636   47D5 CF          	db 207
16637   47D6 F7          	db 247
16638   47D7 F7          	db 247
16639   47D8 F3          	db 243
16640   47D9 E3          	db 227
16641   47DA E3          	db 227
16642   47DB C3          	db 195
16643   47DC 07          	db 7
16644   47DD 07          	db 7
16645   47DE 0F          	db 15
16646   47DF 3F          	db 63
16647   47E0 FF          	db 255
16648   47E1 FF          	db 255
16649   47E2 00          	db 0
16650   47E3 00          	db 0
16651   47E4 00          	db 0
16652   47E5 03          	db 3
16653   47E6 09          	db 9
16654   47E7 03          	db 3
16655   47E8 1F          	db 31
16656   47E9 1F          	db 31
16657   47EA 1F          	db 31
16658   47EB 0F          	db 15
16659   47EC 0F          	db 15
16660   47ED 00          	db 0
16661   47EE 00          	db 0
16662   47EF 00          	db 0
16663   47F0 00          	db 0
16664   47F1 00          	db 0
16665   47F2 00          	db 0
16666   47F3 00          	db 0
16667   47F4 00          	db 0
16668   47F5 C0          	db 192
16669   47F6 F0          	db 240
16670   47F7 F0          	db 240
16671   47F8 F0          	db 240
16672   47F9 E0          	db 224
16673   47FA E0          	db 224
16674   47FB C0          	db 192
16675   47FC 00          	db 0
16676   47FD 00          	db 0
16677   47FE 00          	db 0
16678   47FF 00          	db 0
16679   4800 00          	db 0
16680   4801 00          	db 0
16681   4802 FF          	db 255
16682   4803 FF          	db 255
16683   4804 FF          	db 255
16684   4805 FE          	db 254
16685   4806 F9          	db 249
16686   4807 F7          	db 247
16687   4808 F7          	db 247
16688   4809 EF          	db 239
16689   480A EF          	db 239
16690   480B F7          	db 247
16691   480C F0          	db 240
16692   480D F8          	db 248
16693   480E FE          	db 254
16694   480F FF          	db 255
16695   4810 FF          	db 255
16696   4811 FF          	db 255
16697   4812 FF          	db 255
16698   4813 FF          	db 255
16699   4814 FF          	db 255
16700   4815 7F          	db 127
16701   4816 9F          	db 159
16702   4817 EF          	db 239
16703   4818 EF          	db 239
16704   4819 C7          	db 199
16705   481A C7          	db 199
16706   481B 0F          	db 15
16707   481C 0F          	db 15
16708   481D 1F          	db 31
16709   481E 7F          	db 127
16710   481F FF          	db 255
16711   4820 FF          	db 255
16712   4821 FF          	db 255
16713   4822 00          	db 0
16714   4823 00          	db 0
16715   4824 00          	db 0
16716   4825 00          	db 0
16717   4826 01          	db 1
16718   4827 05          	db 5
16719   4828 03          	db 3
16720   4829 0F          	db 15
16721   482A 0F          	db 15
16722   482B 07          	db 7
16723   482C 00          	db 0
16724   482D 00          	db 0
16725   482E 00          	db 0
16726   482F 00          	db 0
16727   4830 00          	db 0
16728   4831 00          	db 0
16729   4832 00          	db 0
16730   4833 00          	db 0
16731   4834 00          	db 0
16732   4835 00          	db 0
16733   4836 80          	db 128
16734   4837 E0          	db 224
16735   4838 E0          	db 224
16736   4839 C0          	db 192
16737   483A C0          	db 192
16738   483B 00          	db 0
16739   483C 00          	db 0
16740   483D 00          	db 0
16741   483E 00          	db 0
16742   483F 00          	db 0
16743   4840 00          	db 0
16744   4841 00          	db 0
16745   4842 FF          	db 255
16746   4843 FF          	db 255
16747   4844 FF          	db 255
16748   4845 FF          	db 255
16749   4846 FF          	db 255
16750   4847 FF          	db 255
16751   4848 FE          	db 254
16752   4849 FD          	db 253
16753   484A FD          	db 253
16754   484B FD          	db 253
16755   484C FE          	db 254
16756   484D FF          	db 255
16757   484E FF          	db 255
16758   484F FF          	db 255
16759   4850 FF          	db 255
16760   4851 FF          	db 255
16761   4852 FF          	db 255
16762   4853 FF          	db 255
16763   4854 FF          	db 255
16764   4855 FF          	db 255
16765   4856 FF          	db 255
16766   4857 FF          	db 255
16767   4858 3F          	db 63
16768   4859 DF          	db 223
16769   485A 9F          	db 159
16770   485B 1F          	db 31
16771   485C 3F          	db 63
16772   485D FF          	db 255
16773   485E FF          	db 255
16774   485F FF          	db 255
16775   4860 FF          	db 255
16776   4861 FF          	db 255
16777   4862 00          	db 0
16778   4863 00          	db 0
16779   4864 00          	db 0
16780   4865 00          	db 0
16781   4866 00          	db 0
16782   4867 00          	db 0
16783   4868 00          	db 0
16784   4869 00          	db 0
16785   486A 01          	db 1
16786   486B 01          	db 1
16787   486C 00          	db 0
16788   486D 00          	db 0
16789   486E 00          	db 0
16790   486F 00          	db 0
16791   4870 00          	db 0
16792   4871 00          	db 0
16793   4872 00          	db 0
16794   4873 00          	db 0
16795   4874 00          	db 0
16796   4875 00          	db 0
16797   4876 00          	db 0
16798   4877 00          	db 0
16799   4878 00          	db 0
16800   4879 C0          	db 192
16801   487A 80          	db 128
16802   487B 00          	db 0
16803   487C 00          	db 0
16804   487D 00          	db 0
16805   487E 00          	db 0
16806   487F 00          	db 0
16807   4880 00          	db 0
16808   4881 00          	db 0
16809   4882 FF          	db 255
16810   4883 FF          	db 255
16811   4884 FF          	db 255
16812   4885 FF          	db 255
16813   4886 FF          	db 255
16814   4887 FF          	db 255
16815   4888 FF          	db 255
16816   4889 FE          	db 254
16817   488A FD          	db 253
16818   488B FE          	db 254
16819   488C FF          	db 255
16820   488D FF          	db 255
16821   488E FF          	db 255
16822   488F FF          	db 255
16823   4890 FF          	db 255
16824   4891 FF          	db 255
16825   4892 FF          	db 255
16826   4893 FF          	db 255
16827   4894 FF          	db 255
16828   4895 FF          	db 255
16829   4896 FF          	db 255
16830   4897 FF          	db 255
16831   4898 FF          	db 255
16832   4899 FF          	db 255
16833   489A 7F          	db 127
16834   489B FF          	db 255
16835   489C FF          	db 255
16836   489D FF          	db 255
16837   489E FF          	db 255
16838   489F FF          	db 255
16839   48A0 FF          	db 255
16840   48A1 FF          	db 255
16841   48A2 00          	db 0
16842   48A3 00          	db 0
16843   48A4 00          	db 0
16844   48A5 00          	db 0
16845   48A6 00          	db 0
16846   48A7 00          	db 0
16847   48A8 00          	db 0
16848   48A9 00          	db 0
16849   48AA 01          	db 1
16850   48AB 00          	db 0
16851   48AC 00          	db 0
16852   48AD 00          	db 0
16853   48AE 00          	db 0
16854   48AF 00          	db 0
16855   48B0 00          	db 0
16856   48B1 00          	db 0
16857   48B2 00          	db 0
16858   48B3 00          	db 0
16859   48B4 00          	db 0
16860   48B5 00          	db 0
16861   48B6 00          	db 0
16862   48B7 00          	db 0
16863   48B8 00          	db 0
16864   48B9 00          	db 0
16865   48BA 00          	db 0
16866   48BB 00          	db 0
16867   48BC 00          	db 0
16868   48BD 00          	db 0
16869   48BE 00          	db 0
16870   48BF 00          	db 0
16871   48C0 00          	db 0
16872   48C1 00          	db 0
16873   48C2 FF          	db 255
16874   48C3 FB          	db 251
16875   48C4 E1          	db 225
16876   48C5 DD          	db 221
16877   48C6 B9          	db 185
16878   48C7 B1          	db 177
16879   48C8 C3          	db 195
16880   48C9 FF          	db 255
16881   48CA FF          	db 255
16882   48CB C3          	db 195
16883   48CC BD          	db 189
16884   48CD 89          	db 137
16885   48CE C1          	db 193
16886   48CF E1          	db 225
16887   48D0 FB          	db 251
16888   48D1 FF          	db 255
16889   48D2 FF          	db 255
16890   48D3 DF          	db 223
16891   48D4 A7          	db 167
16892   48D5 BB          	db 187
16893   48D6 B9          	db 185
16894   48D7 A1          	db 161
16895   48D8 C3          	db 195
16896   48D9 FF          	db 255
16897   48DA FF          	db 255
16898   48DB C3          	db 195
16899   48DC B1          	db 177
16900   48DD B1          	db 177
16901   48DE 83          	db 131
16902   48DF 87          	db 135
16903   48E0 DF          	db 223
16904   48E1 FF          	db 255
16905   48E2 00          	db 0
16906   48E3 00          	db 0
16907   48E4 00          	db 0
16908   48E5 1C          	db 28
16909   48E6 20          	db 32
16910   48E7 30          	db 48
16911   48E8 00          	db 0
16912   48E9 00          	db 0
16913   48EA 00          	db 0
16914   48EB 00          	db 0
16915   48EC 3C          	db 60
16916   48ED 08          	db 8
16917   48EE 00          	db 0
16918   48EF 00          	db 0
16919   48F0 00          	db 0
16920   48F1 00          	db 0
16921   48F2 00          	db 0
16922   48F3 00          	db 0
16923   48F4 20          	db 32
16924   48F5 38          	db 56
16925   48F6 38          	db 56
16926   48F7 20          	db 32
16927   48F8 00          	db 0
16928   48F9 00          	db 0
16929   48FA 00          	db 0
16930   48FB 00          	db 0
16931   48FC 30          	db 48
16932   48FD 30          	db 48
16933   48FE 00          	db 0
16934   48FF 00          	db 0
16935   4900 00          	db 0
16936   4901 00          	db 0
16937   4902 FF          	db 255
16938   4903 FF          	db 255
16939   4904 E7          	db 231
16940   4905 DB          	db 219
16941   4906 B3          	db 179
16942   4907 C7          	db 199
16943   4908 FF          	db 255
16944   4909 FF          	db 255
16945   490A FF          	db 255
16946   490B FF          	db 255
16947   490C C7          	db 199
16948   490D 9B          	db 155
16949   490E D3          	db 211
16950   490F E7          	db 231
16951   4910 FF          	db 255
16952   4911 FF          	db 255
16953   4912 FF          	db 255
16954   4913 FF          	db 255
16955   4914 E7          	db 231
16956   4915 DB          	db 219
16957   4916 D9          	db 217
16958   4917 E3          	db 227
16959   4918 FF          	db 255
16960   4919 FF          	db 255
16961   491A FF          	db 255
16962   491B FF          	db 255
16963   491C E3          	db 227
16964   491D D9          	db 217
16965   491E D3          	db 211
16966   491F E7          	db 231
16967   4920 FF          	db 255
16968   4921 FF          	db 255
16969   4922 00          	db 0
16970   4923 00          	db 0
16971   4924 00          	db 0
16972   4925 08          	db 8
16973   4926 30          	db 48
16974   4927 00          	db 0
16975   4928 00          	db 0
16976   4929 00          	db 0
16977   492A 00          	db 0
16978   492B 00          	db 0
16979   492C 00          	db 0
16980   492D 18          	db 24
16981   492E 10          	db 16
16982   492F 00          	db 0
16983   4930 00          	db 0
16984   4931 00          	db 0
16985   4932 00          	db 0
16986   4933 00          	db 0
16987   4934 00          	db 0
16988   4935 18          	db 24
16989   4936 18          	db 24
16990   4937 00          	db 0
16991   4938 00          	db 0
16992   4939 00          	db 0
16993   493A 00          	db 0
16994   493B 00          	db 0
16995   493C 00          	db 0
16996   493D 18          	db 24
16997   493E 10          	db 16
16998   493F 00          	db 0
16999   4940 00          	db 0
17000   4941 00          	db 0
17001   4942 FF          	db 255
17002   4943 FF          	db 255
17003   4944 DF          	db 223
17004   4945 AF          	db 175
17005   4946 DF          	db 223
17006   4947 FF          	db 255
17007   4948 FF          	db 255
17008   4949 FF          	db 255
17009   494A FF          	db 255
17010   494B FF          	db 255
17011   494C FF          	db 255
17012   494D DF          	db 223
17013   494E AF          	db 175
17014   494F DF          	db 223
17015   4950 FF          	db 255
17016   4951 FF          	db 255
17017   4952 FF          	db 255
17018   4953 FF          	db 255
17019   4954 FB          	db 251
17020   4955 F5          	db 245
17021   4956 FB          	db 251
17022   4957 FF          	db 255
17023   4958 FF          	db 255
17024   4959 FF          	db 255
17025   495A FF          	db 255
17026   495B FF          	db 255
17027   495C FF          	db 255
17028   495D FB          	db 251
17029   495E F5          	db 245
17030   495F FB          	db 251
17031   4960 FF          	db 255
17032   4961 FF          	db 255
17033   4962 00          	db 0
17034   4963 00          	db 0
17035   4964 00          	db 0
17036   4965 20          	db 32
17037   4966 00          	db 0
17038   4967 00          	db 0
17039   4968 00          	db 0
17040   4969 00          	db 0
17041   496A 00          	db 0
17042   496B 00          	db 0
17043   496C 00          	db 0
17044   496D 00          	db 0
17045   496E 20          	db 32
17046   496F 00          	db 0
17047   4970 00          	db 0
17048   4971 00          	db 0
17049   4972 00          	db 0
17050   4973 00          	db 0
17051   4974 00          	db 0
17052   4975 04          	db 4
17053   4976 00          	db 0
17054   4977 00          	db 0
17055   4978 00          	db 0
17056   4979 00          	db 0
17057   497A 00          	db 0
17058   497B 00          	db 0
17059   497C 00          	db 0
17060   497D 00          	db 0
17061   497E 04          	db 4
17062   497F 00          	db 0
17063   4980 00          	db 0
17064   4981 00          	db 0
17065   4982 FF          	db 255
17066   4983 FF          	db 255
17067   4984 FC          	db 252
17068   4985 F3          	db 243
17069   4986 EF          	db 239
17070   4987 DF          	db 223
17071   4988 BF          	db 191
17072   4989 BF          	db 191
17073   498A BF          	db 191
17074   498B BF          	db 191
17075   498C BF          	db 191
17076   498D DE          	db 222
17077   498E E0          	db 224
17078   498F F0          	db 240
17079   4990 FC          	db 252
17080   4991 FF          	db 255
17081   4992 FF          	db 255
17082   4993 FF          	db 255
17083   4994 3F          	db 63
17084   4995 CF          	db 207
17085   4996 F7          	db 247
17086   4997 F3          	db 243
17087   4998 F1          	db 241
17088   4999 F1          	db 241
17089   499A E1          	db 225
17090   499B C1          	db 193
17091   499C 81          	db 129
17092   499D 03          	db 3
17093   499E 07          	db 7
17094   499F 0F          	db 15
17095   49A0 3F          	db 63
17096   49A1 FF          	db 255
17097   49A2 00          	db 0
17098   49A3 00          	db 0
17099   49A4 00          	db 0
17100   49A5 03          	db 3
17101   49A6 09          	db 9
17102   49A7 11          	db 17
17103   49A8 33          	db 51
17104   49A9 3F          	db 63
17105   49AA 3F          	db 63
17106   49AB 3F          	db 63
17107   49AC 3F          	db 63
17108   49AD 1E          	db 30
17109   49AE 00          	db 0
17110   49AF 00          	db 0
17111   49B0 00          	db 0
17112   49B1 00          	db 0
17113   49B2 00          	db 0
17114   49B3 00          	db 0
17115   49B4 00          	db 0
17116   49B5 C0          	db 192
17117   49B6 F0          	db 240
17118   49B7 F0          	db 240
17119   49B8 F0          	db 240
17120   49B9 F0          	db 240
17121   49BA E0          	db 224
17122   49BB C0          	db 192
17123   49BC 80          	db 128
17124   49BD 00          	db 0
17125   49BE 00          	db 0
17126   49BF 00          	db 0
17127   49C0 00          	db 0
17128   49C1 00          	db 0
17129   49C2 FF          	db 255
17130   49C3 FF          	db 255
17131   49C4 FF          	db 255
17132   49C5 F8          	db 248
17133   49C6 E7          	db 231
17134   49C7 DF          	db 223
17135   49C8 DF          	db 223
17136   49C9 BF          	db 191
17137   49CA BF          	db 191
17138   49CB BF          	db 191
17139   49CC BF          	db 191
17140   49CD DE          	db 222
17141   49CE C0          	db 192
17142   49CF E0          	db 224
17143   49D0 F8          	db 248
17144   49D1 FF          	db 255
17145   49D2 FF          	db 255
17146   49D3 FF          	db 255
17147   49D4 FF          	db 255
17148   49D5 1F          	db 31
17149   49D6 E7          	db 231
17150   49D7 F3          	db 243
17151   49D8 F3          	db 243
17152   49D9 F1          	db 241
17153   49DA F1          	db 241
17154   49DB C1          	db 193
17155   49DC 81          	db 129
17156   49DD 03          	db 3
17157   49DE 03          	db 3
17158   49DF 07          	db 7
17159   49E0 1F          	db 31
17160   49E1 FF          	db 255
17161   49E2 00          	db 0
17162   49E3 00          	db 0
17163   49E4 00          	db 0
17164   49E5 00          	db 0
17165   49E6 07          	db 7
17166   49E7 19          	db 25
17167   49E8 11          	db 17
17168   49E9 33          	db 51
17169   49EA 3F          	db 63
17170   49EB 3F          	db 63
17171   49EC 3F          	db 63
17172   49ED 1E          	db 30
17173   49EE 00          	db 0
17174   49EF 00          	db 0
17175   49F0 00          	db 0
17176   49F1 00          	db 0
17177   49F2 00          	db 0
17178   49F3 00          	db 0
17179   49F4 00          	db 0
17180   49F5 00          	db 0
17181   49F6 E0          	db 224
17182   49F7 F0          	db 240
17183   49F8 F0          	db 240
17184   49F9 F0          	db 240
17185   49FA F0          	db 240
17186   49FB C0          	db 192
17187   49FC 80          	db 128
17188   49FD 00          	db 0
17189   49FE 00          	db 0
17190   49FF 00          	db 0
17191   4A00 00          	db 0
17192   4A01 00          	db 0
17193   4A02 FF          	db 255
17194   4A03 FC          	db 252
17195   4A04 F3          	db 243
17196   4A05 EF          	db 239
17197   4A06 DF          	db 223
17198   4A07 DF          	db 223
17199   4A08 BF          	db 191
17200   4A09 BF          	db 191
17201   4A0A BF          	db 191
17202   4A0B BF          	db 191
17203   4A0C DF          	db 223
17204   4A0D DE          	db 222
17205   4A0E E0          	db 224
17206   4A0F F0          	db 240
17207   4A10 FC          	db 252
17208   4A11 FF          	db 255
17209   4A12 FF          	db 255
17210   4A13 3F          	db 63
17211   4A14 CF          	db 207
17212   4A15 F7          	db 247
17213   4A16 F3          	db 243
17214   4A17 F3          	db 243
17215   4A18 F1          	db 241
17216   4A19 E1          	db 225
17217   4A1A E1          	db 225
17218   4A1B C1          	db 193
17219   4A1C 83          	db 131
17220   4A1D 03          	db 3
17221   4A1E 07          	db 7
17222   4A1F 0F          	db 15
17223   4A20 3F          	db 63
17224   4A21 FF          	db 255
17225   4A22 00          	db 0
17226   4A23 00          	db 0
17227   4A24 00          	db 0
17228   4A25 06          	db 6
17229   4A26 0E          	db 14
17230   4A27 0C          	db 12
17231   4A28 00          	db 0
17232   4A29 00          	db 0
17233   4A2A 00          	db 0
17234   4A2B 00          	db 0
17235   4A2C 00          	db 0
17236   4A2D 00          	db 0
17237   4A2E 00          	db 0
17238   4A2F 00          	db 0
17239   4A30 00          	db 0
17240   4A31 00          	db 0
17241   4A32 00          	db 0
17242   4A33 00          	db 0
17243   4A34 00          	db 0
17244   4A35 00          	db 0
17245   4A36 00          	db 0
17246   4A37 00          	db 0
17247   4A38 00          	db 0
17248   4A39 00          	db 0
17249   4A3A 00          	db 0
17250   4A3B 00          	db 0
17251   4A3C 00          	db 0
17252   4A3D 00          	db 0
17253   4A3E 00          	db 0
17254   4A3F 00          	db 0
17255   4A40 00          	db 0
17256   4A41 00          	db 0
17257   4A42 FF          	db 255
17258   4A43 FF          	db 255
17259   4A44 FC          	db 252
17260   4A45 F3          	db 243
17261   4A46 EF          	db 239
17262   4A47 EF          	db 239
17263   4A48 DF          	db 223
17264   4A49 DF          	db 223
17265   4A4A DF          	db 223
17266   4A4B EF          	db 239
17267   4A4C EF          	db 239
17268   4A4D E0          	db 224
17269   4A4E F0          	db 240
17270   4A4F FC          	db 252
17271   4A50 FF          	db 255
17272   4A51 FF          	db 255
17273   4A52 FF          	db 255
17274   4A53 FF          	db 255
17275   4A54 3F          	db 63
17276   4A55 CF          	db 207
17277   4A56 F7          	db 247
17278   4A57 F7          	db 247
17279   4A58 F3          	db 243
17280   4A59 E3          	db 227
17281   4A5A E3          	db 227
17282   4A5B C3          	db 195
17283   4A5C 07          	db 7
17284   4A5D 07          	db 7
17285   4A5E 0F          	db 15
17286   4A5F 3F          	db 63
17287   4A60 FF          	db 255
17288   4A61 FF          	db 255
17289   4A62 00          	db 0
17290   4A63 00          	db 0
17291   4A64 00          	db 0
17292   4A65 00          	db 0
17293   4A66 06          	db 6
17294   4A67 0C          	db 12
17295   4A68 00          	db 0
17296   4A69 00          	db 0
17297   4A6A 00          	db 0
17298   4A6B 00          	db 0
17299   4A6C 00          	db 0
17300   4A6D 00          	db 0
17301   4A6E 00          	db 0
17302   4A6F 00          	db 0
17303   4A70 00          	db 0
17304   4A71 00          	db 0
17305   4A72 00          	db 0
17306   4A73 00          	db 0
17307   4A74 00          	db 0
17308   4A75 00          	db 0
17309   4A76 00          	db 0
17310   4A77 00          	db 0
17311   4A78 00          	db 0
17312   4A79 00          	db 0
17313   4A7A 00          	db 0
17314   4A7B 00          	db 0
17315   4A7C 00          	db 0
17316   4A7D 00          	db 0
17317   4A7E 00          	db 0
17318   4A7F 00          	db 0
17319   4A80 00          	db 0
17320   4A81 00          	db 0
17321   4A82 FF          	db 255
17322   4A83 FF          	db 255
17323   4A84 FF          	db 255
17324   4A85 FE          	db 254
17325   4A86 F9          	db 249
17326   4A87 F7          	db 247
17327   4A88 F7          	db 247
17328   4A89 EF          	db 239
17329   4A8A EF          	db 239
17330   4A8B F7          	db 247
17331   4A8C F0          	db 240
17332   4A8D F8          	db 248
17333   4A8E FE          	db 254
17334   4A8F FF          	db 255
17335   4A90 FF          	db 255
17336   4A91 FF          	db 255
17337   4A92 FF          	db 255
17338   4A93 FF          	db 255
17339   4A94 FF          	db 255
17340   4A95 7F          	db 127
17341   4A96 9F          	db 159
17342   4A97 EF          	db 239
17343   4A98 EF          	db 239
17344   4A99 C7          	db 199
17345   4A9A C7          	db 199
17346   4A9B 0F          	db 15
17347   4A9C 0F          	db 15
17348   4A9D 1F          	db 31
17349   4A9E 7F          	db 127
17350   4A9F FF          	db 255
17351   4AA0 FF          	db 255
17352   4AA1 FF          	db 255
17353   4AA2 00          	db 0
17354   4AA3 00          	db 0
17355   4AA4 00          	db 0
17356   4AA5 00          	db 0
17357   4AA6 00          	db 0
17358   4AA7 02          	db 2
17359   4AA8 04          	db 4
17360   4AA9 00          	db 0
17361   4AAA 00          	db 0
17362   4AAB 00          	db 0
17363   4AAC 00          	db 0
17364   4AAD 00          	db 0
17365   4AAE 00          	db 0
17366   4AAF 00          	db 0
17367   4AB0 00          	db 0
17368   4AB1 00          	db 0
17369   4AB2 00          	db 0
17370   4AB3 00          	db 0
17371   4AB4 00          	db 0
17372   4AB5 00          	db 0
17373   4AB6 00          	db 0
17374   4AB7 00          	db 0
17375   4AB8 00          	db 0
17376   4AB9 00          	db 0
17377   4ABA 00          	db 0
17378   4ABB 00          	db 0
17379   4ABC 00          	db 0
17380   4ABD 00          	db 0
17381   4ABE 00          	db 0
17382   4ABF 00          	db 0
17383   4AC0 00          	db 0
17384   4AC1 00          	db 0
17385   4AC2 FF          	db 255
17386   4AC3 FF          	db 255
17387   4AC4 FF          	db 255
17388   4AC5 FF          	db 255
17389   4AC6 FF          	db 255
17390   4AC7 FF          	db 255
17391   4AC8 FE          	db 254
17392   4AC9 FD          	db 253
17393   4ACA FD          	db 253
17394   4ACB FD          	db 253
17395   4ACC FE          	db 254
17396   4ACD FF          	db 255
17397   4ACE FF          	db 255
17398   4ACF FF          	db 255
17399   4AD0 FF          	db 255
17400   4AD1 FF          	db 255
17401   4AD2 FF          	db 255
17402   4AD3 FF          	db 255
17403   4AD4 FF          	db 255
17404   4AD5 FF          	db 255
17405   4AD6 FF          	db 255
17406   4AD7 FF          	db 255
17407   4AD8 3F          	db 63
17408   4AD9 DF          	db 223
17409   4ADA 9F          	db 159
17410   4ADB 1F          	db 31
17411   4ADC 3F          	db 63
17412   4ADD FF          	db 255
17413   4ADE FF          	db 255
17414   4ADF FF          	db 255
17415   4AE0 FF          	db 255
17416   4AE1 FF          	db 255
17417   4AE2 00          	db 0
17418   4AE3 00          	db 0
17419   4AE4 00          	db 0
17420   4AE5 00          	db 0
17421   4AE6 00          	db 0
17422   4AE7 00          	db 0
17423   4AE8 00          	db 0
17424   4AE9 01          	db 1
17425   4AEA 00          	db 0
17426   4AEB 00          	db 0
17427   4AEC 00          	db 0
17428   4AED 00          	db 0
17429   4AEE 00          	db 0
17430   4AEF 00          	db 0
17431   4AF0 00          	db 0
17432   4AF1 00          	db 0
17433   4AF2 00          	db 0
17434   4AF3 00          	db 0
17435   4AF4 00          	db 0
17436   4AF5 00          	db 0
17437   4AF6 00          	db 0
17438   4AF7 00          	db 0
17439   4AF8 00          	db 0
17440   4AF9 00          	db 0
17441   4AFA 00          	db 0
17442   4AFB 00          	db 0
17443   4AFC 00          	db 0
17444   4AFD 00          	db 0
17445   4AFE 00          	db 0
17446   4AFF 00          	db 0
17447   4B00 00          	db 0
17448   4B01 00          	db 0
17449   4B02 FF          	db 255
17450   4B03 FF          	db 255
17451   4B04 FF          	db 255
17452   4B05 FF          	db 255
17453   4B06 FF          	db 255
17454   4B07 FF          	db 255
17455   4B08 FF          	db 255
17456   4B09 FE          	db 254
17457   4B0A FD          	db 253
17458   4B0B FE          	db 254
17459   4B0C FF          	db 255
17460   4B0D FF          	db 255
17461   4B0E FF          	db 255
17462   4B0F FF          	db 255
17463   4B10 FF          	db 255
17464   4B11 FF          	db 255
17465   4B12 FF          	db 255
17466   4B13 FF          	db 255
17467   4B14 FF          	db 255
17468   4B15 FF          	db 255
17469   4B16 FF          	db 255
17470   4B17 FF          	db 255
17471   4B18 FF          	db 255
17472   4B19 FF          	db 255
17473   4B1A 7F          	db 127
17474   4B1B FF          	db 255
17475   4B1C FF          	db 255
17476   4B1D FF          	db 255
17477   4B1E FF          	db 255
17478   4B1F FF          	db 255
17479   4B20 FF          	db 255
17480   4B21 FF          	db 255
17481   4B22 00          	db 0
17482   4B23 00          	db 0
17483   4B24 00          	db 0
17484   4B25 00          	db 0
17485   4B26 00          	db 0
17486   4B27 00          	db 0
17487   4B28 00          	db 0
17488   4B29 00          	db 0
17489   4B2A 00          	db 0
17490   4B2B 00          	db 0
17491   4B2C 00          	db 0
17492   4B2D 00          	db 0
17493   4B2E 00          	db 0
17494   4B2F 00          	db 0
17495   4B30 00          	db 0
17496   4B31 00          	db 0
17497   4B32 00          	db 0
17498   4B33 00          	db 0
17499   4B34 00          	db 0
17500   4B35 00          	db 0
17501   4B36 00          	db 0
17502   4B37 00          	db 0
17503   4B38 00          	db 0
17504   4B39 00          	db 0
17505   4B3A 00          	db 0
17506   4B3B 00          	db 0
17507   4B3C 00          	db 0
17508   4B3D 00          	db 0
17509   4B3E 00          	db 0
17510   4B3F 00          	db 0
17511   4B40 00          	db 0
17512   4B41 00          	db 0
17513   4B42 FF          	db 255
17514   4B43 FB          	db 251
17515   4B44 E1          	db 225
17516   4B45 DD          	db 221
17517   4B46 B9          	db 185
17518   4B47 B1          	db 177
17519   4B48 C3          	db 195
17520   4B49 FF          	db 255
17521   4B4A FF          	db 255
17522   4B4B C3          	db 195
17523   4B4C BD          	db 189
17524   4B4D 89          	db 137
17525   4B4E C1          	db 193
17526   4B4F E1          	db 225
17527   4B50 FB          	db 251
17528   4B51 FF          	db 255
17529   4B52 FF          	db 255
17530   4B53 DF          	db 223
17531   4B54 A7          	db 167
17532   4B55 BB          	db 187
17533   4B56 B9          	db 185
17534   4B57 A1          	db 161
17535   4B58 C3          	db 195
17536   4B59 FF          	db 255
17537   4B5A FF          	db 255
17538   4B5B C3          	db 195
17539   4B5C B1          	db 177
17540   4B5D B1          	db 177
17541   4B5E 83          	db 131
17542   4B5F 87          	db 135
17543   4B60 DF          	db 223
17544   4B61 FF          	db 255
17545   4B62 00          	db 0
17546   4B63 00          	db 0
17547   4B64 00          	db 0
17548   4B65 00          	db 0
17549   4B66 18          	db 24
17550   4B67 00          	db 0
17551   4B68 00          	db 0
17552   4B69 00          	db 0
17553   4B6A 00          	db 0
17554   4B6B 00          	db 0
17555   4B6C 00          	db 0
17556   4B6D 00          	db 0
17557   4B6E 00          	db 0
17558   4B6F 00          	db 0
17559   4B70 00          	db 0
17560   4B71 00          	db 0
17561   4B72 00          	db 0
17562   4B73 00          	db 0
17563   4B74 00          	db 0
17564   4B75 00          	db 0
17565   4B76 00          	db 0
17566   4B77 00          	db 0
17567   4B78 00          	db 0
17568   4B79 00          	db 0
17569   4B7A 00          	db 0
17570   4B7B 00          	db 0
17571   4B7C 00          	db 0
17572   4B7D 00          	db 0
17573   4B7E 00          	db 0
17574   4B7F 00          	db 0
17575   4B80 00          	db 0
17576   4B81 00          	db 0
17577   4B82 FF          	db 255
17578   4B83 FF          	db 255
17579   4B84 E7          	db 231
17580   4B85 DB          	db 219
17581   4B86 B3          	db 179
17582   4B87 C7          	db 199
17583   4B88 FF          	db 255
17584   4B89 FF          	db 255
17585   4B8A FF          	db 255
17586   4B8B FF          	db 255
17587   4B8C C7          	db 199
17588   4B8D 9B          	db 155
17589   4B8E D3          	db 211
17590   4B8F E7          	db 231
17591   4B90 FF          	db 255
17592   4B91 FF          	db 255
17593   4B92 FF          	db 255
17594   4B93 FF          	db 255
17595   4B94 E7          	db 231
17596   4B95 DB          	db 219
17597   4B96 D9          	db 217
17598   4B97 E3          	db 227
17599   4B98 FF          	db 255
17600   4B99 FF          	db 255
17601   4B9A FF          	db 255
17602   4B9B FF          	db 255
17603   4B9C E3          	db 227
17604   4B9D D9          	db 217
17605   4B9E D3          	db 211
17606   4B9F E7          	db 231
17607   4BA0 FF          	db 255
17608   4BA1 FF          	db 255
17609   4BA2 00          	db 0
17610   4BA3 00          	db 0
17611   4BA4 00          	db 0
17612   4BA5 10          	db 16
17613   4BA6 00          	db 0
17614   4BA7 00          	db 0
17615   4BA8 00          	db 0
17616   4BA9 00          	db 0
17617   4BAA 00          	db 0
17618   4BAB 00          	db 0
17619   4BAC 00          	db 0
17620   4BAD 00          	db 0
17621   4BAE 00          	db 0
17622   4BAF 00          	db 0
17623   4BB0 00          	db 0
17624   4BB1 00          	db 0
17625   4BB2 00          	db 0
17626   4BB3 00          	db 0
17627   4BB4 00          	db 0
17628   4BB5 00          	db 0
17629   4BB6 00          	db 0
17630   4BB7 00          	db 0
17631   4BB8 00          	db 0
17632   4BB9 00          	db 0
17633   4BBA 00          	db 0
17634   4BBB 00          	db 0
17635   4BBC 00          	db 0
17636   4BBD 00          	db 0
17637   4BBE 00          	db 0
17638   4BBF 00          	db 0
17639   4BC0 00          	db 0
17640   4BC1 00          	db 0
17641   4BC2 FF          	db 255
17642   4BC3 FF          	db 255
17643   4BC4 DF          	db 223
17644   4BC5 AF          	db 175
17645   4BC6 DF          	db 223
17646   4BC7 FF          	db 255
17647   4BC8 FF          	db 255
17648   4BC9 FF          	db 255
17649   4BCA FF          	db 255
17650   4BCB FF          	db 255
17651   4BCC FF          	db 255
17652   4BCD DF          	db 223
17653   4BCE AF          	db 175
17654   4BCF DF          	db 223
17655   4BD0 FF          	db 255
17656   4BD1 FF          	db 255
17657   4BD2 FF          	db 255
17658   4BD3 FF          	db 255
17659   4BD4 FB          	db 251
17660   4BD5 F5          	db 245
17661   4BD6 FB          	db 251
17662   4BD7 FF          	db 255
17663   4BD8 FF          	db 255
17664   4BD9 FF          	db 255
17665   4BDA FF          	db 255
17666   4BDB FF          	db 255
17667   4BDC FF          	db 255
17668   4BDD FB          	db 251
17669   4BDE F5          	db 245
17670   4BDF FB          	db 251
17671   4BE0 FF          	db 255
17672   4BE1 FF          	db 255
17673   4BE2 00          	db 0
17674   4BE3 00          	db 0
17675   4BE4 00          	db 0
17676   4BE5 00          	db 0
17677   4BE6 00          	db 0
17678   4BE7 00          	db 0
17679   4BE8 00          	db 0
17680   4BE9 00          	db 0
17681   4BEA 00          	db 0
17682   4BEB 00          	db 0
17683   4BEC 00          	db 0
17684   4BED 00          	db 0
17685   4BEE 00          	db 0
17686   4BEF 00          	db 0
17687   4BF0 00          	db 0
17688   4BF1 00          	db 0
17689   4BF2 00          	db 0
17690   4BF3 00          	db 0
17691   4BF4 00          	db 0
17692   4BF5 00          	db 0
17693   4BF6 00          	db 0
17694   4BF7 00          	db 0
17695   4BF8 00          	db 0
17696   4BF9 00          	db 0
17697   4BFA 00          	db 0
17698   4BFB 00          	db 0
17699   4BFC 00          	db 0
17700   4BFD 00          	db 0
17701   4BFE 00          	db 0
17702   4BFF 00          	db 0
17703   4C00 00          	db 0
17704   4C01 00          	db 0
17705   4C02 FF          	db 255
17706   4C03 FF          	db 255
17707   4C04 FC          	db 252
17708   4C05 F3          	db 243
17709   4C06 EF          	db 239
17710   4C07 DF          	db 223
17711   4C08 BF          	db 191
17712   4C09 BF          	db 191
17713   4C0A BF          	db 191
17714   4C0B BF          	db 191
17715   4C0C BF          	db 191
17716   4C0D DE          	db 222
17717   4C0E E0          	db 224
17718   4C0F F0          	db 240
17719   4C10 FC          	db 252
17720   4C11 FF          	db 255
17721   4C12 FF          	db 255
17722   4C13 FF          	db 255
17723   4C14 3F          	db 63
17724   4C15 CF          	db 207
17725   4C16 F7          	db 247
17726   4C17 F3          	db 243
17727   4C18 F1          	db 241
17728   4C19 F1          	db 241
17729   4C1A E1          	db 225
17730   4C1B C1          	db 193
17731   4C1C 81          	db 129
17732   4C1D 03          	db 3
17733   4C1E 07          	db 7
17734   4C1F 0F          	db 15
17735   4C20 3F          	db 63
17736   4C21 FF          	db 255
17737   4C22 00          	db 0
17738   4C23 00          	db 0
17739   4C24 00          	db 0
17740   4C25 00          	db 0
17741   4C26 06          	db 6
17742   4C27 0E          	db 14
17743   4C28 0C          	db 12
17744   4C29 00          	db 0
17745   4C2A 00          	db 0
17746   4C2B 00          	db 0
17747   4C2C 00          	db 0
17748   4C2D 00          	db 0
17749   4C2E 00          	db 0
17750   4C2F 00          	db 0
17751   4C30 00          	db 0
17752   4C31 00          	db 0
17753   4C32 00          	db 0
17754   4C33 00          	db 0
17755   4C34 00          	db 0
17756   4C35 00          	db 0
17757   4C36 00          	db 0
17758   4C37 00          	db 0
17759   4C38 00          	db 0
17760   4C39 00          	db 0
17761   4C3A 00          	db 0
17762   4C3B 00          	db 0
17763   4C3C 00          	db 0
17764   4C3D 00          	db 0
17765   4C3E 00          	db 0
17766   4C3F 00          	db 0
17767   4C40 00          	db 0
17768   4C41 00          	db 0
17769   4C42 FF          	db 255
17770   4C43 FF          	db 255
17771   4C44 FF          	db 255
17772   4C45 F8          	db 248
17773   4C46 E7          	db 231
17774   4C47 DF          	db 223
17775   4C48 DF          	db 223
17776   4C49 BF          	db 191
17777   4C4A BF          	db 191
17778   4C4B BF          	db 191
17779   4C4C BF          	db 191
17780   4C4D DE          	db 222
17781   4C4E C0          	db 192
17782   4C4F E0          	db 224
17783   4C50 F8          	db 248
17784   4C51 FF          	db 255
17785   4C52 FF          	db 255
17786   4C53 FF          	db 255
17787   4C54 FF          	db 255
17788   4C55 1F          	db 31
17789   4C56 E7          	db 231
17790   4C57 F3          	db 243
17791   4C58 F3          	db 243
17792   4C59 F1          	db 241
17793   4C5A F1          	db 241
17794   4C5B C1          	db 193
17795   4C5C 81          	db 129
17796   4C5D 03          	db 3
17797   4C5E 03          	db 3
17798   4C5F 07          	db 7
17799   4C60 1F          	db 31
17800   4C61 FF          	db 255
17801   4C62 00          	db 0
17802   4C63 00          	db 0
17803   4C64 00          	db 0
17804   4C65 00          	db 0
17805   4C66 00          	db 0
17806   4C67 06          	db 6
17807   4C68 0E          	db 14
17808   4C69 0C          	db 12
17809   4C6A 00          	db 0
17810   4C6B 00          	db 0
17811   4C6C 00          	db 0
17812   4C6D 00          	db 0
17813   4C6E 00          	db 0
17814   4C6F 00          	db 0
17815   4C70 00          	db 0
17816   4C71 00          	db 0
17817   4C72 00          	db 0
17818   4C73 00          	db 0
17819   4C74 00          	db 0
17820   4C75 00          	db 0
17821   4C76 00          	db 0
17822   4C77 00          	db 0
17823   4C78 00          	db 0
17824   4C79 00          	db 0
17825   4C7A 00          	db 0
17826   4C7B 00          	db 0
17827   4C7C 00          	db 0
17828   4C7D 00          	db 0
17829   4C7E 00          	db 0
17830   4C7F 00          	db 0
17831   4C80 00          	db 0
17832   4C81 00          	db 0
17833   4C82 FF          	db 255
17834   4C83 FC          	db 252
17835   4C84 F0          	db 240
17836   4C85 E6          	db 230
17837   4C86 CE          	db 206
17838   4C87 CC          	db 204
17839   4C88 80          	db 128
17840   4C89 80          	db 128
17841   4C8A 80          	db 128
17842   4C8B 80          	db 128
17843   4C8C C0          	db 192
17844   4C8D C0          	db 192
17845   4C8E E0          	db 224
17846   4C8F F0          	db 240
17847   4C90 FC          	db 252
17848   4C91 FF          	db 255
17849   4C92 FF          	db 255
17850   4C93 3F          	db 63
17851   4C94 0F          	db 15
17852   4C95 07          	db 7
17853   4C96 03          	db 3
17854   4C97 03          	db 3
17855   4C98 01          	db 1
17856   4C99 01          	db 1
17857   4C9A 01          	db 1
17858   4C9B 01          	db 1
17859   4C9C 03          	db 3
17860   4C9D 03          	db 3
17861   4C9E 07          	db 7
17862   4C9F 0F          	db 15
17863   4CA0 3F          	db 63
17864   4CA1 FF          	db 255
17865   4CA2 00          	db 0
17866   4CA3 00          	db 0
17867   4CA4 00          	db 0
17868   4CA5 06          	db 6
17869   4CA6 0E          	db 14
17870   4CA7 0C          	db 12
17871   4CA8 00          	db 0
17872   4CA9 00          	db 0
17873   4CAA 00          	db 0
17874   4CAB 00          	db 0
17875   4CAC 00          	db 0
17876   4CAD 00          	db 0
17877   4CAE 00          	db 0
17878   4CAF 00          	db 0
17879   4CB0 00          	db 0
17880   4CB1 00          	db 0
17881   4CB2 00          	db 0
17882   4CB3 00          	db 0
17883   4CB4 00          	db 0
17884   4CB5 00          	db 0
17885   4CB6 00          	db 0
17886   4CB7 00          	db 0
17887   4CB8 00          	db 0
17888   4CB9 00          	db 0
17889   4CBA 00          	db 0
17890   4CBB 00          	db 0
17891   4CBC 00          	db 0
17892   4CBD 00          	db 0
17893   4CBE 00          	db 0
17894   4CBF 00          	db 0
17895   4CC0 00          	db 0
17896   4CC1 00          	db 0
17897   4CC2 FF          	db 255
17898   4CC3 FF          	db 255
17899   4CC4 FC          	db 252
17900   4CC5 F0          	db 240
17901   4CC6 E6          	db 230
17902   4CC7 EC          	db 236
17903   4CC8 C0          	db 192
17904   4CC9 C0          	db 192
17905   4CCA C0          	db 192
17906   4CCB E0          	db 224
17907   4CCC E0          	db 224
17908   4CCD E0          	db 224
17909   4CCE F0          	db 240
17910   4CCF FC          	db 252
17911   4CD0 FF          	db 255
17912   4CD1 FF          	db 255
17913   4CD2 FF          	db 255
17914   4CD3 FF          	db 255
17915   4CD4 3F          	db 63
17916   4CD5 0F          	db 15
17917   4CD6 07          	db 7
17918   4CD7 07          	db 7
17919   4CD8 03          	db 3
17920   4CD9 03          	db 3
17921   4CDA 03          	db 3
17922   4CDB 03          	db 3
17923   4CDC 07          	db 7
17924   4CDD 07          	db 7
17925   4CDE 0F          	db 15
17926   4CDF 3F          	db 63
17927   4CE0 FF          	db 255
17928   4CE1 FF          	db 255
17929   4CE2 00          	db 0
17930   4CE3 00          	db 0
17931   4CE4 00          	db 0
17932   4CE5 00          	db 0
17933   4CE6 06          	db 6
17934   4CE7 0C          	db 12
17935   4CE8 00          	db 0
17936   4CE9 00          	db 0
17937   4CEA 00          	db 0
17938   4CEB 00          	db 0
17939   4CEC 00          	db 0
17940   4CED 00          	db 0
17941   4CEE 00          	db 0
17942   4CEF 00          	db 0
17943   4CF0 00          	db 0
17944   4CF1 00          	db 0
17945   4CF2 00          	db 0
17946   4CF3 00          	db 0
17947   4CF4 00          	db 0
17948   4CF5 00          	db 0
17949   4CF6 00          	db 0
17950   4CF7 00          	db 0
17951   4CF8 00          	db 0
17952   4CF9 00          	db 0
17953   4CFA 00          	db 0
17954   4CFB 00          	db 0
17955   4CFC 00          	db 0
17956   4CFD 00          	db 0
17957   4CFE 00          	db 0
17958   4CFF 00          	db 0
17959   4D00 00          	db 0
17960   4D01 00          	db 0
17961   4D02 FF          	db 255
17962   4D03 FF          	db 255
17963   4D04 FF          	db 255
17964   4D05 FE          	db 254
17965   4D06 F8          	db 248
17966   4D07 F2          	db 242
17967   4D08 F4          	db 244
17968   4D09 E0          	db 224
17969   4D0A E0          	db 224
17970   4D0B F0          	db 240
17971   4D0C F0          	db 240
17972   4D0D F8          	db 248
17973   4D0E FE          	db 254
17974   4D0F FF          	db 255
17975   4D10 FF          	db 255
17976   4D11 FF          	db 255
17977   4D12 FF          	db 255
17978   4D13 FF          	db 255
17979   4D14 FF          	db 255
17980   4D15 7F          	db 127
17981   4D16 1F          	db 31
17982   4D17 0F          	db 15
17983   4D18 0F          	db 15
17984   4D19 07          	db 7
17985   4D1A 07          	db 7
17986   4D1B 0F          	db 15
17987   4D1C 0F          	db 15
17988   4D1D 1F          	db 31
17989   4D1E 7F          	db 127
17990   4D1F FF          	db 255
17991   4D20 FF          	db 255
17992   4D21 FF          	db 255
17993   4D22 00          	db 0
17994   4D23 00          	db 0
17995   4D24 00          	db 0
17996   4D25 00          	db 0
17997   4D26 00          	db 0
17998   4D27 02          	db 2
17999   4D28 04          	db 4
18000   4D29 00          	db 0
18001   4D2A 00          	db 0
18002   4D2B 00          	db 0
18003   4D2C 00          	db 0
18004   4D2D 00          	db 0
18005   4D2E 00          	db 0
18006   4D2F 00          	db 0
18007   4D30 00          	db 0
18008   4D31 00          	db 0
18009   4D32 00          	db 0
18010   4D33 00          	db 0
18011   4D34 00          	db 0
18012   4D35 00          	db 0
18013   4D36 00          	db 0
18014   4D37 00          	db 0
18015   4D38 00          	db 0
18016   4D39 00          	db 0
18017   4D3A 00          	db 0
18018   4D3B 00          	db 0
18019   4D3C 00          	db 0
18020   4D3D 00          	db 0
18021   4D3E 00          	db 0
18022   4D3F 00          	db 0
18023   4D40 00          	db 0
18024   4D41 00          	db 0
18025   4D42 FF          	db 255
18026   4D43 FF          	db 255
18027   4D44 FF          	db 255
18028   4D45 FF          	db 255
18029   4D46 FF          	db 255
18030   4D47 FF          	db 255
18031   4D48 FE          	db 254
18032   4D49 FD          	db 253
18033   4D4A FC          	db 252
18034   4D4B FC          	db 252
18035   4D4C FE          	db 254
18036   4D4D FF          	db 255
18037   4D4E FF          	db 255
18038   4D4F FF          	db 255
18039   4D50 FF          	db 255
18040   4D51 FF          	db 255
18041   4D52 FF          	db 255
18042   4D53 FF          	db 255
18043   4D54 FF          	db 255
18044   4D55 FF          	db 255
18045   4D56 FF          	db 255
18046   4D57 FF          	db 255
18047   4D58 3F          	db 63
18048   4D59 1F          	db 31
18049   4D5A 1F          	db 31
18050   4D5B 1F          	db 31
18051   4D5C 3F          	db 63
18052   4D5D FF          	db 255
18053   4D5E FF          	db 255
18054   4D5F FF          	db 255
18055   4D60 FF          	db 255
18056   4D61 FF          	db 255
18057   4D62 00          	db 0
18058   4D63 00          	db 0
18059   4D64 00          	db 0
18060   4D65 00          	db 0
18061   4D66 00          	db 0
18062   4D67 00          	db 0
18063   4D68 00          	db 0
18064   4D69 01          	db 1
18065   4D6A 00          	db 0
18066   4D6B 00          	db 0
18067   4D6C 00          	db 0
18068   4D6D 00          	db 0
18069   4D6E 00          	db 0
18070   4D6F 00          	db 0
18071   4D70 00          	db 0
18072   4D71 00          	db 0
18073   4D72 00          	db 0
18074   4D73 00          	db 0
18075   4D74 00          	db 0
18076   4D75 00          	db 0
18077   4D76 00          	db 0
18078   4D77 00          	db 0
18079   4D78 00          	db 0
18080   4D79 00          	db 0
18081   4D7A 00          	db 0
18082   4D7B 00          	db 0
18083   4D7C 00          	db 0
18084   4D7D 00          	db 0
18085   4D7E 00          	db 0
18086   4D7F 00          	db 0
18087   4D80 00          	db 0
18088   4D81 00          	db 0
18089   4D82 FF          	db 255
18090   4D83 FF          	db 255
18091   4D84 FF          	db 255
18092   4D85 FF          	db 255
18093   4D86 FF          	db 255
18094   4D87 FF          	db 255
18095   4D88 FF          	db 255
18096   4D89 FE          	db 254
18097   4D8A FC          	db 252
18098   4D8B FE          	db 254
18099   4D8C FF          	db 255
18100   4D8D FF          	db 255
18101   4D8E FF          	db 255
18102   4D8F FF          	db 255
18103   4D90 FF          	db 255
18104   4D91 FF          	db 255
18105   4D92 FF          	db 255
18106   4D93 FF          	db 255
18107   4D94 FF          	db 255
18108   4D95 FF          	db 255
18109   4D96 FF          	db 255
18110   4D97 FF          	db 255
18111   4D98 FF          	db 255
18112   4D99 FF          	db 255
18113   4D9A 7F          	db 127
18114   4D9B FF          	db 255
18115   4D9C FF          	db 255
18116   4D9D FF          	db 255
18117   4D9E FF          	db 255
18118   4D9F FF          	db 255
18119   4DA0 FF          	db 255
18120   4DA1 FF          	db 255
18121   4DA2 00          	db 0
18122   4DA3 00          	db 0
18123   4DA4 00          	db 0
18124   4DA5 00          	db 0
18125   4DA6 00          	db 0
18126   4DA7 00          	db 0
18127   4DA8 00          	db 0
18128   4DA9 00          	db 0
18129   4DAA 00          	db 0
18130   4DAB 00          	db 0
18131   4DAC 00          	db 0
18132   4DAD 00          	db 0
18133   4DAE 00          	db 0
18134   4DAF 00          	db 0
18135   4DB0 00          	db 0
18136   4DB1 00          	db 0
18137   4DB2 00          	db 0
18138   4DB3 00          	db 0
18139   4DB4 00          	db 0
18140   4DB5 00          	db 0
18141   4DB6 00          	db 0
18142   4DB7 00          	db 0
18143   4DB8 00          	db 0
18144   4DB9 00          	db 0
18145   4DBA 00          	db 0
18146   4DBB 00          	db 0
18147   4DBC 00          	db 0
18148   4DBD 00          	db 0
18149   4DBE 00          	db 0
18150   4DBF 00          	db 0
18151   4DC0 00          	db 0
18152   4DC1 00          	db 0
18153   4DC2 FF          	db 255
18154   4DC3 FB          	db 251
18155   4DC4 E1          	db 225
18156   4DC5 C1          	db 193
18157   4DC6 99          	db 153
18158   4DC7 81          	db 129
18159   4DC8 C3          	db 195
18160   4DC9 FF          	db 255
18161   4DCA FF          	db 255
18162   4DCB C3          	db 195
18163   4DCC 81          	db 129
18164   4DCD 81          	db 129
18165   4DCE C1          	db 193
18166   4DCF E1          	db 225
18167   4DD0 FB          	db 251
18168   4DD1 FF          	db 255
18169   4DD2 FF          	db 255
18170   4DD3 DF          	db 223
18171   4DD4 87          	db 135
18172   4DD5 83          	db 131
18173   4DD6 81          	db 129
18174   4DD7 81          	db 129
18175   4DD8 C3          	db 195
18176   4DD9 FF          	db 255
18177   4DDA FF          	db 255
18178   4DDB C3          	db 195
18179   4DDC 81          	db 129
18180   4DDD 81          	db 129
18181   4DDE 83          	db 131
18182   4DDF 87          	db 135
18183   4DE0 DF          	db 223
18184   4DE1 FF          	db 255
18185   4DE2 00          	db 0
18186   4DE3 00          	db 0
18187   4DE4 00          	db 0
18188   4DE5 00          	db 0
18189   4DE6 18          	db 24
18190   4DE7 00          	db 0
18191   4DE8 00          	db 0
18192   4DE9 00          	db 0
18193   4DEA 00          	db 0
18194   4DEB 00          	db 0
18195   4DEC 00          	db 0
18196   4DED 00          	db 0
18197   4DEE 00          	db 0
18198   4DEF 00          	db 0
18199   4DF0 00          	db 0
18200   4DF1 00          	db 0
18201   4DF2 00          	db 0
18202   4DF3 00          	db 0
18203   4DF4 00          	db 0
18204   4DF5 00          	db 0
18205   4DF6 00          	db 0
18206   4DF7 00          	db 0
18207   4DF8 00          	db 0
18208   4DF9 00          	db 0
18209   4DFA 00          	db 0
18210   4DFB 00          	db 0
18211   4DFC 00          	db 0
18212   4DFD 00          	db 0
18213   4DFE 00          	db 0
18214   4DFF 00          	db 0
18215   4E00 00          	db 0
18216   4E01 00          	db 0
18217   4E02 FF          	db 255
18218   4E03 FF          	db 255
18219   4E04 E7          	db 231
18220   4E05 D3          	db 211
18221   4E06 83          	db 131
18222   4E07 C7          	db 199
18223   4E08 FF          	db 255
18224   4E09 FF          	db 255
18225   4E0A FF          	db 255
18226   4E0B FF          	db 255
18227   4E0C C7          	db 199
18228   4E0D 83          	db 131
18229   4E0E C3          	db 195
18230   4E0F E7          	db 231
18231   4E10 FF          	db 255
18232   4E11 FF          	db 255
18233   4E12 FF          	db 255
18234   4E13 FF          	db 255
18235   4E14 E7          	db 231
18236   4E15 C3          	db 195
18237   4E16 C1          	db 193
18238   4E17 E3          	db 227
18239   4E18 FF          	db 255
18240   4E19 FF          	db 255
18241   4E1A FF          	db 255
18242   4E1B FF          	db 255
18243   4E1C E3          	db 227
18244   4E1D C1          	db 193
18245   4E1E C3          	db 195
18246   4E1F E7          	db 231
18247   4E20 FF          	db 255
18248   4E21 FF          	db 255
18249   4E22 00          	db 0
18250   4E23 00          	db 0
18251   4E24 00          	db 0
18252   4E25 10          	db 16
18253   4E26 00          	db 0
18254   4E27 00          	db 0
18255   4E28 00          	db 0
18256   4E29 00          	db 0
18257   4E2A 00          	db 0
18258   4E2B 00          	db 0
18259   4E2C 00          	db 0
18260   4E2D 00          	db 0
18261   4E2E 00          	db 0
18262   4E2F 00          	db 0
18263   4E30 00          	db 0
18264   4E31 00          	db 0
18265   4E32 00          	db 0
18266   4E33 00          	db 0
18267   4E34 00          	db 0
18268   4E35 00          	db 0
18269   4E36 00          	db 0
18270   4E37 00          	db 0
18271   4E38 00          	db 0
18272   4E39 00          	db 0
18273   4E3A 00          	db 0
18274   4E3B 00          	db 0
18275   4E3C 00          	db 0
18276   4E3D 00          	db 0
18277   4E3E 00          	db 0
18278   4E3F 00          	db 0
18279   4E40 00          	db 0
18280   4E41 00          	db 0
18281   4E42 FF          	db 255
18282   4E43 FF          	db 255
18283   4E44 DF          	db 223
18284   4E45 8F          	db 143
18285   4E46 DF          	db 223
18286   4E47 FF          	db 255
18287   4E48 FF          	db 255
18288   4E49 FF          	db 255
18289   4E4A FF          	db 255
18290   4E4B FF          	db 255
18291   4E4C FF          	db 255
18292   4E4D DF          	db 223
18293   4E4E 8F          	db 143
18294   4E4F DF          	db 223
18295   4E50 FF          	db 255
18296   4E51 FF          	db 255
18297   4E52 FF          	db 255
18298   4E53 FF          	db 255
18299   4E54 FB          	db 251
18300   4E55 F1          	db 241
18301   4E56 FB          	db 251
18302   4E57 FF          	db 255
18303   4E58 FF          	db 255
18304   4E59 FF          	db 255
18305   4E5A FF          	db 255
18306   4E5B FF          	db 255
18307   4E5C FF          	db 255
18308   4E5D FB          	db 251
18309   4E5E F1          	db 241
18310   4E5F FB          	db 251
18311   4E60 FF          	db 255
18312   4E61 FF          	db 255
18313   4E62 00          	db 0
18314   4E63 00          	db 0
18315   4E64 00          	db 0
18316   4E65 20          	db 32
18317   4E66 00          	db 0
18318   4E67 00          	db 0
18319   4E68 00          	db 0
18320   4E69 00          	db 0
18321   4E6A 00          	db 0
18322   4E6B 00          	db 0
18323   4E6C 00          	db 0
18324   4E6D 00          	db 0
18325   4E6E 20          	db 32
18326   4E6F 00          	db 0
18327   4E70 00          	db 0
18328   4E71 00          	db 0
18329   4E72 00          	db 0
18330   4E73 00          	db 0
18331   4E74 00          	db 0
18332   4E75 04          	db 4
18333   4E76 00          	db 0
18334   4E77 00          	db 0
18335   4E78 00          	db 0
18336   4E79 00          	db 0
18337   4E7A 00          	db 0
18338   4E7B 00          	db 0
18339   4E7C 00          	db 0
18340   4E7D 00          	db 0
18341   4E7E 04          	db 4
18342   4E7F 00          	db 0
18343   4E80 00          	db 0
18344   4E81 00          	db 0
18345   4E82 FF          	db 255
18346   4E83 FF          	db 255
18347   4E84 FC          	db 252
18348   4E85 F0          	db 240
18349   4E86 E6          	db 230
18350   4E87 CE          	db 206
18351   4E88 8C          	db 140
18352   4E89 80          	db 128
18353   4E8A 80          	db 128
18354   4E8B 80          	db 128
18355   4E8C 80          	db 128
18356   4E8D C0          	db 192
18357   4E8E E0          	db 224
18358   4E8F F0          	db 240
18359   4E90 FC          	db 252
18360   4E91 FF          	db 255
18361   4E92 FF          	db 255
18362   4E93 FF          	db 255
18363   4E94 3F          	db 63
18364   4E95 0F          	db 15
18365   4E96 07          	db 7
18366   4E97 03          	db 3
18367   4E98 01          	db 1
18368   4E99 01          	db 1
18369   4E9A 01          	db 1
18370   4E9B 01          	db 1
18371   4E9C 01          	db 1
18372   4E9D 03          	db 3
18373   4E9E 07          	db 7
18374   4E9F 0F          	db 15
18375   4EA0 3F          	db 63
18376   4EA1 FF          	db 255
18377   4EA2 00          	db 0
18378   4EA3 00          	db 0
18379   4EA4 00          	db 0
18380   4EA5 00          	db 0
18381   4EA6 06          	db 6
18382   4EA7 0E          	db 14
18383   4EA8 0C          	db 12
18384   4EA9 00          	db 0
18385   4EAA 00          	db 0
18386   4EAB 00          	db 0
18387   4EAC 00          	db 0
18388   4EAD 00          	db 0
18389   4EAE 00          	db 0
18390   4EAF 00          	db 0
18391   4EB0 00          	db 0
18392   4EB1 00          	db 0
18393   4EB2 00          	db 0
18394   4EB3 00          	db 0
18395   4EB4 00          	db 0
18396   4EB5 00          	db 0
18397   4EB6 00          	db 0
18398   4EB7 00          	db 0
18399   4EB8 00          	db 0
18400   4EB9 00          	db 0
18401   4EBA 00          	db 0
18402   4EBB 00          	db 0
18403   4EBC 00          	db 0
18404   4EBD 00          	db 0
18405   4EBE 00          	db 0
18406   4EBF 00          	db 0
18407   4EC0 00          	db 0
18408   4EC1 00          	db 0
18409   4EC2 FF          	db 255
18410   4EC3 FF          	db 255
18411   4EC4 FF          	db 255
18412   4EC5 F8          	db 248
18413   4EC6 E0          	db 224
18414   4EC7 C6          	db 198
18415   4EC8 CE          	db 206
18416   4EC9 8C          	db 140
18417   4ECA 80          	db 128
18418   4ECB 80          	db 128
18419   4ECC 80          	db 128
18420   4ECD C0          	db 192
18421   4ECE C0          	db 192
18422   4ECF E0          	db 224
18423   4ED0 F8          	db 248
18424   4ED1 FF          	db 255
18425   4ED2 FF          	db 255
18426   4ED3 FF          	db 255
18427   4ED4 FF          	db 255
18428   4ED5 1F          	db 31
18429   4ED6 07          	db 7
18430   4ED7 03          	db 3
18431   4ED8 03          	db 3
18432   4ED9 01          	db 1
18433   4EDA 01          	db 1
18434   4EDB 01          	db 1
18435   4EDC 01          	db 1
18436   4EDD 03          	db 3
18437   4EDE 03          	db 3
18438   4EDF 07          	db 7
18439   4EE0 1F          	db 31
18440   4EE1 FF          	db 255
18441   4EE2 00          	db 0
18442   4EE3 00          	db 0
18443   4EE4 00          	db 0
18444   4EE5 00          	db 0
18445   4EE6 00          	db 0
18446   4EE7 06          	db 6
18447   4EE8 0E          	db 14
18448   4EE9 0C          	db 12
18449   4EEA 00          	db 0
18450   4EEB 00          	db 0
18451   4EEC 00          	db 0
18452   4EED 00          	db 0
18453   4EEE 00          	db 0
18454   4EEF 00          	db 0
18455   4EF0 00          	db 0
18456   4EF1 00          	db 0
18457   4EF2 00          	db 0
18458   4EF3 00          	db 0
18459   4EF4 00          	db 0
18460   4EF5 00          	db 0
18461   4EF6 00          	db 0
18462   4EF7 00          	db 0
18463   4EF8 00          	db 0
18464   4EF9 00          	db 0
18465   4EFA 00          	db 0
18466   4EFB 00          	db 0
18467   4EFC 00          	db 0
18468   4EFD 00          	db 0
18469   4EFE 00          	db 0
18470   4EFF 00          	db 0
18471   4F00 00          	db 0
18472   4F01 00          	db 0
18473   4F02 FF          	db 255
18474   4F03 FC          	db 252
18475   4F04 F2          	db 242
18476   4F05 E7          	db 231
18477   4F06 CE          	db 206
18478   4F07 DD          	db 221
18479   4F08 AA          	db 170
18480   4F09 95          	db 149
18481   4F0A AA          	db 170
18482   4F0B 95          	db 149
18483   4F0C CA          	db 202
18484   4F0D D4          	db 212
18485   4F0E E0          	db 224
18486   4F0F F0          	db 240
18487   4F10 FC          	db 252
18488   4F11 FF          	db 255
18489   4F12 FF          	db 255
18490   4F13 3F          	db 63
18491   4F14 8F          	db 143
18492   4F15 57          	db 87
18493   4F16 A3          	db 163
18494   4F17 53          	db 83
18495   4F18 A1          	db 161
18496   4F19 41          	db 65
18497   4F1A A1          	db 161
18498   4F1B 41          	db 65
18499   4F1C 83          	db 131
18500   4F1D 03          	db 3
18501   4F1E 07          	db 7
18502   4F1F 0F          	db 15
18503   4F20 3F          	db 63
18504   4F21 FF          	db 255
18505   4F22 00          	db 0
18506   4F23 00          	db 0
18507   4F24 01          	db 1
18508   4F25 0E          	db 14
18509   4F26 1F          	db 31
18510   4F27 0E          	db 14
18511   4F28 15          	db 21
18512   4F29 2A          	db 42
18513   4F2A 15          	db 21
18514   4F2B 2A          	db 42
18515   4F2C 15          	db 21
18516   4F2D 0A          	db 10
18517   4F2E 00          	db 0
18518   4F2F 00          	db 0
18519   4F30 00          	db 0
18520   4F31 00          	db 0
18521   4F32 00          	db 0
18522   4F33 00          	db 0
18523   4F34 40          	db 64
18524   4F35 A0          	db 160
18525   4F36 50          	db 80
18526   4F37 A0          	db 160
18527   4F38 50          	db 80
18528   4F39 A0          	db 160
18529   4F3A 40          	db 64
18530   4F3B 80          	db 128
18531   4F3C 00          	db 0
18532   4F3D 00          	db 0
18533   4F3E 00          	db 0
18534   4F3F 00          	db 0
18535   4F40 00          	db 0
18536   4F41 00          	db 0
18537   4F42 FF          	db 255
18538   4F43 FF          	db 255
18539   4F44 FC          	db 252
18540   4F45 F2          	db 242
18541   4F46 EF          	db 239
18542   4F47 EE          	db 238
18543   4F48 D5          	db 213
18544   4F49 CA          	db 202
18545   4F4A D5          	db 213
18546   4F4B EA          	db 234
18547   4F4C E5          	db 229
18548   4F4D E0          	db 224
18549   4F4E F0          	db 240
18550   4F4F FC          	db 252
18551   4F50 FF          	db 255
18552   4F51 FF          	db 255
18553   4F52 FF          	db 255
18554   4F53 FF          	db 255
18555   4F54 3F          	db 63
18556   4F55 8F          	db 143
18557   4F56 57          	db 87
18558   4F57 A7          	db 167
18559   4F58 53          	db 83
18560   4F59 A3          	db 163
18561   4F5A 43          	db 67
18562   4F5B 83          	db 131
18563   4F5C 07          	db 7
18564   4F5D 07          	db 7
18565   4F5E 0F          	db 15
18566   4F5F 3F          	db 63
18567   4F60 FF          	db 255
18568   4F61 FF          	db 255
18569   4F62 00          	db 0
18570   4F63 00          	db 0
18571   4F64 00          	db 0
18572   4F65 01          	db 1
18573   4F66 06          	db 6
18574   4F67 0D          	db 13
18575   4F68 0A          	db 10
18576   4F69 15          	db 21
18577   4F6A 0A          	db 10
18578   4F6B 05          	db 5
18579   4F6C 0A          	db 10
18580   4F6D 00          	db 0
18581   4F6E 00          	db 0
18582   4F6F 00          	db 0
18583   4F70 00          	db 0
18584   4F71 00          	db 0
18585   4F72 00          	db 0
18586   4F73 00          	db 0
18587   4F74 00          	db 0
18588   4F75 40          	db 64
18589   4F76 A0          	db 160
18590   4F77 50          	db 80
18591   4F78 A0          	db 160
18592   4F79 40          	db 64
18593   4F7A A0          	db 160
18594   4F7B 40          	db 64
18595   4F7C 00          	db 0
18596   4F7D 00          	db 0
18597   4F7E 00          	db 0
18598   4F7F 00          	db 0
18599   4F80 00          	db 0
18600   4F81 00          	db 0
18601   4F82 FF          	db 255
18602   4F83 FF          	db 255
18603   4F84 FF          	db 255
18604   4F85 FE          	db 254
18605   4F86 F8          	db 248
18606   4F87 F3          	db 243
18607   4F88 F6          	db 246
18608   4F89 E5          	db 229
18609   4F8A EA          	db 234
18610   4F8B F5          	db 245
18611   4F8C F0          	db 240
18612   4F8D F8          	db 248
18613   4F8E FE          	db 254
18614   4F8F FF          	db 255
18615   4F90 FF          	db 255
18616   4F91 FF          	db 255
18617   4F92 FF          	db 255
18618   4F93 FF          	db 255
18619   4F94 FF          	db 255
18620   4F95 7F          	db 127
18621   4F96 9F          	db 159
18622   4F97 4F          	db 79
18623   4F98 AF          	db 175
18624   4F99 47          	db 71
18625   4F9A 87          	db 135
18626   4F9B 0F          	db 15
18627   4F9C 0F          	db 15
18628   4F9D 1F          	db 31
18629   4F9E 7F          	db 127
18630   4F9F FF          	db 255
18631   4FA0 FF          	db 255
18632   4FA1 FF          	db 255
18633   4FA2 00          	db 0
18634   4FA3 00          	db 0
18635   4FA4 00          	db 0
18636   4FA5 00          	db 0
18637   4FA6 01          	db 1
18638   4FA7 07          	db 7
18639   4FA8 07          	db 7
18640   4FA9 0F          	db 15
18641   4FAA 0F          	db 15
18642   4FAB 07          	db 7
18643   4FAC 00          	db 0
18644   4FAD 00          	db 0
18645   4FAE 00          	db 0
18646   4FAF 00          	db 0
18647   4FB0 00          	db 0
18648   4FB1 00          	db 0
18649   4FB2 00          	db 0
18650   4FB3 00          	db 0
18651   4FB4 00          	db 0
18652   4FB5 00          	db 0
18653   4FB6 80          	db 128
18654   4FB7 E0          	db 224
18655   4FB8 E0          	db 224
18656   4FB9 C0          	db 192
18657   4FBA C0          	db 192
18658   4FBB 00          	db 0
18659   4FBC 00          	db 0
18660   4FBD 00          	db 0
18661   4FBE 00          	db 0
18662   4FBF 00          	db 0
18663   4FC0 00          	db 0
18664   4FC1 00          	db 0
18665   4FC2 FF          	db 255
18666   4FC3 FF          	db 255
18667   4FC4 FF          	db 255
18668   4FC5 FF          	db 255
18669   4FC6 FF          	db 255
18670   4FC7 FF          	db 255
18671   4FC8 FE          	db 254
18672   4FC9 FD          	db 253
18673   4FCA FD          	db 253
18674   4FCB FC          	db 252
18675   4FCC FE          	db 254
18676   4FCD FF          	db 255
18677   4FCE FF          	db 255
18678   4FCF FF          	db 255
18679   4FD0 FF          	db 255
18680   4FD1 FF          	db 255
18681   4FD2 FF          	db 255
18682   4FD3 FF          	db 255
18683   4FD4 FF          	db 255
18684   4FD5 FF          	db 255
18685   4FD6 FF          	db 255
18686   4FD7 FF          	db 255
18687   4FD8 3F          	db 63
18688   4FD9 9F          	db 159
18689   4FDA 1F          	db 31
18690   4FDB 1F          	db 31
18691   4FDC 3F          	db 63
18692   4FDD FF          	db 255
18693   4FDE FF          	db 255
18694   4FDF FF          	db 255
18695   4FE0 FF          	db 255
18696   4FE1 FF          	db 255
18697   4FE2 00          	db 0
18698   4FE3 00          	db 0
18699   4FE4 00          	db 0
18700   4FE5 00          	db 0
18701   4FE6 00          	db 0
18702   4FE7 00          	db 0
18703   4FE8 00          	db 0
18704   4FE9 01          	db 1
18705   4FEA 01          	db 1
18706   4FEB 01          	db 1
18707   4FEC 00          	db 0
18708   4FED 00          	db 0
18709   4FEE 00          	db 0
18710   4FEF 00          	db 0
18711   4FF0 00          	db 0
18712   4FF1 00          	db 0
18713   4FF2 00          	db 0
18714   4FF3 00          	db 0
18715   4FF4 00          	db 0
18716   4FF5 00          	db 0
18717   4FF6 00          	db 0
18718   4FF7 00          	db 0
18719   4FF8 00          	db 0
18720   4FF9 C0          	db 192
18721   4FFA 80          	db 128
18722   4FFB 00          	db 0
18723   4FFC 00          	db 0
18724   4FFD 00          	db 0
18725   4FFE 00          	db 0
18726   4FFF 00          	db 0
18727   5000 00          	db 0
18728   5001 00          	db 0
18729   5002 FF          	db 255
18730   5003 FF          	db 255
18731   5004 FF          	db 255
18732   5005 FF          	db 255
18733   5006 FF          	db 255
18734   5007 FF          	db 255
18735   5008 FF          	db 255
18736   5009 FE          	db 254
18737   500A FC          	db 252
18738   500B FE          	db 254
18739   500C FF          	db 255
18740   500D FF          	db 255
18741   500E FF          	db 255
18742   500F FF          	db 255
18743   5010 FF          	db 255
18744   5011 FF          	db 255
18745   5012 FF          	db 255
18746   5013 FF          	db 255
18747   5014 FF          	db 255
18748   5015 FF          	db 255
18749   5016 FF          	db 255
18750   5017 FF          	db 255
18751   5018 FF          	db 255
18752   5019 FF          	db 255
18753   501A 7F          	db 127
18754   501B FF          	db 255
18755   501C FF          	db 255
18756   501D FF          	db 255
18757   501E FF          	db 255
18758   501F FF          	db 255
18759   5020 FF          	db 255
18760   5021 FF          	db 255
18761   5022 00          	db 0
18762   5023 00          	db 0
18763   5024 00          	db 0
18764   5025 00          	db 0
18765   5026 00          	db 0
18766   5027 00          	db 0
18767   5028 00          	db 0
18768   5029 00          	db 0
18769   502A 01          	db 1
18770   502B 00          	db 0
18771   502C 00          	db 0
18772   502D 00          	db 0
18773   502E 00          	db 0
18774   502F 00          	db 0
18775   5030 00          	db 0
18776   5031 00          	db 0
18777   5032 00          	db 0
18778   5033 00          	db 0
18779   5034 00          	db 0
18780   5035 00          	db 0
18781   5036 00          	db 0
18782   5037 00          	db 0
18783   5038 00          	db 0
18784   5039 00          	db 0
18785   503A 00          	db 0
18786   503B 00          	db 0
18787   503C 00          	db 0
18788   503D 00          	db 0
18789   503E 00          	db 0
18790   503F 00          	db 0
18791   5040 00          	db 0
18792   5041 00          	db 0
18793   5042 FF          	db 255
18794   5043 FB          	db 251
18795   5044 E1          	db 225
18796   5045 C9          	db 201
18797   5046 99          	db 153
18798   5047 A1          	db 161
18799   5048 C3          	db 195
18800   5049 FF          	db 255
18801   504A FF          	db 255
18802   504B C3          	db 195
18803   504C A9          	db 169
18804   504D 81          	db 129
18805   504E C1          	db 193
18806   504F E1          	db 225
18807   5050 FB          	db 251
18808   5051 FF          	db 255
18809   5052 FF          	db 255
18810   5053 DF          	db 223
18811   5054 87          	db 135
18812   5055 AB          	db 171
18813   5056 91          	db 145
18814   5057 A1          	db 161
18815   5058 C3          	db 195
18816   5059 FF          	db 255
18817   505A FF          	db 255
18818   505B C3          	db 195
18819   505C A1          	db 161
18820   505D 91          	db 145
18821   505E 83          	db 131
18822   505F 87          	db 135
18823   5060 DF          	db 223
18824   5061 FF          	db 255
18825   5062 00          	db 0
18826   5063 00          	db 0
18827   5064 00          	db 0
18828   5065 14          	db 20
18829   5066 38          	db 56
18830   5067 10          	db 16
18831   5068 00          	db 0
18832   5069 00          	db 0
18833   506A 00          	db 0
18834   506B 00          	db 0
18835   506C 14          	db 20
18836   506D 08          	db 8
18837   506E 00          	db 0
18838   506F 00          	db 0
18839   5070 00          	db 0
18840   5071 00          	db 0
18841   5072 00          	db 0
18842   5073 00          	db 0
18843   5074 20          	db 32
18844   5075 10          	db 16
18845   5076 28          	db 40
18846   5077 00          	db 0
18847   5078 00          	db 0
18848   5079 00          	db 0
18849   507A 00          	db 0
18850   507B 00          	db 0
18851   507C 10          	db 16
18852   507D 20          	db 32
18853   507E 00          	db 0
18854   507F 00          	db 0
18855   5080 00          	db 0
18856   5081 00          	db 0
18857   5082 FF          	db 255
18858   5083 FF          	db 255
18859   5084 E7          	db 231
18860   5085 DB          	db 219
18861   5086 93          	db 147
18862   5087 C7          	db 199
18863   5088 FF          	db 255
18864   5089 FF          	db 255
18865   508A FF          	db 255
18866   508B FF          	db 255
18867   508C C7          	db 199
18868   508D 8B          	db 139
18869   508E D3          	db 211
18870   508F E7          	db 231
18871   5090 FF          	db 255
18872   5091 FF          	db 255
18873   5092 FF          	db 255
18874   5093 FF          	db 255
18875   5094 E7          	db 231
18876   5095 CB          	db 203
18877   5096 D1          	db 209
18878   5097 E3          	db 227
18879   5098 FF          	db 255
18880   5099 FF          	db 255
18881   509A FF          	db 255
18882   509B FF          	db 255
18883   509C E3          	db 227
18884   509D C9          	db 201
18885   509E D3          	db 211
18886   509F E7          	db 231
18887   50A0 FF          	db 255
18888   50A1 FF          	db 255
18889   50A2 00          	db 0
18890   50A3 00          	db 0
18891   50A4 00          	db 0
18892   50A5 10          	db 16
18893   50A6 20          	db 32
18894   50A7 00          	db 0
18895   50A8 00          	db 0
18896   50A9 00          	db 0
18897   50AA 00          	db 0
18898   50AB 00          	db 0
18899   50AC 00          	db 0
18900   50AD 10          	db 16
18901   50AE 00          	db 0
18902   50AF 00          	db 0
18903   50B0 00          	db 0
18904   50B1 00          	db 0
18905   50B2 00          	db 0
18906   50B3 00          	db 0
18907   50B4 00          	db 0
18908   50B5 10          	db 16
18909   50B6 08          	db 8
18910   50B7 00          	db 0
18911   50B8 00          	db 0
18912   50B9 00          	db 0
18913   50BA 00          	db 0
18914   50BB 00          	db 0
18915   50BC 00          	db 0
18916   50BD 10          	db 16
18917   50BE 00          	db 0
18918   50BF 00          	db 0
18919   50C0 00          	db 0
18920   50C1 00          	db 0
18921   50C2 FF          	db 255
18922   50C3 FF          	db 255
18923   50C4 DF          	db 223
18924   50C5 8F          	db 143
18925   50C6 DF          	db 223
18926   50C7 FF          	db 255
18927   50C8 FF          	db 255
18928   50C9 FF          	db 255
18929   50CA FF          	db 255
18930   50CB FF          	db 255
18931   50CC FF          	db 255
18932   50CD DF          	db 223
18933   50CE AF          	db 175
18934   50CF DF          	db 223
18935   50D0 FF          	db 255
18936   50D1 FF          	db 255
18937   50D2 FF          	db 255
18938   50D3 FF          	db 255
18939   50D4 FB          	db 251
18940   50D5 F5          	db 245
18941   50D6 FB          	db 251
18942   50D7 FF          	db 255
18943   50D8 FF          	db 255
18944   50D9 FF          	db 255
18945   50DA FF          	db 255
18946   50DB FF          	db 255
18947   50DC FF          	db 255
18948   50DD FB          	db 251
18949   50DE F1          	db 241
18950   50DF FB          	db 251
18951   50E0 FF          	db 255
18952   50E1 FF          	db 255
18953   50E2 00          	db 0
18954   50E3 00          	db 0
18955   50E4 00          	db 0
18956   50E5 20          	db 32
18957   50E6 00          	db 0
18958   50E7 00          	db 0
18959   50E8 00          	db 0
18960   50E9 00          	db 0
18961   50EA 00          	db 0
18962   50EB 00          	db 0
18963   50EC 00          	db 0
18964   50ED 00          	db 0
18965   50EE 00          	db 0
18966   50EF 00          	db 0
18967   50F0 00          	db 0
18968   50F1 00          	db 0
18969   50F2 00          	db 0
18970   50F3 00          	db 0
18971   50F4 00          	db 0
18972   50F5 00          	db 0
18973   50F6 00          	db 0
18974   50F7 00          	db 0
18975   50F8 00          	db 0
18976   50F9 00          	db 0
18977   50FA 00          	db 0
18978   50FB 00          	db 0
18979   50FC 00          	db 0
18980   50FD 00          	db 0
18981   50FE 04          	db 4
18982   50FF 00          	db 0
18983   5100 00          	db 0
18984   5101 00          	db 0
18985   5102 FF          	db 255
18986   5103 FF          	db 255
18987   5104 FC          	db 252
18988   5105 F2          	db 242
18989   5106 E7          	db 231
18990   5107 CE          	db 206
18991   5108 9D          	db 157
18992   5109 AA          	db 170
18993   510A 95          	db 149
18994   510B AA          	db 170
18995   510C 95          	db 149
18996   510D CA          	db 202
18997   510E E0          	db 224
18998   510F F0          	db 240
18999   5110 FC          	db 252
19000   5111 FF          	db 255
19001   5112 FF          	db 255
19002   5113 FF          	db 255
19003   5114 3F          	db 63
19004   5115 8F          	db 143
19005   5116 57          	db 87
19006   5117 A3          	db 163
19007   5118 51          	db 81
19008   5119 A1          	db 161
19009   511A 41          	db 65
19010   511B 81          	db 129
19011   511C 01          	db 1
19012   511D 03          	db 3
19013   511E 07          	db 7
19014   511F 0F          	db 15
19015   5120 3F          	db 63
19016   5121 FF          	db 255
19017   5122 00          	db 0
19018   5123 00          	db 0
19019   5124 00          	db 0
19020   5125 01          	db 1
19021   5126 0E          	db 14
19022   5127 1F          	db 31
19023   5128 2E          	db 46
19024   5129 15          	db 21
19025   512A 2A          	db 42
19026   512B 15          	db 21
19027   512C 2A          	db 42
19028   512D 14          	db 20
19029   512E 00          	db 0
19030   512F 00          	db 0
19031   5130 00          	db 0
19032   5131 00          	db 0
19033   5132 00          	db 0
19034   5133 00          	db 0
19035   5134 00          	db 0
19036   5135 40          	db 64
19037   5136 A0          	db 160
19038   5137 50          	db 80
19039   5138 A0          	db 160
19040   5139 50          	db 80
19041   513A A0          	db 160
19042   513B 40          	db 64
19043   513C 80          	db 128
19044   513D 00          	db 0
19045   513E 00          	db 0
19046   513F 00          	db 0
19047   5140 00          	db 0
19048   5141 00          	db 0
19049   5142 FF          	db 255
19050   5143 FF          	db 255
19051   5144 FF          	db 255
19052   5145 F8          	db 248
19053   5146 E5          	db 229
19054   5147 CE          	db 206
19055   5148 DF          	db 223
19056   5149 AE          	db 174
19057   514A 95          	db 149
19058   514B AA          	db 170
19059   514C 95          	db 149
19060   514D CA          	db 202
19061   514E C0          	db 192
19062   514F E0          	db 224
19063   5150 F8          	db 248
19064   5151 FF          	db 255
19065   5152 FF          	db 255
19066   5153 FF          	db 255
19067   5154 FF          	db 255
19068   5155 1F          	db 31
19069   5156 47          	db 71
19070   5157 A3          	db 163
19071   5158 53          	db 83
19072   5159 A1          	db 161
19073   515A 51          	db 81
19074   515B 81          	db 129
19075   515C 01          	db 1
19076   515D 03          	db 3
19077   515E 03          	db 3
19078   515F 07          	db 7
19079   5160 1F          	db 31
19080   5161 FF          	db 255
19081   5162 00          	db 0
19082   5163 00          	db 0
19083   5164 00          	db 0
19084   5165 00          	db 0
19085   5166 02          	db 2
19086   5167 17          	db 23
19087   5168 0E          	db 14
19088   5169 1D          	db 29
19089   516A 2A          	db 42
19090   516B 15          	db 21
19091   516C 2A          	db 42
19092   516D 14          	db 20
19093   516E 00          	db 0
19094   516F 00          	db 0
19095   5170 00          	db 0
19096   5171 00          	db 0
19097   5172 00          	db 0
19098   5173 00          	db 0
19099   5174 00          	db 0
19100   5175 00          	db 0
19101   5176 A0          	db 160
19102   5177 50          	db 80
19103   5178 A0          	db 160
19104   5179 50          	db 80
19105   517A A0          	db 160
19106   517B 40          	db 64
19107   517C 80          	db 128
19108   517D 00          	db 0
19109   517E 00          	db 0
19110   517F 00          	db 0
19111   5180 00          	db 0
19112   5181 00          	db 0
19113   5182 FF          	db 255
19114   5183 FC          	db 252
19115   5184 F2          	db 242
19116   5185 E7          	db 231
19117   5186 CE          	db 206
19118   5187 DD          	db 221
19119   5188 AA          	db 170
19120   5189 95          	db 149
19121   518A AA          	db 170
19122   518B 95          	db 149
19123   518C CA          	db 202
19124   518D D4          	db 212
19125   518E E0          	db 224
19126   518F F0          	db 240
19127   5190 FC          	db 252
19128   5191 FF          	db 255
19129   5192 FF          	db 255
19130   5193 3F          	db 63
19131   5194 8F          	db 143
19132   5195 57          	db 87
19133   5196 A3          	db 163
19134   5197 53          	db 83
19135   5198 A1          	db 161
19136   5199 41          	db 65
19137   519A A1          	db 161
19138   519B 41          	db 65
19139   519C 83          	db 131
19140   519D 03          	db 3
19141   519E 07          	db 7
19142   519F 0F          	db 15
19143   51A0 3F          	db 63
19144   51A1 FF          	db 255
19145   51A2 00          	db 0
19146   51A3 00          	db 0
19147   51A4 03          	db 3
19148   51A5 0F          	db 15
19149   51A6 1F          	db 31
19150   51A7 1F          	db 31
19151   51A8 3F          	db 63
19152   51A9 3F          	db 63
19153   51AA 3F          	db 63
19154   51AB 3F          	db 63
19155   51AC 1F          	db 31
19156   51AD 1E          	db 30
19157   51AE 00          	db 0
19158   51AF 00          	db 0
19159   51B0 00          	db 0
19160   51B1 00          	db 0
19161   51B2 00          	db 0
19162   51B3 00          	db 0
19163   51B4 C0          	db 192
19164   51B5 F0          	db 240
19165   51B6 F0          	db 240
19166   51B7 F0          	db 240
19167   51B8 F0          	db 240
19168   51B9 E0          	db 224
19169   51BA E0          	db 224
19170   51BB C0          	db 192
19171   51BC 80          	db 128
19172   51BD 00          	db 0
19173   51BE 00          	db 0
19174   51BF 00          	db 0
19175   51C0 00          	db 0
19176   51C1 00          	db 0
19177   51C2 FF          	db 255
19178   51C3 FF          	db 255
19179   51C4 FC          	db 252
19180   51C5 F2          	db 242
19181   51C6 E7          	db 231
19182   51C7 EE          	db 238
19183   51C8 D5          	db 213
19184   51C9 CA          	db 202
19185   51CA D5          	db 213
19186   51CB EA          	db 234
19187   51CC E5          	db 229
19188   51CD E0          	db 224
19189   51CE F0          	db 240
19190   51CF FC          	db 252
19191   51D0 FF          	db 255
19192   51D1 FF          	db 255
19193   51D2 FF          	db 255
19194   51D3 FF          	db 255
19195   51D4 3F          	db 63
19196   51D5 8F          	db 143
19197   51D6 57          	db 87
19198   51D7 A7          	db 167
19199   51D8 53          	db 83
19200   51D9 A3          	db 163
19201   51DA 43          	db 67
19202   51DB 83          	db 131
19203   51DC 07          	db 7
19204   51DD 07          	db 7
19205   51DE 0F          	db 15
19206   51DF 3F          	db 63
19207   51E0 FF          	db 255
19208   51E1 FF          	db 255
19209   51E2 00          	db 0
19210   51E3 00          	db 0
19211   51E4 00          	db 0
19212   51E5 03          	db 3
19213   51E6 0F          	db 15
19214   51E7 0F          	db 15
19215   51E8 1F          	db 31
19216   51E9 1F          	db 31
19217   51EA 1F          	db 31
19218   51EB 0F          	db 15
19219   51EC 0F          	db 15
19220   51ED 00          	db 0
19221   51EE 00          	db 0
19222   51EF 00          	db 0
19223   51F0 00          	db 0
19224   51F1 00          	db 0
19225   51F2 00          	db 0
19226   51F3 00          	db 0
19227   51F4 00          	db 0
19228   51F5 C0          	db 192
19229   51F6 F0          	db 240
19230   51F7 F0          	db 240
19231   51F8 F0          	db 240
19232   51F9 E0          	db 224
19233   51FA E0          	db 224
19234   51FB C0          	db 192
19235   51FC 00          	db 0
19236   51FD 00          	db 0
19237   51FE 00          	db 0
19238   51FF 00          	db 0
19239   5200 00          	db 0
19240   5201 00          	db 0
19241   5202 FF          	db 255
19242   5203 FF          	db 255
19243   5204 FF          	db 255
19244   5205 FE          	db 254
19245   5206 F8          	db 248
19246   5207 F3          	db 243
19247   5208 F6          	db 246
19248   5209 E5          	db 229
19249   520A EA          	db 234
19250   520B F5          	db 245
19251   520C F0          	db 240
19252   520D F8          	db 248
19253   520E FE          	db 254
19254   520F FF          	db 255
19255   5210 FF          	db 255
19256   5211 FF          	db 255
19257   5212 FF          	db 255
19258   5213 FF          	db 255
19259   5214 FF          	db 255
19260   5215 7F          	db 127
19261   5216 9F          	db 159
19262   5217 4F          	db 79
19263   5218 AF          	db 175
19264   5219 47          	db 71
19265   521A 87          	db 135
19266   521B 0F          	db 15
19267   521C 0F          	db 15
19268   521D 1F          	db 31
19269   521E 7F          	db 127
19270   521F FF          	db 255
19271   5220 FF          	db 255
19272   5221 FF          	db 255
19273   5222 00          	db 0
19274   5223 00          	db 0
19275   5224 00          	db 0
19276   5225 00          	db 0
19277   5226 01          	db 1
19278   5227 07          	db 7
19279   5228 07          	db 7
19280   5229 0F          	db 15
19281   522A 0F          	db 15
19282   522B 07          	db 7
19283   522C 00          	db 0
19284   522D 00          	db 0
19285   522E 00          	db 0
19286   522F 00          	db 0
19287   5230 00          	db 0
19288   5231 00          	db 0
19289   5232 00          	db 0
19290   5233 00          	db 0
19291   5234 00          	db 0
19292   5235 00          	db 0
19293   5236 80          	db 128
19294   5237 E0          	db 224
19295   5238 E0          	db 224
19296   5239 C0          	db 192
19297   523A C0          	db 192
19298   523B 00          	db 0
19299   523C 00          	db 0
19300   523D 00          	db 0
19301   523E 00          	db 0
19302   523F 00          	db 0
19303   5240 00          	db 0
19304   5241 00          	db 0
19305   5242 FF          	db 255
19306   5243 FF          	db 255
19307   5244 FF          	db 255
19308   5245 FF          	db 255
19309   5246 FF          	db 255
19310   5247 FF          	db 255
19311   5248 FE          	db 254
19312   5249 FD          	db 253
19313   524A FD          	db 253
19314   524B FC          	db 252
19315   524C FE          	db 254
19316   524D FF          	db 255
19317   524E FF          	db 255
19318   524F FF          	db 255
19319   5250 FF          	db 255
19320   5251 FF          	db 255
19321   5252 FF          	db 255
19322   5253 FF          	db 255
19323   5254 FF          	db 255
19324   5255 FF          	db 255
19325   5256 FF          	db 255
19326   5257 FF          	db 255
19327   5258 3F          	db 63
19328   5259 9F          	db 159
19329   525A 1F          	db 31
19330   525B 1F          	db 31
19331   525C 3F          	db 63
19332   525D FF          	db 255
19333   525E FF          	db 255
19334   525F FF          	db 255
19335   5260 FF          	db 255
19336   5261 FF          	db 255
19337   5262 00          	db 0
19338   5263 00          	db 0
19339   5264 00          	db 0
19340   5265 00          	db 0
19341   5266 00          	db 0
19342   5267 00          	db 0
19343   5268 00          	db 0
19344   5269 01          	db 1
19345   526A 01          	db 1
19346   526B 01          	db 1
19347   526C 00          	db 0
19348   526D 00          	db 0
19349   526E 00          	db 0
19350   526F 00          	db 0
19351   5270 00          	db 0
19352   5271 00          	db 0
19353   5272 00          	db 0
19354   5273 00          	db 0
19355   5274 00          	db 0
19356   5275 00          	db 0
19357   5276 00          	db 0
19358   5277 00          	db 0
19359   5278 00          	db 0
19360   5279 C0          	db 192
19361   527A 80          	db 128
19362   527B 00          	db 0
19363   527C 00          	db 0
19364   527D 00          	db 0
19365   527E 00          	db 0
19366   527F 00          	db 0
19367   5280 00          	db 0
19368   5281 00          	db 0
19369   5282 FF          	db 255
19370   5283 FF          	db 255
19371   5284 FF          	db 255
19372   5285 FF          	db 255
19373   5286 FF          	db 255
19374   5287 FF          	db 255
19375   5288 FF          	db 255
19376   5289 FE          	db 254
19377   528A FC          	db 252
19378   528B FE          	db 254
19379   528C FF          	db 255
19380   528D FF          	db 255
19381   528E FF          	db 255
19382   528F FF          	db 255
19383   5290 FF          	db 255
19384   5291 FF          	db 255
19385   5292 FF          	db 255
19386   5293 FF          	db 255
19387   5294 FF          	db 255
19388   5295 FF          	db 255
19389   5296 FF          	db 255
19390   5297 FF          	db 255
19391   5298 FF          	db 255
19392   5299 FF          	db 255
19393   529A 7F          	db 127
19394   529B FF          	db 255
19395   529C FF          	db 255
19396   529D FF          	db 255
19397   529E FF          	db 255
19398   529F FF          	db 255
19399   52A0 FF          	db 255
19400   52A1 FF          	db 255
19401   52A2 00          	db 0
19402   52A3 00          	db 0
19403   52A4 00          	db 0
19404   52A5 00          	db 0
19405   52A6 00          	db 0
19406   52A7 00          	db 0
19407   52A8 00          	db 0
19408   52A9 00          	db 0
19409   52AA 01          	db 1
19410   52AB 00          	db 0
19411   52AC 00          	db 0
19412   52AD 00          	db 0
19413   52AE 00          	db 0
19414   52AF 00          	db 0
19415   52B0 00          	db 0
19416   52B1 00          	db 0
19417   52B2 00          	db 0
19418   52B3 00          	db 0
19419   52B4 00          	db 0
19420   52B5 00          	db 0
19421   52B6 00          	db 0
19422   52B7 00          	db 0
19423   52B8 00          	db 0
19424   52B9 00          	db 0
19425   52BA 00          	db 0
19426   52BB 00          	db 0
19427   52BC 00          	db 0
19428   52BD 00          	db 0
19429   52BE 00          	db 0
19430   52BF 00          	db 0
19431   52C0 00          	db 0
19432   52C1 00          	db 0
19433   52C2 FF          	db 255
19434   52C3 FB          	db 251
19435   52C4 E1          	db 225
19436   52C5 D5          	db 213
19437   52C6 B9          	db 185
19438   52C7 91          	db 145
19439   52C8 C3          	db 195
19440   52C9 FF          	db 255
19441   52CA FF          	db 255
19442   52CB C3          	db 195
19443   52CC A9          	db 169
19444   52CD 81          	db 129
19445   52CE C1          	db 193
19446   52CF E1          	db 225
19447   52D0 FB          	db 251
19448   52D1 FF          	db 255
19449   52D2 FF          	db 255
19450   52D3 DF          	db 223
19451   52D4 87          	db 135
19452   52D5 AB          	db 171
19453   52D6 91          	db 145
19454   52D7 A1          	db 161
19455   52D8 C3          	db 195
19456   52D9 FF          	db 255
19457   52DA FF          	db 255
19458   52DB C3          	db 195
19459   52DC 91          	db 145
19460   52DD A1          	db 161
19461   52DE 83          	db 131
19462   52DF 87          	db 135
19463   52E0 DF          	db 223
19464   52E1 FF          	db 255
19465   52E2 00          	db 0
19466   52E3 00          	db 0
19467   52E4 00          	db 0
19468   52E5 1C          	db 28
19469   52E6 20          	db 32
19470   52E7 30          	db 48
19471   52E8 00          	db 0
19472   52E9 00          	db 0
19473   52EA 00          	db 0
19474   52EB 00          	db 0
19475   52EC 3C          	db 60
19476   52ED 08          	db 8
19477   52EE 00          	db 0
19478   52EF 00          	db 0
19479   52F0 00          	db 0
19480   52F1 00          	db 0
19481   52F2 00          	db 0
19482   52F3 00          	db 0
19483   52F4 20          	db 32
19484   52F5 38          	db 56
19485   52F6 38          	db 56
19486   52F7 20          	db 32
19487   52F8 00          	db 0
19488   52F9 00          	db 0
19489   52FA 00          	db 0
19490   52FB 00          	db 0
19491   52FC 30          	db 48
19492   52FD 30          	db 48
19493   52FE 00          	db 0
19494   52FF 00          	db 0
19495   5300 00          	db 0
19496   5301 00          	db 0
19497   5302 FF          	db 255
19498   5303 FF          	db 255
19499   5304 E7          	db 231
19500   5305 D3          	db 211
19501   5306 A3          	db 163
19502   5307 C7          	db 199
19503   5308 FF          	db 255
19504   5309 FF          	db 255
19505   530A FF          	db 255
19506   530B FF          	db 255
19507   530C C7          	db 199
19508   530D 93          	db 147
19509   530E C3          	db 195
19510   530F E7          	db 231
19511   5310 FF          	db 255
19512   5311 FF          	db 255
19513   5312 FF          	db 255
19514   5313 FF          	db 255
19515   5314 E7          	db 231
19516   5315 D3          	db 211
19517   5316 C9          	db 201
19518   5317 E3          	db 227
19519   5318 FF          	db 255
19520   5319 FF          	db 255
19521   531A FF          	db 255
19522   531B FF          	db 255
19523   531C E3          	db 227
19524   531D D1          	db 209
19525   531E C3          	db 195
19526   531F E7          	db 231
19527   5320 FF          	db 255
19528   5321 FF          	db 255
19529   5322 00          	db 0
19530   5323 00          	db 0
19531   5324 00          	db 0
19532   5325 08          	db 8
19533   5326 30          	db 48
19534   5327 00          	db 0
19535   5328 00          	db 0
19536   5329 00          	db 0
19537   532A 00          	db 0
19538   532B 00          	db 0
19539   532C 00          	db 0
19540   532D 18          	db 24
19541   532E 10          	db 16
19542   532F 00          	db 0
19543   5330 00          	db 0
19544   5331 00          	db 0
19545   5332 00          	db 0
19546   5333 00          	db 0
19547   5334 00          	db 0
19548   5335 18          	db 24
19549   5336 18          	db 24
19550   5337 00          	db 0
19551   5338 00          	db 0
19552   5339 00          	db 0
19553   533A 00          	db 0
19554   533B 00          	db 0
19555   533C 00          	db 0
19556   533D 18          	db 24
19557   533E 10          	db 16
19558   533F 00          	db 0
19559   5340 00          	db 0
19560   5341 00          	db 0
19561   5342 FF          	db 255
19562   5343 FF          	db 255
19563   5344 DF          	db 223
19564   5345 8F          	db 143
19565   5346 DF          	db 223
19566   5347 FF          	db 255
19567   5348 FF          	db 255
19568   5349 FF          	db 255
19569   534A FF          	db 255
19570   534B FF          	db 255
19571   534C FF          	db 255
19572   534D DF          	db 223
19573   534E AF          	db 175
19574   534F DF          	db 223
19575   5350 FF          	db 255
19576   5351 FF          	db 255
19577   5352 FF          	db 255
19578   5353 FF          	db 255
19579   5354 FB          	db 251
19580   5355 F5          	db 245
19581   5356 FB          	db 251
19582   5357 FF          	db 255
19583   5358 FF          	db 255
19584   5359 FF          	db 255
19585   535A FF          	db 255
19586   535B FF          	db 255
19587   535C FF          	db 255
19588   535D FB          	db 251
19589   535E F1          	db 241
19590   535F FB          	db 251
19591   5360 FF          	db 255
19592   5361 FF          	db 255
19593   5362 00          	db 0
19594   5363 00          	db 0
19595   5364 00          	db 0
19596   5365 20          	db 32
19597   5366 00          	db 0
19598   5367 00          	db 0
19599   5368 00          	db 0
19600   5369 00          	db 0
19601   536A 00          	db 0
19602   536B 00          	db 0
19603   536C 00          	db 0
19604   536D 00          	db 0
19605   536E 20          	db 32
19606   536F 00          	db 0
19607   5370 00          	db 0
19608   5371 00          	db 0
19609   5372 00          	db 0
19610   5373 00          	db 0
19611   5374 00          	db 0
19612   5375 04          	db 4
19613   5376 00          	db 0
19614   5377 00          	db 0
19615   5378 00          	db 0
19616   5379 00          	db 0
19617   537A 00          	db 0
19618   537B 00          	db 0
19619   537C 00          	db 0
19620   537D 00          	db 0
19621   537E 04          	db 4
19622   537F 00          	db 0
19623   5380 00          	db 0
19624   5381 00          	db 0
19625   5382 FF          	db 255
19626   5383 FF          	db 255
19627   5384 FC          	db 252
19628   5385 F2          	db 242
19629   5386 EF          	db 239
19630   5387 CE          	db 206
19631   5388 9D          	db 157
19632   5389 AA          	db 170
19633   538A 95          	db 149
19634   538B AA          	db 170
19635   538C 95          	db 149
19636   538D CA          	db 202
19637   538E E0          	db 224
19638   538F F0          	db 240
19639   5390 FC          	db 252
19640   5391 FF          	db 255
19641   5392 FF          	db 255
19642   5393 FF          	db 255
19643   5394 3F          	db 63
19644   5395 8F          	db 143
19645   5396 57          	db 87
19646   5397 A3          	db 163
19647   5398 51          	db 81
19648   5399 A1          	db 161
19649   539A 41          	db 65
19650   539B 81          	db 129
19651   539C 01          	db 1
19652   539D 03          	db 3
19653   539E 07          	db 7
19654   539F 0F          	db 15
19655   53A0 3F          	db 63
19656   53A1 FF          	db 255
19657   53A2 00          	db 0
19658   53A3 00          	db 0
19659   53A4 00          	db 0
19660   53A5 03          	db 3
19661   53A6 0F          	db 15
19662   53A7 1F          	db 31
19663   53A8 3F          	db 63
19664   53A9 3F          	db 63
19665   53AA 3F          	db 63
19666   53AB 3F          	db 63
19667   53AC 3F          	db 63
19668   53AD 1E          	db 30
19669   53AE 00          	db 0
19670   53AF 00          	db 0
19671   53B0 00          	db 0
19672   53B1 00          	db 0
19673   53B2 00          	db 0
19674   53B3 00          	db 0
19675   53B4 00          	db 0
19676   53B5 C0          	db 192
19677   53B6 F0          	db 240
19678   53B7 F0          	db 240
19679   53B8 F0          	db 240
19680   53B9 F0          	db 240
19681   53BA E0          	db 224
19682   53BB C0          	db 192
19683   53BC 80          	db 128
19684   53BD 00          	db 0
19685   53BE 00          	db 0
19686   53BF 00          	db 0
19687   53C0 00          	db 0
19688   53C1 00          	db 0
19689   53C2 FF          	db 255
19690   53C3 FF          	db 255
19691   53C4 FF          	db 255
19692   53C5 F8          	db 248
19693   53C6 E5          	db 229
19694   53C7 CE          	db 206
19695   53C8 DF          	db 223
19696   53C9 AE          	db 174
19697   53CA 95          	db 149
19698   53CB AA          	db 170
19699   53CC 95          	db 149
19700   53CD CA          	db 202
19701   53CE C0          	db 192
19702   53CF E0          	db 224
19703   53D0 F8          	db 248
19704   53D1 FF          	db 255
19705   53D2 FF          	db 255
19706   53D3 FF          	db 255
19707   53D4 FF          	db 255
19708   53D5 1F          	db 31
19709   53D6 47          	db 71
19710   53D7 A3          	db 163
19711   53D8 53          	db 83
19712   53D9 A1          	db 161
19713   53DA 51          	db 81
19714   53DB 81          	db 129
19715   53DC 01          	db 1
19716   53DD 03          	db 3
19717   53DE 03          	db 3
19718   53DF 07          	db 7
19719   53E0 1F          	db 31
19720   53E1 FF          	db 255
19721   53E2 00          	db 0
19722   53E3 00          	db 0
19723   53E4 00          	db 0
19724   53E5 00          	db 0
19725   53E6 07          	db 7
19726   53E7 1F          	db 31
19727   53E8 1F          	db 31
19728   53E9 3F          	db 63
19729   53EA 3F          	db 63
19730   53EB 3F          	db 63
19731   53EC 3F          	db 63
19732   53ED 1E          	db 30
19733   53EE 00          	db 0
19734   53EF 00          	db 0
19735   53F0 00          	db 0
19736   53F1 00          	db 0
19737   53F2 00          	db 0
19738   53F3 00          	db 0
19739   53F4 00          	db 0
19740   53F5 00          	db 0
19741   53F6 E0          	db 224
19742   53F7 F0          	db 240
19743   53F8 F0          	db 240
19744   53F9 F0          	db 240
19745   53FA F0          	db 240
19746   53FB C0          	db 192
19747   53FC 80          	db 128
19748   53FD 00          	db 0
19749   53FE 00          	db 0
19750   53FF 00          	db 0
19751   5400 00          	db 0
19752   5401 00          	db 0
19753   5402 FF          	db 255
19754   5403 FC          	db 252
19755   5404 F3          	db 243
19756   5405 EF          	db 239
19757   5406 DF          	db 223
19758   5407 DF          	db 223
19759   5408 BF          	db 191
19760   5409 BF          	db 191
19761   540A BF          	db 191
19762   540B BF          	db 191
19763   540C DF          	db 223
19764   540D DE          	db 222
19765   540E E0          	db 224
19766   540F F0          	db 240
19767   5410 FC          	db 252
19768   5411 FF          	db 255
19769   5412 FF          	db 255
19770   5413 3F          	db 63
19771   5414 CF          	db 207
19772   5415 F7          	db 247
19773   5416 F3          	db 243
19774   5417 F3          	db 243
19775   5418 F1          	db 241
19776   5419 E1          	db 225
19777   541A E1          	db 225
19778   541B C1          	db 193
19779   541C 83          	db 131
19780   541D 03          	db 3
19781   541E 07          	db 7
19782   541F 0F          	db 15
19783   5420 3F          	db 63
19784   5421 FF          	db 255
19785   5422 00          	db 0
19786   5423 00          	db 0
19787   5424 02          	db 2
19788   5425 07          	db 7
19789   5426 0E          	db 14
19790   5427 1D          	db 29
19791   5428 2A          	db 42
19792   5429 15          	db 21
19793   542A 2A          	db 42
19794   542B 15          	db 21
19795   542C 0A          	db 10
19796   542D 14          	db 20
19797   542E 00          	db 0
19798   542F 00          	db 0
19799   5430 00          	db 0
19800   5431 00          	db 0
19801   5432 00          	db 0
19802   5433 00          	db 0
19803   5434 80          	db 128
19804   5435 50          	db 80
19805   5436 A0          	db 160
19806   5437 50          	db 80
19807   5438 A0          	db 160
19808   5439 40          	db 64
19809   543A A0          	db 160
19810   543B 40          	db 64
19811   543C 80          	db 128
19812   543D 00          	db 0
19813   543E 00          	db 0
19814   543F 00          	db 0
19815   5440 00          	db 0
19816   5441 00          	db 0
19817   5442 FF          	db 255
19818   5443 FF          	db 255
19819   5444 FC          	db 252
19820   5445 F3          	db 243
19821   5446 EF          	db 239
19822   5447 EF          	db 239
19823   5448 DF          	db 223
19824   5449 DF          	db 223
19825   544A DF          	db 223
19826   544B EF          	db 239
19827   544C EF          	db 239
19828   544D E0          	db 224
19829   544E F0          	db 240
19830   544F FC          	db 252
19831   5450 FF          	db 255
19832   5451 FF          	db 255
19833   5452 FF          	db 255
19834   5453 FF          	db 255
19835   5454 3F          	db 63
19836   5455 CF          	db 207
19837   5456 F7          	db 247
19838   5457 F7          	db 247
19839   5458 F3          	db 243
19840   5459 E3          	db 227
19841   545A E3          	db 227
19842   545B C3          	db 195
19843   545C 07          	db 7
19844   545D 07          	db 7
19845   545E 0F          	db 15
19846   545F 3F          	db 63
19847   5460 FF          	db 255
19848   5461 FF          	db 255
19849   5462 00          	db 0
19850   5463 00          	db 0
19851   5464 00          	db 0
19852   5465 02          	db 2
19853   5466 07          	db 7
19854   5467 0E          	db 14
19855   5468 15          	db 21
19856   5469 0A          	db 10
19857   546A 15          	db 21
19858   546B 0A          	db 10
19859   546C 05          	db 5
19860   546D 00          	db 0
19861   546E 00          	db 0
19862   546F 00          	db 0
19863   5470 00          	db 0
19864   5471 00          	db 0
19865   5472 00          	db 0
19866   5473 00          	db 0
19867   5474 00          	db 0
19868   5475 80          	db 128
19869   5476 50          	db 80
19870   5477 A0          	db 160
19871   5478 50          	db 80
19872   5479 A0          	db 160
19873   547A 40          	db 64
19874   547B 80          	db 128
19875   547C 00          	db 0
19876   547D 00          	db 0
19877   547E 00          	db 0
19878   547F 00          	db 0
19879   5480 00          	db 0
19880   5481 00          	db 0
19881   5482 FF          	db 255
19882   5483 FF          	db 255
19883   5484 FF          	db 255
19884   5485 FE          	db 254
19885   5486 F9          	db 249
19886   5487 F7          	db 247
19887   5488 F7          	db 247
19888   5489 EF          	db 239
19889   548A EF          	db 239
19890   548B F7          	db 247
19891   548C F0          	db 240
19892   548D F8          	db 248
19893   548E FE          	db 254
19894   548F FF          	db 255
19895   5490 FF          	db 255
19896   5491 FF          	db 255
19897   5492 FF          	db 255
19898   5493 FF          	db 255
19899   5494 FF          	db 255
19900   5495 7F          	db 127
19901   5496 9F          	db 159
19902   5497 EF          	db 239
19903   5498 EF          	db 239
19904   5499 C7          	db 199
19905   549A C7          	db 199
19906   549B 0F          	db 15
19907   549C 0F          	db 15
19908   549D 1F          	db 31
19909   549E 7F          	db 127
19910   549F FF          	db 255
19911   54A0 FF          	db 255
19912   54A1 FF          	db 255
19913   54A2 00          	db 0
19914   54A3 00          	db 0
19915   54A4 00          	db 0
19916   54A5 00          	db 0
19917   54A6 00          	db 0
19918   54A7 03          	db 3
19919   54A8 06          	db 6
19920   54A9 05          	db 5
19921   54AA 0A          	db 10
19922   54AB 05          	db 5
19923   54AC 00          	db 0
19924   54AD 00          	db 0
19925   54AE 00          	db 0
19926   54AF 00          	db 0
19927   54B0 00          	db 0
19928   54B1 00          	db 0
19929   54B2 00          	db 0
19930   54B3 00          	db 0
19931   54B4 00          	db 0
19932   54B5 00          	db 0
19933   54B6 80          	db 128
19934   54B7 40          	db 64
19935   54B8 A0          	db 160
19936   54B9 40          	db 64
19937   54BA 80          	db 128
19938   54BB 00          	db 0
19939   54BC 00          	db 0
19940   54BD 00          	db 0
19941   54BE 00          	db 0
19942   54BF 00          	db 0
19943   54C0 00          	db 0
19944   54C1 00          	db 0
19945   54C2 FF          	db 255
19946   54C3 FF          	db 255
19947   54C4 FF          	db 255
19948   54C5 FF          	db 255
19949   54C6 FF          	db 255
19950   54C7 FF          	db 255
19951   54C8 FE          	db 254
19952   54C9 FD          	db 253
19953   54CA FD          	db 253
19954   54CB FD          	db 253
19955   54CC FE          	db 254
19956   54CD FF          	db 255
19957   54CE FF          	db 255
19958   54CF FF          	db 255
19959   54D0 FF          	db 255
19960   54D1 FF          	db 255
19961   54D2 FF          	db 255
19962   54D3 FF          	db 255
19963   54D4 FF          	db 255
19964   54D5 FF          	db 255
19965   54D6 FF          	db 255
19966   54D7 FF          	db 255
19967   54D8 3F          	db 63
19968   54D9 DF          	db 223
19969   54DA 9F          	db 159
19970   54DB 1F          	db 31
19971   54DC 3F          	db 63
19972   54DD FF          	db 255
19973   54DE FF          	db 255
19974   54DF FF          	db 255
19975   54E0 FF          	db 255
19976   54E1 FF          	db 255
19977   54E2 00          	db 0
19978   54E3 00          	db 0
19979   54E4 00          	db 0
19980   54E5 00          	db 0
19981   54E6 00          	db 0
19982   54E7 00          	db 0
19983   54E8 00          	db 0
19984   54E9 01          	db 1
19985   54EA 01          	db 1
19986   54EB 00          	db 0
19987   54EC 00          	db 0
19988   54ED 00          	db 0
19989   54EE 00          	db 0
19990   54EF 00          	db 0
19991   54F0 00          	db 0
19992   54F1 00          	db 0
19993   54F2 00          	db 0
19994   54F3 00          	db 0
19995   54F4 00          	db 0
19996   54F5 00          	db 0
19997   54F6 00          	db 0
19998   54F7 00          	db 0
19999   54F8 00          	db 0
20000   54F9 80          	db 128
20001   54FA 00          	db 0
20002   54FB 00          	db 0
20003   54FC 00          	db 0
20004   54FD 00          	db 0
20005   54FE 00          	db 0
20006   54FF 00          	db 0
20007   5500 00          	db 0
20008   5501 00          	db 0
20009   5502 FF          	db 255
20010   5503 FF          	db 255
20011   5504 FF          	db 255
20012   5505 FF          	db 255
20013   5506 FF          	db 255
20014   5507 FF          	db 255
20015   5508 FF          	db 255
20016   5509 FE          	db 254
20017   550A FD          	db 253
20018   550B FE          	db 254
20019   550C FF          	db 255
20020   550D FF          	db 255
20021   550E FF          	db 255
20022   550F FF          	db 255
20023   5510 FF          	db 255
20024   5511 FF          	db 255
20025   5512 FF          	db 255
20026   5513 FF          	db 255
20027   5514 FF          	db 255
20028   5515 FF          	db 255
20029   5516 FF          	db 255
20030   5517 FF          	db 255
20031   5518 FF          	db 255
20032   5519 FF          	db 255
20033   551A 7F          	db 127
20034   551B FF          	db 255
20035   551C FF          	db 255
20036   551D FF          	db 255
20037   551E FF          	db 255
20038   551F FF          	db 255
20039   5520 FF          	db 255
20040   5521 FF          	db 255
20041   5522 00          	db 0
20042   5523 00          	db 0
20043   5524 00          	db 0
20044   5525 00          	db 0
20045   5526 00          	db 0
20046   5527 00          	db 0
20047   5528 00          	db 0
20048   5529 00          	db 0
20049   552A 00          	db 0
20050   552B 00          	db 0
20051   552C 00          	db 0
20052   552D 00          	db 0
20053   552E 00          	db 0
20054   552F 00          	db 0
20055   5530 00          	db 0
20056   5531 00          	db 0
20057   5532 00          	db 0
20058   5533 00          	db 0
20059   5534 00          	db 0
20060   5535 00          	db 0
20061   5536 00          	db 0
20062   5537 00          	db 0
20063   5538 00          	db 0
20064   5539 00          	db 0
20065   553A 00          	db 0
20066   553B 00          	db 0
20067   553C 00          	db 0
20068   553D 00          	db 0
20069   553E 00          	db 0
20070   553F 00          	db 0
20071   5540 00          	db 0
20072   5541 00          	db 0
20073   5542 FF          	db 255
20074   5543 FB          	db 251
20075   5544 E1          	db 225
20076   5545 DD          	db 221
20077   5546 B9          	db 185
20078   5547 B1          	db 177
20079   5548 C3          	db 195
20080   5549 FF          	db 255
20081   554A FF          	db 255
20082   554B C3          	db 195
20083   554C BD          	db 189
20084   554D 89          	db 137
20085   554E C1          	db 193
20086   554F E1          	db 225
20087   5550 FB          	db 251
20088   5551 FF          	db 255
20089   5552 FF          	db 255
20090   5553 DF          	db 223
20091   5554 A7          	db 167
20092   5555 BB          	db 187
20093   5556 B9          	db 185
20094   5557 A1          	db 161
20095   5558 C3          	db 195
20096   5559 FF          	db 255
20097   555A FF          	db 255
20098   555B C3          	db 195
20099   555C B1          	db 177
20100   555D B1          	db 177
20101   555E 83          	db 131
20102   555F 87          	db 135
20103   5560 DF          	db 223
20104   5561 FF          	db 255
20105   5562 00          	db 0
20106   5563 00          	db 0
20107   5564 00          	db 0
20108   5565 14          	db 20
20109   5566 20          	db 32
20110   5567 10          	db 16
20111   5568 00          	db 0
20112   5569 00          	db 0
20113   556A 00          	db 0
20114   556B 00          	db 0
20115   556C 28          	db 40
20116   556D 00          	db 0
20117   556E 00          	db 0
20118   556F 00          	db 0
20119   5570 00          	db 0
20120   5571 00          	db 0
20121   5572 00          	db 0
20122   5573 00          	db 0
20123   5574 00          	db 0
20124   5575 28          	db 40
20125   5576 10          	db 16
20126   5577 20          	db 32
20127   5578 00          	db 0
20128   5579 00          	db 0
20129   557A 00          	db 0
20130   557B 00          	db 0
20131   557C 10          	db 16
20132   557D 20          	db 32
20133   557E 00          	db 0
20134   557F 00          	db 0
20135   5580 00          	db 0
20136   5581 00          	db 0
20137   5582 FF          	db 255
20138   5583 FF          	db 255
20139   5584 E7          	db 231
20140   5585 DB          	db 219
20141   5586 B3          	db 179
20142   5587 C7          	db 199
20143   5588 FF          	db 255
20144   5589 FF          	db 255
20145   558A FF          	db 255
20146   558B FF          	db 255
20147   558C C7          	db 199
20148   558D 9B          	db 155
20149   558E D3          	db 211
20150   558F E7          	db 231
20151   5590 FF          	db 255
20152   5591 FF          	db 255
20153   5592 FF          	db 255
20154   5593 FF          	db 255
20155   5594 E7          	db 231
20156   5595 DB          	db 219
20157   5596 D9          	db 217
20158   5597 E3          	db 227
20159   5598 FF          	db 255
20160   5599 FF          	db 255
20161   559A FF          	db 255
20162   559B FF          	db 255
20163   559C E3          	db 227
20164   559D D9          	db 217
20165   559E D3          	db 211
20166   559F E7          	db 231
20167   55A0 FF          	db 255
20168   55A1 FF          	db 255
20169   55A2 00          	db 0
20170   55A3 00          	db 0
20171   55A4 00          	db 0
20172   55A5 00          	db 0
20173   55A6 20          	db 32
20174   55A7 00          	db 0
20175   55A8 00          	db 0
20176   55A9 00          	db 0
20177   55AA 00          	db 0
20178   55AB 00          	db 0
20179   55AC 00          	db 0
20180   55AD 10          	db 16
20181   55AE 00          	db 0
20182   55AF 00          	db 0
20183   55B0 00          	db 0
20184   55B1 00          	db 0
20185   55B2 00          	db 0
20186   55B3 00          	db 0
20187   55B4 00          	db 0
20188   55B5 10          	db 16
20189   55B6 08          	db 8
20190   55B7 00          	db 0
20191   55B8 00          	db 0
20192   55B9 00          	db 0
20193   55BA 00          	db 0
20194   55BB 00          	db 0
20195   55BC 00          	db 0
20196   55BD 10          	db 16
20197   55BE 00          	db 0
20198   55BF 00          	db 0
20199   55C0 00          	db 0
20200   55C1 00          	db 0
20201   55C2 FF          	db 255
20202   55C3 FF          	db 255
20203   55C4 DF          	db 223
20204   55C5 AF          	db 175
20205   55C6 DF          	db 223
20206   55C7 FF          	db 255
20207   55C8 FF          	db 255
20208   55C9 FF          	db 255
20209   55CA FF          	db 255
20210   55CB FF          	db 255
20211   55CC FF          	db 255
20212   55CD DF          	db 223
20213   55CE AF          	db 175
20214   55CF DF          	db 223
20215   55D0 FF          	db 255
20216   55D1 FF          	db 255
20217   55D2 FF          	db 255
20218   55D3 FF          	db 255
20219   55D4 FB          	db 251
20220   55D5 F5          	db 245
20221   55D6 FB          	db 251
20222   55D7 FF          	db 255
20223   55D8 FF          	db 255
20224   55D9 FF          	db 255
20225   55DA FF          	db 255
20226   55DB FF          	db 255
20227   55DC FF          	db 255
20228   55DD FB          	db 251
20229   55DE F5          	db 245
20230   55DF FB          	db 251
20231   55E0 FF          	db 255
20232   55E1 FF          	db 255
20233   55E2 00          	db 0
20234   55E3 00          	db 0
20235   55E4 00          	db 0
20236   55E5 00          	db 0
20237   55E6 00          	db 0
20238   55E7 00          	db 0
20239   55E8 00          	db 0
20240   55E9 00          	db 0
20241   55EA 00          	db 0
20242   55EB 00          	db 0
20243   55EC 00          	db 0
20244   55ED 00          	db 0
20245   55EE 20          	db 32
20246   55EF 00          	db 0
20247   55F0 00          	db 0
20248   55F1 00          	db 0
20249   55F2 00          	db 0
20250   55F3 00          	db 0
20251   55F4 00          	db 0
20252   55F5 04          	db 4
20253   55F6 00          	db 0
20254   55F7 00          	db 0
20255   55F8 00          	db 0
20256   55F9 00          	db 0
20257   55FA 00          	db 0
20258   55FB 00          	db 0
20259   55FC 00          	db 0
20260   55FD 00          	db 0
20261   55FE 00          	db 0
20262   55FF 00          	db 0
20263   5600 00          	db 0
20264   5601 00          	db 0
20265   5602 FF          	db 255
20266   5603 FF          	db 255
20267   5604 FC          	db 252
20268   5605 F3          	db 243
20269   5606 EF          	db 239
20270   5607 DF          	db 223
20271   5608 BF          	db 191
20272   5609 BF          	db 191
20273   560A BF          	db 191
20274   560B BF          	db 191
20275   560C BF          	db 191
20276   560D DE          	db 222
20277   560E E0          	db 224
20278   560F F0          	db 240
20279   5610 FC          	db 252
20280   5611 FF          	db 255
20281   5612 FF          	db 255
20282   5613 FF          	db 255
20283   5614 3F          	db 63
20284   5615 CF          	db 207
20285   5616 F7          	db 247
20286   5617 F3          	db 243
20287   5618 F1          	db 241
20288   5619 F1          	db 241
20289   561A E1          	db 225
20290   561B C1          	db 193
20291   561C 81          	db 129
20292   561D 03          	db 3
20293   561E 07          	db 7
20294   561F 0F          	db 15
20295   5620 3F          	db 63
20296   5621 FF          	db 255
20297   5622 00          	db 0
20298   5623 00          	db 0
20299   5624 00          	db 0
20300   5625 02          	db 2
20301   5626 0F          	db 15
20302   5627 0E          	db 14
20303   5628 1D          	db 29
20304   5629 2A          	db 42
20305   562A 15          	db 21
20306   562B 2A          	db 42
20307   562C 15          	db 21
20308   562D 0A          	db 10
20309   562E 00          	db 0
20310   562F 00          	db 0
20311   5630 00          	db 0
20312   5631 00          	db 0
20313   5632 00          	db 0
20314   5633 00          	db 0
20315   5634 00          	db 0
20316   5635 80          	db 128
20317   5636 50          	db 80
20318   5637 A0          	db 160
20319   5638 50          	db 80
20320   5639 A0          	db 160
20321   563A 40          	db 64
20322   563B 80          	db 128
20323   563C 00          	db 0
20324   563D 00          	db 0
20325   563E 00          	db 0
20326   563F 00          	db 0
20327   5640 00          	db 0
20328   5641 00          	db 0
20329   5642 FF          	db 255
20330   5643 FF          	db 255
20331   5644 FF          	db 255
20332   5645 F8          	db 248
20333   5646 E7          	db 231
20334   5647 DF          	db 223
20335   5648 DF          	db 223
20336   5649 BF          	db 191
20337   564A BF          	db 191
20338   564B BF          	db 191
20339   564C BF          	db 191
20340   564D DE          	db 222
20341   564E C0          	db 192
20342   564F E0          	db 224
20343   5650 F8          	db 248
20344   5651 FF          	db 255
20345   5652 FF          	db 255
20346   5653 FF          	db 255
20347   5654 FF          	db 255
20348   5655 1F          	db 31
20349   5656 E7          	db 231
20350   5657 F3          	db 243
20351   5658 F3          	db 243
20352   5659 F1          	db 241
20353   565A F1          	db 241
20354   565B C1          	db 193
20355   565C 81          	db 129
20356   565D 03          	db 3
20357   565E 03          	db 3
20358   565F 07          	db 7
20359   5660 1F          	db 31
20360   5661 FF          	db 255
20361   5662 00          	db 0
20362   5663 00          	db 0
20363   5664 00          	db 0
20364   5665 00          	db 0
20365   5666 05          	db 5
20366   5667 0E          	db 14
20367   5668 1F          	db 31
20368   5669 2E          	db 46
20369   566A 15          	db 21
20370   566B 2A          	db 42
20371   566C 15          	db 21
20372   566D 0A          	db 10
20373   566E 00          	db 0
20374   566F 00          	db 0
20375   5670 00          	db 0
20376   5671 00          	db 0
20377   5672 00          	db 0
20378   5673 00          	db 0
20379   5674 00          	db 0
20380   5675 00          	db 0
20381   5676 40          	db 64
20382   5677 A0          	db 160
20383   5678 50          	db 80
20384   5679 A0          	db 160
20385   567A 50          	db 80
20386   567B 80          	db 128
20387   567C 00          	db 0
20388   567D 00          	db 0
20389   567E 00          	db 0
20390   567F 00          	db 0
20391   5680 00          	db 0
20392   5681 00          	db 0
20393   5682             imgBoard: 
20394   5682 FF          	db 255
20395   5683 FF          	db 255
20396   5684 FF          	db 255
20397   5685 F5          	db 245
20398   5686 DF          	db 223
20399   5687 F1          	db 241
20400   5688 E1          	db 225
20401   5689 F1          	db 241
20402   568A F9          	db 249
20403   568B F9          	db 249
20404   568C FF          	db 255
20405   568D F9          	db 249
20406   568E FF          	db 255
20407   568F FF          	db 255
20408   5690 FF          	db 255
20409   5691 FF          	db 255
20410   5692 FF          	db 255
20411   5693 FF          	db 255
20412   5694 FF          	db 255
20413   5695 FF          	db 255
20414   5696 FF          	db 255
20415   5697 AF          	db 175
20416   5698 FB          	db 251
20417   5699 8F          	db 143
20418   569A 87          	db 135
20419   569B 8F          	db 143
20420   569C 9F          	db 159
20421   569D 9F          	db 159
20422   569E FF          	db 255
20423   569F 9F          	db 159
20424   56A0 FF          	db 255
20425   56A1 FF          	db 255
20426   56A2 00          	db 0
20427   56A3 00          	db 0
20428   56A4 00          	db 0
20429   56A5 00          	db 0
20430   56A6 00          	db 0
20431   56A7 00          	db 0
20432   56A8 00          	db 0
20433   56A9 00          	db 0
20434   56AA 00          	db 0
20435   56AB 00          	db 0
20436   56AC 00          	db 0
20437   56AD 00          	db 0
20438   56AE 00          	db 0
20439   56AF 00          	db 0
20440   56B0 00          	db 0
20441   56B1 00          	db 0
20442   56B2 00          	db 0
20443   56B3 00          	db 0
20444   56B4 00          	db 0
20445   56B5 00          	db 0
20446   56B6 00          	db 0
20447   56B7 00          	db 0
20448   56B8 00          	db 0
20449   56B9 00          	db 0
20450   56BA 00          	db 0
20451   56BB 00          	db 0
20452   56BC 00          	db 0
20453   56BD 00          	db 0
20454   56BE 00          	db 0
20455   56BF 00          	db 0
20456   56C0 00          	db 0
20457   56C1 00          	db 0
20458   56C2 FF          	db 255
20459   56C3 FF          	db 255
20460   56C4 F9          	db 249
20461   56C5 FF          	db 255
20462   56C6 F9          	db 249
20463   56C7 F9          	db 249
20464   56C8 F1          	db 241
20465   56C9 E1          	db 225
20466   56CA F1          	db 241
20467   56CB DF          	db 223
20468   56CC F5          	db 245
20469   56CD FF          	db 255
20470   56CE FF          	db 255
20471   56CF FF          	db 255
20472   56D0 FF          	db 255
20473   56D1 FF          	db 255
20474   56D2 FF          	db 255
20475   56D3 FF          	db 255
20476   56D4 FF          	db 255
20477   56D5 FF          	db 255
20478   56D6 9F          	db 159
20479   56D7 FF          	db 255
20480   56D8 9F          	db 159
20481   56D9 9F          	db 159
20482   56DA 8F          	db 143
20483   56DB 87          	db 135
20484   56DC 8F          	db 143
20485   56DD FB          	db 251
20486   56DE AF          	db 175
20487   56DF FF          	db 255
20488   56E0 FF          	db 255
20489   56E1 FF          	db 255
20490   56E2 00          	db 0
20491   56E3 00          	db 0
20492   56E4 00          	db 0
20493   56E5 00          	db 0
20494   56E6 00          	db 0
20495   56E7 00          	db 0
20496   56E8 00          	db 0
20497   56E9 00          	db 0
20498   56EA 00          	db 0
20499   56EB 00          	db 0
20500   56EC 00          	db 0
20501   56ED 00          	db 0
20502   56EE 00          	db 0
20503   56EF 00          	db 0
20504   56F0 00          	db 0
20505   56F1 00          	db 0
20506   56F2 00          	db 0
20507   56F3 00          	db 0
20508   56F4 00          	db 0
20509   56F5 00          	db 0
20510   56F6 00          	db 0
20511   56F7 00          	db 0
20512   56F8 00          	db 0
20513   56F9 00          	db 0
20514   56FA 00          	db 0
20515   56FB 00          	db 0
20516   56FC 00          	db 0
20517   56FD 00          	db 0
20518   56FE 00          	db 0
20519   56FF 00          	db 0
20520   5700 00          	db 0
20521   5701 00          	db 0
20522   5702 FF          	db 255
20523   5703 FF          	db 255
20524   5704 FD          	db 253
20525   5705 FF          	db 255
20526   5706 FA          	db 250
20527   5707 FE          	db 254
20528   5708 FA          	db 250
20529   5709 FF          	db 255
20530   570A FF          	db 255
20531   570B E8          	db 232
20532   570C F8          	db 248
20533   570D E8          	db 232
20534   570E FD          	db 253
20535   570F F7          	db 247
20536   5710 FF          	db 255
20537   5711 FF          	db 255
20538   5712 FF          	db 255
20539   5713 FF          	db 255
20540   5714 FF          	db 255
20541   5715 7F          	db 127
20542   5716 3F          	db 63
20543   5717 0B          	db 11
20544   5718 0B          	db 11
20545   5719 FF          	db 255
20546   571A FF          	db 255
20547   571B 2F          	db 47
20548   571C 2F          	db 47
20549   571D FF          	db 255
20550   571E FF          	db 255
20551   571F FF          	db 255
20552   5720 FF          	db 255
20553   5721 FF          	db 255
20554   5722 00          	db 0
20555   5723 00          	db 0
20556   5724 00          	db 0
20557   5725 00          	db 0
20558   5726 00          	db 0
20559   5727 00          	db 0
20560   5728 00          	db 0
20561   5729 00          	db 0
20562   572A 00          	db 0
20563   572B 00          	db 0
20564   572C 00          	db 0
20565   572D 00          	db 0
20566   572E 00          	db 0
20567   572F 00          	db 0
20568   5730 00          	db 0
20569   5731 00          	db 0
20570   5732 00          	db 0
20571   5733 00          	db 0
20572   5734 00          	db 0
20573   5735 00          	db 0
20574   5736 00          	db 0
20575   5737 00          	db 0
20576   5738 00          	db 0
20577   5739 00          	db 0
20578   573A 00          	db 0
20579   573B 00          	db 0
20580   573C 00          	db 0
20581   573D 00          	db 0
20582   573E 00          	db 0
20583   573F 00          	db 0
20584   5740 00          	db 0
20585   5741 00          	db 0
20586   5742 FF          	db 255
20587   5743 FF          	db 255
20588   5744 FF          	db 255
20589   5745 FF          	db 255
20590   5746 FF          	db 255
20591   5747 F4          	db 244
20592   5748 F4          	db 244
20593   5749 FF          	db 255
20594   574A FF          	db 255
20595   574B D0          	db 208
20596   574C D0          	db 208
20597   574D FC          	db 252
20598   574E FE          	db 254
20599   574F FF          	db 255
20600   5750 FF          	db 255
20601   5751 FF          	db 255
20602   5752 FF          	db 255
20603   5753 FF          	db 255
20604   5754 EF          	db 239
20605   5755 BF          	db 191
20606   5756 17          	db 23
20607   5757 1F          	db 31
20608   5758 17          	db 23
20609   5759 FF          	db 255
20610   575A FF          	db 255
20611   575B 5F          	db 95
20612   575C 7F          	db 127
20613   575D 5F          	db 95
20614   575E FF          	db 255
20615   575F BF          	db 191
20616   5760 FF          	db 255
20617   5761 FF          	db 255
20618   5762 00          	db 0
20619   5763 00          	db 0
20620   5764 00          	db 0
20621   5765 00          	db 0
20622   5766 00          	db 0
20623   5767 00          	db 0
20624   5768 00          	db 0
20625   5769 00          	db 0
20626   576A 00          	db 0
20627   576B 00          	db 0
20628   576C 00          	db 0
20629   576D 00          	db 0
20630   576E 00          	db 0
20631   576F 00          	db 0
20632   5770 00          	db 0
20633   5771 00          	db 0
20634   5772 00          	db 0
20635   5773 00          	db 0
20636   5774 00          	db 0
20637   5775 00          	db 0
20638   5776 00          	db 0
20639   5777 00          	db 0
20640   5778 00          	db 0
20641   5779 00          	db 0
20642   577A 00          	db 0
20643   577B 00          	db 0
20644   577C 00          	db 0
20645   577D 00          	db 0
20646   577E 00          	db 0
20647   577F 00          	db 0
20648   5780 00          	db 0
20649   5781 00          	db 0
20650   5782 FF          	db 255
20651   5783 FF          	db 255
20652   5784 FF          	db 255
20653   5785 FF          	db 255
20654   5786 FF          	db 255
20655   5787 FF          	db 255
20656   5788 FF          	db 255
20657   5789 FF          	db 255
20658   578A FF          	db 255
20659   578B FF          	db 255
20660   578C FF          	db 255
20661   578D FF          	db 255
20662   578E FF          	db 255
20663   578F FF          	db 255
20664   5790 FF          	db 255
20665   5791 FF          	db 255
20666   5792 FF          	db 255
20667   5793 FF          	db 255
20668   5794 FF          	db 255
20669   5795 FF          	db 255
20670   5796 FF          	db 255
20671   5797 FF          	db 255
20672   5798 FF          	db 255
20673   5799 FF          	db 255
20674   579A FF          	db 255
20675   579B FF          	db 255
20676   579C FF          	db 255
20677   579D FF          	db 255
20678   579E FF          	db 255
20679   579F FF          	db 255
20680   57A0 FF          	db 255
20681   57A1 FF          	db 255
20682   57A2 00          	db 0
20683   57A3 00          	db 0
20684   57A4 00          	db 0
20685   57A5 00          	db 0
20686   57A6 00          	db 0
20687   57A7 00          	db 0
20688   57A8 00          	db 0
20689   57A9 00          	db 0
20690   57AA 00          	db 0
20691   57AB 00          	db 0
20692   57AC 00          	db 0
20693   57AD 00          	db 0
20694   57AE 00          	db 0
20695   57AF 00          	db 0
20696   57B0 00          	db 0
20697   57B1 00          	db 0
20698   57B2 00          	db 0
20699   57B3 00          	db 0
20700   57B4 00          	db 0
20701   57B5 00          	db 0
20702   57B6 00          	db 0
20703   57B7 00          	db 0
20704   57B8 00          	db 0
20705   57B9 00          	db 0
20706   57BA 00          	db 0
20707   57BB 00          	db 0
20708   57BC 00          	db 0
20709   57BD 00          	db 0
20710   57BE 00          	db 0
20711   57BF 00          	db 0
20712   57C0 00          	db 0
20713   57C1 00          	db 0
20714   57C2             imgPlayer: 
20715   57C2 10          	db 16
20716   57C3 38          	db 56
20717   57C4 38          	db 56
20718   57C5 38          	db 56
20719   57C6 38          	db 56
20720   57C7 38          	db 56
20721   57C8 38          	db 56
20722   57C9 38          	db 56
20723   57CA 38          	db 56
20724   57CB 38          	db 56
20725   57CC 38          	db 56
20726   57CD 38          	db 56
20727   57CE 38          	db 56
20728   57CF 38          	db 56
20729   57D0 38          	db 56
20730   57D1 38          	db 56
20731   57D2 38          	db 56
20732   57D3 82          	db 130
20733   57D4 FE          	db 254
20734   57D5 DA          	db 218
20735   57D6 8A          	db 138
20736   57D7 00          	db 0
20737   57D8 00          	db 0
20738   57D9 00          	db 0
20739   57DA 00          	db 0
20740   57DB 00          	db 0
20741   57DC 00          	db 0
20742   57DD 00          	db 0
20743   57DE 00          	db 0
20744   57DF 38          	db 56
20745   57E0 7C          	db 124
20746   57E1 38          	db 56
20747   57E2 00          	db 0
20748   57E3 00          	db 0
20749   57E4 00          	db 0
20750   57E5 00          	db 0
20751   57E6 00          	db 0
20752   57E7 00          	db 0
20753   57E8 00          	db 0
20754   57E9 00          	db 0
20755   57EA 00          	db 0
20756   57EB 00          	db 0
20757   57EC 00          	db 0
20758   57ED 00          	db 0
20759   57EE 00          	db 0
20760   57EF 00          	db 0
20761   57F0 00          	db 0
20762   57F1 00          	db 0
20763   57F2 00          	db 0
20764   57F3 00          	db 0
20765   57F4 00          	db 0
20766   57F5 00          	db 0
20767   57F6 00          	db 0
20768   57F7 00          	db 0
20769   57F8 00          	db 0
20770   57F9 00          	db 0
20771   57FA 00          	db 0
20772   57FB 00          	db 0
20773   57FC 00          	db 0
20774   57FD 00          	db 0
20775   57FE 00          	db 0
20776   57FF 00          	db 0
20777   5800 00          	db 0
20778   5801 00          	db 0
20779   5802 00          	db 0
20780   5803 00          	db 0
20781   5804 00          	db 0
20782   5805 00          	db 0
20783   5806 00          	db 0
20784   5807 00          	db 0
20785   5808 00          	db 0
20786   5809 00          	db 0
20787   580A 40          	db 64
20788   580B 40          	db 64
20789   580C E0          	db 224
20790   580D 70          	db 112
20791   580E 79          	db 121
20792   580F 3B          	db 59
20793   5810 37          	db 55
20794   5811 17          	db 23
20795   5812 1B          	db 27
20796   5813 0B          	db 11
20797   5814 01          	db 1
20798   5815 10          	db 16
20799   5816 08          	db 8
20800   5817 14          	db 20
20801   5818 0A          	db 10
20802   5819 15          	db 21
20803   581A 0A          	db 10
20804   581B 15          	db 21
20805   581C 00          	db 0
20806   581D 00          	db 0
20807   581E 00          	db 0
20808   581F 00          	db 0
20809   5820 00          	db 0
20810   5821 00          	db 0
20811   5822 00          	db 0
20812   5823 E0          	db 224
20813   5824 FC          	db 252
20814   5825 DF          	db 223
20815   5826 00          	db 0
20816   5827 00          	db 0
20817   5828 00          	db 0
20818   5829 00          	db 0
20819   582A 00          	db 0
20820   582B 00          	db 0
20821   582C 00          	db 0
20822   582D 00          	db 0
20823   582E 00          	db 0
20824   582F 00          	db 0
20825   5830 00          	db 0
20826   5831 00          	db 0
20827   5832 00          	db 0
20828   5833 00          	db 0
20829   5834 1D          	db 29
20830   5835 10          	db 16
20831   5836 10          	db 16
20832   5837 00          	db 0
20833   5838 00          	db 0
20834   5839 00          	db 0
20835   583A 00          	db 0
20836   583B 00          	db 0
20837   583C 00          	db 0
20838   583D 00          	db 0
20839   583E 00          	db 0
20840   583F 00          	db 0
20841   5840 00          	db 0
20842   5841 80          	db 128
20843   5842 C0          	db 192
20844   5843 DF          	db 223
20845   5844 9F          	db 159
20846   5845 80          	db 128
20847   5846 00          	db 0
20848   5847 00          	db 0
20849   5848 00          	db 0
20850   5849 00          	db 0
20851   584A 00          	db 0
20852   584B 00          	db 0
20853   584C 80          	db 128
20854   584D 41          	db 65
20855   584E 82          	db 130
20856   584F 01          	db 1
20857   5850 00          	db 0
20858   5851 03          	db 3
20859   5852 00          	db 0
20860   5853 00          	db 0
20861   5854 00          	db 0
20862   5855 00          	db 0
20863   5856 00          	db 0
20864   5857 E0          	db 224
20865   5858 00          	db 0
20866   5859 00          	db 0
20867   585A 00          	db 0
20868   585B 00          	db 0
20869   585C 00          	db 0
20870   585D 00          	db 0
20871   585E 00          	db 0
20872   585F 00          	db 0
20873   5860 00          	db 0
20874   5861 00          	db 0
20875   5862 00          	db 0
20876   5863 00          	db 0
20877   5864 00          	db 0
20878   5865 00          	db 0
20879   5866 C0          	db 192
20880   5867 40          	db 64
20881   5868 40          	db 64
20882   5869 00          	db 0
20883   586A 00          	db 0
20884   586B 00          	db 0
20885   586C 00          	db 0
20886   586D 00          	db 0
20887   586E 00          	db 0
20888   586F 00          	db 0
20889   5870 00          	db 0
20890   5871 00          	db 0
20891   5872 01          	db 1
20892   5873 07          	db 7
20893   5874 FF          	db 255
20894   5875 FF          	db 255
20895   5876 FF          	db 255
20896   5877 FF          	db 255
20897   5878 0F          	db 15
20898   5879 01          	db 1
20899   587A 00          	db 0
20900   587B 00          	db 0
20901   587C 01          	db 1
20902   587D 02          	db 2
20903   587E 15          	db 21
20904   587F 0A          	db 10
20905   5880 14          	db 20
20906   5881 08          	db 8
20907   5882 00          	db 0
20908   5883 00          	db 0
20909   5884 00          	db 0
20910   5885 00          	db 0
20911   5886 00          	db 0
20912   5887 00          	db 0
20913   5888 01          	db 1
20914   5889 3F          	db 63
20915   588A 00          	db 0
20916   588B 00          	db 0
20917   588C 00          	db 0
20918   588D 00          	db 0
20919   588E 00          	db 0
20920   588F 00          	db 0
20921   5890 00          	db 0
20922   5891 00          	db 0
20923   5892 00          	db 0
20924   5893 00          	db 0
20925   5894 00          	db 0
20926   5895 00          	db 0
20927   5896 00          	db 0
20928   5897 00          	db 0
20929   5898 00          	db 0
20930   5899 00          	db 0
20931   589A 00          	db 0
20932   589B 00          	db 0
20933   589C 00          	db 0
20934   589D 00          	db 0
20935   589E 00          	db 0
20936   589F 00          	db 0
20937   58A0 10          	db 16
20938   58A1 10          	db 16
20939   58A2 38          	db 56
20940   58A3 F8          	db 248
20941   58A4 FC          	db 252
20942   58A5 FC          	db 252
20943   58A6 FC          	db 252
20944   58A7 FE          	db 254
20945   58A8 FE          	db 254
20946   58A9 FE          	db 254
20947   58AA FE          	db 254
20948   58AB FE          	db 254
20949   58AC 7E          	db 126
20950   58AD 3E          	db 62
20951   58AE 0F          	db 15
20952   58AF A7          	db 167
20953   58B0 53          	db 83
20954   58B1 AB          	db 171
20955   58B2 13          	db 19
20956   58B3 0B          	db 11
20957   58B4 03          	db 3
20958   58B5 09          	db 9
20959   58B6 04          	db 4
20960   58B7 00          	db 0
20961   58B8 00          	db 0
20962   58B9 38          	db 56
20963   58BA F8          	db 248
20964   58BB D8          	db 216
20965   58BC 10          	db 16
20966   58BD 38          	db 56
20967   58BE 38          	db 56
20968   58BF 38          	db 56
20969   58C0 38          	db 56
20970   58C1 38          	db 56
20971   58C2 38          	db 56
20972   58C3 38          	db 56
20973   58C4 38          	db 56
20974   58C5 38          	db 56
20975   58C6 38          	db 56
20976   58C7 38          	db 56
20977   58C8 38          	db 56
20978   58C9 38          	db 56
20979   58CA 38          	db 56
20980   58CB 38          	db 56
20981   58CC 38          	db 56
20982   58CD 82          	db 130
20983   58CE FE          	db 254
20984   58CF DA          	db 218
20985   58D0 8A          	db 138
20986   58D1 60          	db 96
20987   58D2 60          	db 96
20988   58D3 40          	db 64
20989   58D4 7C          	db 124
20990   58D5 7D          	db 125
20991   58D6 7D          	db 125
20992   58D7 7D          	db 125
20993   58D8 01          	db 1
20994   58D9 38          	db 56
20995   58DA 7C          	db 124
20996   58DB 38          	db 56
20997   58DC 00          	db 0
20998   58DD 00          	db 0
20999   58DE 00          	db 0
21000   58DF 00          	db 0
21001   58E0 00          	db 0
21002   58E1 00          	db 0
21003   58E2 00          	db 0
21004   58E3 00          	db 0
21005   58E4 00          	db 0
21006   58E5 00          	db 0
21007   58E6 00          	db 0
21008   58E7 00          	db 0
21009   58E8 00          	db 0
21010   58E9 00          	db 0
21011   58EA 00          	db 0
21012   58EB 00          	db 0
21013   58EC 00          	db 0
21014   58ED 00          	db 0
21015   58EE 00          	db 0
21016   58EF 00          	db 0
21017   58F0 00          	db 0
21018   58F1 00          	db 0
21019   58F2 00          	db 0
21020   58F3 00          	db 0
21021   58F4 00          	db 0
21022   58F5 00          	db 0
21023   58F6 00          	db 0
21024   58F7 00          	db 0
21025   58F8 00          	db 0
21026   58F9 00          	db 0
21027   58FA 00          	db 0
21028   58FB 00          	db 0
21029   58FC 01          	db 1
21030   58FD 03          	db 3
21031   58FE 07          	db 7
21032   58FF 0F          	db 15
21033   5900 0F          	db 15
21034   5901 1F          	db 31
21035   5902 1F          	db 31
21036   5903 3F          	db 63
21037   5904 1F          	db 31
21038   5905 0F          	db 15
21039   5906 06          	db 6
21040   5907 80          	db 128
21041   5908 81          	db 129
21042   5909 C3          	db 195
21043   590A 87          	db 135
21044   590B 07          	db 7
21045   590C 03          	db 3
21046   590D 03          	db 3
21047   590E 01          	db 1
21048   590F 00          	db 0
21049   5910 00          	db 0
21050   5911 00          	db 0
21051   5912 00          	db 0
21052   5913 00          	db 0
21053   5914 00          	db 0
21054   5915 00          	db 0
21055   5916 00          	db 0
21056   5917 1C          	db 28
21057   5918 32          	db 50
21058   5919 3B          	db 59
21059   591A 3F          	db 63
21060   591B 3F          	db 63
21061   591C 1F          	db 31
21062   591D E0          	db 224
21063   591E FC          	db 252
21064   591F DF          	db 223
21065   5920 00          	db 0
21066   5921 01          	db 1
21067   5922 00          	db 0
21068   5923 00          	db 0
21069   5924 00          	db 0
21070   5925 00          	db 0
21071   5926 03          	db 3
21072   5927 04          	db 4
21073   5928 07          	db 7
21074   5929 09          	db 9
21075   592A 08          	db 8
21076   592B 07          	db 7
21077   592C 1F          	db 31
21078   592D 62          	db 98
21079   592E DD          	db 221
21080   592F D2          	db 210
21081   5930 D2          	db 210
21082   5931 E2          	db 226
21083   5932 F7          	db 247
21084   5933 EF          	db 239
21085   5934 DF          	db 223
21086   5935 DF          	db 223
21087   5936 DF          	db 223
21088   5937 E0          	db 224
21089   5938 BF          	db 191
21090   5939 40          	db 64
21091   593A 3F          	db 63
21092   593B 9E          	db 158
21093   593C C0          	db 192
21094   593D C0          	db 192
21095   593E 80          	db 128
21096   593F 80          	db 128
21097   5940 3F          	db 63
21098   5941 7F          	db 127
21099   5942 FF          	db 255
21100   5943 FF          	db 255
21101   5944 7F          	db 127
21102   5945 1F          	db 31
21103   5946 18          	db 24
21104   5947 18          	db 24
21105   5948 18          	db 24
21106   5949 38          	db 56
21107   594A 78          	db 120
21108   594B F8          	db 248
21109   594C FC          	db 252
21110   594D FC          	db 252
21111   594E F8          	db 248
21112   594F 00          	db 0
21113   5950 00          	db 0
21114   5951 E0          	db 224
21115   5952 80          	db 128
21116   5953 C0          	db 192
21117   5954 80          	db 128
21118   5955 C0          	db 192
21119   5956 40          	db 64
21120   5957 C0          	db 192
21121   5958 80          	db 128
21122   5959 00          	db 0
21123   595A 80          	db 128
21124   595B 80          	db 128
21125   595C 00          	db 0
21126   595D 00          	db 0
21127   595E C0          	db 192
21128   595F 30          	db 48
21129   5960 DC          	db 220
21130   5961 5E          	db 94
21131   5962 5F          	db 95
21132   5963 3F          	db 63
21133   5964 7F          	db 127
21134   5965 BF          	db 191
21135   5966 DF          	db 223
21136   5967 DF          	db 223
21137   5968 DF          	db 223
21138   5969 3F          	db 63
21139   596A EE          	db 238
21140   596B 1C          	db 28
21141   596C F0          	db 240
21142   596D 00          	db 0
21143   596E 00          	db 0
21144   596F 00          	db 0
21145   5970 00          	db 0
21146   5971 00          	db 0
21147   5972 00          	db 0
21148   5973 F0          	db 240
21149   5974 FE          	db 254
21150   5975 FC          	db 252
21151   5976 F8          	db 248
21152   5977 C0          	db 192
21153   5978 40          	db 64
21154   5979 40          	db 64
21155   597A 40          	db 64
21156   597B 41          	db 65
21157   597C 63          	db 99
21158   597D 7F          	db 127
21159   597E FF          	db 255
21160   597F FF          	db 255
21161   5980 7F          	db 127
21162   5981 00          	db 0
21163   5982 01          	db 1
21164   5983 3F          	db 63
21165   5984 00          	db 0
21166   5985 00          	db 0
21167   5986 00          	db 0
21168   5987 00          	db 0
21169   5988 00          	db 0
21170   5989 00          	db 0
21171   598A 00          	db 0
21172   598B 00          	db 0
21173   598C 00          	db 0
21174   598D 00          	db 0
21175   598E 00          	db 0
21176   598F 00          	db 0
21177   5990 00          	db 0
21178   5991 00          	db 0
21179   5992 00          	db 0
21180   5993 00          	db 0
21181   5994 00          	db 0
21182   5995 80          	db 128
21183   5996 C0          	db 192
21184   5997 E0          	db 224
21185   5998 E0          	db 224
21186   5999 E0          	db 224
21187   599A C0          	db 192
21188   599B 80          	db 128
21189   599C 00          	db 0
21190   599D 00          	db 0
21191   599E 00          	db 0
21192   599F 00          	db 0
21193   59A0 00          	db 0
21194   59A1 00          	db 0
21195   59A2 00          	db 0
21196   59A3 00          	db 0
21197   59A4 00          	db 0
21198   59A5 00          	db 0
21199   59A6 00          	db 0
21200   59A7 00          	db 0
21201   59A8 00          	db 0
21202   59A9 00          	db 0
21203   59AA 00          	db 0
21204   59AB 00          	db 0
21205   59AC 00          	db 0
21206   59AD C0          	db 192
21207   59AE 20          	db 32
21208   59AF A0          	db 160
21209   59B0 E0          	db 224
21210   59B1 E0          	db 224
21211   59B2 C0          	db 192
21212   59B3 38          	db 56
21213   59B4 F8          	db 248
21214   59B5 D8          	db 216
21215   59B6             imgPlayerWin: 
21216   59B6 00          	db 0
21217   59B7 00          	db 0
21218   59B8 00          	db 0
21219   59B9 00          	db 0
21220   59BA 75          	db 117
21221   59BB FA          	db 250
21222   59BC FA          	db 250
21223   59BD DA          	db 218
21224   59BE AA          	db 170
21225   59BF AA          	db 170
21226   59C0 DA          	db 218
21227   59C1 7A          	db 122
21228   59C2 3A          	db 58
21229   59C3 00          	db 0
21230   59C4 3F          	db 63
21231   59C5 1F          	db 31
21232   59C6 00          	db 0
21233   59C7 00          	db 0
21234   59C8 00          	db 0
21235   59C9 00          	db 0
21236   59CA 70          	db 112
21237   59CB F8          	db 248
21238   59CC F8          	db 248
21239   59CD D8          	db 216
21240   59CE A8          	db 168
21241   59CF A8          	db 168
21242   59D0 D8          	db 216
21243   59D1 F0          	db 240
21244   59D2 E0          	db 224
21245   59D3 00          	db 0
21246   59D4 E0          	db 224
21247   59D5 C0          	db 192
21248   59D6 00          	db 0
21249   59D7 00          	db 0
21250   59D8 00          	db 0
21251   59D9 00          	db 0
21252   59DA 00          	db 0
21253   59DB 00          	db 0
21254   59DC 00          	db 0
21255   59DD 00          	db 0
21256   59DE 00          	db 0
21257   59DF 00          	db 0
21258   59E0 00          	db 0
21259   59E1 00          	db 0
21260   59E2 00          	db 0
21261   59E3 00          	db 0
21262   59E4 00          	db 0
21263   59E5 00          	db 0
21264   59E6 02          	db 2
21265   59E7 07          	db 7
21266   59E8 02          	db 2
21267   59E9 02          	db 2
21268   59EA 75          	db 117
21269   59EB FA          	db 250
21270   59EC FA          	db 250
21271   59ED DA          	db 218
21272   59EE AA          	db 170
21273   59EF AA          	db 170
21274   59F0 DA          	db 218
21275   59F1 7A          	db 122
21276   59F2 3A          	db 58
21277   59F3 00          	db 0
21278   59F4 3F          	db 63
21279   59F5 1F          	db 31
21280   59F6 00          	db 0
21281   59F7 00          	db 0
21282   59F8 00          	db 0
21283   59F9 00          	db 0
21284   59FA 70          	db 112
21285   59FB F8          	db 248
21286   59FC F8          	db 248
21287   59FD D8          	db 216
21288   59FE A8          	db 168
21289   59FF A8          	db 168
21290   5A00 D8          	db 216
21291   5A01 F0          	db 240
21292   5A02 E0          	db 224
21293   5A03 00          	db 0
21294   5A04 E0          	db 224
21295   5A05 C0          	db 192
21296   5A06 00          	db 0
21297   5A07 00          	db 0
21298   5A08 00          	db 0
21299   5A09 00          	db 0
21300   5A0A 00          	db 0
21301   5A0B 00          	db 0
21302   5A0C 00          	db 0
21303   5A0D 00          	db 0
21304   5A0E 00          	db 0
21305   5A0F 00          	db 0
21306   5A10 00          	db 0
21307   5A11 00          	db 0
21308   5A12 00          	db 0
21309   5A13 00          	db 0
21310   5A14 00          	db 0
21311   5A15 00          	db 0
21312   5A16             imgPlayerD: 
21313   5A16 00          	db 0
21314   5A17 00          	db 0
21315   5A18 00          	db 0
21316   5A19 00          	db 0
21317   5A1A AD          	db 173
21318   5A1B DF          	db 223
21319   5A1C AB          	db 171
21320   5A1D DF          	db 223
21321   5A1E FF          	db 255
21322   5A1F FF          	db 255
21323   5A20 FF          	db 255
21324   5A21 FF          	db 255
21325   5A22 FD          	db 253
21326   5A23 FF          	db 255
21327   5A24 FE          	db 254
21328   5A25 FF          	db 255
21329   5A26 A8          	db 168
21330   5A27 D8          	db 216
21331   5A28 A8          	db 168
21332   5A29 D8          	db 216
21333   5A2A 00          	db 0
21334   5A2B 00          	db 0
21335   5A2C 00          	db 0
21336   5A2D 00          	db 0
21337   5A2E AD          	db 173
21338   5A2F DF          	db 223
21339   5A30 AB          	db 171
21340   5A31 DF          	db 223
21341   5A32 FF          	db 255
21342   5A33 FF          	db 255
21343   5A34 FF          	db 255
21344   5A35 FF          	db 255
21345   5A36 FD          	db 253
21346   5A37 FF          	db 255
21347   5A38 FE          	db 254
21348   5A39 FF          	db 255
21349   5A3A A8          	db 168
21350   5A3B D8          	db 216
21351   5A3C A8          	db 168
21352   5A3D D8          	db 216
21353   5A3E             imgKingLose: 
21354   5A3E 00          	db 0
21355   5A3F 00          	db 0
21356   5A40 00          	db 0
21357   5A41 00          	db 0
21358   5A42 00          	db 0
21359   5A43 00          	db 0
21360   5A44 00          	db 0
21361   5A45 00          	db 0
21362   5A46 00          	db 0
21363   5A47 00          	db 0
21364   5A48 00          	db 0
21365   5A49 00          	db 0
21366   5A4A 00          	db 0
21367   5A4B 00          	db 0
21368   5A4C 00          	db 0
21369   5A4D 00          	db 0
21370   5A4E 00          	db 0
21371   5A4F 00          	db 0
21372   5A50 00          	db 0
21373   5A51 00          	db 0
21374   5A52 00          	db 0
21375   5A53 00          	db 0
21376   5A54 00          	db 0
21377   5A55 00          	db 0
21378   5A56 00          	db 0
21379   5A57 00          	db 0
21380   5A58 00          	db 0
21381   5A59 00          	db 0
21382   5A5A 00          	db 0
21383   5A5B 00          	db 0
21384   5A5C 00          	db 0
21385   5A5D 00          	db 0
21386   5A5E 00          	db 0
21387   5A5F 00          	db 0
21388   5A60 00          	db 0
21389   5A61 00          	db 0
21390   5A62 00          	db 0
21391   5A63 00          	db 0
21392   5A64 00          	db 0
21393   5A65 00          	db 0
21394   5A66 00          	db 0
21395   5A67 00          	db 0
21396   5A68 00          	db 0
21397   5A69 01          	db 1
21398   5A6A 01          	db 1
21399   5A6B 01          	db 1
21400   5A6C 01          	db 1
21401   5A6D 03          	db 3
21402   5A6E 03          	db 3
21403   5A6F 03          	db 3
21404   5A70 03          	db 3
21405   5A71 03          	db 3
21406   5A72 07          	db 7
21407   5A73 07          	db 7
21408   5A74 07          	db 7
21409   5A75 07          	db 7
21410   5A76 07          	db 7
21411   5A77 07          	db 7
21412   5A78 07          	db 7
21413   5A79 06          	db 6
21414   5A7A 06          	db 6
21415   5A7B 04          	db 4
21416   5A7C 00          	db 0
21417   5A7D 00          	db 0
21418   5A7E 00          	db 0
21419   5A7F 00          	db 0
21420   5A80 00          	db 0
21421   5A81 00          	db 0
21422   5A82 00          	db 0
21423   5A83 00          	db 0
21424   5A84 00          	db 0
21425   5A85 00          	db 0
21426   5A86 00          	db 0
21427   5A87 00          	db 0
21428   5A88 00          	db 0
21429   5A89 00          	db 0
21430   5A8A 00          	db 0
21431   5A8B 00          	db 0
21432   5A8C 00          	db 0
21433   5A8D 00          	db 0
21434   5A8E 00          	db 0
21435   5A8F 00          	db 0
21436   5A90 00          	db 0
21437   5A91 00          	db 0
21438   5A92 00          	db 0
21439   5A93 00          	db 0
21440   5A94 00          	db 0
21441   5A95 00          	db 0
21442   5A96 00          	db 0
21443   5A97 00          	db 0
21444   5A98 00          	db 0
21445   5A99 00          	db 0
21446   5A9A 00          	db 0
21447   5A9B 00          	db 0
21448   5A9C 00          	db 0
21449   5A9D 00          	db 0
21450   5A9E 00          	db 0
21451   5A9F 00          	db 0
21452   5AA0 00          	db 0
21453   5AA1 00          	db 0
21454   5AA2 00          	db 0
21455   5AA3 00          	db 0
21456   5AA4 80          	db 128
21457   5AA5 C0          	db 192
21458   5AA6 F0          	db 240
21459   5AA7 FC          	db 252
21460   5AA8 FE          	db 254
21461   5AA9 FF          	db 255
21462   5AAA C3          	db 195
21463   5AAB 81          	db 129
21464   5AAC 81          	db 129
21465   5AAD 80          	db 128
21466   5AAE 80          	db 128
21467   5AAF 80          	db 128
21468   5AB0 C0          	db 192
21469   5AB1 E0          	db 224
21470   5AB2 F0          	db 240
21471   5AB3 E0          	db 224
21472   5AB4 C0          	db 192
21473   5AB5 80          	db 128
21474   5AB6 00          	db 0
21475   5AB7 60          	db 96
21476   5AB8 FC          	db 252
21477   5AB9 DF          	db 223
21478   5ABA 00          	db 0
21479   5ABB 00          	db 0
21480   5ABC 00          	db 0
21481   5ABD 00          	db 0
21482   5ABE 00          	db 0
21483   5ABF 00          	db 0
21484   5AC0 00          	db 0
21485   5AC1 00          	db 0
21486   5AC2 00          	db 0
21487   5AC3 00          	db 0
21488   5AC4 00          	db 0
21489   5AC5 00          	db 0
21490   5AC6 00          	db 0
21491   5AC7 00          	db 0
21492   5AC8 00          	db 0
21493   5AC9 00          	db 0
21494   5ACA 00          	db 0
21495   5ACB 00          	db 0
21496   5ACC 00          	db 0
21497   5ACD 00          	db 0
21498   5ACE 00          	db 0
21499   5ACF 00          	db 0
21500   5AD0 00          	db 0
21501   5AD1 00          	db 0
21502   5AD2 00          	db 0
21503   5AD3 00          	db 0
21504   5AD4 00          	db 0
21505   5AD5 00          	db 0
21506   5AD6 00          	db 0
21507   5AD7 00          	db 0
21508   5AD8 00          	db 0
21509   5AD9 1D          	db 29
21510   5ADA 10          	db 16
21511   5ADB 10          	db 16
21512   5ADC 00          	db 0
21513   5ADD 00          	db 0
21514   5ADE 00          	db 0
21515   5ADF 00          	db 0
21516   5AE0 00          	db 0
21517   5AE1 00          	db 0
21518   5AE2 00          	db 0
21519   5AE3 00          	db 0
21520   5AE4 00          	db 0
21521   5AE5 00          	db 0
21522   5AE6 00          	db 0
21523   5AE7 80          	db 128
21524   5AE8 FF          	db 255
21525   5AE9 FF          	db 255
21526   5AEA FF          	db 255
21527   5AEB FC          	db 252
21528   5AEC 80          	db 128
21529   5AED 00          	db 0
21530   5AEE 00          	db 0
21531   5AEF 00          	db 0
21532   5AF0 00          	db 0
21533   5AF1 00          	db 0
21534   5AF2 00          	db 0
21535   5AF3 00          	db 0
21536   5AF4 00          	db 0
21537   5AF5 00          	db 0
21538   5AF6 00          	db 0
21539   5AF7 E0          	db 224
21540   5AF8 00          	db 0
21541   5AF9 00          	db 0
21542   5AFA 00          	db 0
21543   5AFB 00          	db 0
21544   5AFC 00          	db 0
21545   5AFD 00          	db 0
21546   5AFE 00          	db 0
21547   5AFF 00          	db 0
21548   5B00 00          	db 0
21549   5B01 00          	db 0
21550   5B02 00          	db 0
21551   5B03 00          	db 0
21552   5B04 00          	db 0
21553   5B05 00          	db 0
21554   5B06 00          	db 0
21555   5B07 00          	db 0
21556   5B08 00          	db 0
21557   5B09 00          	db 0
21558   5B0A 00          	db 0
21559   5B0B 00          	db 0
21560   5B0C 00          	db 0
21561   5B0D 00          	db 0
21562   5B0E 00          	db 0
21563   5B0F 00          	db 0
21564   5B10 00          	db 0
21565   5B11 00          	db 0
21566   5B12 00          	db 0
21567   5B13 00          	db 0
21568   5B14 00          	db 0
21569   5B15 00          	db 0
21570   5B16 00          	db 0
21571   5B17 C0          	db 192
21572   5B18 40          	db 64
21573   5B19 40          	db 64
21574   5B1A 00          	db 0
21575   5B1B 00          	db 0
21576   5B1C 00          	db 0
21577   5B1D 00          	db 0
21578   5B1E 00          	db 0
21579   5B1F 00          	db 0
21580   5B20 00          	db 0
21581   5B21 00          	db 0
21582   5B22 00          	db 0
21583   5B23 00          	db 0
21584   5B24 01          	db 1
21585   5B25 03          	db 3
21586   5B26 FA          	db 250
21587   5B27 F8          	db 248
21588   5B28 E0          	db 224
21589   5B29 00          	db 0
21590   5B2A 00          	db 0
21591   5B2B 00          	db 0
21592   5B2C 00          	db 0
21593   5B2D 00          	db 0
21594   5B2E 00          	db 0
21595   5B2F 00          	db 0
21596   5B30 01          	db 1
21597   5B31 00          	db 0
21598   5B32 00          	db 0
21599   5B33 00          	db 0
21600   5B34 01          	db 1
21601   5B35 3F          	db 63
21602   5B36 00          	db 0
21603   5B37 00          	db 0
21604   5B38 00          	db 0
21605   5B39 00          	db 0
21606   5B3A 00          	db 0
21607   5B3B 00          	db 0
21608   5B3C 00          	db 0
21609   5B3D 00          	db 0
21610   5B3E 00          	db 0
21611   5B3F 00          	db 0
21612   5B40 00          	db 0
21613   5B41 00          	db 0
21614   5B42 00          	db 0
21615   5B43 00          	db 0
21616   5B44 00          	db 0
21617   5B45 00          	db 0
21618   5B46 00          	db 0
21619   5B47 00          	db 0
21620   5B48 00          	db 0
21621   5B49 00          	db 0
21622   5B4A 00          	db 0
21623   5B4B 00          	db 0
21624   5B4C 00          	db 0
21625   5B4D 00          	db 0
21626   5B4E 00          	db 0
21627   5B4F 00          	db 0
21628   5B50 00          	db 0
21629   5B51 00          	db 0
21630   5B52 00          	db 0
21631   5B53 00          	db 0
21632   5B54 00          	db 0
21633   5B55 00          	db 0
21634   5B56 00          	db 0
21635   5B57 00          	db 0
21636   5B58 00          	db 0
21637   5B59 00          	db 0
21638   5B5A 00          	db 0
21639   5B5B 00          	db 0
21640   5B5C 00          	db 0
21641   5B5D 00          	db 0
21642   5B5E 00          	db 0
21643   5B5F 00          	db 0
21644   5B60 00          	db 0
21645   5B61 00          	db 0
21646   5B62 00          	db 0
21647   5B63 80          	db 128
21648   5B64 00          	db 0
21649   5B65 00          	db 0
21650   5B66 00          	db 0
21651   5B67 08          	db 8
21652   5B68 00          	db 0
21653   5B69 08          	db 8
21654   5B6A 10          	db 16
21655   5B6B 28          	db 40
21656   5B6C 10          	db 16
21657   5B6D 08          	db 8
21658   5B6E C0          	db 192
21659   5B6F 30          	db 48
21660   5B70 08          	db 8
21661   5B71 38          	db 56
21662   5B72 F8          	db 248
21663   5B73 D8          	db 216
21664   5B74 00          	db 0
21665   5B75 00          	db 0
21666   5B76 00          	db 0
21667   5B77 00          	db 0
21668   5B78 00          	db 0
21669   5B79 00          	db 0
21670   5B7A 00          	db 0
21671   5B7B 00          	db 0
21672   5B7C 00          	db 0
21673   5B7D 00          	db 0
21674   5B7E 00          	db 0
21675   5B7F 00          	db 0
21676   5B80 00          	db 0
21677   5B81 00          	db 0
21678   5B82 00          	db 0
21679   5B83 00          	db 0
21680   5B84 00          	db 0
21681   5B85 00          	db 0
21682   5B86 00          	db 0
21683   5B87 00          	db 0
21684   5B88 00          	db 0
21685   5B89 00          	db 0
21686   5B8A 00          	db 0
21687   5B8B 00          	db 0
21688   5B8C 00          	db 0
21689   5B8D 00          	db 0
21690   5B8E 00          	db 0
21691   5B8F 00          	db 0
21692   5B90 00          	db 0
21693   5B91 00          	db 0
21694   5B92 00          	db 0
21695   5B93 00          	db 0
21696   5B94 00          	db 0
21697   5B95 00          	db 0
21698   5B96 00          	db 0
21699   5B97 00          	db 0
21700   5B98 00          	db 0
21701   5B99 00          	db 0
21702   5B9A 00          	db 0
21703   5B9B 00          	db 0
21704   5B9C 00          	db 0
21705   5B9D 00          	db 0
21706   5B9E 00          	db 0
21707   5B9F 00          	db 0
21708   5BA0 00          	db 0
21709   5BA1 00          	db 0
21710   5BA2 00          	db 0
21711   5BA3 00          	db 0
21712   5BA4 00          	db 0
21713   5BA5 00          	db 0
21714   5BA6 00          	db 0
21715   5BA7 00          	db 0
21716   5BA8 00          	db 0
21717   5BA9 00          	db 0
21718   5BAA 00          	db 0
21719   5BAB 00          	db 0
21720   5BAC 00          	db 0
21721   5BAD 00          	db 0
21722   5BAE 00          	db 0
21723   5BAF 00          	db 0
21724   5BB0 00          	db 0
21725   5BB1 00          	db 0
21726   5BB2 00          	db 0
21727   5BB3 00          	db 0
21728   5BB4 00          	db 0
21729   5BB5 00          	db 0
21730   5BB6 00          	db 0
21731   5BB7 00          	db 0
21732   5BB8 00          	db 0
21733   5BB9 00          	db 0
21734   5BBA 00          	db 0
21735   5BBB 00          	db 0
21736   5BBC 00          	db 0
21737   5BBD 00          	db 0
21738   5BBE 00          	db 0
21739   5BBF 00          	db 0
21740   5BC0 00          	db 0
21741   5BC1 00          	db 0
21742   5BC2 00          	db 0
21743   5BC3 00          	db 0
21744   5BC4 00          	db 0
21745   5BC5 00          	db 0
21746   5BC6 00          	db 0
21747   5BC7 00          	db 0
21748   5BC8 00          	db 0
21749   5BC9 00          	db 0
21750   5BCA 00          	db 0
21751   5BCB 00          	db 0
21752   5BCC 00          	db 0
21753   5BCD 00          	db 0
21754   5BCE 00          	db 0
21755   5BCF 00          	db 0
21756   5BD0 00          	db 0
21757   5BD1 00          	db 0
21758   5BD2 00          	db 0
21759   5BD3 00          	db 0
21760   5BD4 00          	db 0
21761   5BD5 00          	db 0
21762   5BD6 00          	db 0
21763   5BD7 00          	db 0
21764   5BD8 00          	db 0
21765   5BD9 00          	db 0
21766   5BDA 00          	db 0
21767   5BDB 00          	db 0
21768   5BDC 00          	db 0
21769   5BDD 00          	db 0
21770   5BDE 00          	db 0
21771   5BDF 00          	db 0
21772   5BE0 00          	db 0
21773   5BE1 00          	db 0
21774   5BE2 00          	db 0
21775   5BE3 00          	db 0
21776   5BE4 00          	db 0
21777   5BE5 00          	db 0
21778   5BE6 00          	db 0
21779   5BE7 00          	db 0
21780   5BE8 00          	db 0
21781   5BE9 00          	db 0
21782   5BEA 00          	db 0
21783   5BEB 00          	db 0
21784   5BEC 00          	db 0
21785   5BED 00          	db 0
21786   5BEE 00          	db 0
21787   5BEF 00          	db 0
21788   5BF0 00          	db 0
21789   5BF1 00          	db 0
21790   5BF2 00          	db 0
21791   5BF3 00          	db 0
21792   5BF4 00          	db 0
21793   5BF5 00          	db 0
21794   5BF6 00          	db 0
21795   5BF7 00          	db 0
21796   5BF8 00          	db 0
21797   5BF9 00          	db 0
21798   5BFA 00          	db 0
21799   5BFB 00          	db 0
21800   5BFC 00          	db 0
21801   5BFD 00          	db 0
21802   5BFE 00          	db 0
21803   5BFF 00          	db 0
21804   5C00 00          	db 0
21805   5C01 00          	db 0
21806   5C02 00          	db 0
21807   5C03 00          	db 0
21808   5C04 00          	db 0
21809   5C05 00          	db 0
21810   5C06 00          	db 0
21811   5C07 00          	db 0
21812   5C08 00          	db 0
21813   5C09 00          	db 0
21814   5C0A 00          	db 0
21815   5C0B 00          	db 0
21816   5C0C 00          	db 0
21817   5C0D 00          	db 0
21818   5C0E 00          	db 0
21819   5C0F 01          	db 1
21820   5C10 07          	db 7
21821   5C11 0F          	db 15
21822   5C12 1F          	db 31
21823   5C13 3F          	db 63
21824   5C14 3F          	db 63
21825   5C15 7F          	db 127
21826   5C16 7F          	db 127
21827   5C17 7F          	db 127
21828   5C18 3F          	db 63
21829   5C19 0F          	db 15
21830   5C1A 03          	db 3
21831   5C1B 01          	db 1
21832   5C1C 00          	db 0
21833   5C1D 00          	db 0
21834   5C1E 00          	db 0
21835   5C1F 3C          	db 60
21836   5C20 3C          	db 60
21837   5C21 3E          	db 62
21838   5C22 3E          	db 62
21839   5C23 3F          	db 63
21840   5C24 1F          	db 31
21841   5C25 0F          	db 15
21842   5C26 00          	db 0
21843   5C27 03          	db 3
21844   5C28 03          	db 3
21845   5C29 01          	db 1
21846   5C2A 00          	db 0
21847   5C2B 60          	db 96
21848   5C2C FC          	db 252
21849   5C2D DF          	db 223
21850   5C2E 00          	db 0
21851   5C2F 00          	db 0
21852   5C30 00          	db 0
21853   5C31 00          	db 0
21854   5C32 00          	db 0
21855   5C33 00          	db 0
21856   5C34 00          	db 0
21857   5C35 00          	db 0
21858   5C36 00          	db 0
21859   5C37 00          	db 0
21860   5C38 00          	db 0
21861   5C39 00          	db 0
21862   5C3A 00          	db 0
21863   5C3B 00          	db 0
21864   5C3C 00          	db 0
21865   5C3D 00          	db 0
21866   5C3E 00          	db 0
21867   5C3F 01          	db 1
21868   5C40 00          	db 0
21869   5C41 00          	db 0
21870   5C42 00          	db 0
21871   5C43 00          	db 0
21872   5C44 00          	db 0
21873   5C45 03          	db 3
21874   5C46 04          	db 4
21875   5C47 07          	db 7
21876   5C48 09          	db 9
21877   5C49 08          	db 8
21878   5C4A 07          	db 7
21879   5C4B 1F          	db 31
21880   5C4C 62          	db 98
21881   5C4D DD          	db 221
21882   5C4E D2          	db 210
21883   5C4F D2          	db 210
21884   5C50 E2          	db 226
21885   5C51 F7          	db 247
21886   5C52 EF          	db 239
21887   5C53 DF          	db 223
21888   5C54 DF          	db 223
21889   5C55 DF          	db 223
21890   5C56 E0          	db 224
21891   5C57 FF          	db 255
21892   5C58 F0          	db 240
21893   5C59 EF          	db 239
21894   5C5A 7F          	db 127
21895   5C5B 00          	db 0
21896   5C5C 00          	db 0
21897   5C5D 00          	db 0
21898   5C5E 00          	db 0
21899   5C5F 00          	db 0
21900   5C60 03          	db 3
21901   5C61 7F          	db 127
21902   5C62 7F          	db 127
21903   5C63 BF          	db 191
21904   5C64 3F          	db 63
21905   5C65 DF          	db 223
21906   5C66 DF          	db 223
21907   5C67 DF          	db 223
21908   5C68 0F          	db 15
21909   5C69 00          	db 0
21910   5C6A 00          	db 0
21911   5C6B E0          	db 224
21912   5C6C 00          	db 0
21913   5C6D 00          	db 0
21914   5C6E 00          	db 0
21915   5C6F 00          	db 0
21916   5C70 00          	db 0
21917   5C71 00          	db 0
21918   5C72 00          	db 0
21919   5C73 00          	db 0
21920   5C74 00          	db 0
21921   5C75 00          	db 0
21922   5C76 00          	db 0
21923   5C77 00          	db 0
21924   5C78 00          	db 0
21925   5C79 00          	db 0
21926   5C7A 00          	db 0
21927   5C7B 00          	db 0
21928   5C7C 80          	db 128
21929   5C7D C0          	db 192
21930   5C7E 80          	db 128
21931   5C7F 80          	db 128
21932   5C80 C0          	db 192
21933   5C81 40          	db 64
21934   5C82 C0          	db 192
21935   5C83 80          	db 128
21936   5C84 00          	db 0
21937   5C85 80          	db 128
21938   5C86 80          	db 128
21939   5C87 00          	db 0
21940   5C88 00          	db 0
21941   5C89 E0          	db 224
21942   5C8A 38          	db 56
21943   5C8B DE          	db 222
21944   5C8C 5F          	db 95
21945   5C8D 5F          	db 95
21946   5C8E 3F          	db 63
21947   5C8F 7F          	db 127
21948   5C90 BF          	db 191
21949   5C91 DF          	db 223
21950   5C92 DF          	db 223
21951   5C93 DF          	db 223
21952   5C94 3F          	db 63
21953   5C95 FF          	db 255
21954   5C96 7F          	db 127
21955   5C97 BE          	db 190
21956   5C98 FD          	db 253
21957   5C99 03          	db 3
21958   5C9A 02          	db 2
21959   5C9B 01          	db 1
21960   5C9C 01          	db 1
21961   5C9D 19          	db 25
21962   5C9E FB          	db 251
21963   5C9F FB          	db 251
21964   5CA0 FB          	db 251
21965   5CA1 F7          	db 247
21966   5CA2 E0          	db 224
21967   5CA3 EE          	db 238
21968   5CA4 DF          	db 223
21969   5CA5 DE          	db 222
21970   5CA6 80          	db 128
21971   5CA7 00          	db 0
21972   5CA8 01          	db 1
21973   5CA9 3F          	db 63
21974   5CAA 00          	db 0
21975   5CAB 00          	db 0
21976   5CAC 00          	db 0
21977   5CAD 00          	db 0
21978   5CAE 00          	db 0
21979   5CAF 00          	db 0
21980   5CB0 00          	db 0
21981   5CB1 00          	db 0
21982   5CB2 00          	db 0
21983   5CB3 00          	db 0
21984   5CB4 00          	db 0
21985   5CB5 00          	db 0
21986   5CB6 00          	db 0
21987   5CB7 00          	db 0
21988   5CB8 00          	db 0
21989   5CB9 00          	db 0
21990   5CBA 00          	db 0
21991   5CBB 00          	db 0
21992   5CBC 00          	db 0
21993   5CBD 00          	db 0
21994   5CBE 00          	db 0
21995   5CBF 00          	db 0
21996   5CC0 00          	db 0
21997   5CC1 00          	db 0
21998   5CC2 00          	db 0
21999   5CC3 00          	db 0
22000   5CC4 00          	db 0
22001   5CC5 00          	db 0
22002   5CC6 00          	db 0
22003   5CC7 00          	db 0
22004   5CC8 00          	db 0
22005   5CC9 00          	db 0
22006   5CCA 00          	db 0
22007   5CCB 80          	db 128
22008   5CCC C0          	db 192
22009   5CCD E0          	db 224
22010   5CCE F0          	db 240
22011   5CCF F8          	db 248
22012   5CD0 FE          	db 254
22013   5CD1 FF          	db 255
22014   5CD2 FF          	db 255
22015   5CD3 FF          	db 255
22016   5CD4 FC          	db 252
22017   5CD5 FB          	db 251
22018   5CD6 77          	db 119
22019   5CD7 AF          	db 175
22020   5CD8 0F          	db 15
22021   5CD9 EC          	db 236
22022   5CDA E0          	db 224
22023   5CDB E0          	db 224
22024   5CDC E0          	db 224
22025   5CDD C0          	db 192
22026   5CDE C0          	db 192
22027   5CDF 80          	db 128
22028   5CE0 00          	db 0
22029   5CE1 00          	db 0
22030   5CE2 C0          	db 192
22031   5CE3 30          	db 48
22032   5CE4 08          	db 8
22033   5CE5 38          	db 56
22034   5CE6 F8          	db 248
22035   5CE7 D8          	db 216
22036   5CE8 00          	db 0
22037   5CE9 00          	db 0
22038   5CEA 00          	db 0
22039   5CEB 00          	db 0
22040   5CEC 00          	db 0
22041   5CED 00          	db 0
22042   5CEE 00          	db 0
22043   5CEF 00          	db 0
22044   5CF0 00          	db 0
22045   5CF1 00          	db 0
22046   5CF2 00          	db 0
22047   5CF3 00          	db 0
22048   5CF4 00          	db 0
22049   5CF5 00          	db 0
22050   5CF6 00          	db 0
22051   5CF7 00          	db 0
22052   5CF8 00          	db 0
22053   5CF9 00          	db 0
22054   5CFA 00          	db 0
22055   5CFB 00          	db 0
22056   5CFC 00          	db 0
22057   5CFD 00          	db 0
22058   5CFE 00          	db 0
22059   5CFF 00          	db 0
22060   5D00 00          	db 0
22061   5D01 00          	db 0
22062   5D02 00          	db 0
22063   5D03 00          	db 0
22064   5D04 00          	db 0
22065   5D05 00          	db 0
22066   5D06 00          	db 0
22067   5D07 00          	db 0
22068   5D08 00          	db 0
22069   5D09 00          	db 0
22070   5D0A 00          	db 0
22071   5D0B 00          	db 0
22072   5D0C 00          	db 0
22073   5D0D 00          	db 0
22074   5D0E 00          	db 0
22075   5D0F 00          	db 0
22076   5D10 C0          	db 192
22077   5D11 F0          	db 240
22078   5D12 F8          	db 248
22079   5D13 F8          	db 248
22080   5D14 E0          	db 224
22081   5D15 80          	db 128
22082   5D16 00          	db 0
22083   5D17 00          	db 0
22084   5D18 00          	db 0
22085   5D19 00          	db 0
22086   5D1A 00          	db 0
22087   5D1B 00          	db 0
22088   5D1C 00          	db 0
22089   5D1D 00          	db 0
22090   5D1E 00          	db 0
22091   5D1F 00          	db 0
22092   5D20 00          	db 0
22093   5D21 00          	db 0
22094   5D22 00          	db 0
22095   5D23 00          	db 0
22096   5D24 00          	db 0
22097   5D25 00          	db 0
22098   5D26             game: 
22099   5D26 00          	ds 81
22100   5D77             newBalls: 
22101   5D77 00          	ds 3
22102   5D7A             cursorX: 
22103   5D7A 00          	ds 1
22104   5D7B             cursorY: 
22105   5D7B 00          	ds 1
22106   5D7C             selX: 
22107   5D7C 00          	ds 1
22108   5D7D             selY: 
22109   5D7D 00          	ds 1
22110   5D7E             showPath: 
22111   5D7E 01          	db 1
22112   5D7F             showHelp: 
22113   5D7F 01          	db 1
22114   5D80             soundEnabled: 
22115   5D80 01          	db 1
22116   5D81             score: 
22117   5D81 00          	ds 2
22118   5D83             hiScores: 
22119   5D83 41          	db 65
22120   5D84 6C          	db 108
22121   5D85 65          	db 101
22122   5D86 6D          	db 109
22123   5D87 6F          	db 111
22124   5D88 72          	db 114
22125   5D89 66          	db 102
22126   5D8A 00          	ds 3
22127   5D8D 90 01       	dw 400
22128   5D8F 42          	db 66
22129   5D90 32          	db 50
22130   5D91 4D          	db 77
22131   5D92 00          	ds 7
22132   5D99 5E 01       	dw 350
22133   5D9B 45          	db 69
22134   5D9C 6C          	db 108
22135   5D9D 74          	db 116
22136   5D9E 61          	db 97
22137   5D9F 72          	db 114
22138   5DA0 6F          	db 111
22139   5DA1 6E          	db 110
22140   5DA2 00          	ds 3
22141   5DA5 2C 01       	dw 300
22142   5DA7 45          	db 69
22143   5DA8 72          	db 114
22144   5DA9 72          	db 114
22145   5DAA 6F          	db 111
22146   5DAB 72          	db 114
22147   5DAC 34          	db 52
22148   5DAD 30          	db 48
22149   5DAE 34          	db 52
22150   5DAF 00          	ds 2
22151   5DB1 FA 00       	dw 250
22152   5DB3 53          	db 83
22153   5DB4 59          	db 89
22154   5DB5 53          	db 83
22155   5DB6 43          	db 67
22156   5DB7 41          	db 65
22157   5DB8 54          	db 84
22158   5DB9 00          	ds 4
22159   5DBD C8 00       	dw 200
22160   5DBF 4D          	db 77
22161   5DC0 69          	db 105
22162   5DC1 63          	db 99
22163   5DC2 6B          	db 107
22164   5DC3 00          	ds 6
22165   5DC9 96 00       	dw 150
22166   5DCB 53          	db 83
22167   5DCC 56          	db 86
22168   5DCD 4F          	db 79
22169   5DCE 46          	db 70
22170   5DCF 53          	db 83
22171   5DD0 4B          	db 75
22172   5DD1 00          	ds 4
22173   5DD5 64 00       	dw 100
22174   5DD7 54          	db 84
22175   5DD8 69          	db 105
22176   5DD9 74          	db 116
22177   5DDA 75          	db 117
22178   5DDB 73          	db 115
22179   5DDC 00          	ds 5
22180   5DE1 32 00       	dw 50
22181   5DE3             path_x: 
22182   5DE3 00          	ds 1
22183   5DE4             path_y: 
22184   5DE4 00          	ds 1
22185   5DE5             path_n: 
22186   5DE5 00          	ds 1
22187   5DE6             selAnimationDelay: 
22188   5DE6 00          	ds 1
22189   5DE7             selAnimationFrame: 
22190   5DE7 00          	ds 1
22191   5DE8             path_c: 
22192   5DE8 00          	ds 1
22193   5DE9             path_p: 
22194   5DE9 00          	ds 2
22195   5DEB             path_p1: 
22196   5DEB 00          	ds 2
22197   5DED             path_n1: 
22198   5DED 00          	ds 1
22199   5DEE             path_x1: 
22200   5DEE 00          	ds 1
22201   5DEF             path_y1: 
22202   5DEF 00          	ds 1
22203   5DF0             music: 
22204   5DF0 4B 00       	dw 75
22205   5DF2 80 BB       	dw 48000
22206   5DF4 3B 00       	dw 59
22207   5DF6 C0 5D       	dw 24000
22208   5DF8 32 00       	dw 50
22209   5DFA C0 5D       	dw 24000
22210   5DFC 3B 00       	dw 59
22211   5DFE C0 5D       	dw 24000
22212   5E00 4B 00       	dw 75
22213   5E02 80 BB       	dw 48000
22214   5E04 64 00       	dw 100
22215   5E06 C0 5D       	dw 24000
22216   5E08 59 00       	dw 89
22217   5E0A C0 5D       	dw 24000
22218   5E0C 4F 00       	dw 79
22219   5E0E C0 5D       	dw 24000
22220   5E10 4B 00       	dw 75
22221   5E12 80 BB       	dw 48000
22222   5E14 3B 00       	dw 59
22223   5E16 C0 5D       	dw 24000
22224   5E18 32 00       	dw 50
22225   5E1A C0 5D       	dw 24000
22226   5E1C 3B 00       	dw 59
22227   5E1E C0 5D       	dw 24000
22228   5E20 43 00       	dw 67
22229   5E22 80 BB       	dw 48000
22230   5E24 64 00       	dw 100
22231   5E26 C0 5D       	dw 24000
22232   5E28 59 00       	dw 89
22233   5E2A C0 5D       	dw 24000
22234   5E2C 4F 00       	dw 79
22235   5E2E C0 5D       	dw 24000
22236   5E30 4F 00       	dw 79
22237   5E32 80 BB       	dw 48000
22238   5E34 64 00       	dw 100
22239   5E36 C0 5D       	dw 24000
22240   5E38 59 00       	dw 89
22241   5E3A C0 5D       	dw 24000
22242   5E3C 4F 00       	dw 79
22243   5E3E C0 5D       	dw 24000
22244   5E40 4B 00       	dw 75
22245   5E42 00 77       	dw 30464
22246   5E44 4B 00       	dw 75
22247   5E46 80 BB       	dw 48000
22248   5E48 3B 00       	dw 59
22249   5E4A C0 5D       	dw 24000
22250   5E4C 32 00       	dw 50
22251   5E4E C0 5D       	dw 24000
22252   5E50 3B 00       	dw 59
22253   5E52 C0 5D       	dw 24000
22254   5E54 43 00       	dw 67
22255   5E56 80 BB       	dw 48000
22256   5E58 64 00       	dw 100
22257   5E5A C0 5D       	dw 24000
22258   5E5C 59 00       	dw 89
22259   5E5E C0 5D       	dw 24000
22260   5E60 4F 00       	dw 79
22261   5E62 C0 5D       	dw 24000
22262   5E64 4F 00       	dw 79
22263   5E66 80 BB       	dw 48000
22264   5E68 64 00       	dw 100
22265   5E6A C0 5D       	dw 24000
22266   5E6C 59 00       	dw 89
22267   5E6E C0 5D       	dw 24000
22268   5E70 4F 00       	dw 79
22269   5E72 C0 5D       	dw 24000
22270   5E74 4B 00       	dw 75
22271   5E76 00 77       	dw 30464
22272   5E78 00 00       	dw 0
22273   5E7A             rightCreatureY: 
22274   5E7A 00          	ds 1
22275   5E7B             removeAnimationImages: 
22276   5E7B 42 46       	dw (imgBalls) + (320)
22277   5E7D 82 46       	dw (imgBalls) + (384)
22278   5E7F C2 46       	dw (imgBalls) + (448)
22279   5E81             bouncingAnimation: 
22280   5E81 02 45       	dw imgBalls
22281   5E83 02 45       	dw imgBalls
22282   5E85 02 45       	dw imgBalls
22283   5E87 02 47       	dw (imgBalls) + (512)
22284   5E89 42 47       	dw (imgBalls) + (576)
22285   5E8B 02 47       	dw (imgBalls) + (512)
22286   5E8D             helpCoords: 
22287   5E8D FC EB       	dw 60412
22288   5E8F FC E8       	dw 59644
22289   5E91 FC E5       	dw 58876
22290   5E93             introPalette: 
22291   5E93 0F          	db 15
22292   5E94 06          	db 6
22293   5E95 01          	db 1
22294   5E96 04          	db 4
22295   5E97             gamePalette: 
22296   5E97 0F          	db 15
22297   5E98 06          	db 6
22298   5E99 09          	db 9
22299   5E9A 00          	db 0
22300   5E9B             gamePalette2: 
22301   5E9B 0F          	db 15
22302   5E9C 03          	db 3
22303   5E9D 0C          	db 12
22304   5E9E 00          	db 0
22305   5E9F             DrawImage_1_a: 
22306   5E9F 00          	ds 2
22307   5EA1             DrawImage_2_a: 
22308   5EA1 00          	ds 2
22309   5EA3             DrawImage_3_a: 
22310   5EA3 00          	ds 2
22311   5EA5             SetFillRectColor_1_a: 
22312   5EA5 00          	ds 1
22313   5EA6             FillRectInternal_1_a: 
22314   5EA6 00          	ds 1
22315   5EA7             FillRectInternal_2_a: 
22316   5EA7 00          	ds 1
22317   5EA8             FillRectInternal_3_a: 
22318   5EA8 00          	ds 2
22319   5EAA             FillRect1_1_a: 
22320   5EAA 00          	ds 2
22321   5EAC             FillRect1_2_a: 
22322   5EAC 00          	ds 2
22323   5EAE             FillRect1_3_a: 
22324   5EAE 00          	ds 1
22325   5EAF             FillRect1_4_a: 
22326   5EAF 00          	ds 1
22327   5EB0             FillRect1_5_a: 
22328   5EB0 00          	ds 1
22329   5EB1             FillRect_1_a: 
22330   5EB1 00          	ds 2
22331   5EB3             FillRect_2_a: 
22332   5EB3 00          	ds 1
22333   5EB4             FillRect_3_a: 
22334   5EB4 00          	ds 2
22335   5EB6             FillRect_4_a: 
22336   5EB6 00          	ds 1
22337   5EB7             SetTextColorInternal_1_a: 
22338   5EB7 00          	ds 1
22339   5EB8             SetTextColorInternal_2_a: 
22340   5EB8 00          	ds 1
22341   5EB9             SetTextColorInternal_3_a: 
22342   5EB9 00          	ds 1
22343   5EBA             SetTextColor_1_a: 
22344   5EBA 00          	ds 1
22345   5EBB             DrawChar_1_a: 
22346   5EBB 00          	ds 1
22347   5EBC             DrawChar_2_a: 
22348   5EBC 00          	ds 2
22349   5EBE             DrawChar_3_a: 
22350   5EBE 00          	ds 2
22351   5EC0             DrawText1_1_a: 
22352   5EC0 00          	ds 2
22353   5EC2             DrawText1_2_a: 
22354   5EC2 00          	ds 1
22355   5EC3             DrawText1_3_a: 
22356   5EC3 00          	ds 1
22357   5EC4             DrawText1_4_a: 
22358   5EC4 00          	ds 2
22359   5EC6             DrawText_1_a: 
22360   5EC6 00          	ds 1
22361   5EC7             DrawText_2_a: 
22362   5EC7 00          	ds 1
22363   5EC8             DrawText_3_a: 
22364   5EC8 00          	ds 1
22365   5EC9             DrawText_4_a: 
22366   5EC9 00          	ds 2
22367   5ECB             ReadKeyboardRow_1_a: 
22368   5ECB 00          	ds 1
22369   5ECC             ReadKeyboard_1_a: 
22370   5ECC 00          	ds 1
22371   5ECD             NumberOfBit_1_a: 
22372   5ECD 00          	ds 1
22373   5ECE             SetPaletteInternal_1_a: 
22374   5ECE 00          	ds 1
22375   5ECF             Delay_1_a: 
22376   5ECF 00          	ds 2
22377   5ED1             SetPaletteSlowly_1_a: 
22378   5ED1 00          	ds 2
22379   5ED3             SetPalette_1_a: 
22380   5ED3 00          	ds 2
22381   5ED5             PlayTone_1_a: 
22382   5ED5 00          	ds 2
22383   5ED7             PlayTone_2_a: 
22384   5ED7 00          	ds 2
22385   5ED9             ClearLine_1_a: 
22386   5ED9 00          	ds 1
22387   5EDA             ClearLine_2_a: 
22388   5EDA 00          	ds 1
22389   5EDB             ClearLine_3_a: 
22390   5EDB 00          	ds 1
22391   5EDC             ClearLine_4_a: 
22392   5EDC 00          	ds 1
22393   5EDD             ClearLine_5_a: 
22394   5EDD 00          	ds 1
22395   5EDE             DrawSpriteRemove_1_a: 
22396   5EDE 00          	ds 1
22397   5EDF             DrawSpriteRemove_2_a: 
22398   5EDF 00          	ds 1
22399   5EE0             DrawSpriteRemove_3_a: 
22400   5EE0 00          	ds 1
22401   5EE1             DrawSpriteRemove_4_a: 
22402   5EE1 00          	ds 1
22403   5EE2             DrawEmptyCell_1_a: 
22404   5EE2 00          	ds 1
22405   5EE3             DrawEmptyCell_2_a: 
22406   5EE3 00          	ds 1
22407   5EE4             GameStep_1_a: 
22408   5EE4 00          	ds 1
22409   5EE5             DrawSpriteNew_1_a: 
22410   5EE5 00          	ds 1
22411   5EE6             DrawSpriteNew_2_a: 
22412   5EE6 00          	ds 1
22413   5EE7             DrawSpriteNew_3_a: 
22414   5EE7 00          	ds 1
22415   5EE8             DrawSpriteNew_4_a: 
22416   5EE8 00          	ds 1
22417   5EE9             DrawHiScores_1_a: 
22418   5EE9 00          	ds 1
22419   5EEA             memcpy_1_a: 
22420   5EEA 00          	ds 2
22421   5EEC             memcpy_2_a: 
22422   5EEC 00          	ds 2
22423   5EEE             memcpy_3_a: 
22424   5EEE 00          	ds 2
22425   5EF0             DrawHiScoresScreen_1_a: 
22426   5EF0 00          	ds 1
22427   5EF1             DrawCell_1_a: 
22428   5EF1 00          	ds 1
22429   5EF2             DrawCell_2_a: 
22430   5EF2 00          	ds 1
22431   5EF3             DrawCell_3_a: 
22432   5EF3 00          	ds 1
22433   5EF4             DrawSpriteStep_1_a: 
22434   5EF4 00          	ds 1
22435   5EF5             DrawSpriteStep_2_a: 
22436   5EF5 00          	ds 1
22437   5EF6             DrawSpriteStep_3_a: 
22438   5EF6 00          	ds 1
22439   5EF7             DrawBouncingBall_1_a: 
22440   5EF7 00          	ds 1
22441   5EF8             DrawBouncingBall_2_a: 
22442   5EF8 00          	ds 1
22443   5EF9             DrawBouncingBall_3_a: 
22444   5EF9 00          	ds 1
22445   5EFA             DrawBouncingBall_4_a: 
22446   5EFA 00          	ds 1
22447   5EFB             DrawButton_1_a: 
22448   5EFB 00          	ds 2
22449   5EFD             DrawButton_2_a: 
22450   5EFD 00          	ds 1
22451   5EFE             PathFounded_1_a: 
22452   5EFE 00          	ds 2
22453   5F00             Uint16ToString_1_a: 
22454   5F00 00          	ds 2
22455   5F02             Uint16ToString_2_a: 
22456   5F02 00          	ds 2
22457   5F04             CellAddress_1_a: 
22458   5F04 00          	ds 1
22459   5F05             CellAddress_2_a: 
22460   5F05 00          	ds 1
22461   5F06             DrawBall1_1_a: 
22462   5F06 00          	ds 2
22463   5F08             DrawBall1_2_a: 
22464   5F08 00          	ds 2
22465   5F0A             DrawBall1_3_a: 
22466   5F0A 00          	ds 1
22467   5F0B             DrawEmptyCell1_1_a: 
22468   5F0B 00          	ds 2
22469   5F0D             DrawCell1_1_a: 
22470   5F0D 00          	ds 2
22471   5F0F             DrawCell1_2_a: 
22472   5F0F 00          	ds 1
22473   5F10             DrawSpriteNew1_1_a: 
22474   5F10 00          	ds 2
22475   5F12             DrawSpriteNew1_2_a: 
22476   5F12 00          	ds 1
22477   5F13             DrawSpriteNew1_3_a: 
22478   5F13 00          	ds 1
22479   5F14             DrawCursorXor_1_a: 
22480   5F14 00          	ds 2
22481   5F16             memset_1_a: 
22482   5F16 00          	ds 2
22483   5F18             memset_2_a: 
22484   5F18 00          	ds 1
22485   5F19             memset_3_a: 
22486   5F19 00          	ds 2
22487   5F1B             memswap_1_a: 
22488   5F1B 00          	ds 2
22489   5F1D             memswap_2_a: 
22490   5F1D 00          	ds 2
22491   5F1F             memswap_3_a: 
22492   5F1F 00          	ds 2
22493   5F21             unmlz_1_a: 
22494   5F21 00          	ds 2
22495   5F23             unmlz_2_a: 
22496   5F23 00          	ds 2
22497   5F25             DrawHiScoresScreen1_1_a: 
22498   5F25 00          	ds 1
22499   5F26             DrawHiScoresScreen1_2_a: 
22500   5F26 00          	ds 1
22501   5F27             strlen_1_a: 
22502   5F27 00          	ds 2
22503   5F29             main_s: 
22504   5F29 00          	ds 3
22505   5F2C             Intro_s: 
22506   5F2C 00          	ds 5
22507   5F31             NewGame_s: 
22508   5F31 00          	ds 2
22509   5F33             ReadKeyboard_s: 
22510   5F33 00          	ds 5
22511   5F38             DrawButton_s: 
22512   5F38 00          	ds 1
22513   5F39             DrawHelp_s: 
22514   5F39 00          	ds 1
22515   5F3A             DrawScreen_s: 
22516   5F3A 00          	ds 11
22517   5F45             MoveBall_s: 
22518   5F45 00          	ds 4
22519   5F49             GenerateNewBalls_s: 
22520   5F49 00          	ds 1
22521   5F4A             GameStep_s: 
22522   5F4A 00          	ds 12
22523   5F56             DrawBouncingBall_s: 
22524   5F56 00          	ds 2
22525   5F58             DrawText1_s: 
22526   5F58 00          	ds 2
22527   5F5A             DrawHiScoresScreen1_s: 
22528   5F5A 00          	ds 17
22529   5F6B             DrawScoreAndCreatures_s: 
22530   5F6B 00          	ds 9
22531   5F74             PathFind_s: 
22532   5F74 00          	ds 2
22533   5F76             PathGetNextStep_s: 
22534   5F76 00          	ds 2
22535   5F78             PathFree_s: 
22536   5F78 00          	ds 2
22537   5F7A             AddToHiScores_s: 
22538   5F7A 00          	ds 15
22539   5F89             FindLines_s: 
22540   5F89 00          	ds 9
22541   5F92             CalcFreeCellCount_s: 
22542   5F92 00          	ds 4
22543   5F96             DrawCell1_s: 
22544   5F96 00          	ds 2
22545   5F98             ClearLine_s: 
22546   5F98 00          	ds 5
22547   5F9D             __o_sub_16: 
22548   5F9D 7D              ld a, l
22549   5F9E 93              sub e
22550   5F9F 6F              ld l, a
22551   5FA0 7C              ld a, h
22552   5FA1 9A              sbc d
22553   5FA2 67              ld h, a
22554   5FA3 C9              ret
22555   5FA4             __o_cmp_16: 
22556   5FA4 7C              ld a, h
22557   5FA5 BA              cp d
22558   5FA6 C0              ret nz
22559   5FA7 7D              ld a, l
22560   5FA8 BB              cp e
22561   5FA9 C9              ret
22562   5FAA             __o_div_u16: 
22563   5FAA C5              push bc
22564   5FAB EB              ex hl, de
22565   5FAC CD B6 5F        call __o_div_u16__l0
22566   5FAF EB              ex hl, de
22567   5FB0 22 F9 5F        ld (__div_16_mod), hl
22568   5FB3 EB              ex hl, de
22569   5FB4 C1              pop bc
22570   5FB5 C9              ret
22571   5FB6             
22572   5FB6             __o_div_u16__l0: 
22573   5FB6             __o_div_u16__l: 
22574   5FB6 7C              ld a, h
22575   5FB7 B5              or l
22576   5FB8 C8              ret z
22577   5FB9 01 00 00        ld bc, 0
22578   5FBC C5              push bc
22579   5FBD             __o_div_u16__l1: 
22580   5FBD 7B              ld a, e
22581   5FBE 95              sub l
22582   5FBF 7A              ld a, d
22583   5FC0 9C              sbc h
22584   5FC1 DA C9 5F        jp c, __o_div_u16__l2
22585   5FC4 E5              push hl
22586   5FC5 29              add hl, hl
22587   5FC6 D2 BD 5F        jp nc, __o_div_u16__l1
22588   5FC9             __o_div_u16__l2: 
22589   5FC9 21 00 00        ld hl, 0
22590   5FCC             __o_div_u16__l3: 
22591   5FCC C1              pop bc
22592   5FCD 78              ld a, b
22593   5FCE B1              or c
22594   5FCF C8              ret z
22595   5FD0 29              add hl, hl
22596   5FD1 D5              push de
22597   5FD2 7B              ld a, e
22598   5FD3 91              sub c
22599   5FD4 5F              ld e, a
22600   5FD5 7A              ld a, d
22601   5FD6 98              sbc b
22602   5FD7 57              ld d, a
22603   5FD8 DA E0 5F        jp c, __o_div_u16__l4
22604   5FDB 23              inc hl
22605   5FDC C1              pop bc
22606   5FDD C3 CC 5F        jp __o_div_u16__l3
22607   5FE0             __o_div_u16__l4: 
22608   5FE0 D1              pop de
22609   5FE1 C3 CC 5F        jp __o_div_u16__l3
22610   5FE4             __o_mod_u16: 
22611   5FE4 C5              push bc
22612   5FE5 EB              ex hl, de
22613   5FE6 CD B6 5F        call __o_div_u16__l0
22614   5FE9 EB              ex hl, de
22615   5FEA C1              pop bc
22616   5FEB C9              ret
22617   5FEC             __o_shr_u16: 
22618   5FEC 1C              inc e
22619   5FED             __o_shr_u16__l1: 
22620   5FED 1D              dec e
22621   5FEE C8              ret z
22622   5FEF 7C              ld a, h
22623   5FF0 B7              or a  ; cf = 0
22624   5FF1 1F              rra
22625   5FF2 67              ld h, a
22626   5FF3 7D              ld a, l
22627   5FF4 1F              rra
22628   5FF5 6F              ld l, a
22629   5FF6 C3 ED 5F        jp __o_shr_u16__l1
22630   5FF9             __div_16_mod: 
22631   5FF9 00          	ds 2
22632   5FFB             s_9:  db 130, 162, 165, 164, 168, 226, 165, 32, 225, 162, 174, 241, 32, 168, 172, 239, 0
22632   5FFB 82A2A5A4A8E2A520E1A2AEF120A8ACEF00
22633   600C 82 EB 00    s_12:  db 130, 235, 0
22634   600F             s_8:  db 139, 227, 231, 232, 168, 165, 32, 224, 165, 167, 227, 171, 236, 226, 160, 226, 235, 0
22634   600F 8BE3E7E8A8A520E0A5A7E3ABECE2A0E2EB00
22635   6021             s_10:  db 141, 160, 166, 172, 168, 226, 165, 32, 171, 238, 161, 227, 238, 32, 170, 171, 160, 162, 168, 232, 227, 0
22635   6021 8DA0A6ACA8E2A520ABEEA1E3EE20AAABA0A2A8E8E300
22636   6037             s_11:  db 164, 171, 239, 32, 175, 224, 174, 164, 174, 171, 166, 165, 173, 168, 239, 0
22636   6037 A4ABEF20AFE0AEA4AEABA6A5ADA8EF00
22637   6047             end: 
22638   6047                 savebin 'output.i1080', begin, end - begin
22639   6047             
