0001   0000               .include "stdlib8080.inc"
0001+  0000             .org 0
0002+  0000 C3 92 0A    	jmp main0002   0003             i2s:
0003   0003 22 D5 18      shld i2s_2
0004   0006               ; 37 *buf = ' '; ++buf;
0005   0006 2A D3 18      lhld i2s_1
0006   0009 36 20         mvi m, 32
0007   000B               ; 37 ++buf;
0008   000B 23            inx h
0009   000C 22 D3 18      shld i2s_1
0010   000F               ; 38 *buf = ' '; ++buf;
0011   000F 36 20         mvi m, 32
0012   0011               ; 38 ++buf;
0013   0011 23            inx h
0014   0012 22 D3 18      shld i2s_1
0015   0015               ; 39 *buf = ' '; ++buf;
0016   0015 36 20         mvi m, 32
0017   0017               ; 39 ++buf;
0018   0017 23            inx h
0019   0018 22 D3 18      shld i2s_1
0020   001B               ; 40 *buf = ' '; ++buf;
0021   001B 36 20         mvi m, 32
0022   001D               ; 40 ++buf;
0023   001D 23            inx h
0024   001E 22 D3 18      shld i2s_1
0025   0021               ; 41 for(i=0; i<5; i++) {
0026   0021 AF            xra a
0027   0022 32 D7 18      sta i2s_i
0028   0025             l0:
0029   0025 3A D7 18      lda i2s_i
0030   0028 FE 05         cpi 5
0031   002A D2 59 00      jnc l1
0032   002D               ; 42 x/=10, *buf = (uchar)op_div16_mod + '0', --buf; 
0033   002D 11 0A 00      lxi d, 10
0034   0030 2A D5 18      lhld i2s_2
0035   0033 CD 4C 16      call op_div16
0036   0036 22 D5 18      shld i2s_2
0037   0039 3A 92 3D      lda op_div16_mod
0038   003C C6 30         adi 48
0039   003E 2A D3 18      lhld i2s_1
0040   0041 77            mov m, a
0041   0042 2A D3 18      lhld i2s_1
0042   0045 2B            dcx h
0043   0046 22 D3 18      shld i2s_1
0044   0049               ; 43 if(x==0) break;Сложение с константой 0
0045   0049 2A D5 18      lhld i2s_2
0046   004C 7D            mov a, l
0047   004D B4            ora h
0048   004E CA 59 00      jz l1
0049   0051             l2:
0050   0051 21 D7 18      lxi h, i2s_i
0051   0054 7E            mov a, m
0052   0055 34            inr m
0053   0056 C3 25 00      jmp l0
0054   0059             l1:
0055   0059 C9            ret
0056   005A               ; --- drawScore1 -----------------------------------------------------------------
0057   005A             drawScore1:
0058   005A AF            xra a
0059   005B 32 DD 18      sta (drawScore1_buf)+(5)
0060   005E               ; 50 i2s(buf, score);
0061   005E 21 D8 18      lxi h, drawScore1_buf
0062   0061 22 D3 18      shld i2s_1
0063   0064 2A C4 17      lhld score
0064   0067 CD 03 00      call i2s
0065   006A               ; 51 drawScore(score, buf);
0066   006A 2A C4 17      lhld score
0067   006D 22 6F 19      shld drawScore_1
0068   0070 21 D8 18      lxi h, drawScore1_buf
0069   0073 C3 E5 0E      jmp drawScore
0070   0076             drawCell:
0071   0076 32 DF 18      sta drawCell_2
0072   0079               ; 55 drawSprite(x, y, game[x][y]);
0073   0079 3A DE 18      lda drawCell_1
0074   007C 32 3B 19      sta drawSprite_1
0075   007F 3A DF 18      lda drawCell_2
0076   0082 32 3C 19      sta drawSprite_2
0077   0085 2A DE 18      lhld drawCell_1
0078   0088 26 00         mvi h, 0
0079   008A               ; Умножение HL на 2
0080   008A 29            dad h
0081   008B               ; Сложение
0082   008B 11 5C 17      lxi d, game
0083   008E 19            dad d
0084   008F               ; Сложение
0085   008F 5E            mov e, m
0086   0090 23            inx h
0087   0091 56            mov d, m
0088   0092 2A DF 18      lhld drawCell_2
0089   0095 26 00         mvi h, 0
0090   0097 19            dad d
0091   0098 7E            mov a, m
0092   0099 C3 A4 0D      jmp drawSprite
0093   009C             drawCells:
0094   009C AF            xra a
0095   009D 32 E1 18      sta drawCells_y
0096   00A0             l4:
0097   00A0 3A E1 18      lda drawCells_y
0098   00A3 FE 09         cpi 9
0099   00A5 D2 CD 00      jnc l5
0100   00A8               ; 61 for(x=0; x<9; x++)
0101   00A8 AF            xra a
0102   00A9 32 E0 18      sta drawCells_x
0103   00AC             l7:
0104   00AC 3A E0 18      lda drawCells_x
0105   00AF FE 09         cpi 9
0106   00B1 D2 C5 00      jnc l8
0107   00B4               ; 62 drawCell(x,y);
0108   00B4 32 DE 18      sta drawCell_1
0109   00B7 3A E1 18      lda drawCells_y
0110   00BA CD 76 00      call drawCell
0111   00BD             l9:
0112   00BD 21 E0 18      lxi h, drawCells_x
0113   00C0 7E            mov a, m
0114   00C1 34            inr m
0115   00C2 C3 AC 00      jmp l7
0116   00C5             l8:
0117   00C5             l6:
0118   00C5 21 E1 18      lxi h, drawCells_y
0119   00C8 7E            mov a, m
0120   00C9 34            inr m
0121   00CA C3 A0 00      jmp l4
0122   00CD             l5:
0123   00CD               ; 63 drawCursor();
0124   00CD C3 71 0D      jmp drawCursor
0125   00D0             clearCursor:
0126   00D0 3A C0 17      lda cursorX
0127   00D3 32 DE 18      sta drawCell_1
0128   00D6 3A C1 17      lda cursorY
0129   00D9 C3 76 00      jmp drawCell
0130   00DC             clearLine:
0131   00DC C5            push b
0132   00DD 32 E6 18      sta clearLine_5
0133   00E0               ; 76 c =  game[x0][y0];
0134   00E0 2A E2 18      lhld clearLine_1
0135   00E3 26 00         mvi h, 0
0136   00E5               ; Умножение HL на 2
0137   00E5 29            dad h
0138   00E6               ; Сложение
0139   00E6 11 5C 17      lxi d, game
0140   00E9 19            dad d
0141   00EA               ; Сложение
0142   00EA 5E            mov e, m
0143   00EB 23            inx h
0144   00EC 56            mov d, m
0145   00ED 2A E3 18      lhld clearLine_2
0146   00F0 26 00         mvi h, 0
0147   00F2 19            dad d
0148   00F3 46            mov b, m
0149   00F4               ; 78 for(o=0; o<4; o++) {
0150   00F4 AF            xra a
0151   00F5 32 E8 18      sta clearLine_o
0152   00F8             l10:
0153   00F8 3A E8 18      lda clearLine_o
0154   00FB FE 04         cpi 4
0155   00FD D2 4E 01      jnc l11
0156   0100               ; 79 for(x=x0, y=y0, i=n; i; --i, x=x+dx, y=y+dy)
0157   0100 3A E2 18      lda clearLine_1
0158   0103 4F            mov c, a
0159   0104 3A E3 18      lda clearLine_2
0160   0107 32 E7 18      sta clearLine_y
0161   010A 3A E6 18      lda clearLine_5
0162   010D 32 E9 18      sta clearLine_i
0163   0110             l13:
0164   0110               ; convertToConfition
0165   0110 3A E9 18      lda clearLine_i
0166   0113 B7            ora a
0167   0114 CA 41 01      jz l14
0168   0117               ; 80 drawSpriteRemove(x, y, c, o);
0169   0117 79            mov a, c
0170   0118 32 4A 19      sta drawSpriteRemove_1
0171   011B 3A E7 18      lda clearLine_y
0172   011E 32 4B 19      sta drawSpriteRemove_2
0173   0121 78            mov a, b
0174   0122 32 4C 19      sta drawSpriteRemove_3
0175   0125 3A E8 18      lda clearLine_o
0176   0128 CD DE 0D      call drawSpriteRemove
0177   012B             l15:
0178   012B 21 E9 18      lxi h, clearLine_i
0179   012E 35            dcr m
0180   012F 3A E4 18      lda clearLine_3
0181   0132 81            add c
0182   0133 4F            mov c, a
0183   0134 21 E5 18      lxi h, clearLine_4
0184   0137 3A E7 18      lda clearLine_y
0185   013A 86            add m
0186   013B 32 E7 18      sta clearLine_y
0187   013E C3 10 01      jmp l13
0188   0141             l14:
0189   0141               ; 81 delay(ANIMATION_SPEED);
0190   0141 3E 40         mvi a, 64
0191   0143 CD 67 10      call delay
0192   0146             l12:
0193   0146 21 E8 18      lxi h, clearLine_o
0194   0149 7E            mov a, m
0195   014A 34            inr m
0196   014B C3 F8 00      jmp l10
0197   014E             l11:
0198   014E               ; 85 for(x=x0, y=y0, i=n; i; --i, x=x+dx, y=y+dy) {
0199   014E 3A E2 18      lda clearLine_1
0200   0151 4F            mov c, a
0201   0152 3A E3 18      lda clearLine_2
0202   0155 32 E7 18      sta clearLine_y
0203   0158 3A E6 18      lda clearLine_5
0204   015B 32 E9 18      sta clearLine_i
0205   015E             l16:
0206   015E               ; convertToConfition
0207   015E 3A E9 18      lda clearLine_i
0208   0161 B7            ora a
0209   0162 CA 9C 01      jz l17
0210   0165               ; 86 game[x][y] = 0;
0211   0165 26 00         mvi h, 0
0212   0167 69            mov l, c
0213   0168               ; Умножение HL на 2
0214   0168 29            dad h
0215   0169               ; Сложение
0216   0169 11 5C 17      lxi d, game
0217   016C 19            dad d
0218   016D               ; Сложение
0219   016D 5E            mov e, m
0220   016E 23            inx h
0221   016F 56            mov d, m
0222   0170 2A E7 18      lhld clearLine_y
0223   0173 26 00         mvi h, 0
0224   0175 19            dad d
0225   0176 36 00         mvi m, 0
0226   0178               ; 87 drawSprite(x, y, 0);
0227   0178 79            mov a, c
0228   0179 32 3B 19      sta drawSprite_1
0229   017C 3A E7 18      lda clearLine_y
0230   017F 32 3C 19      sta drawSprite_2
0231   0182 AF            xra a
0232   0183 CD A4 0D      call drawSprite
0233   0186             l18:
0234   0186 21 E9 18      lxi h, clearLine_i
0235   0189 35            dcr m
0236   018A 3A E4 18      lda clearLine_3
0237   018D 81            add c
0238   018E 4F            mov c, a
0239   018F 21 E5 18      lxi h, clearLine_4
0240   0192 3A E7 18      lda clearLine_y
0241   0195 86            add m
0242   0196 32 E7 18      sta clearLine_y
0243   0199 C3 5E 01      jmp l16
0244   019C             l17:
0245   019C C1            pop b
0246   019D C9            ret
0247   019E               ; --- check -----------------------------------------------------------------
0248   019E             check:
0249   019E C5            push b
0250   019F               ; 97 0;<total>
0251   019F AF            xra a
0252   01A0 32 EE 18      sta check_total
0253   01A3               ; 100 for(y=0; y!=GAME_HEIGHT; ++y) {
0254   01A3 4F            mov c, a
0255   01A4             l19:
0256   01A4 3E 09         mvi a, 9
0257   01A6 B9            cmp c
0258   01A7 CA 28 02      jz l20
0259   01AA               ; 101 for(p=&game[0][y], x=0; x<GAME_WIDTH;) {Сложение
0260   01AA 2A 5C 17      lhld (game)+(0)
0261   01AD 59            mov e, c
0262   01AE 16 00         mvi d, 0
0263   01B0 19            dad d
0264   01B1 22 EF 18      shld check_p
0265   01B4 42            mov b, d
0266   01B5             l22:
0267   01B5 3E 09         mvi a, 9
0268   01B7 B8            cmp b
0269   01B8 DA 24 02      jc l23
0270   01BB CA 24 02      jz l23
0271   01BE               ; 102 prevx = x;
0272   01BE 78            mov a, b
0273   01BF 32 EA 18      sta check_prevx
0274   01C2               ; 103 c = *p;
0275   01C2 2A EF 18      lhld check_p
0276   01C5 7E            mov a, m
0277   01C6 32 EC 18      sta check_c
0278   01C9               ; 104 ++x;
0279   01C9 04            inr b
0280   01CA               ; 105 p += GAME_WIDTH;Сложение
0281   01CA 11 09 00      lxi d, 9
0282   01CD 19            dad d
0283   01CE 22 EF 18      shld check_p
0284   01D1               ; 106 if(c==0) continue;
0285   01D1 B7            ora a
0286   01D2 CA 21 02      jz l24
0287   01D5             l26:
0288   01D5 7B            mov a, e
0289   01D6 B8            cmp b
0290   01D7 CA F0 01      jz l27
0291   01DA 7E            mov a, m
0292   01DB 21 EC 18      lxi h, check_c
0293   01DE BE            cmp m
0294   01DF C2 F0 01      jnz l27
0295   01E2               ; 107 p+=GAME_WIDTH, ++x;Сложение
0296   01E2 11 09 00      lxi d, 9
0297   01E5 2A EF 18      lhld check_p
0298   01E8 19            dad d
0299   01E9 22 EF 18      shld check_p
0300   01EC 04            inr b
0301   01ED C3 D5 01      jmp l26
0302   01F0             l27:
0303   01F0               ; 108 n = x - prevx;Арифметика 1/4
0304   01F0 78            mov a, b
0305   01F1 21 EA 18      lxi h, check_prevx
0306   01F4 96            sub m
0307   01F5 32 ED 18      sta check_n
0308   01F8               ; 109 if(n<5) continue;
0309   01F8 FE 05         cpi 5
0310   01FA DA 21 02      jc l24
0311   01FD 7E            mov a, m
0312   01FE 32 E2 18      sta clearLine_1
0313   0201 79            mov a, c
0314   0202 32 E3 18      sta clearLine_2
0315   0205 3E 01         mvi a, 1
0316   0207 32 E4 18      sta clearLine_3
0317   020A AF            xra a
0318   020B 32 E5 18      sta clearLine_4
0319   020E 3A ED 18      lda check_n
0320   0211 CD DC 00      call clearLine
0321   0214               ; 111 total += n;
0322   0214 21 ED 18      lxi h, check_n
0323   0217 3A EE 18      lda check_total
0324   021A 86            add m
0325   021B 32 EE 18      sta check_total
0326   021E               ; 112 break;
0327   021E C3 24 02      jmp l23
0328   0221             l24:
0329   0221 C3 B5 01      jmp l22
0330   0224             l23:
0331   0224             l21:
0332   0224 0C            inr c
0333   0225 C3 A4 01      jmp l19
0334   0228             l20:
0335   0228               ; 115 for(x=0; x!=9; ++x) {
0336   0228 06 00         mvi b, 0
0337   022A             l29:
0338   022A 3E 09         mvi a, 9
0339   022C B8            cmp b
0340   022D CA B1 02      jz l30
0341   0230               ; 116 for(p=&game[x][0], y=0; y<5;) {
0342   0230 26 00         mvi h, 0
0343   0232 68            mov l, b
0344   0233               ; Умножение HL на 2
0345   0233 29            dad h
0346   0234               ; Сложение
0347   0234 11 5C 17      lxi d, game
0348   0237 19            dad d
0349   0238               ; Сложение с константой 0
0350   0238 5E            mov e, m
0351   0239 23            inx h
0352   023A 56            mov d, m
0353   023B EB            xchg
0354   023C 22 EF 18      shld check_p
0355   023F 0E 00         mvi c, 0
0356   0241             l32:
0357   0241 3E 05         mvi a, 5
0358   0243 B9            cmp c
0359   0244 DA AD 02      jc l33
0360   0247 CA AD 02      jz l33
0361   024A               ; 117 c = *p;  
0362   024A 2A EF 18      lhld check_p
0363   024D 7E            mov a, m
0364   024E 32 EC 18      sta check_c
0365   0251               ; 118 prevy = y;
0366   0251 79            mov a, c
0367   0252 32 EB 18      sta check_prevy
0368   0255               ; 119 ++y;
0369   0255 0C            inr c
0370   0256               ; 120 ++p;
0371   0256 23            inx h
0372   0257 22 EF 18      shld check_p
0373   025A               ; 121 if(c==0) continue;
0374   025A 3A EC 18      lda check_c
0375   025D B7            ora a
0376   025E CA AA 02      jz l34
0377   0261             l36:
0378   0261 3E 09         mvi a, 9
0379   0263 B9            cmp c
0380   0264 CA 7A 02      jz l37
0381   0267 7E            mov a, m
0382   0268 21 EC 18      lxi h, check_c
0383   026B BE            cmp m
0384   026C C2 7A 02      jnz l37
0385   026F               ; 122 ++p, ++y;
0386   026F 2A EF 18      lhld check_p
0387   0272 23            inx h
0388   0273 22 EF 18      shld check_p
0389   0276 0C            inr c
0390   0277 C3 61 02      jmp l36
0391   027A             l37:
0392   027A               ; 123 n = y - prevy;Арифметика 2/4
0393   027A 79            mov a, c
0394   027B 21 EB 18      lxi h, check_prevy
0395   027E 96            sub m
0396   027F 32 ED 18      sta check_n
0397   0282               ; 124 if(n<5) continue;      
0398   0282 FE 05         cpi 5
0399   0284 DA AA 02      jc l34
0400   0287 78            mov a, b
0401   0288 32 E2 18      sta clearLine_1
0402   028B 7E            mov a, m
0403   028C 32 E3 18      sta clearLine_2
0404   028F AF            xra a
0405   0290 32 E4 18      sta clearLine_3
0406   0293 3C            inr a
0407   0294 32 E5 18      sta clearLine_4
0408   0297 3A ED 18      lda check_n
0409   029A CD DC 00      call clearLine
0410   029D               ; 126 total += n;
0411   029D 21 ED 18      lxi h, check_n
0412   02A0 3A EE 18      lda check_total
0413   02A3 86            add m
0414   02A4 32 EE 18      sta check_total
0415   02A7               ; 127 break;
0416   02A7 C3 AD 02      jmp l33
0417   02AA             l34:
0418   02AA C3 41 02      jmp l32
0419   02AD             l33:
0420   02AD             l31:
0421   02AD 04            inr b
0422   02AE C3 2A 02      jmp l29
0423   02B1             l30:
0424   02B1               ; 130 for(y=0; y!=6; ++y) {
0425   02B1 0E 00         mvi c, 0
0426   02B3             l39:
0427   02B3 3E 06         mvi a, 6
0428   02B5 B9            cmp c
0429   02B6 CA 45 03      jz l40
0430   02B9               ; 131 for(x=0; x!=6; ++x) {
0431   02B9 06 00         mvi b, 0
0432   02BB             l42:
0433   02BB 3E 06         mvi a, 6
0434   02BD B8            cmp b
0435   02BE CA 41 03      jz l43
0436   02C1               ; 132 p = &game[x][y];
0437   02C1 26 00         mvi h, 0
0438   02C3 68            mov l, b
0439   02C4               ; Умножение HL на 2
0440   02C4 29            dad h
0441   02C5               ; Сложение
0442   02C5 11 5C 17      lxi d, game
0443   02C8 19            dad d
0444   02C9               ; Сложение
0445   02C9 5E            mov e, m
0446   02CA 23            inx h
0447   02CB 56            mov d, m
0448   02CC EB            xchg
0449   02CD 59            mov e, c
0450   02CE 16 00         mvi d, 0
0451   02D0 19            dad d
0452   02D1 22 EF 18      shld check_p
0453   02D4               ; 133 c = *p;  
0454   02D4 7E            mov a, m
0455   02D5 32 EC 18      sta check_c
0456   02D8               ; 134 if(c==0) continue;
0457   02D8 B7            ora a
0458   02D9 CA 3D 03      jz l44
0459   02DC 78            mov a, b
0460   02DD 32 EA 18      sta check_prevx
0461   02E0               ; 136 prevy = y;
0462   02E0 79            mov a, c
0463   02E1 32 EB 18      sta check_prevy
0464   02E4               ; 137 while(1) {
0465   02E4             l46:
0466   02E4               ; 138 ++prevy;
0467   02E4 21 EB 18      lxi h, check_prevy
0468   02E7 34            inr m
0469   02E8               ; 139 ++prevx;
0470   02E8 21 EA 18      lxi h, check_prevx
0471   02EB 34            inr m
0472   02EC               ; 140 p += GAME_WIDTH+1;Сложение
0473   02EC 11 0A 00      lxi d, 10
0474   02EF 2A EF 18      lhld check_p
0475   02F2 19            dad d
0476   02F3 22 EF 18      shld check_p
0477   02F6               ; 141 if(prevx==9) break;
0478   02F6 3A EA 18      lda check_prevx
0479   02F9 FE 09         cpi 9
0480   02FB CA 11 03      jz l47
0481   02FE 3A EB 18      lda check_prevy
0482   0301 FE 09         cpi 9
0483   0303 CA 11 03      jz l47
0484   0306 7E            mov a, m
0485   0307 21 EC 18      lxi h, check_c
0486   030A BE            cmp m
0487   030B C2 11 03      jnz l47
0488   030E C3 E4 02      jmp l46
0489   0311             l47:
0490   0311               ; 145 n = prevy-y;Арифметика 4/2
0491   0311 3A EB 18      lda check_prevy
0492   0314 91            sub c
0493   0315 32 ED 18      sta check_n
0494   0318               ; 146 if(n<5) continue;
0495   0318 FE 05         cpi 5
0496   031A DA 3D 03      jc l44
0497   031D 78            mov a, b
0498   031E 32 E2 18      sta clearLine_1
0499   0321 79            mov a, c
0500   0322 32 E3 18      sta clearLine_2
0501   0325 3E 01         mvi a, 1
0502   0327 32 E4 18      sta clearLine_3
0503   032A 32 E5 18      sta clearLine_4
0504   032D 3A ED 18      lda check_n
0505   0330 CD DC 00      call clearLine
0506   0333               ; 148 total += n;
0507   0333 21 ED 18      lxi h, check_n
0508   0336 3A EE 18      lda check_total
0509   0339 86            add m
0510   033A 32 EE 18      sta check_total
0511   033D             l44:
0512   033D 04            inr b
0513   033E C3 BB 02      jmp l42
0514   0341             l43:
0515   0341             l41:
0516   0341 0C            inr c
0517   0342 C3 B3 02      jmp l39
0518   0345             l40:
0519   0345               ; 151 for(y=0; y!=6; ++y) {
0520   0345 0E 00         mvi c, 0
0521   0347             l52:
0522   0347 3E 06         mvi a, 6
0523   0349 B9            cmp c
0524   034A CA DB 03      jz l53
0525   034D               ; 152 for(x=4; x!=9; ++x) {
0526   034D 06 04         mvi b, 4
0527   034F             l55:
0528   034F 3E 09         mvi a, 9
0529   0351 B8            cmp b
0530   0352 CA D7 03      jz l56
0531   0355               ; 153 p = &game[x][y];
0532   0355 26 00         mvi h, 0
0533   0357 68            mov l, b
0534   0358               ; Умножение HL на 2
0535   0358 29            dad h
0536   0359               ; Сложение
0537   0359 11 5C 17      lxi d, game
0538   035C 19            dad d
0539   035D               ; Сложение
0540   035D 5E            mov e, m
0541   035E 23            inx h
0542   035F 56            mov d, m
0543   0360 EB            xchg
0544   0361 59            mov e, c
0545   0362 16 00         mvi d, 0
0546   0364 19            dad d
0547   0365 22 EF 18      shld check_p
0548   0368               ; 154 c = *p;  
0549   0368 7E            mov a, m
0550   0369 32 EC 18      sta check_c
0551   036C               ; 155 if(c==0) continue;
0552   036C B7            ora a
0553   036D CA D3 03      jz l57
0554   0370 78            mov a, b
0555   0371 32 EA 18      sta check_prevx
0556   0374               ; 157 prevy = y;
0557   0374 79            mov a, c
0558   0375 32 EB 18      sta check_prevy
0559   0378               ; 158 while(1) {
0560   0378             l59:
0561   0378               ; 159 ++prevy;
0562   0378 21 EB 18      lxi h, check_prevy
0563   037B 34            inr m
0564   037C               ; 160 --prevx;
0565   037C 21 EA 18      lxi h, check_prevx
0566   037F 35            dcr m
0567   0380               ; 161 p += 1-GAME_WIDTH;Сложение
0568   0380 11 F8 FF      lxi d, 65528
0569   0383 2A EF 18      lhld check_p
0570   0386 19            dad d
0571   0387 22 EF 18      shld check_p
0572   038A               ; 162 if(prevx==-1) break;
0573   038A 3A EA 18      lda check_prevx
0574   038D FE FF         cpi -1
0575   038F CA A5 03      jz l60
0576   0392 3A EB 18      lda check_prevy
0577   0395 FE 09         cpi 9
0578   0397 CA A5 03      jz l60
0579   039A 7E            mov a, m
0580   039B 21 EC 18      lxi h, check_c
0581   039E BE            cmp m
0582   039F C2 A5 03      jnz l60
0583   03A2 C3 78 03      jmp l59
0584   03A5             l60:
0585   03A5               ; 166 n = prevy-y;Арифметика 4/2
0586   03A5 3A EB 18      lda check_prevy
0587   03A8 91            sub c
0588   03A9 32 ED 18      sta check_n
0589   03AC               ; 167 if(n<5) continue;
0590   03AC FE 05         cpi 5
0591   03AE DA D3 03      jc l57
0592   03B1 78            mov a, b
0593   03B2 32 E2 18      sta clearLine_1
0594   03B5 79            mov a, c
0595   03B6 32 E3 18      sta clearLine_2
0596   03B9 3E FF         mvi a, 255
0597   03BB 32 E4 18      sta clearLine_3
0598   03BE 3E 01         mvi a, 1
0599   03C0 32 E5 18      sta clearLine_4
0600   03C3 3A ED 18      lda check_n
0601   03C6 CD DC 00      call clearLine
0602   03C9               ; 169 total += n;
0603   03C9 21 ED 18      lxi h, check_n
0604   03CC 3A EE 18      lda check_total
0605   03CF 86            add m
0606   03D0 32 EE 18      sta check_total
0607   03D3             l57:
0608   03D3 04            inr b
0609   03D4 C3 4F 03      jmp l55
0610   03D7             l56:
0611   03D7             l54:
0612   03D7 0C            inr c
0613   03D8 C3 47 03      jmp l52
0614   03DB             l53:
0615   03DB               ; 172 if(total==0) return 0;
0616   03DB 3A EE 18      lda check_total
0617   03DE B7            ora a
0618   03DF C2 E5 03      jnz l65
0619   03E2               ; 172 return 0;
0620   03E2 AF            xra a
0621   03E3 C1            pop b
0622   03E4 C9            ret
0623   03E5             l65:
0624   03E5               ; 175 score += total*2;
0625   03E5 2A EE 18      lhld check_total
0626   03E8 26 00         mvi h, 0
0627   03EA               ; Умножение HL на 2
0628   03EA 29            dad h
0629   03EB               ; Сложение
0630   03EB EB            xchg
0631   03EC 2A C4 17      lhld score
0632   03EF 19            dad d
0633   03F0 22 C4 17      shld score
0634   03F3               ; 176 drawScore1();
0635   03F3 CD 5A 00      call drawScore1
0636   03F6               ; 177 return 1;
0637   03F6 3E 01         mvi a, 1
0638   03F8 C1            pop b
0639   03F9 C9            ret
0640   03FA               ; --- calcFreeCell -----------------------------------------------------------------
0641   03FA             calcFreeCell:
0642   03FA C5            push b
0643   03FB               ; 186 for(c=0, p=&game[0][0], i=81; i; --i, ++p)
0644   03FB AF            xra a
0645   03FC 32 F1 18      sta calcFreeCell_c
0646   03FF               ; Сложение с константой 0
0647   03FF 2A 5C 17      lhld (game)+(0)
0648   0402 44            mov b, h
0649   0403 4D            mov c, l
0650   0404 3E 51         mvi a, 81
0651   0406 32 F2 18      sta calcFreeCell_i
0652   0409             l66:
0653   0409               ; convertToConfition
0654   0409 3A F2 18      lda calcFreeCell_i
0655   040C B7            ora a
0656   040D CA 21 04      jz l67
0657   0410               ; 187 if(*p==0)
0658   0410 0A            ldax b
0659   0411 B7            ora a
0660   0412 C2 19 04      jnz l69
0661   0415               ; 188 c++;
0662   0415 21 F1 18      lxi h, calcFreeCell_c
0663   0418 34            inr m
0664   0419             l69:
0665   0419             l68:
0666   0419 21 F2 18      lxi h, calcFreeCell_i
0667   041C 35            dcr m
0668   041D 03            inx b
0669   041E C3 09 04      jmp l66
0670   0421             l67:
0671   0421               ; 189 return c;
0672   0421 3A F1 18      lda calcFreeCell_c
0673   0424 C1            pop b
0674   0425 C9            ret
0675   0426               ; --- newBall -----------------------------------------------------------------
0676   0426             newBall:
0677   0426 C5            push b
0678   0427 32 F3 18      sta newBall_1
0679   042A               ; 202 c = calcFreeCell();
0680   042A CD FA 03      call calcFreeCell
0681   042D 32 F5 18      sta newBall_c
0682   0430               ; 203 if(c==0) { nx=-1; gameover=1; return; }
0683   0430 B7            ora a
0684   0431 C2 40 04      jnz l70
0685   0434               ; 203 nx=-1; gameover=1; return; }
0686   0434 3E FF         mvi a, 255
0687   0436 32 CC 17      sta nx
0688   0439               ; 203 gameover=1; return; }
0689   0439 3E 01         mvi a, 1
0690   043B 32 BF 17      sta gameOver
0691   043E               ; 203 return; }
0692   043E C1            pop b
0693   043F C9            ret
0694   0440             l70:
0695   0440               ; 206 c = rand()%c;
0696   0440 CD 87 16      call rand
0697   0443 21 F5 18      lxi h, newBall_c
0698   0446 56            mov d, m
0699   0447 CD 93 16      call op_mod
0700   044A 32 F5 18      sta newBall_c
0701   044D               ; 209 for(p=&game[0][0], i=81; i; --i, ++p)Сложение с константой 0
0702   044D 2A 5C 17      lhld (game)+(0)
0703   0450 44            mov b, h
0704   0451 4D            mov c, l
0705   0452 3E 51         mvi a, 81
0706   0454 32 F4 18      sta newBall_i
0707   0457             l71:
0708   0457               ; convertToConfition
0709   0457 3A F4 18      lda newBall_i
0710   045A B7            ora a
0711   045B CA 76 04      jz l72
0712   045E               ; 210 if(*p==0) {
0713   045E 0A            ldax b
0714   045F B7            ora a
0715   0460 C2 6E 04      jnz l74
0716   0463               ; 211 if(c==0) break;
0717   0463 3A F5 18      lda newBall_c
0718   0466 B7            ora a
0719   0467 CA 76 04      jz l72
0720   046A 21 F5 18      lxi h, newBall_c
0721   046D 35            dcr m
0722   046E             l74:
0723   046E             l73:
0724   046E 21 F4 18      lxi h, newBall_i
0725   0471 35            dcr m
0726   0472 03            inx b
0727   0473 C3 57 04      jmp l71
0728   0476             l72:
0729   0476               ; 216 nx = (81-i)/9, ny = op_div_mod;Арифметика 3/4
0730   0476 21 F4 18      lxi h, newBall_i
0731   0479 3E 51         mvi a, 81
0732   047B 96            sub m
0733   047C 16 09         mvi d, 9
0734   047E CD B0 16      call op_div
0735   0481 32 CC 17      sta nx
0736   0484 3A 95 3D      lda op_div_mod
0737   0487 32 CD 17      sta ny
0738   048A               ; 219 game[nx][ny] = color;
0739   048A 2A CC 17      lhld nx
0740   048D 26 00         mvi h, 0
0741   048F               ; Умножение HL на 2
0742   048F 29            dad h
0743   0490               ; Сложение
0744   0490 11 5C 17      lxi d, game
0745   0493 19            dad d
0746   0494               ; Сложение
0747   0494 5E            mov e, m
0748   0495 23            inx h
0749   0496 56            mov d, m
0750   0497 6F            mov l, a
0751   0498 26 00         mvi h, 0
0752   049A 19            dad d
0753   049B 3A F3 18      lda newBall_1
0754   049E 77            mov m, a
0755   049F C1            pop b
0756   04A0 C9            ret
0757   04A1               ; --- randNewBall -----------------------------------------------------------------
0758   04A1             randNewBall:
0759   04A1 CD 87 16      call rand
0760   04A4 16 07         mvi d, 7
0761   04A6 CD 93 16      call op_mod
0762   04A9 3C            inr a
0763   04AA 32 C6 17      sta newBall1
0764   04AD               ; 227 newBall2 = rand()%7+1;
0765   04AD CD 87 16      call rand
0766   04B0 16 07         mvi d, 7
0767   04B2 CD 93 16      call op_mod
0768   04B5 3C            inr a
0769   04B6 32 C7 17      sta newBall2
0770   04B9               ; 228 newBall3 = rand()%7+1;
0771   04B9 CD 87 16      call rand
0772   04BC 16 07         mvi d, 7
0773   04BE CD 93 16      call op_mod
0774   04C1 3C            inr a
0775   04C2 32 C8 17      sta newBall3
0776   04C5 C9            ret
0777   04C6               ; --- redrawNewBalls1 -----------------------------------------------------------------
0778   04C6             redrawNewBalls1:
0779   04C6 3A CB 17      lda showHelp
0780   04C9 B7            ora a
0781   04CA CA DF 04      jz l76
0782   04CD               ; 234 redrawNewBalls(newBall1, newBall2, newBall3);
0783   04CD 3A C6 17      lda newBall1
0784   04D0 32 74 19      sta redrawNewBalls_1
0785   04D3 3A C7 17      lda newBall2
0786   04D6 32 75 19      sta redrawNewBalls_2
0787   04D9 3A C8 17      lda newBall3
0788   04DC CD B2 0F      call redrawNewBalls
0789   04DF             l76:
0790   04DF C9            ret
0791   04E0               ; --- redrawNewBalls2 -----------------------------------------------------------------
0792   04E0             redrawNewBalls2:
0793   04E0 3A CB 17      lda showHelp
0794   04E3 B7            ora a
0795   04E4 CA ED 04      jz l77
0796   04E7               ; 238 redrawNewBalls1(); else redrawNewBallsOff();
0797   04E7 CD C6 04      call redrawNewBalls1
0798   04EA C3 F0 04      jmp l78
0799   04ED             l77:
0800   04ED               ; 238 redrawNewBallsOff();
0801   04ED CD 2A 10      call redrawNewBallsOff
0802   04F0             l78:
0803   04F0 C9            ret
0804   04F1               ; --- gameStep -----------------------------------------------------------------
0805   04F1             gameStep:
0806   04F1 CD 9E 01      call check
0807   04F4               ; convertToConfition
0808   04F4 B7            ora a
0809   04F5 C2 AE 05      jnz l79
0810   04F8               ; 251 newBall(newBall1); nx1=nx; ny1=ny;
0811   04F8 3A C6 17      lda newBall1
0812   04FB CD 26 04      call newBall
0813   04FE               ; 251 nx1=nx; ny1=ny;
0814   04FE 3A CC 17      lda nx
0815   0501 32 F6 18      sta gameStep_nx1
0816   0504               ; 251 ny1=ny;
0817   0504 3A CD 17      lda ny
0818   0507 32 F7 18      sta gameStep_ny1
0819   050A               ; 252 newBall(newBall2); nx2=nx; ny2=ny;
0820   050A 3A C7 17      lda newBall2
0821   050D CD 26 04      call newBall
0822   0510               ; 252 nx2=nx; ny2=ny;
0823   0510 3A CC 17      lda nx
0824   0513 32 F8 18      sta gameStep_nx2
0825   0516               ; 252 ny2=ny;
0826   0516 3A CD 17      lda ny
0827   0519 32 F9 18      sta gameStep_ny2
0828   051C               ; 253 newBall(newBall3);
0829   051C 3A C8 17      lda newBall3
0830   051F CD 26 04      call newBall
0831   0522               ; 256 for(o=0; o<5; o++) {
0832   0522 AF            xra a
0833   0523 32 FA 18      sta gameStep_o
0834   0526             l80:
0835   0526 3A FA 18      lda gameStep_o
0836   0529 FE 05         cpi 5
0837   052B D2 92 05      jnc l81
0838   052E               ; 257 if(nx1!=-1) drawSpriteNew(nx1, ny1, newBall1, o);
0839   052E 3A F6 18      lda gameStep_nx1
0840   0531 FE FF         cpi -1
0841   0533 CA 4B 05      jz l83
0842   0536               ; 257 drawSpriteNew(nx1, ny1, newBall1, o);
0843   0536 32 4E 19      sta drawSpriteNew_1
0844   0539 3A F7 18      lda gameStep_ny1
0845   053C 32 4F 19      sta drawSpriteNew_2
0846   053F 3A C6 17      lda newBall1
0847   0542 32 50 19      sta drawSpriteNew_3
0848   0545 3A FA 18      lda gameStep_o
0849   0548 CD 04 0E      call drawSpriteNew
0850   054B             l83:
0851   054B               ; 258 if(nx2!=-1) drawSpriteNew(nx2, ny2, newBall2, o);
0852   054B 3A F8 18      lda gameStep_nx2
0853   054E FE FF         cpi -1
0854   0550 CA 68 05      jz l84
0855   0553               ; 258 drawSpriteNew(nx2, ny2, newBall2, o);
0856   0553 32 4E 19      sta drawSpriteNew_1
0857   0556 3A F9 18      lda gameStep_ny2
0858   0559 32 4F 19      sta drawSpriteNew_2
0859   055C 3A C7 17      lda newBall2
0860   055F 32 50 19      sta drawSpriteNew_3
0861   0562 3A FA 18      lda gameStep_o
0862   0565 CD 04 0E      call drawSpriteNew
0863   0568             l84:
0864   0568               ; 259 if(nx !=-1) drawSpriteNew(nx,  ny,  newBall3, o);
0865   0568 3A CC 17      lda nx
0866   056B FE FF         cpi -1
0867   056D CA 85 05      jz l85
0868   0570               ; 259 drawSpriteNew(nx,  ny,  newBall3, o);
0869   0570 32 4E 19      sta drawSpriteNew_1
0870   0573 3A CD 17      lda ny
0871   0576 32 4F 19      sta drawSpriteNew_2
0872   0579 3A C8 17      lda newBall3
0873   057C 32 50 19      sta drawSpriteNew_3
0874   057F 3A FA 18      lda gameStep_o
0875   0582 CD 04 0E      call drawSpriteNew
0876   0585             l85:
0877   0585               ; 260 delay(ANIMATION_SPEED);
0878   0585 3E 40         mvi a, 64
0879   0587 CD 67 10      call delay
0880   058A             l82:
0881   058A 21 FA 18      lxi h, gameStep_o
0882   058D 7E            mov a, m
0883   058E 34            inr m
0884   058F C3 26 05      jmp l80
0885   0592             l81:
0886   0592               ; 264 randNewBall();
0887   0592 CD A1 04      call randNewBall
0888   0595               ; 265 redrawNewBalls1();
0889   0595 CD C6 04      call redrawNewBalls1
0890   0598               ; 267 if(!gameOver) {    convertToConfition
0891   0598 3A BF 17      lda gameOver
0892   059B B7            ora a
0893   059C C2 AE 05      jnz l86
0894   059F               ; 269 check();
0895   059F CD 9E 01      call check
0896   05A2               ; 272 if(calcFreeCell()==0) gameOver=1;
0897   05A2 CD FA 03      call calcFreeCell
0898   05A5 B7            ora a
0899   05A6 C2 AE 05      jnz l87
0900   05A9               ; 272 gameOver=1;
0901   05A9 3E 01         mvi a, 1
0902   05AB 32 BF 17      sta gameOver
0903   05AE             l87:
0904   05AE             l86:
0905   05AE             l79:
0906   05AE               ; 276 drawCursor(); 
0907   05AE C3 71 0D      jmp drawCursor
0908   05B1             path_find:
0909   05B1 C5            push b
0910   05B2               ; 294 path_c = game[selX][selY];  
0911   05B2 2A C2 17      lhld selX
0912   05B5 26 00         mvi h, 0
0913   05B7               ; Умножение HL на 2
0914   05B7 29            dad h
0915   05B8               ; Сложение
0916   05B8 11 5C 17      lxi d, game
0917   05BB 19            dad d
0918   05BC               ; Сложение
0919   05BC 5E            mov e, m
0920   05BD 23            inx h
0921   05BE 56            mov d, m
0922   05BF 2A C3 17      lhld selY
0923   05C2 26 00         mvi h, 0
0924   05C4 19            dad d
0925   05C5 7E            mov a, m
0926   05C6 32 FB 18      sta path_c
0927   05C9               ; 295 game[selX][selY] = 255;
0928   05C9 2A C2 17      lhld selX
0929   05CC 26 00         mvi h, 0
0930   05CE               ; Умножение HL на 2
0931   05CE 29            dad h
0932   05CF               ; Сложение
0933   05CF 11 5C 17      lxi d, game
0934   05D2 19            dad d
0935   05D3               ; Сложение
0936   05D3 5E            mov e, m
0937   05D4 23            inx h
0938   05D5 56            mov d, m
0939   05D6 2A C3 17      lhld selY
0940   05D9 26 00         mvi h, 0
0941   05DB 19            dad d
0942   05DC 36 FF         mvi m, 255
0943   05DE               ; 296 game[cursorX][cursorY] = PATH_START_VAL;
0944   05DE 2A C0 17      lhld cursorX
0945   05E1 26 00         mvi h, 0
0946   05E3               ; Умножение HL на 2
0947   05E3 29            dad h
0948   05E4               ; Сложение
0949   05E4 11 5C 17      lxi d, game
0950   05E7 19            dad d
0951   05E8               ; Сложение
0952   05E8 5E            mov e, m
0953   05E9 23            inx h
0954   05EA 56            mov d, m
0955   05EB 2A C1 17      lhld cursorY
0956   05EE 26 00         mvi h, 0
0957   05F0 19            dad d
0958   05F1 3E 0A         mvi a, 10
0959   05F3 77            mov m, a
0960   05F4               ; 299 for(path_n = PATH_START_VAL; path_n != PATH_START_VAL+GAME_WIDTH*GAME_HEIGHT; ++path_n)
0961   05F4 32 FF 18      sta path_n
0962   05F7             l88:
0963   05F7 3A FF 18      lda path_n
0964   05FA FE 5B         cpi 91
0965   05FC CA F4 06      jz l89
0966   05FF               ; 300 for(p = &game[0][0], path_x=0; path_x != GAME_WIDTH; ++path_x)Сложение с константой 0
0967   05FF 2A 5C 17      lhld (game)+(0)
0968   0602 44            mov b, h
0969   0603 4D            mov c, l
0970   0604 AF            xra a
0971   0605 32 00 19      sta path_x
0972   0608             l91:
0973   0608 3A 00 19      lda path_x
0974   060B FE 09         cpi 9
0975   060D CA ED 06      jz l92
0976   0610               ; 301 for(path_y=0; path_y != GAME_HEIGHT; ++path_y, ++p)
0977   0610 AF            xra a
0978   0611 32 01 19      sta path_y
0979   0614             l94:
0980   0614 3A 01 19      lda path_y
0981   0617 FE 09         cpi 9
0982   0619 CA E6 06      jz l95
0983   061C               ; 302 if(*p == path_n) {
0984   061C 21 FF 18      lxi h, path_n
0985   061F 0A            ldax b
0986   0620 BE            cmp m
0987   0621 C2 DE 06      jnz l97
0988   0624               ; 303 if(path_y != 0            ) { p-=1;           if(*p==255) { --path_y; path_p=p; return 1; } else if(*p==0) *p=path_n+1; p+=1;           }
0989   0624 3A 01 19      lda path_y
0990   0627 B7            ora a
0991   0628 CA 4D 06      jz l98
0992   062B               ; 303 p-=1;           if(*p==255) { --path_y; path_p=p; return 1; } else if(*p==0) *p=path_n+1; p+=1;           }Сложение BC с константой -1
0993   062B 0B            dcx b
0994   062C               ; 303 if(*p==255) { --path_y; path_p=p; return 1; } else if(*p==0) *p=path_n+1; p+=1;           }
0995   062C 0A            ldax b
0996   062D FE FF         cpi 255
0997   062F C2 42 06      jnz l99
0998   0632               ; 303 --path_y; path_p=p; return 1; } else if(*p==0) *p=path_n+1; p+=1;           }
0999   0632 21 01 19      lxi h, path_y
1000   0635 35            dcr m
1001   0636               ; 303 path_p=p; return 1; } else if(*p==0) *p=path_n+1; p+=1;           }
1002   0636 60            mov h, b
1003   0637 69            mov l, c
1004   0638 22 FC 18      shld path_p
1005   063B               ; 303 return 1; } else if(*p==0) *p=path_n+1; p+=1;           }
1006   063B 3E 01         mvi a, 1
1007   063D C1            pop b
1008   063E C9            ret
1009   063F C3 4C 06      jmp l100
1010   0642             l99:
1011   0642               ; 303 if(*p==0) *p=path_n+1; p+=1;           }
1012   0642 0A            ldax b
1013   0643 B7            ora a
1014   0644 C2 4C 06      jnz l101
1015   0647               ; 303 *p=path_n+1; p+=1;           }
1016   0647 3A FF 18      lda path_n
1017   064A 3C            inr a
1018   064B 02            stax b
1019   064C             l101:
1020   064C             l100:
1021   064C               ; 303 p+=1;           }Сложение BC с константой 1
1022   064C 03            inx b
1023   064D             l98:
1024   064D               ; 304 if(path_y != GAME_HEIGHT-1) { p+=1;           if(*p==255) { ++path_y; path_p=p; return 1; } else if(*p==0) *p=path_n+1; p-=1;           }
1025   064D 3A 01 19      lda path_y
1026   0650 FE 08         cpi 8
1027   0652 CA 77 06      jz l102
1028   0655               ; 304 p+=1;           if(*p==255) { ++path_y; path_p=p; return 1; } else if(*p==0) *p=path_n+1; p-=1;           }Сложение BC с константой 1
1029   0655 03            inx b
1030   0656               ; 304 if(*p==255) { ++path_y; path_p=p; return 1; } else if(*p==0) *p=path_n+1; p-=1;           }
1031   0656 0A            ldax b
1032   0657 FE FF         cpi 255
1033   0659 C2 6C 06      jnz l103
1034   065C               ; 304 ++path_y; path_p=p; return 1; } else if(*p==0) *p=path_n+1; p-=1;           }
1035   065C 21 01 19      lxi h, path_y
1036   065F 34            inr m
1037   0660               ; 304 path_p=p; return 1; } else if(*p==0) *p=path_n+1; p-=1;           }
1038   0660 60            mov h, b
1039   0661 69            mov l, c
1040   0662 22 FC 18      shld path_p
1041   0665               ; 304 return 1; } else if(*p==0) *p=path_n+1; p-=1;           }
1042   0665 3E 01         mvi a, 1
1043   0667 C1            pop b
1044   0668 C9            ret
1045   0669 C3 76 06      jmp l104
1046   066C             l103:
1047   066C               ; 304 if(*p==0) *p=path_n+1; p-=1;           }
1048   066C 0A            ldax b
1049   066D B7            ora a
1050   066E C2 76 06      jnz l105
1051   0671               ; 304 *p=path_n+1; p-=1;           }
1052   0671 3A FF 18      lda path_n
1053   0674 3C            inr a
1054   0675 02            stax b
1055   0676             l105:
1056   0676             l104:
1057   0676               ; 304 p-=1;           }Сложение BC с константой -1
1058   0676 0B            dcx b
1059   0677             l102:
1060   0677               ; 305 if(path_x != 0            ) { p-=GAME_HEIGHT; if(*p==255) { --path_x; path_p=p; return 1; } else if(*p==0) *p=path_n+1; p+=GAME_HEIGHT; }
1061   0677 3A 00 19      lda path_x
1062   067A B7            ora a
1063   067B CA AA 06      jz l106
1064   067E               ; 305 p-=GAME_HEIGHT; if(*p==255) { --path_x; path_p=p; return 1; } else if(*p==0) *p=path_n+1; p+=GAME_HEIGHT; }Сложение с BC
1065   067E 21 F7 FF      lxi h, 65527
1066   0681 09            dad b
1067   0682 44            mov b, h
1068   0683 4D            mov c, l
1069   0684               ; 305 if(*p==255) { --path_x; path_p=p; return 1; } else if(*p==0) *p=path_n+1; p+=GAME_HEIGHT; }
1070   0684 0A            ldax b
1071   0685 FE FF         cpi 255
1072   0687 C2 9A 06      jnz l107
1073   068A               ; 305 --path_x; path_p=p; return 1; } else if(*p==0) *p=path_n+1; p+=GAME_HEIGHT; }
1074   068A 21 00 19      lxi h, path_x
1075   068D 35            dcr m
1076   068E               ; 305 path_p=p; return 1; } else if(*p==0) *p=path_n+1; p+=GAME_HEIGHT; }
1077   068E 60            mov h, b
1078   068F 69            mov l, c
1079   0690 22 FC 18      shld path_p
1080   0693               ; 305 return 1; } else if(*p==0) *p=path_n+1; p+=GAME_HEIGHT; }
1081   0693 3E 01         mvi a, 1
1082   0695 C1            pop b
1083   0696 C9            ret
1084   0697 C3 A4 06      jmp l108
1085   069A             l107:
1086   069A               ; 305 if(*p==0) *p=path_n+1; p+=GAME_HEIGHT; }
1087   069A 0A            ldax b
1088   069B B7            ora a
1089   069C C2 A4 06      jnz l109
1090   069F               ; 305 *p=path_n+1; p+=GAME_HEIGHT; }
1091   069F 3A FF 18      lda path_n
1092   06A2 3C            inr a
1093   06A3 02            stax b
1094   06A4             l109:
1095   06A4             l108:
1096   06A4               ; 305 p+=GAME_HEIGHT; }Сложение с BC
1097   06A4 21 09 00      lxi h, 9
1098   06A7 09            dad b
1099   06A8 44            mov b, h
1100   06A9 4D            mov c, l
1101   06AA             l106:
1102   06AA               ; 306 if(path_x != GAME_WIDTH -1) { p+=GAME_HEIGHT; if(*p==255) { ++path_x; path_p=p; return 1; } else if(*p==0) *p=path_n+1; p-=GAME_HEIGHT; }
1103   06AA 3A 00 19      lda path_x
1104   06AD FE 08         cpi 8
1105   06AF CA DE 06      jz l110
1106   06B2               ; 306 p+=GAME_HEIGHT; if(*p==255) { ++path_x; path_p=p; return 1; } else if(*p==0) *p=path_n+1; p-=GAME_HEIGHT; }Сложение с BC
1107   06B2 21 09 00      lxi h, 9
1108   06B5 09            dad b
1109   06B6 44            mov b, h
1110   06B7 4D            mov c, l
1111   06B8               ; 306 if(*p==255) { ++path_x; path_p=p; return 1; } else if(*p==0) *p=path_n+1; p-=GAME_HEIGHT; }
1112   06B8 0A            ldax b
1113   06B9 FE FF         cpi 255
1114   06BB C2 CE 06      jnz l111
1115   06BE               ; 306 ++path_x; path_p=p; return 1; } else if(*p==0) *p=path_n+1; p-=GAME_HEIGHT; }
1116   06BE 21 00 19      lxi h, path_x
1117   06C1 34            inr m
1118   06C2               ; 306 path_p=p; return 1; } else if(*p==0) *p=path_n+1; p-=GAME_HEIGHT; }
1119   06C2 60            mov h, b
1120   06C3 69            mov l, c
1121   06C4 22 FC 18      shld path_p
1122   06C7               ; 306 return 1; } else if(*p==0) *p=path_n+1; p-=GAME_HEIGHT; }
1123   06C7 3E 01         mvi a, 1
1124   06C9 C1            pop b
1125   06CA C9            ret
1126   06CB C3 D8 06      jmp l112
1127   06CE             l111:
1128   06CE               ; 306 if(*p==0) *p=path_n+1; p-=GAME_HEIGHT; }
1129   06CE 0A            ldax b
1130   06CF B7            ora a
1131   06D0 C2 D8 06      jnz l113
1132   06D3               ; 306 *p=path_n+1; p-=GAME_HEIGHT; }
1133   06D3 3A FF 18      lda path_n
1134   06D6 3C            inr a
1135   06D7 02            stax b
1136   06D8             l113:
1137   06D8             l112:
1138   06D8               ; 306 p-=GAME_HEIGHT; }Сложение с BC
1139   06D8 21 F7 FF      lxi h, 65527
1140   06DB 09            dad b
1141   06DC 44            mov b, h
1142   06DD 4D            mov c, l
1143   06DE             l110:
1144   06DE             l97:
1145   06DE             l96:
1146   06DE 21 01 19      lxi h, path_y
1147   06E1 34            inr m
1148   06E2 03            inx b
1149   06E3 C3 14 06      jmp l94
1150   06E6             l95:
1151   06E6             l93:
1152   06E6 21 00 19      lxi h, path_x
1153   06E9 34            inr m
1154   06EA C3 08 06      jmp l91
1155   06ED             l92:
1156   06ED             l90:
1157   06ED 21 FF 18      lxi h, path_n
1158   06F0 34            inr m
1159   06F1 C3 F7 05      jmp l88
1160   06F4             l89:
1161   06F4               ; 310 path_end();
1162   06F4 CD EC 07      call path_end
1163   06F7               ; 311 game[selX][selY] = path_c;
1164   06F7 2A C2 17      lhld selX
1165   06FA 26 00         mvi h, 0
1166   06FC               ; Умножение HL на 2
1167   06FC 29            dad h
1168   06FD               ; Сложение
1169   06FD 11 5C 17      lxi d, game
1170   0700 19            dad d
1171   0701               ; Сложение
1172   0701 5E            mov e, m
1173   0702 23            inx h
1174   0703 56            mov d, m
1175   0704 2A C3 17      lhld selY
1176   0707 26 00         mvi h, 0
1177   0709 19            dad d
1178   070A 3A FB 18      lda path_c
1179   070D 77            mov m, a
1180   070E               ; 312 return 0;
1181   070E AF            xra a
1182   070F C1            pop b
1183   0710 C9            ret
1184   0711               ; --- path_nextStep -----------------------------------------------------------------
1185   0711             path_nextStep:
1186   0711 C5            push b
1187   0712               ; 319 path_p;<p>
1188   0712 2A FC 18      lhld path_p
1189   0715 44            mov b, h
1190   0716 4D            mov c, l
1191   0717               ; 320 if(path_y != 0            ) { p -= 1;           if(*p == path_n) { --path_y; --path_n; path_p=p; return 1; } p+=1;           }
1192   0717 3A 01 19      lda path_y
1193   071A B7            ora a
1194   071B CA 39 07      jz l114
1195   071E               ; 320 p -= 1;           if(*p == path_n) { --path_y; --path_n; path_p=p; return 1; } p+=1;           }Сложение BC с константой -1
1196   071E 0B            dcx b
1197   071F               ; 320 if(*p == path_n) { --path_y; --path_n; path_p=p; return 1; } p+=1;           }
1198   071F 21 FF 18      lxi h, path_n
1199   0722 0A            ldax b
1200   0723 BE            cmp m
1201   0724 C2 38 07      jnz l115
1202   0727               ; 320 --path_y; --path_n; path_p=p; return 1; } p+=1;           }
1203   0727 21 01 19      lxi h, path_y
1204   072A 35            dcr m
1205   072B               ; 320 --path_n; path_p=p; return 1; } p+=1;           }
1206   072B 21 FF 18      lxi h, path_n
1207   072E 35            dcr m
1208   072F               ; 320 path_p=p; return 1; } p+=1;           }
1209   072F 60            mov h, b
1210   0730 69            mov l, c
1211   0731 22 FC 18      shld path_p
1212   0734               ; 320 return 1; } p+=1;           }
1213   0734 3E 01         mvi a, 1
1214   0736 C1            pop b
1215   0737 C9            ret
1216   0738             l115:
1217   0738               ; 320 p+=1;           }Сложение BC с константой 1
1218   0738 03            inx b
1219   0739             l114:
1220   0739               ; 321 if(path_y != GAME_HEIGHT-1) { p += 1;           if(*p == path_n) { ++path_y; --path_n; path_p=p; return 2; } p-=1;           }
1221   0739 3A 01 19      lda path_y
1222   073C FE 08         cpi 8
1223   073E CA 5C 07      jz l116
1224   0741               ; 321 p += 1;           if(*p == path_n) { ++path_y; --path_n; path_p=p; return 2; } p-=1;           }Сложение BC с константой 1
1225   0741 03            inx b
1226   0742               ; 321 if(*p == path_n) { ++path_y; --path_n; path_p=p; return 2; } p-=1;           }
1227   0742 21 FF 18      lxi h, path_n
1228   0745 0A            ldax b
1229   0746 BE            cmp m
1230   0747 C2 5B 07      jnz l117
1231   074A               ; 321 ++path_y; --path_n; path_p=p; return 2; } p-=1;           }
1232   074A 21 01 19      lxi h, path_y
1233   074D 34            inr m
1234   074E               ; 321 --path_n; path_p=p; return 2; } p-=1;           }
1235   074E 21 FF 18      lxi h, path_n
1236   0751 35            dcr m
1237   0752               ; 321 path_p=p; return 2; } p-=1;           }
1238   0752 60            mov h, b
1239   0753 69            mov l, c
1240   0754 22 FC 18      shld path_p
1241   0757               ; 321 return 2; } p-=1;           }
1242   0757 3E 02         mvi a, 2
1243   0759 C1            pop b
1244   075A C9            ret
1245   075B             l117:
1246   075B               ; 321 p-=1;           }Сложение BC с константой -1
1247   075B 0B            dcx b
1248   075C             l116:
1249   075C               ; 322 if(path_x != 0            ) { p -= GAME_HEIGHT; if(*p == path_n) { --path_x; --path_n; path_p=p; return 3; } p+=GAME_HEIGHT; }
1250   075C 3A 00 19      lda path_x
1251   075F B7            ora a
1252   0760 CA 88 07      jz l118
1253   0763               ; 322 p -= GAME_HEIGHT; if(*p == path_n) { --path_x; --path_n; path_p=p; return 3; } p+=GAME_HEIGHT; }Сложение с BC
1254   0763 21 F7 FF      lxi h, 65527
1255   0766 09            dad b
1256   0767 44            mov b, h
1257   0768 4D            mov c, l
1258   0769               ; 322 if(*p == path_n) { --path_x; --path_n; path_p=p; return 3; } p+=GAME_HEIGHT; }
1259   0769 21 FF 18      lxi h, path_n
1260   076C 0A            ldax b
1261   076D BE            cmp m
1262   076E C2 82 07      jnz l119
1263   0771               ; 322 --path_x; --path_n; path_p=p; return 3; } p+=GAME_HEIGHT; }
1264   0771 21 00 19      lxi h, path_x
1265   0774 35            dcr m
1266   0775               ; 322 --path_n; path_p=p; return 3; } p+=GAME_HEIGHT; }
1267   0775 21 FF 18      lxi h, path_n
1268   0778 35            dcr m
1269   0779               ; 322 path_p=p; return 3; } p+=GAME_HEIGHT; }
1270   0779 60            mov h, b
1271   077A 69            mov l, c
1272   077B 22 FC 18      shld path_p
1273   077E               ; 322 return 3; } p+=GAME_HEIGHT; }
1274   077E 3E 03         mvi a, 3
1275   0780 C1            pop b
1276   0781 C9            ret
1277   0782             l119:
1278   0782               ; 322 p+=GAME_HEIGHT; }Сложение с BC
1279   0782 21 09 00      lxi h, 9
1280   0785 09            dad b
1281   0786 44            mov b, h
1282   0787 4D            mov c, l
1283   0788             l118:
1284   0788               ; 323 if(path_x != GAME_WIDTH -1) { p += GAME_HEIGHT; if(*p == path_n) { ++path_x; --path_n; path_p=p; return 4; } p-=GAME_HEIGHT; }
1285   0788 3A 00 19      lda path_x
1286   078B FE 08         cpi 8
1287   078D CA B5 07      jz l120
1288   0790               ; 323 p += GAME_HEIGHT; if(*p == path_n) { ++path_x; --path_n; path_p=p; return 4; } p-=GAME_HEIGHT; }Сложение с BC
1289   0790 21 09 00      lxi h, 9
1290   0793 09            dad b
1291   0794 44            mov b, h
1292   0795 4D            mov c, l
1293   0796               ; 323 if(*p == path_n) { ++path_x; --path_n; path_p=p; return 4; } p-=GAME_HEIGHT; }
1294   0796 21 FF 18      lxi h, path_n
1295   0799 0A            ldax b
1296   079A BE            cmp m
1297   079B C2 AF 07      jnz l121
1298   079E               ; 323 ++path_x; --path_n; path_p=p; return 4; } p-=GAME_HEIGHT; }
1299   079E 21 00 19      lxi h, path_x
1300   07A1 34            inr m
1301   07A2               ; 323 --path_n; path_p=p; return 4; } p-=GAME_HEIGHT; }
1302   07A2 21 FF 18      lxi h, path_n
1303   07A5 35            dcr m
1304   07A6               ; 323 path_p=p; return 4; } p-=GAME_HEIGHT; }
1305   07A6 60            mov h, b
1306   07A7 69            mov l, c
1307   07A8 22 FC 18      shld path_p
1308   07AB               ; 323 return 4; } p-=GAME_HEIGHT; }
1309   07AB 3E 04         mvi a, 4
1310   07AD C1            pop b
1311   07AE C9            ret
1312   07AF             l121:
1313   07AF               ; 323 p-=GAME_HEIGHT; }Сложение с BC
1314   07AF 21 F7 FF      lxi h, 65527
1315   07B2 09            dad b
1316   07B3 44            mov b, h
1317   07B4 4D            mov c, l
1318   07B5             l120:
1319   07B5               ; 324 while(1);
1320   07B5             l122:
1321   07B5 C3 B5 07      jmp l122
1322   07B8             l123:
1323   07B8 C1            pop b
1324   07B9 C9            ret
1325   07BA               ; --- path_save -----------------------------------------------------------------
1326   07BA             path_save:
1327   07BA 2A FC 18      lhld path_p
1328   07BD 22 02 19      shld path_p1
1329   07C0               ; 331 path_x1 = path_x; 
1330   07C0 3A 00 19      lda path_x
1331   07C3 32 06 19      sta path_x1
1332   07C6               ; 332 path_y1 = path_y;
1333   07C6 3A 01 19      lda path_y
1334   07C9 32 07 19      sta path_y1
1335   07CC               ; 333 path_n1 = path_n;
1336   07CC 3A FF 18      lda path_n
1337   07CF 32 05 19      sta path_n1
1338   07D2 C9            ret
1339   07D3               ; --- path_load -----------------------------------------------------------------
1340   07D3             path_load:
1341   07D3 2A 02 19      lhld path_p1
1342   07D6 22 FC 18      shld path_p
1343   07D9               ; 340 path_x = path_x1;
1344   07D9 3A 06 19      lda path_x1
1345   07DC 32 00 19      sta path_x
1346   07DF               ; 341 path_y = path_y1;
1347   07DF 3A 07 19      lda path_y1
1348   07E2 32 01 19      sta path_y
1349   07E5               ; 342 path_n = path_n1;
1350   07E5 3A 05 19      lda path_n1
1351   07E8 32 FF 18      sta path_n
1352   07EB C9            ret
1353   07EC               ; --- path_end -----------------------------------------------------------------
1354   07EC             path_end:
1355   07EC C5            push b
1356   07ED               ; 350 for(p=&game[0][0]; p != &game[8][8]+1; ++p)Сложение с константой 0
1357   07ED 2A 5C 17      lhld (game)+(0)
1358   07F0 44            mov b, h
1359   07F1 4D            mov c, l
1360   07F2             l124:
1361   07F2               ; Сложение
1362   07F2 2A 6C 17      lhld (game)+(16)
1363   07F5 11 08 00      lxi d, 8
1364   07F8 19            dad d
1365   07F9               ; Сложение с константой 1
1366   07F9 23            inx h
1367   07FA 50            mov d, b
1368   07FB 59            mov e, c
1369   07FC CD D1 16      call op_cmp16
1370   07FF CA 0E 08      jz l125
1371   0802               ; 351 if(*p >= PATH_START_VAL)
1372   0802 0A            ldax b
1373   0803 FE 0A         cpi 10
1374   0805 DA 0A 08      jc l127
1375   0808               ; 352 *p=0;
1376   0808 AF            xra a
1377   0809 02            stax b
1378   080A             l127:
1379   080A             l126:
1380   080A 03            inx b
1381   080B C3 F2 07      jmp l124
1382   080E             l125:
1383   080E C1            pop b
1384   080F C9            ret
1385   0810               ; --- move -----------------------------------------------------------------
1386   0810             move:
1387   0810 CD B1 05      call path_find
1388   0813               ; convertToConfition
1389   0813 B7            ora a
1390   0814 C2 1F 08      jnz l128
1391   0817               ; 361 if(playSound) soundBadMove();convertToConfition
1392   0817 3A CA 17      lda playSound
1393   081A B7            ora a
1394   081B C4 84 10      cnz soundBadMove
1395   081E C9            ret
1396   081F             l128:
1397   081F               ; 365 if(showPath) {convertToConfition
1398   081F 3A C9 17      lda showPath
1399   0822 B7            ora a
1400   0823 CA E0 08      jz l130
1401   0826               ; 367 path_save();
1402   0826 CD BA 07      call path_save
1403   0829               ; 368 while(1) {
1404   0829             l131:
1405   0829               ; 369 switch(path_nextStep()) {
1406   0829 CD 11 07      call path_nextStep
1407   082C FE 01         cpi 1
1408   082E CA 43 08      jz l134
1409   0831 FE 02         cpi 2
1410   0833 CA 57 08      jz l135
1411   0836 FE 03         cpi 3
1412   0838 CA 6C 08      jz l136
1413   083B FE 04         cpi 4
1414   083D CA 81 08      jz l137
1415   0840 C3 93 08      jmp l133
1416   0843             l134:
1417   0843               ; 370 drawSpriteStep(path_x, path_y+1, 0); break;
1418   0843 3A 00 19      lda path_x
1419   0846 32 52 19      sta drawSpriteStep_1
1420   0849 3A 01 19      lda path_y
1421   084C 3C            inr a
1422   084D 32 53 19      sta drawSpriteStep_2
1423   0850 AF            xra a
1424   0851 CD 2B 0E      call drawSpriteStep
1425   0854               ; 370 break;
1426   0854 C3 93 08      jmp l133
1427   0857             l135:
1428   0857               ; 371 drawSpriteStep(path_x, path_y-1, 1); break;
1429   0857 3A 00 19      lda path_x
1430   085A 32 52 19      sta drawSpriteStep_1
1431   085D 3A 01 19      lda path_y
1432   0860 3D            dcr a
1433   0861 32 53 19      sta drawSpriteStep_2
1434   0864 3E 01         mvi a, 1
1435   0866 CD 2B 0E      call drawSpriteStep
1436   0869               ; 371 break;
1437   0869 C3 93 08      jmp l133
1438   086C             l136:
1439   086C               ; 372 drawSpriteStep(path_x+1, path_y, 2); break;
1440   086C 3A 00 19      lda path_x
1441   086F 3C            inr a
1442   0870 32 52 19      sta drawSpriteStep_1
1443   0873 3A 01 19      lda path_y
1444   0876 32 53 19      sta drawSpriteStep_2
1445   0879 3E 02         mvi a, 2
1446   087B CD 2B 0E      call drawSpriteStep
1447   087E               ; 372 break;
1448   087E C3 93 08      jmp l133
1449   0881             l137:
1450   0881               ; 373 drawSpriteStep(path_x-1, path_y, 3); break;
1451   0881 3A 00 19      lda path_x
1452   0884 3D            dcr a
1453   0885 32 52 19      sta drawSpriteStep_1
1454   0888 3A 01 19      lda path_y
1455   088B 32 53 19      sta drawSpriteStep_2
1456   088E 3E 03         mvi a, 3
1457   0890 CD 2B 0E      call drawSpriteStep
1458   0893               ; 373 break;
1459   0893             l133:
1460   0893               ; 375 drawSprite(path_x, path_y, path_c);
1461   0893 3A 00 19      lda path_x
1462   0896 32 3B 19      sta drawSprite_1
1463   0899 3A 01 19      lda path_y
1464   089C 32 3C 19      sta drawSprite_2
1465   089F 3A FB 18      lda path_c
1466   08A2 CD A4 0D      call drawSprite
1467   08A5               ; 376 if(path_n==LAST_STEP) break;
1468   08A5 3A FF 18      lda path_n
1469   08A8 FE 09         cpi 9
1470   08AA CA BC 08      jz l132
1471   08AD 3A CA 17      lda playSound
1472   08B0 B7            ora a
1473   08B1 C4 66 10      cnz soundJumpSel
1474   08B4 3E 40         mvi a, 64
1475   08B6 CD 67 10      call delay
1476   08B9 C3 29 08      jmp l131
1477   08BC             l132:
1478   08BC               ; 382 path_load();
1479   08BC CD D3 07      call path_load
1480   08BF               ; 383 while(1) {
1481   08BF             l140:
1482   08BF               ; 384 drawSprite(path_x, path_y, 0);
1483   08BF 3A 00 19      lda path_x
1484   08C2 32 3B 19      sta drawSprite_1
1485   08C5 3A 01 19      lda path_y
1486   08C8 32 3C 19      sta drawSprite_2
1487   08CB AF            xra a
1488   08CC CD A4 0D      call drawSprite
1489   08CF               ; 385 path_nextStep();
1490   08CF CD 11 07      call path_nextStep
1491   08D2               ; 386 if(path_n==LAST_STEP) break;
1492   08D2 3A FF 18      lda path_n
1493   08D5 FE 09         cpi 9
1494   08D7 CA DD 08      jz l141
1495   08DA C3 BF 08      jmp l140
1496   08DD             l141:
1497   08DD C3 02 09      jmp l143
1498   08E0             l130:
1499   08E0               ; 389 drawSprite(selX, selY, 0);
1500   08E0 3A C2 17      lda selX
1501   08E3 32 3B 19      sta drawSprite_1
1502   08E6 3A C3 17      lda selY
1503   08E9 32 3C 19      sta drawSprite_2
1504   08EC AF            xra a
1505   08ED CD A4 0D      call drawSprite
1506   08F0               ; 390 drawSprite(cursorX, cursorY, path_c);
1507   08F0 3A C0 17      lda cursorX
1508   08F3 32 3B 19      sta drawSprite_1
1509   08F6 3A C1 17      lda cursorY
1510   08F9 32 3C 19      sta drawSprite_2
1511   08FC 3A FB 18      lda path_c
1512   08FF CD A4 0D      call drawSprite
1513   0902             l143:
1514   0902               ; 394 game[cursorX][cursorY] = path_c;
1515   0902 2A C0 17      lhld cursorX
1516   0905 26 00         mvi h, 0
1517   0907               ; Умножение HL на 2
1518   0907 29            dad h
1519   0908               ; Сложение
1520   0908 11 5C 17      lxi d, game
1521   090B 19            dad d
1522   090C               ; Сложение
1523   090C 5E            mov e, m
1524   090D 23            inx h
1525   090E 56            mov d, m
1526   090F 2A C1 17      lhld cursorY
1527   0912 26 00         mvi h, 0
1528   0914 19            dad d
1529   0915 3A FB 18      lda path_c
1530   0918 77            mov m, a
1531   0919               ; 397 selX = -1;
1532   0919 3E FF         mvi a, 255
1533   091B 32 C2 17      sta selX
1534   091E               ; 400 path_end();
1535   091E CD EC 07      call path_end
1536   0921               ; 403 gameStep();
1537   0921 C3 F1 04      jmp gameStep
1538   0924             startGame:
1539   0924 C5            push b
1540   0925               ; 412 selX = -1;
1541   0925 3E FF         mvi a, 255
1542   0927 32 C2 17      sta selX
1543   092A               ; 413 score = 0;
1544   092A 21 00 00      lxi h, 0
1545   092D 22 C4 17      shld score
1546   0930               ; 414 gameOver = 0;
1547   0930 AF            xra a
1548   0931 32 BF 17      sta gameOver
1549   0934               ; 417 initGameScreen();
1550   0934 CD 1E 12      call initGameScreen
1551   0937               ; 420 for(y=0; y!=GAME_HEIGHT; ++y)
1552   0937 0E 00         mvi c, 0
1553   0939             l144:
1554   0939 3E 09         mvi a, 9
1555   093B B9            cmp c
1556   093C CA 61 09      jz l145
1557   093F               ; 421 for(x=0; x!=GAME_WIDTH; ++x)
1558   093F 06 00         mvi b, 0
1559   0941             l147:
1560   0941 3E 09         mvi a, 9
1561   0943 B8            cmp b
1562   0944 CA 5D 09      jz l148
1563   0947               ; 422 game[x][y] = 0;
1564   0947 26 00         mvi h, 0
1565   0949 68            mov l, b
1566   094A               ; Умножение HL на 2
1567   094A 29            dad h
1568   094B               ; Сложение
1569   094B 11 5C 17      lxi d, game
1570   094E 19            dad d
1571   094F               ; Сложение
1572   094F 5E            mov e, m
1573   0950 23            inx h
1574   0951 56            mov d, m
1575   0952 EB            xchg
1576   0953 59            mov e, c
1577   0954 16 00         mvi d, 0
1578   0956 19            dad d
1579   0957 36 00         mvi m, 0
1580   0959             l149:
1581   0959 04            inr b
1582   095A C3 41 09      jmp l147
1583   095D             l148:
1584   095D             l146:
1585   095D 0C            inr c
1586   095E C3 39 09      jmp l144
1587   0961             l145:
1588   0961               ; 424 randNewBall();
1589   0961 CD A1 04      call randNewBall
1590   0964               ; 425 gameStep();
1591   0964 CD F1 04      call gameStep
1592   0967 C1            pop b
1593   0968 C9            ret
1594   0969               ; --- recordAnimation -----------------------------------------------------------------
1595   0969             recordAnimation:
1596   0969 CD 25 11      call prepareRecordScreen
1597   096C               ; 442 if(score < hiScores[8].score) {
1598   096C 2A C4 17      lhld score
1599   096F EB            xchg
1600   0970 2A 5C 18      lhld ((hiScores)+(128))+(14)
1601   0973 CD D1 16      call op_cmp16
1602   0976 DA 7D 09      jc l150
1603   0979 CA 7D 09      jz l150
1604   097C               ; 443 return; 
1605   097C C9            ret
1606   097D             l150:
1607   097D               ; 446 hiScores[8].score = score;
1608   097D 2A C4 17      lhld score
1609   0980 22 5C 18      shld ((hiScores)+(128))+(14)
1610   0983               ; 448 memset(hiScores[8].name, 0, 6);
1611   0983 21 4E 18      lxi h, (hiScores)+(128)
1612   0986 22 96 3D      shld memset_1
1613   0989 AF            xra a
1614   098A 32 98 3D      sta memset_2
1615   098D 21 06 00      lxi h, 6
1616   0990 CD D7 16      call memset
1617   0993               ; 449 i = 0;
1618   0993 AF            xra a
1619   0994 32 09 19      sta recordAnimation_i
1620   0997               ; 451 drawRecordScreen(8);
1621   0997 3E 08         mvi a, 8
1622   0999 CD CC 11      call drawRecordScreen
1623   099C               ; 453 while(1) {
1624   099C             l151:
1625   099C               ; 454 c = getch_();
1626   099C CD 0E 13      call getch_
1627   099F 32 08 19      sta recordAnimation_c
1628   09A2               ; 455 if(c==13) break;  
1629   09A2 FE 0D         cpi 13
1630   09A4 CA FA 09      jz l152
1631   09A7 FE 08         cpi 8
1632   09A9 C2 C8 09      jnz l154
1633   09AC               ; 457 if(i==0) continue;
1634   09AC 3A 09 19      lda recordAnimation_i
1635   09AF B7            ora a
1636   09B0 CA 9C 09      jz l151
1637   09B3 21 09 19      lxi h, recordAnimation_i
1638   09B6 35            dcr m
1639   09B7               ; 459 hiScores[8].name[i] = 0;Сложение
1640   09B7 2A 09 19      lhld recordAnimation_i
1641   09BA 26 00         mvi h, 0
1642   09BC 11 4E 18      lxi d, (hiScores)+(128)
1643   09BF 19            dad d
1644   09C0 36 00         mvi m, 0
1645   09C2               ; 460 drawRecordLastLine();
1646   09C2 CD D9 11      call drawRecordLastLine
1647   09C5               ; 461 continue;
1648   09C5 C3 9C 09      jmp l151
1649   09C8             l154:
1650   09C8               ; 463 if(c>=32) {
1651   09C8 3A 08 19      lda recordAnimation_c
1652   09CB FE 20         cpi 32
1653   09CD DA F7 09      jc l156
1654   09D0               ; 464 if(i==6) continue;
1655   09D0 3A 09 19      lda recordAnimation_i
1656   09D3 FE 06         cpi 6
1657   09D5 CA 9C 09      jz l151
1658   09D8 6F            mov l, a
1659   09D9 26 00         mvi h, 0
1660   09DB 11 4E 18      lxi d, (hiScores)+(128)
1661   09DE 19            dad d
1662   09DF 3A 08 19      lda recordAnimation_c
1663   09E2 77            mov m, a
1664   09E3               ; 466 hiScores[8].name[i+1] = 0;
1665   09E3 3A 09 19      lda recordAnimation_i
1666   09E6 3C            inr a
1667   09E7               ; Сложение
1668   09E7 26 00         mvi h, 0
1669   09E9 6F            mov l, a
1670   09EA 11 4E 18      lxi d, (hiScores)+(128)
1671   09ED 19            dad d
1672   09EE 36 00         mvi m, 0
1673   09F0               ; 467 ++i;   
1674   09F0 21 09 19      lxi h, recordAnimation_i
1675   09F3 34            inr m
1676   09F4               ; 468 drawRecordLastLine();
1677   09F4 CD D9 11      call drawRecordLastLine
1678   09F7             l156:
1679   09F7 C3 9C 09      jmp l151
1680   09FA             l152:
1681   09FA               ; 471 c = 8;
1682   09FA 3E 08         mvi a, 8
1683   09FC 32 08 19      sta recordAnimation_c
1684   09FF               ; 472 p = hiScores+8;
1685   09FF 21 4E 18      lxi h, (hiScores)+(128)
1686   0A02 22 0A 19      shld recordAnimation_p
1687   0A05               ; 473 while(1) {
1688   0A05             l158:
1689   0A05               ; 474 if(p->score < p[-1].score) break;    Сложение
1690   0A05 2A 0A 19      lhld recordAnimation_p
1691   0A08 11 0E 00      lxi d, 14
1692   0A0B 19            dad d
1693   0A0C               ; Сложение
1694   0A0C E5            push h
1695   0A0D 2A 0A 19      lhld recordAnimation_p
1696   0A10 11 F0 FF      lxi d, 65520
1697   0A13 19            dad d
1698   0A14               ; Сложение
1699   0A14 11 0E 00      lxi d, 14
1700   0A17 19            dad d
1701   0A18 5E            mov e, m
1702   0A19 23            inx h
1703   0A1A 56            mov d, m
1704   0A1B E1            pop h
1705   0A1C 7E            mov a, m
1706   0A1D 23            inx h
1707   0A1E 66            mov h, m
1708   0A1F 6F            mov l, a
1709   0A20 CD D1 16      call op_cmp16
1710   0A23 DA 8F 0A      jc l159
1711   0A26 2A 0A 19      lhld recordAnimation_p
1712   0A29 E5            push h
1713   0A2A 11 F0 FF      lxi d, 65520
1714   0A2D 19            dad d
1715   0A2E 22 0A 19      shld recordAnimation_p
1716   0A31 E1            pop h
1717   0A32               ; 476 memcpy(&tmp, p+1, sizeof(tmp));
1718   0A32 21 0C 19      lxi h, recordAnimation_tmp
1719   0A35 22 9B 3D      shld memcpy_1
1720   0A38               ; Сложение
1721   0A38 2A 0A 19      lhld recordAnimation_p
1722   0A3B 11 10 00      lxi d, 16
1723   0A3E 19            dad d
1724   0A3F 22 9D 3D      shld memcpy_2
1725   0A42 21 10 00      lxi h, 16
1726   0A45 CD F1 16      call memcpy
1727   0A48               ; 477 memcpy(p+1, p, sizeof(tmp));Сложение
1728   0A48 2A 0A 19      lhld recordAnimation_p
1729   0A4B 11 10 00      lxi d, 16
1730   0A4E 19            dad d
1731   0A4F 22 9B 3D      shld memcpy_1
1732   0A52 2A 0A 19      lhld recordAnimation_p
1733   0A55 22 9D 3D      shld memcpy_2
1734   0A58 21 10 00      lxi h, 16
1735   0A5B CD F1 16      call memcpy
1736   0A5E               ; 478 memcpy(p, &tmp, sizeof(tmp));
1737   0A5E 2A 0A 19      lhld recordAnimation_p
1738   0A61 22 9B 3D      shld memcpy_1
1739   0A64 21 0C 19      lxi h, recordAnimation_tmp
1740   0A67 22 9D 3D      shld memcpy_2
1741   0A6A 21 10 00      lxi h, 16
1742   0A6D CD F1 16      call memcpy
1743   0A70               ; 479 c--;    
1744   0A70 21 08 19      lxi h, recordAnimation_c
1745   0A73 35            dcr m
1746   0A74               ; 480 drawRecordScreen(c);
1747   0A74 3A 08 19      lda recordAnimation_c
1748   0A77 CD CC 11      call drawRecordScreen
1749   0A7A               ; 481 delay(RECORD_SPEED);
1750   0A7A 3E 40         mvi a, 64
1751   0A7C CD 67 10      call delay
1752   0A7F               ; 482 if(c==0) {
1753   0A7F 3A 08 19      lda recordAnimation_c
1754   0A82 B7            ora a
1755   0A83 C2 8C 0A      jnz l161
1756   0A86               ; 483 updateTopScore();      
1757   0A86 CD E1 11      call updateTopScore
1758   0A89               ; 484 break;
1759   0A89 C3 8F 0A      jmp l159
1760   0A8C             l161:
1761   0A8C C3 05 0A      jmp l158
1762   0A8F             l159:
1763   0A8F               ; 488 getch_();
1764   0A8F C3 0E 13      jmp getch_
1765   0A92             main:
1766   0A92 AF            xra a
1767   0A93 32 1E 19      sta main_selAnimationT
1768   0A96               ; 494 0, keybTimeout=0; <selAnimationTT>
1769   0A96 21 00 00      lxi h, 0
1770   0A99 22 1F 19      shld main_selAnimationTT
1771   0A9C               ; 494 0; <keybTimeout>
1772   0A9C 22 21 19      shld main_keybTimeout
1773   0A9F               ; 496 intro();
1774   0A9F CD A4 10      call intro
1775   0AA2               ; 499 startGame();
1776   0AA2 CD 24 09      call startGame
1777   0AA5               ; 505 while(1) {
1778   0AA5             l162:
1779   0AA5               ; 506 rand();
1780   0AA5 CD 87 16      call rand
1781   0AA8               ; 508 if(selX!=-1) {
1782   0AA8 3A C2 17      lda selX
1783   0AAB FE FF         cpi -1
1784   0AAD CA 34 0B      jz l164
1785   0AB0               ; 509 selAnimationTT++;
1786   0AB0 2A 1F 19      lhld main_selAnimationTT
1787   0AB3 54            mov d, h
1788   0AB4 5D            mov e, l
1789   0AB5 23            inx h
1790   0AB6 22 1F 19      shld main_selAnimationTT
1791   0AB9 EB            xchg
1792   0ABA               ; 510 if(selAnimationTT==150) {Сложение
1793   0ABA 2A 1F 19      lhld main_selAnimationTT
1794   0ABD 11 6A FF      lxi d, 65386
1795   0AC0 19            dad d
1796   0AC1 7D            mov a, l
1797   0AC2 B4            ora h
1798   0AC3 C2 34 0B      jnz l165
1799   0AC6               ; 511 selAnimationTT=0;
1800   0AC6 21 00 00      lxi h, 0
1801   0AC9 22 1F 19      shld main_selAnimationTT
1802   0ACC               ; 512 drawSpriteSel(selX, selY, game[selX][selY], selX==cursorX && selY==cursorY, selAnimationT);
1803   0ACC 3A C2 17      lda selX
1804   0ACF 32 67 19      sta drawSpriteSel_1
1805   0AD2 3A C3 17      lda selY
1806   0AD5 32 68 19      sta drawSpriteSel_2
1807   0AD8 2A C2 17      lhld selX
1808   0ADB 26 00         mvi h, 0
1809   0ADD               ; Умножение HL на 2
1810   0ADD 29            dad h
1811   0ADE               ; Сложение
1812   0ADE 11 5C 17      lxi d, game
1813   0AE1 19            dad d
1814   0AE2               ; Сложение
1815   0AE2 5E            mov e, m
1816   0AE3 23            inx h
1817   0AE4 56            mov d, m
1818   0AE5 2A C3 17      lhld selY
1819   0AE8 26 00         mvi h, 0
1820   0AEA 19            dad d
1821   0AEB 7E            mov a, m
1822   0AEC 32 69 19      sta drawSpriteSel_3
1823   0AEF 21 C0 17      lxi h, cursorX
1824   0AF2 3A C2 17      lda selX
1825   0AF5 BE            cmp m
1826   0AF6 C2 08 0B      jnz l166
1827   0AF9 21 C1 17      lxi h, cursorY
1828   0AFC 3A C3 17      lda selY
1829   0AFF BE            cmp m
1830   0B00 C2 08 0B      jnz l166
1831   0B03 3E 01         mvi a, 1
1832   0B05 C3 09 0B      jmp l167
1833   0B08             l166:
1834   0B08 AF            xra a
1835   0B09             l167:
1836   0B09 32 6A 19      sta drawSpriteSel_4
1837   0B0C 3A 1E 19      lda main_selAnimationT
1838   0B0F CD 5B 0E      call drawSpriteSel
1839   0B12               ; 513 selAnimationT++;
1840   0B12 21 1E 19      lxi h, main_selAnimationT
1841   0B15 34            inr m
1842   0B16               ; 514 if(selAnimationT>=6) selAnimationT=0; else
1843   0B16 3A 1E 19      lda main_selAnimationT
1844   0B19 FE 06         cpi 6
1845   0B1B DA 25 0B      jc l168
1846   0B1E               ; 514 selAnimationT=0; else
1847   0B1E AF            xra a
1848   0B1F 32 1E 19      sta main_selAnimationT
1849   0B22 C3 34 0B      jmp l169
1850   0B25             l168:
1851   0B25               ; 515 if(playSound && selAnimationT==2) soundJumpSel();convertToConfition
1852   0B25 3A CA 17      lda playSound
1853   0B28 B7            ora a
1854   0B29 CA 34 0B      jz l170
1855   0B2C 3A 1E 19      lda main_selAnimationT
1856   0B2F FE 02         cpi 2
1857   0B31 CC 66 10      cz soundJumpSel
1858   0B34             l170:
1859   0B34             l169:
1860   0B34             l165:
1861   0B34             l164:
1862   0B34               ; 519 c1 = bioskey_();
1863   0B34 CD 15 13      call bioskey_
1864   0B37 32 1D 19      sta main_c1
1865   0B3A               ; 521 if(keybTimeout) {convertToConfition
1866   0B3A 2A 21 19      lhld main_keybTimeout
1867   0B3D 7D            mov a, l
1868   0B3E B4            ora h
1869   0B3F CA 4C 0B      jz l171
1870   0B42               ; 522 keybTimeout--;
1871   0B42 54            mov d, h
1872   0B43 5D            mov e, l
1873   0B44 2B            dcx h
1874   0B45 22 21 19      shld main_keybTimeout
1875   0B48 EB            xchg
1876   0B49               ; 523 continue;
1877   0B49 C3 A5 0A      jmp l162
1878   0B4C             l171:
1879   0B4C               ; 526 if(c == c1) continue;
1880   0B4C 21 1D 19      lxi h, main_c1
1881   0B4F 3A 1C 19      lda main_c
1882   0B52 BE            cmp m
1883   0B53 CA A5 0A      jz l162
1884   0B56 7E            mov a, m
1885   0B57 32 1C 19      sta main_c
1886   0B5A               ; 529 switch(c) {
1887   0B5A FE 01         cpi 1
1888   0B5C CA 8F 0B      jz l174
1889   0B5F FE 02         cpi 2
1890   0B61 CA A6 0B      jz l175
1891   0B64 FE 03         cpi 3
1892   0B66 CA BE 0B      jz l176
1893   0B69 FE 04         cpi 4
1894   0B6B CA D9 0B      jz l177
1895   0B6E FE 05         cpi 5
1896   0B70 CA F4 0B      jz l179
1897   0B73 FE 19         cpi 25
1898   0B75 CA FA 0B      jz l180
1899   0B78 FE 1A         cpi 26
1900   0B7A CA 16 0C      jz l183
1901   0B7D FE 08         cpi 8
1902   0B7F CA 32 0C      jz l186
1903   0B82 FE 18         cpi 24
1904   0B84 CA 4E 0C      jz l189
1905   0B87 FE 20         cpi 32
1906   0B89 CA 6A 0C      jz l192
1907   0B8C C3 BD 0C      jmp l197
1908   0B8F             l174:
1909   0B8F               ; 530 showPath  = !showPath;  drawOnOff(0, showPath);  break;convertToConfition
1910   0B8F 3A C9 17      lda showPath
1911   0B92 B7            ora a
1912   0B93 D6 01         sui 1
1913   0B95 9F            sbb a
1914   0B96 32 C9 17      sta showPath
1915   0B99               ; 530 drawOnOff(0, showPath);  break;
1916   0B99 AF            xra a
1917   0B9A 32 7D 19      sta drawOnOff_1
1918   0B9D 3A C9 17      lda showPath
1919   0BA0 CD 35 10      call drawOnOff
1920   0BA3               ; 530 break;
1921   0BA3 C3 C0 0C      jmp l173
1922   0BA6             l175:
1923   0BA6               ; 531 playSound = !playSound; drawOnOff(1, playSound); break;convertToConfition
1924   0BA6 3A CA 17      lda playSound
1925   0BA9 B7            ora a
1926   0BAA D6 01         sui 1
1927   0BAC 9F            sbb a
1928   0BAD 32 CA 17      sta playSound
1929   0BB0               ; 531 drawOnOff(1, playSound); break;
1930   0BB0 3E 01         mvi a, 1
1931   0BB2 32 7D 19      sta drawOnOff_1
1932   0BB5 3A CA 17      lda playSound
1933   0BB8 CD 35 10      call drawOnOff
1934   0BBB               ; 531 break;
1935   0BBB C3 C0 0C      jmp l173
1936   0BBE             l176:
1937   0BBE               ; 532 showHelp  = !showHelp;  drawOnOff(2, showHelp);  redrawNewBalls2(); break;convertToConfition
1938   0BBE 3A CB 17      lda showHelp
1939   0BC1 B7            ora a
1940   0BC2 D6 01         sui 1
1941   0BC4 9F            sbb a
1942   0BC5 32 CB 17      sta showHelp
1943   0BC8               ; 532 drawOnOff(2, showHelp);  redrawNewBalls2(); break;
1944   0BC8 3E 02         mvi a, 2
1945   0BCA 32 7D 19      sta drawOnOff_1
1946   0BCD 3A CB 17      lda showHelp
1947   0BD0 CD 35 10      call drawOnOff
1948   0BD3               ; 532 redrawNewBalls2(); break;
1949   0BD3 CD E0 04      call redrawNewBalls2
1950   0BD6               ; 532 break;
1951   0BD6 C3 C0 0C      jmp l173
1952   0BD9             l177:
1953   0BD9               ; 534 prepareRecordScreen();
1954   0BD9 CD 25 11      call prepareRecordScreen
1955   0BDC               ; 535 drawRecordScreen(-1);
1956   0BDC 3E FF         mvi a, 255
1957   0BDE CD CC 11      call drawRecordScreen
1958   0BE1               ; 536 getch_();
1959   0BE1 CD 0E 13      call getch_
1960   0BE4               ; 537 initGameScreen();
1961   0BE4 CD 1E 12      call initGameScreen
1962   0BE7               ; 538 if(showHelp) redrawNewBalls1();convertToConfition
1963   0BE7 3A CB 17      lda showHelp
1964   0BEA B7            ora a
1965   0BEB C4 C6 04      cnz redrawNewBalls1
1966   0BEE CD 9C 00      call drawCells
1967   0BF1               ; 540 break;
1968   0BF1 C3 C0 0C      jmp l173
1969   0BF4             l179:
1970   0BF4               ; 541 startGame(); break;
1971   0BF4 CD 24 09      call startGame
1972   0BF7               ; 541 break;
1973   0BF7 C3 C0 0C      jmp l173
1974   0BFA             l180:
1975   0BFA               ; 551 clearCursor(); if(cursorY==0) cursorY=8; else cursorY--; drawCursor(); break;
1976   0BFA CD D0 00      call clearCursor
1977   0BFD               ; 551 if(cursorY==0) cursorY=8; else cursorY--; drawCursor(); break;
1978   0BFD 3A C1 17      lda cursorY
1979   0C00 B7            ora a
1980   0C01 C2 0C 0C      jnz l181
1981   0C04               ; 551 cursorY=8; else cursorY--; drawCursor(); break;
1982   0C04 3E 08         mvi a, 8
1983   0C06 32 C1 17      sta cursorY
1984   0C09 C3 10 0C      jmp l182
1985   0C0C             l181:
1986   0C0C               ; 551 cursorY--; drawCursor(); break;
1987   0C0C 21 C1 17      lxi h, cursorY
1988   0C0F 35            dcr m
1989   0C10             l182:
1990   0C10               ; 551 drawCursor(); break;
1991   0C10 CD 71 0D      call drawCursor
1992   0C13               ; 551 break;
1993   0C13 C3 C0 0C      jmp l173
1994   0C16             l183:
1995   0C16               ; 552 clearCursor(); if(cursorY==8) cursorY=0; else cursorY++; drawCursor(); break;
1996   0C16 CD D0 00      call clearCursor
1997   0C19               ; 552 if(cursorY==8) cursorY=0; else cursorY++; drawCursor(); break;
1998   0C19 3A C1 17      lda cursorY
1999   0C1C FE 08         cpi 8
2000   0C1E C2 28 0C      jnz l184
2001   0C21               ; 552 cursorY=0; else cursorY++; drawCursor(); break;
2002   0C21 AF            xra a
2003   0C22 32 C1 17      sta cursorY
2004   0C25 C3 2C 0C      jmp l185
2005   0C28             l184:
2006   0C28               ; 552 cursorY++; drawCursor(); break;
2007   0C28 21 C1 17      lxi h, cursorY
2008   0C2B 34            inr m
2009   0C2C             l185:
2010   0C2C               ; 552 drawCursor(); break;
2011   0C2C CD 71 0D      call drawCursor
2012   0C2F               ; 552 break;
2013   0C2F C3 C0 0C      jmp l173
2014   0C32             l186:
2015   0C32               ; 553 clearCursor(); if(cursorX==0) cursorX=8; else cursorX--; drawCursor(); break;
2016   0C32 CD D0 00      call clearCursor
2017   0C35               ; 553 if(cursorX==0) cursorX=8; else cursorX--; drawCursor(); break;
2018   0C35 3A C0 17      lda cursorX
2019   0C38 B7            ora a
2020   0C39 C2 44 0C      jnz l187
2021   0C3C               ; 553 cursorX=8; else cursorX--; drawCursor(); break;
2022   0C3C 3E 08         mvi a, 8
2023   0C3E 32 C0 17      sta cursorX
2024   0C41 C3 48 0C      jmp l188
2025   0C44             l187:
2026   0C44               ; 553 cursorX--; drawCursor(); break;
2027   0C44 21 C0 17      lxi h, cursorX
2028   0C47 35            dcr m
2029   0C48             l188:
2030   0C48               ; 553 drawCursor(); break;
2031   0C48 CD 71 0D      call drawCursor
2032   0C4B               ; 553 break;
2033   0C4B C3 C0 0C      jmp l173
2034   0C4E             l189:
2035   0C4E               ; 554 clearCursor(); if(cursorX==8) cursorX=0; else cursorX++; drawCursor(); break;
2036   0C4E CD D0 00      call clearCursor
2037   0C51               ; 554 if(cursorX==8) cursorX=0; else cursorX++; drawCursor(); break;
2038   0C51 3A C0 17      lda cursorX
2039   0C54 FE 08         cpi 8
2040   0C56 C2 60 0C      jnz l190
2041   0C59               ; 554 cursorX=0; else cursorX++; drawCursor(); break;
2042   0C59 AF            xra a
2043   0C5A 32 C0 17      sta cursorX
2044   0C5D C3 64 0C      jmp l191
2045   0C60             l190:
2046   0C60               ; 554 cursorX++; drawCursor(); break;
2047   0C60 21 C0 17      lxi h, cursorX
2048   0C63 34            inr m
2049   0C64             l191:
2050   0C64               ; 554 drawCursor(); break;
2051   0C64 CD 71 0D      call drawCursor
2052   0C67               ; 554 break;
2053   0C67 C3 C0 0C      jmp l173
2054   0C6A             l192:
2055   0C6A               ; 556 if(game[cursorX][cursorY]) { if(selX!=-1) drawCell(selX, selY); selX=cursorX, selY=cursorY; break; }
2056   0C6A 2A C0 17      lhld cursorX
2057   0C6D 26 00         mvi h, 0
2058   0C6F               ; Умножение HL на 2
2059   0C6F 29            dad h
2060   0C70               ; Сложение
2061   0C70 11 5C 17      lxi d, game
2062   0C73 19            dad d
2063   0C74               ; Сложение
2064   0C74 5E            mov e, m
2065   0C75 23            inx h
2066   0C76 56            mov d, m
2067   0C77 2A C1 17      lhld cursorY
2068   0C7A 26 00         mvi h, 0
2069   0C7C 19            dad d
2070   0C7D               ; convertToConfition
2071   0C7D AF            xra a
2072   0C7E B6            ora m
2073   0C7F CA A2 0C      jz l193
2074   0C82               ; 556 if(selX!=-1) drawCell(selX, selY); selX=cursorX, selY=cursorY; break; }
2075   0C82 3A C2 17      lda selX
2076   0C85 FE FF         cpi -1
2077   0C87 CA 93 0C      jz l194
2078   0C8A               ; 556 drawCell(selX, selY); selX=cursorX, selY=cursorY; break; }
2079   0C8A 32 DE 18      sta drawCell_1
2080   0C8D 3A C3 17      lda selY
2081   0C90 CD 76 00      call drawCell
2082   0C93             l194:
2083   0C93               ; 556 selX=cursorX, selY=cursorY; break; }
2084   0C93 3A C0 17      lda cursorX
2085   0C96 32 C2 17      sta selX
2086   0C99 3A C1 17      lda cursorY
2087   0C9C 32 C3 17      sta selY
2088   0C9F               ; 556 break; }
2089   0C9F C3 C0 0C      jmp l173
2090   0CA2             l193:
2091   0CA2               ; 557 if(selX==-1) break;
2092   0CA2 3A C2 17      lda selX
2093   0CA5 FE FF         cpi -1
2094   0CA7 CA C0 0C      jz l173
2095   0CAA CD 10 08      call move
2096   0CAD               ; 559 if(gameOver) {convertToConfition
2097   0CAD 3A BF 17      lda gameOver
2098   0CB0 B7            ora a
2099   0CB1 CA BA 0C      jz l196
2100   0CB4               ; 560 recordAnimation();
2101   0CB4 CD 69 09      call recordAnimation
2102   0CB7               ; 561 startGame();
2103   0CB7 CD 24 09      call startGame
2104   0CBA             l196:
2105   0CBA               ; 563 break;        
2106   0CBA C3 C0 0C      jmp l173
2107   0CBD             l197:
2108   0CBD               ; 565 continue;
2109   0CBD C3 A5 0A      jmp l162
2110   0CC0             l173:
2111   0CC0               ; 568 keybTimeout=50;
2112   0CC0 21 32 00      lxi h, 50
2113   0CC3 22 21 19      shld main_keybTimeout
2114   0CC6 C3 A5 0A      jmp l162
2115   0CC9             l163:
2116   0CC9 C9            ret
2117   0CCA               ; --- sound -----------------------------------------------------------------
2118   0CCA             sound:
2119   0CCA 22 24 19      shld sound_2
2120   0CCD               ; 13 asm {
2121   0CCD EB              xchg
2122   0CCE             sound_l3:
2123   0CCE F3              di
2124   0CCF 3A 23 19        lda sound_1
2125   0CD2             sound_l0:
2126   0CD2 3D              dcr a 
2127   0CD3 C2 D2 0C        jnz sound_l0
2128   0CD6 FB              ei
2129   0CD7 3A 23 19        lda sound_1
2130   0CDA             sound_l1:
2131   0CDA 3D              dcr a 
2132   0CDB C2 DA 0C        jnz sound_l1
2133   0CDE 1B              dcx d
2134   0CDF 7A              mov a, d
2135   0CE0 B3              ora e
2136   0CE1 C2 CE 0C        jnz sound_l3
2137   0CE4               
2138   0CE4 C9            ret
2139   0CE5               ; --- cellAddr -----------------------------------------------------------------
2140   0CE5             cellAddr:
2141   0CE5 32 27 19      sta cellAddr_2
2142   0CE8               ; 53 return PIXELCOORDS(PLAYFIELD_X+x*3, PLAYFIELD_Y+y*20);
2143   0CE8 16 14         mvi d, 20
2144   0CEA CD 15 17      call op_mul
2145   0CED               ; Сложение
2146   0CED 11 1D 00      lxi d, 29
2147   0CF0 19            dad d
2148   0CF1               ; Сложение
2149   0CF1 11 01 C0      lxi d, 49153
2150   0CF4 19            dad d
2151   0CF5 E5            push h
2152   0CF6 16 03         mvi d, 3
2153   0CF8 3A 26 19      lda cellAddr_1
2154   0CFB CD 15 17      call op_mul
2155   0CFE               ; Сложение
2156   0CFE 11 0B 00      lxi d, 11
2157   0D01 19            dad d
2158   0D02 11 00 01      lxi d, 256
2159   0D05 CD 29 17      call op_mul16
2160   0D08               ; Сложение
2161   0D08 D1            pop d
2162   0D09 19            dad d
2163   0D0A C9            ret
2164   0D0B               ; --- drawBall1 -----------------------------------------------------------------
2165   0D0B             drawBall1:
2166   0D0B 32 35 19      sta drawBall1_4
2167   0D0E               ; 61 color = colors[c-1] | bg;
2168   0D0E 3A 34 19      lda drawBall1_3
2169   0D11 3D            dcr a
2170   0D12               ; Сложение
2171   0D12 26 00         mvi h, 0
2172   0D14 6F            mov l, a
2173   0D15 11 28 19      lxi d, colors
2174   0D18 19            dad d
2175   0D19 3A 35 19      lda drawBall1_4
2176   0D1C B6            ora m
2177   0D1D 32 A8 19      sta color
2178   0D20               ; 62 bitblt_bw(d, o, 0x20E);
2179   0D20 2A 30 19      lhld drawBall1_1
2180   0D23 22 CE 21      shld bitBlt_bw_1
2181   0D26 2A 32 19      lhld drawBall1_2
2182   0D29 22 D0 21      shld bitBlt_bw_2
2183   0D2C 21 0E 02      lxi h, 526
2184   0D2F C3 16 15      jmp bitBlt_bw
2185   0D32             drawBall:
2186   0D32 C5            push b
2187   0D33 32 3A 19      sta drawBall_4
2188   0D36               ; 66 cellAddr(x, y);<d>
2189   0D36 3A 36 19      lda drawBall_1
2190   0D39 32 26 19      sta cellAddr_1
2191   0D3C 3A 37 19      lda drawBall_2
2192   0D3F CD E5 0C      call cellAddr
2193   0D42 44            mov b, h
2194   0D43 4D            mov c, l
2195   0D44               ; 67 color = 0x70;
2196   0D44 3E 70         mvi a, 112
2197   0D46 32 A8 19      sta color
2198   0D49               ; 68 bitblt_bw(d-1, imgBalls+16*28+1, 0x20E);Сложение с константой -1
2199   0D49 2B            dcx h
2200   0D4A 22 CE 21      shld bitBlt_bw_1
2201   0D4D 21 23 38      lxi h, ((imgBalls)+(448))+(1)
2202   0D50 22 D0 21      shld bitBlt_bw_2
2203   0D53 21 0E 02      lxi h, 526
2204   0D56 CD 16 15      call bitBlt_bw
2205   0D59               ; 69 drawBall1(d, o, c, 0x70);
2206   0D59 60            mov h, b
2207   0D5A 69            mov l, c
2208   0D5B 22 30 19      shld drawBall1_1
2209   0D5E 2A 38 19      lhld drawBall_3
2210   0D61 22 32 19      shld drawBall1_2
2211   0D64 3A 3A 19      lda drawBall_4
2212   0D67 32 34 19      sta drawBall1_3
2213   0D6A 3E 70         mvi a, 112
2214   0D6C CD 0B 0D      call drawBall1
2215   0D6F C1            pop b
2216   0D70 C9            ret
2217   0D71               ; --- drawCursor -----------------------------------------------------------------
2218   0D71             drawCursor:
2219   0D71 C5            push b
2220   0D72               ; 76 cellAddr(cursorX, cursorY);<d>
2221   0D72 3A C0 17      lda cursorX
2222   0D75 32 26 19      sta cellAddr_1
2223   0D78 3A C1 17      lda cursorY
2224   0D7B CD E5 0C      call cellAddr
2225   0D7E 44            mov b, h
2226   0D7F 4D            mov c, l
2227   0D80               ; 77 bitblt(d, imgCursor, 0x202);
2228   0D80 22 C8 21      shld bitBlt_1
2229   0D83 21 82 3D      lxi h, imgCursor
2230   0D86 22 CA 21      shld bitBlt_2
2231   0D89 21 02 02      lxi h, 514
2232   0D8C CD B9 14      call bitBlt
2233   0D8F               ; 78 bitblt(d+12, imgCursor+8, 0x202);Сложение с BC
2234   0D8F 21 0C 00      lxi h, 12
2235   0D92 09            dad b
2236   0D93 22 C8 21      shld bitBlt_1
2237   0D96 21 8A 3D      lxi h, (imgCursor)+(8)
2238   0D99 22 CA 21      shld bitBlt_2
2239   0D9C 21 02 02      lxi h, 514
2240   0D9F CD B9 14      call bitBlt
2241   0DA2 C1            pop b
2242   0DA3 C9            ret
2243   0DA4               ; --- drawSprite -----------------------------------------------------------------
2244   0DA4             drawSprite:
2245   0DA4 32 3D 19      sta drawSprite_3
2246   0DA7               ; 85 if(c==0) drawBall(x, y, imgBalls+28*16, 8);
2247   0DA7 B7            ora a
2248   0DA8 C2 C5 0D      jnz l198
2249   0DAB               ; 85 drawBall(x, y, imgBalls+28*16, 8);
2250   0DAB 3A 3B 19      lda drawSprite_1
2251   0DAE 32 36 19      sta drawBall_1
2252   0DB1 3A 3C 19      lda drawSprite_2
2253   0DB4 32 37 19      sta drawBall_2
2254   0DB7 21 22 38      lxi h, (imgBalls)+(448)
2255   0DBA 22 38 19      shld drawBall_3
2256   0DBD 3E 08         mvi a, 8
2257   0DBF CD 32 0D      call drawBall
2258   0DC2 C3 DD 0D      jmp l199
2259   0DC5             l198:
2260   0DC5               ; 86 drawBall(x, y, imgBalls, c);
2261   0DC5 3A 3B 19      lda drawSprite_1
2262   0DC8 32 36 19      sta drawBall_1
2263   0DCB 3A 3C 19      lda drawSprite_2
2264   0DCE 32 37 19      sta drawBall_2
2265   0DD1 21 62 36      lxi h, imgBalls
2266   0DD4 22 38 19      shld drawBall_3
2267   0DD7 3A 3D 19      lda drawSprite_3
2268   0DDA CD 32 0D      call drawBall
2269   0DDD             l199:
2270   0DDD C9            ret
2271   0DDE               ; --- drawSpriteRemove -----------------------------------------------------------------
2272   0DDE             drawSpriteRemove:
2273   0DDE 32 4D 19      sta drawSpriteRemove_4
2274   0DE1               ; 95 drawBall(x, y, removeAnimation[n], s);
2275   0DE1 3A 4A 19      lda drawSpriteRemove_1
2276   0DE4 32 36 19      sta drawBall_1
2277   0DE7 3A 4B 19      lda drawSpriteRemove_2
2278   0DEA 32 37 19      sta drawBall_2
2279   0DED 2A 4D 19      lhld drawSpriteRemove_4
2280   0DF0 26 00         mvi h, 0
2281   0DF2               ; Умножение HL на 2
2282   0DF2 29            dad h
2283   0DF3               ; Сложение
2284   0DF3 11 3E 19      lxi d, removeAnimation
2285   0DF6 19            dad d
2286   0DF7 5E            mov e, m
2287   0DF8 23            inx h
2288   0DF9 56            mov d, m
2289   0DFA EB            xchg
2290   0DFB 22 38 19      shld drawBall_3
2291   0DFE 3A 4C 19      lda drawSpriteRemove_3
2292   0E01 C3 32 0D      jmp drawBall
2293   0E04             drawSpriteNew:
2294   0E04 32 51 19      sta drawSpriteNew_4
2295   0E07               ; 102 drawBall(x, y, imgBalls+(4-n)*28, s);
2296   0E07 3A 4E 19      lda drawSpriteNew_1
2297   0E0A 32 36 19      sta drawBall_1
2298   0E0D 3A 4F 19      lda drawSpriteNew_2
2299   0E10 32 37 19      sta drawBall_2
2300   0E13               ; Арифметика 3/4
2301   0E13 21 51 19      lxi h, drawSpriteNew_4
2302   0E16 3E 04         mvi a, 4
2303   0E18 96            sub m
2304   0E19 16 1C         mvi d, 28
2305   0E1B CD 15 17      call op_mul
2306   0E1E               ; Сложение
2307   0E1E 11 62 36      lxi d, imgBalls
2308   0E21 19            dad d
2309   0E22 22 38 19      shld drawBall_3
2310   0E25 3A 50 19      lda drawSpriteNew_3
2311   0E28 C3 32 0D      jmp drawBall
2312   0E2B             drawSpriteStep:
2313   0E2B 32 54 19      sta drawSpriteStep_3
2314   0E2E               ; 109 drawBall(x, y, imgBalls+(12+n)*28, 8);
2315   0E2E 3A 52 19      lda drawSpriteStep_1
2316   0E31 32 36 19      sta drawBall_1
2317   0E34 3A 53 19      lda drawSpriteStep_2
2318   0E37 32 37 19      sta drawBall_2
2319   0E3A 3A 54 19      lda drawSpriteStep_3
2320   0E3D C6 0C         adi 12
2321   0E3F 16 1C         mvi d, 28
2322   0E41 CD 15 17      call op_mul
2323   0E44               ; Сложение
2324   0E44 11 62 36      lxi d, imgBalls
2325   0E47 19            dad d
2326   0E48 22 38 19      shld drawBall_3
2327   0E4B 3E 08         mvi a, 8
2328   0E4D CD 32 0D      call drawBall
2329   0E50               ; 110 sound(1, 10);
2330   0E50 3E 01         mvi a, 1
2331   0E52 32 23 19      sta sound_1
2332   0E55 21 0A 00      lxi h, 10
2333   0E58 C3 CA 0C      jmp sound
2334   0E5B             drawSpriteSel:
2335   0E5B 32 6B 19      sta drawSpriteSel_5
2336   0E5E               ; 120 if(t==1) {
2337   0E5E FE 01         cpi 1
2338   0E60 C2 A7 0E      jnz l200
2339   0E63               ; 121 d = cellAddr(x, y)-1;
2340   0E63 3A 67 19      lda drawSpriteSel_1
2341   0E66 32 26 19      sta cellAddr_1
2342   0E69 3A 68 19      lda drawSpriteSel_2
2343   0E6C CD E5 0C      call cellAddr
2344   0E6F               ; Сложение с константой -1
2345   0E6F 2B            dcx h
2346   0E70 22 6C 19      shld drawSpriteSel_d
2347   0E73               ; 122 d[14] = 0;Сложение
2348   0E73 11 0E 00      lxi d, 14
2349   0E76 19            dad d
2350   0E77 36 00         mvi m, 0
2351   0E79               ; 123 d[0x100+14] = 0;  Сложение
2352   0E79 2A 6C 19      lhld drawSpriteSel_d
2353   0E7C 11 0E 01      lxi d, 270
2354   0E7F 19            dad d
2355   0E80 36 00         mvi m, 0
2356   0E82               ; 124 drawBall1(d, selAnimation[t], s, 0x70);  
2357   0E82 2A 6C 19      lhld drawSpriteSel_d
2358   0E85 22 30 19      shld drawBall1_1
2359   0E88 2A 6B 19      lhld drawSpriteSel_5
2360   0E8B 26 00         mvi h, 0
2361   0E8D               ; Умножение HL на 2
2362   0E8D 29            dad h
2363   0E8E               ; Сложение
2364   0E8E 11 55 19      lxi d, selAnimation
2365   0E91 19            dad d
2366   0E92 5E            mov e, m
2367   0E93 23            inx h
2368   0E94 56            mov d, m
2369   0E95 EB            xchg
2370   0E96 22 32 19      shld drawBall1_2
2371   0E99 3A 69 19      lda drawSpriteSel_3
2372   0E9C 32 34 19      sta drawBall1_3
2373   0E9F 3E 70         mvi a, 112
2374   0EA1 CD 0B 0D      call drawBall1
2375   0EA4 C3 CA 0E      jmp l201
2376   0EA7             l200:
2377   0EA7               ; 126 drawBall(x, y, selAnimation[t], s);  
2378   0EA7 3A 67 19      lda drawSpriteSel_1
2379   0EAA 32 36 19      sta drawBall_1
2380   0EAD 3A 68 19      lda drawSpriteSel_2
2381   0EB0 32 37 19      sta drawBall_2
2382   0EB3 2A 6B 19      lhld drawSpriteSel_5
2383   0EB6 26 00         mvi h, 0
2384   0EB8               ; Умножение HL на 2
2385   0EB8 29            dad h
2386   0EB9               ; Сложение
2387   0EB9 11 55 19      lxi d, selAnimation
2388   0EBC 19            dad d
2389   0EBD 5E            mov e, m
2390   0EBE 23            inx h
2391   0EBF 56            mov d, m
2392   0EC0 EB            xchg
2393   0EC1 22 38 19      shld drawBall_3
2394   0EC4 3A 69 19      lda drawSpriteSel_3
2395   0EC7 CD 32 0D      call drawBall
2396   0ECA             l201:
2397   0ECA               ; 129 if(c) drawCursor();convertToConfition
2398   0ECA 3A 6A 19      lda drawSpriteSel_4
2399   0ECD B7            ora a
2400   0ECE C4 71 0D      cnz drawCursor
2401   0ED1 3A 6B 19      lda drawSpriteSel_5
2402   0ED4 FE 03         cpi 3
2403   0ED6 C2 E4 0E      jnz l203
2404   0ED9               ; 131 sound(1, 10);
2405   0ED9 3E 01         mvi a, 1
2406   0EDB 32 23 19      sta sound_1
2407   0EDE 21 0A 00      lxi h, 10
2408   0EE1 CD CA 0C      call sound
2409   0EE4             l203:
2410   0EE4 C9            ret
2411   0EE5               ; --- drawScore -----------------------------------------------------------------
2412   0EE5             drawScore:
2413   0EE5 C5            push b
2414   0EE6 22 71 19      shld drawScore_2
2415   0EE9               ; 143 print1(PIXELCOORDS(40,7),2,5,scoreText);
2416   0EE9 21 08 E8      lxi h, 59400
2417   0EEC 22 B9 21      shld print1_1
2418   0EEF 3E 02         mvi a, 2
2419   0EF1 32 BB 21      sta print1_2
2420   0EF4 3E 05         mvi a, 5
2421   0EF6 32 BC 21      sta print1_3
2422   0EF9 2A 71 19      lhld drawScore_2
2423   0EFC CD A2 13      call print1
2424   0EFF               ; 145 if(score < hiScores[0].score) {
2425   0EFF 2A 6F 19      lhld drawScore_1
2426   0F02 EB            xchg
2427   0F03 2A DC 17      lhld ((hiScores)+(0))+(14)
2428   0F06 CD D1 16      call op_cmp16
2429   0F09 DA 33 0F      jc l204
2430   0F0C CA 33 0F      jz l204
2431   0F0F               ; 146 n = (score / (hiScores[0].score / 13));
2432   0F0F 11 0D 00      lxi d, 13
2433   0F12 2A DC 17      lhld ((hiScores)+(0))+(14)
2434   0F15 CD 4C 16      call op_div16
2435   0F18 EB            xchg
2436   0F19 2A 6F 19      lhld drawScore_1
2437   0F1C CD 4C 16      call op_div16
2438   0F1F 7D            mov a, l
2439   0F20 32 73 19      sta drawScore_n
2440   0F23               ; 147 if(n>13) n=13;
2441   0F23 FE 0D         cpi 13
2442   0F25 DA 30 0F      jc l205
2443   0F28 CA 30 0F      jz l205
2444   0F2B               ; 147 n=13;
2445   0F2B 3E 0D         mvi a, 13
2446   0F2D 32 73 19      sta drawScore_n
2447   0F30             l205:
2448   0F30 C3 38 0F      jmp l206
2449   0F33             l204:
2450   0F33               ; 149 n = 14;
2451   0F33 3E 0E         mvi a, 14
2452   0F35 32 73 19      sta drawScore_n
2453   0F38             l206:
2454   0F38               ; 152 if(playerSpriteTop != n) {
2455   0F38 21 73 19      lxi h, drawScore_n
2456   0F3B 3A 6E 19      lda playerSpriteTop
2457   0F3E BE            cmp m
2458   0F3F CA B0 0F      jz l207
2459   0F42               ; 153 playerSpriteTop = n;
2460   0F42 7E            mov a, m
2461   0F43 32 6E 19      sta playerSpriteTop
2462   0F46               ; 154 for(s=PIXELCOORDS(40, 167); n; --n, s-=4)
2463   0F46 01 A8 E8      lxi b, 59560
2464   0F49             l208:
2465   0F49               ; convertToConfition
2466   0F49 3A 73 19      lda drawScore_n
2467   0F4C B7            ora a
2468   0F4D CA 6C 0F      jz l209
2469   0F50               ; 155 bitBlt(s, imgPlayerD, 5*256+4);  
2470   0F50 60            mov h, b
2471   0F51 69            mov l, c
2472   0F52 22 C8 21      shld bitBlt_1
2473   0F55 21 3E 38      lxi h, imgPlayerD
2474   0F58 22 CA 21      shld bitBlt_2
2475   0F5B 21 04 05      lxi h, 1284
2476   0F5E CD B9 14      call bitBlt
2477   0F61             l210:
2478   0F61 21 73 19      lxi h, drawScore_n
2479   0F64 35            dcr m
2480   0F65               ; Сложение BC с константой -4
2481   0F65 0B            dcx b
2482   0F66 0B            dcx b
2483   0F67 0B            dcx b
2484   0F68 0B            dcx b
2485   0F69 C3 49 0F      jmp l208
2486   0F6C             l209:
2487   0F6C               ; 156 bitBlt(s-46, imgPlayer, 5*256+50);                                         Сложение с BC
2488   0F6C 21 D2 FF      lxi h, 65490
2489   0F6F 09            dad b
2490   0F70 22 C8 21      shld bitBlt_1
2491   0F73 21 66 38      lxi h, imgPlayer
2492   0F76 22 CA 21      shld bitBlt_2
2493   0F79 21 32 05      lxi h, 1330
2494   0F7C CD B9 14      call bitBlt
2495   0F7F               ; 157 if(playerSpriteTop == 14) {
2496   0F7F 3A 6E 19      lda playerSpriteTop
2497   0F82 FE 0E         cpi 14
2498   0F84 C2 B0 0F      jnz l211
2499   0F87               ; 158 bitBlt(s-50+0x200, imgPlayerWin, 3*256+16);Сложение с BC
2500   0F87 21 CE FF      lxi h, 65486
2501   0F8A 09            dad b
2502   0F8B               ; Сложение
2503   0F8B 11 00 02      lxi d, 512
2504   0F8E 19            dad d
2505   0F8F 22 C8 21      shld bitBlt_1
2506   0F92 21 5A 3A      lxi h, imgPlayerWin
2507   0F95 22 CA 21      shld bitBlt_2
2508   0F98 21 10 03      lxi h, 784
2509   0F9B CD B9 14      call bitBlt
2510   0F9E               ; 159 bitBlt(PIXELCOORDS(3, 53), imgKingLose, 6*256+62);                                         
2511   0F9E 21 36 C3      lxi h, 49974
2512   0FA1 22 C8 21      shld bitBlt_1
2513   0FA4 21 9A 3A      lxi h, imgKingLose
2514   0FA7 22 CA 21      shld bitBlt_2
2515   0FAA 21 3E 06      lxi h, 1598
2516   0FAD CD B9 14      call bitBlt
2517   0FB0             l211:
2518   0FB0             l207:
2519   0FB0 C1            pop b
2520   0FB1 C9            ret
2521   0FB2               ; --- redrawNewBalls -----------------------------------------------------------------
2522   0FB2             redrawNewBalls:
2523   0FB2 32 76 19      sta redrawNewBalls_3
2524   0FB5               ; 168 if(a==8) {
2525   0FB5 3A 74 19      lda redrawNewBalls_1
2526   0FB8 FE 08         cpi 8
2527   0FBA C2 E5 0F      jnz l212
2528   0FBD               ; 169 color = 0;
2529   0FBD AF            xra a
2530   0FBE 32 A8 19      sta color
2531   0FC1               ; 170 colorRect(PIXELCOORDS(19, 3), 0x20E);
2532   0FC1 21 04 D3      lxi h, 54020
2533   0FC4 22 D4 21      shld colorRect_1
2534   0FC7 21 0E 02      lxi h, 526
2535   0FCA CD 47 15      call colorRect
2536   0FCD               ; 171 colorRect(PIXELCOORDS(23, 3), 0x20E);
2537   0FCD 21 04 D7      lxi h, 55044
2538   0FD0 22 D4 21      shld colorRect_1
2539   0FD3 21 0E 02      lxi h, 526
2540   0FD6 CD 47 15      call colorRect
2541   0FD9               ; 172 colorRect(PIXELCOORDS(27, 3), 0x20E);
2542   0FD9 21 04 DB      lxi h, 56068
2543   0FDC 22 D4 21      shld colorRect_1
2544   0FDF 21 0E 02      lxi h, 526
2545   0FE2 C3 47 15      jmp colorRect
2546   0FE5               ; 173 return;
2547   0FE5             l212:
2548   0FE5               ; 175 drawBall1(PIXELCOORDS(19, 3), imgBalls, a, 0x70);
2549   0FE5 21 04 D3      lxi h, 54020
2550   0FE8 22 30 19      shld drawBall1_1
2551   0FEB 21 62 36      lxi h, imgBalls
2552   0FEE 22 32 19      shld drawBall1_2
2553   0FF1 3A 74 19      lda redrawNewBalls_1
2554   0FF4 32 34 19      sta drawBall1_3
2555   0FF7 3E 70         mvi a, 112
2556   0FF9 CD 0B 0D      call drawBall1
2557   0FFC               ; 176 drawBall1(PIXELCOORDS(23, 3), imgBalls, b, 0x70);
2558   0FFC 21 04 D7      lxi h, 55044
2559   0FFF 22 30 19      shld drawBall1_1
2560   1002 21 62 36      lxi h, imgBalls
2561   1005 22 32 19      shld drawBall1_2
2562   1008 3A 75 19      lda redrawNewBalls_2
2563   100B 32 34 19      sta drawBall1_3
2564   100E 3E 70         mvi a, 112
2565   1010 CD 0B 0D      call drawBall1
2566   1013               ; 177 drawBall1(PIXELCOORDS(27, 3), imgBalls, c, 0x70);
2567   1013 21 04 DB      lxi h, 56068
2568   1016 22 30 19      shld drawBall1_1
2569   1019 21 62 36      lxi h, imgBalls
2570   101C 22 32 19      shld drawBall1_2
2571   101F 3A 76 19      lda redrawNewBalls_3
2572   1022 32 34 19      sta drawBall1_3
2573   1025 3E 70         mvi a, 112
2574   1027 C3 0B 0D      jmp drawBall1
2575   102A             redrawNewBallsOff:
2576   102A 3E 08         mvi a, 8
2577   102C 32 74 19      sta redrawNewBalls_1
2578   102F 32 75 19      sta redrawNewBalls_2
2579   1032 C3 B2 0F      jmp redrawNewBalls
2580   1035             drawOnOff:
2581   1035 32 7E 19      sta drawOnOff_2
2582   1038               ; 194 onOff[n];<d>
2583   1038 2A 7D 19      lhld drawOnOff_1
2584   103B 26 00         mvi h, 0
2585   103D               ; Умножение HL на 2
2586   103D 29            dad h
2587   103E               ; Сложение
2588   103E 11 77 19      lxi d, onOff
2589   1041 19            dad d
2590   1042 5E            mov e, m
2591   1043 23            inx h
2592   1044 56            mov d, m
2593   1045 EB            xchg
2594   1046 22 80 19      shld drawOnOff_d
2595   1049               ; 195 if(state) color = 10; else color = 7;convertToConfition
2596   1049 B7            ora a
2597   104A CA 55 10      jz l213
2598   104D               ; 195 color = 10; else color = 7;
2599   104D 3E 0A         mvi a, 10
2600   104F 32 A8 19      sta color
2601   1052 C3 5A 10      jmp l214
2602   1055             l213:
2603   1055               ; 195 color = 7;
2604   1055 3E 07         mvi a, 7
2605   1057 32 A8 19      sta color
2606   105A             l214:
2607   105A               ; 196 colorRect(d, 0x408);
2608   105A 2A 80 19      lhld drawOnOff_d
2609   105D 22 D4 21      shld colorRect_1
2610   1060 21 08 04      lxi h, 1032
2611   1063 C3 47 15      jmp colorRect
2612   1066             soundJumpSel:
2613   1066 C9            ret
2614   1067               ; --- delay -----------------------------------------------------------------
2615   1067             delay:
2616   1067 32 82 19      sta delay_1
2617   106A               ; 210 while(--a) {
2618   106A             l215:
2619   106A 21 82 19      lxi h, delay_1
2620   106D 35            dcr m
2621   106E               ; convertToConfition
2622   106E CA 83 10      jz l216
2623   1071               ; 211 i = 64;
2624   1071 3E 40         mvi a, 64
2625   1073 32 83 19      sta delay_i
2626   1076               ; 212 while(--i);
2627   1076             l217:
2628   1076 21 83 19      lxi h, delay_i
2629   1079 35            dcr m
2630   107A               ; convertToConfition
2631   107A CA 80 10      jz l218
2632   107D C3 76 10      jmp l217
2633   1080             l218:
2634   1080 C3 6A 10      jmp l215
2635   1083             l216:
2636   1083 C9            ret
2637   1084               ; --- soundBadMove -----------------------------------------------------------------
2638   1084             soundBadMove:
2639   1084 3E FF         mvi a, 255
2640   1086 32 23 19      sta sound_1
2641   1089 21 0A 00      lxi h, 10
2642   108C CD CA 0C      call sound
2643   108F               ; 221 delay(128);
2644   108F 3E 80         mvi a, 128
2645   1091 CD 67 10      call delay
2646   1094               ; 222 sound(255, 10);
2647   1094 3E FF         mvi a, 255
2648   1096 32 23 19      sta sound_1
2649   1099 21 0A 00      lxi h, 10
2650   109C CD CA 0C      call sound
2651   109F               ; 223 delay(128);
2652   109F 3E 80         mvi a, 128
2653   10A1 C3 67 10      jmp delay
2654   10A4             intro:
2655   10A4 21 00 F8      lxi h, 63488
2656   10A7 36 06         mvi m, 6
2657   10A9               ; 239 himem();  
2658   10A9 CD AB 14      call himem
2659   10AC               ; 240 color = 0;
2660   10AC AF            xra a
2661   10AD 32 A8 19      sta color
2662   10B0               ; 241 colorRect(PIXELCOORDS(0,0), 0x3000);
2663   10B0 21 01 C0      lxi h, 49153
2664   10B3 22 D4 21      shld colorRect_1
2665   10B6 21 00 30      lxi h, 12288
2666   10B9 CD 47 15      call colorRect
2667   10BC               ; 244 unmlz((uchar*)0xC000, imgTitle);
2668   10BC 21 00 C0      lxi h, 49152
2669   10BF 22 D8 21      shld unmlz_1
2670   10C2 21 66 22      lxi h, imgTitle
2671   10C5 CD 6F 15      call unmlz
2672   10C8               ; 247 unmlz((uchar*)COLOR_BUFFER, imgTitle_colors);
2673   10C8 21 00 80      lxi h, 32768
2674   10CB 22 D8 21      shld unmlz_1
2675   10CE 21 DB 2D      lxi h, imgTitle_colors
2676   10D1 CD 6F 15      call unmlz
2677   10D4               ; 250 himem();  
2678   10D4 CD AB 14      call himem
2679   10D7               ; 251 colorizer_rand();    
2680   10D7 CD EA 14      call colorizer_rand
2681   10DA               ; 254 p = music;
2682   10DA 21 DC 21      lxi h, music
2683   10DD 22 84 19      shld intro_p
2684   10E0               ; 255 while(1) {
2685   10E0             l219:
2686   10E0               ; 256 s = *p; ++p;
2687   10E0 2A 84 19      lhld intro_p
2688   10E3 7E            mov a, m
2689   10E4 32 86 19      sta intro_s
2690   10E7               ; 256 ++p;
2691   10E7 23            inx h
2692   10E8 23            inx h
2693   10E9 22 84 19      shld intro_p
2694   10EC               ; 257 if(s==0) { while(bioskey()==0xFF); break; }
2695   10EC B7            ora a
2696   10ED C2 FE 10      jnz l221
2697   10F0               ; 257 while(bioskey()==0xFF); break; }
2698   10F0             l222:
2699   10F0 CD 1B F8      call 63515
2700   10F3 FE FF         cpi 255
2701   10F5 C2 FB 10      jnz l223
2702   10F8 C3 F0 10      jmp l222
2703   10FB             l223:
2704   10FB               ; 257 break; }
2705   10FB C3 24 11      jmp l220
2706   10FE             l221:
2707   10FE               ; 258 if(bioskey()!=0xFF) break;
2708   10FE CD 1B F8      call 63515
2709   1101 FE FF         cpi 255
2710   1103 C2 24 11      jnz l220
2711   1106 3A 86 19      lda intro_s
2712   1109 32 23 19      sta sound_1
2713   110C 2A 84 19      lhld intro_p
2714   110F 5E            mov e, m
2715   1110 23            inx h
2716   1111 56            mov d, m
2717   1112 EB            xchg
2718   1113 CD CA 0C      call sound
2719   1116               ; 259 ++p;
2720   1116 2A 84 19      lhld intro_p
2721   1119 23            inx h
2722   111A 23            inx h
2723   111B 22 84 19      shld intro_p
2724   111E               ; 260 rand();
2725   111E CD 87 16      call rand
2726   1121 C3 E0 10      jmp l219
2727   1124             l220:
2728   1124 C9            ret
2729   1125               ; --- prepareRecordScreen -----------------------------------------------------------------
2730   1125             prepareRecordScreen:
2731   1125 21 00 80      lxi h, 32768
2732   1128 22 96 3D      shld memset_1
2733   112B AF            xra a
2734   112C 32 98 3D      sta memset_2
2735   112F 21 51 0A      lxi h, 2641
2736   1132 CD D7 16      call memset
2737   1135               ; 269 color = 0x0E;
2738   1135 3E 0E         mvi a, 14
2739   1137 32 A8 19      sta color
2740   113A               ; 270 bitblt_bw(PIXELCOORDS(112/8, PLAYFIELD_Y+17), (uchar*)COLOR_BUFFER, 0x138B);
2741   113A 21 2F CE      lxi h, 52783
2742   113D 22 CE 21      shld bitBlt_bw_1
2743   1140 21 00 80      lxi h, 32768
2744   1143 22 D0 21      shld bitBlt_bw_2
2745   1146 21 8B 13      lxi h, 5003
2746   1149 C3 16 15      jmp bitBlt_bw
2747   114C             drawRecordScreen1:
2748   114C 32 88 19      sta drawRecordScreen1_2
2749   114F               ; 281 for(h=hiScores+i; i<9; ++i, ++h) {
2750   114F 2A 87 19      lhld drawRecordScreen1_1
2751   1152 26 00         mvi h, 0
2752   1154               ; Умножение HL на 16
2753   1154 29            dad h
2754   1155 29            dad h
2755   1156 29            dad h
2756   1157 29            dad h
2757   1158               ; Сложение
2758   1158 11 CE 17      lxi d, hiScores
2759   115B 19            dad d
2760   115C 22 89 19      shld drawRecordScreen1_h
2761   115F             l225:
2762   115F 3A 87 19      lda drawRecordScreen1_1
2763   1162 FE 09         cpi 9
2764   1164 D2 CB 11      jnc l226
2765   1167               ; 284 memcpy(buf, "             ", 14);
2766   1167 21 8C 19      lxi h, drawRecordScreen1_buf
2767   116A 22 9B 3D      shld memcpy_1
2768   116D 21 A3 3D      lxi h, string9
2769   1170 22 9D 3D      shld memcpy_2
2770   1173 21 0E 00      lxi h, 14
2771   1176 CD F1 16      call memcpy
2772   1179               ; 285 memcpy(buf, h->name, strlen(h->name));
2773   1179 21 8C 19      lxi h, drawRecordScreen1_buf
2774   117C 22 9B 3D      shld memcpy_1
2775   117F 2A 89 19      lhld drawRecordScreen1_h
2776   1182 22 9D 3D      shld memcpy_2
2777   1185 2A 89 19      lhld drawRecordScreen1_h
2778   1188 CD 4D 17      call strlen
2779   118B CD F1 16      call memcpy
2780   118E               ; 286 i2s(buf+8, h->score);
2781   118E 21 94 19      lxi h, (drawRecordScreen1_buf)+(8)
2782   1191 22 D3 18      shld i2s_1
2783   1194               ; Сложение
2784   1194 2A 89 19      lhld drawRecordScreen1_h
2785   1197 11 0E 00      lxi d, 14
2786   119A 19            dad d
2787   119B 5E            mov e, m
2788   119C 23            inx h
2789   119D 56            mov d, m
2790   119E EB            xchg
2791   119F CD 03 00      call i2s
2792   11A2               ; 288 print(25, 7+i, 14, buf);
2793   11A2 3E 19         mvi a, 25
2794   11A4 32 C3 21      sta print_1
2795   11A7 3A 87 19      lda drawRecordScreen1_1
2796   11AA C6 07         adi 7
2797   11AC 32 C4 21      sta print_2
2798   11AF 3E 0E         mvi a, 14
2799   11B1 32 C5 21      sta print_3
2800   11B4 21 8C 19      lxi h, drawRecordScreen1_buf
2801   11B7 CD 6E 14      call print
2802   11BA             l227:
2803   11BA 21 87 19      lxi h, drawRecordScreen1_1
2804   11BD 34            inr m
2805   11BE 2A 89 19      lhld drawRecordScreen1_h
2806   11C1 11 10 00      lxi d, 16
2807   11C4 19            dad d
2808   11C5 22 89 19      shld drawRecordScreen1_h
2809   11C8 C3 5F 11      jmp l225
2810   11CB             l226:
2811   11CB C9            ret
2812   11CC               ; --- drawRecordScreen -----------------------------------------------------------------
2813   11CC             drawRecordScreen:
2814   11CC 32 9A 19      sta drawRecordScreen_1
2815   11CF               ; 294 drawRecordScreen1(0, pos);
2816   11CF AF            xra a
2817   11D0 32 87 19      sta drawRecordScreen1_1
2818   11D3 3A 9A 19      lda drawRecordScreen_1
2819   11D6 C3 4C 11      jmp drawRecordScreen1
2820   11D9             drawRecordLastLine:
2821   11D9 3E 08         mvi a, 8
2822   11DB 32 87 19      sta drawRecordScreen1_1
2823   11DE C3 4C 11      jmp drawRecordScreen1
2824   11E1             updateTopScore:
2825   11E1 21 9B 19      lxi h, updateTopScore_buf
2826   11E4 22 D3 18      shld i2s_1
2827   11E7 2A DC 17      lhld ((hiScores)+(0))+(14)
2828   11EA CD 03 00      call i2s
2829   11ED               ; 312 color = 12;
2830   11ED 3E 0C         mvi a, 12
2831   11EF 32 A8 19      sta color
2832   11F2               ; 313 print1(PIXELCOORDS(3,7),1,5,buf);
2833   11F2 21 08 C3      lxi h, 49928
2834   11F5 22 B9 21      shld print1_1
2835   11F8 3E 01         mvi a, 1
2836   11FA 32 BB 21      sta print1_2
2837   11FD 3E 05         mvi a, 5
2838   11FF 32 BC 21      sta print1_3
2839   1202 21 9B 19      lxi h, updateTopScore_buf
2840   1205 CD A2 13      call print1
2841   1208               ; 316 print1(PRINTARGS(5,19),7|0x80,hiScores[0].name);
2842   1208 21 BF C3      lxi h, 50111
2843   120B 22 B9 21      shld print1_1
2844   120E 3E 01         mvi a, 1
2845   1210 32 BB 21      sta print1_2
2846   1213 3E 87         mvi a, 135
2847   1215 32 BC 21      sta print1_3
2848   1218 21 CE 17      lxi h, (hiScores)+(0)
2849   121B C3 A2 13      jmp print1
2850   121E             initGameScreen:
2851   121E 21 00 80      lxi h, 32768
2852   1221 22 96 3D      shld memset_1
2853   1224 AF            xra a
2854   1225 32 98 3D      sta memset_2
2855   1228 26 30         mvi h, 48
2856   122A CD D7 16      call memset
2857   122D               ; 327 colorizer_rand();    
2858   122D CD EA 14      call colorizer_rand
2859   1230               ; 330 unmlz((uchar*)0xC000, imgScreen);
2860   1230 21 00 C0      lxi h, 49152
2861   1233 22 D8 21      shld unmlz_1
2862   1236 21 BA 30      lxi h, imgScreen
2863   1239 CD 6F 15      call unmlz
2864   123C               ; 333 unmlz((uchar*)COLOR_BUFFER, imgScreen_colors);  
2865   123C 21 00 80      lxi h, 32768
2866   123F 22 D8 21      shld unmlz_1
2867   1242 21 99 34      lxi h, imgScreen_colors
2868   1245 CD 6F 15      call unmlz
2869   1248               ; 336 himem();
2870   1248 CD AB 14      call himem
2871   124B               ; 337 colorizer_rand();
2872   124B CD EA 14      call colorizer_rand
2873   124E               ; 340 print(56,19,8,"‚›");  
2874   124E 3E 38         mvi a, 56
2875   1250 32 C3 21      sta print_1
2876   1253 3E 13         mvi a, 19
2877   1255 32 C4 21      sta print_2
2878   1258 3E 08         mvi a, 8
2879   125A 32 C5 21      sta print_3
2880   125D 21 EA 3D      lxi h, string10
2881   1260 CD 6E 14      call print
2882   1263               ; 341 updateTopScore();
2883   1263 CD E1 11      call updateTopScore
2884   1266               ; 342 playerSpriteTop = -1;
2885   1266 3E FF         mvi a, 255
2886   1268 32 6E 19      sta playerSpriteTop
2887   126B               ; 343 drawScore1();
2888   126B CD 5A 00      call drawScore1
2889   126E               ; 344 if(!showPath ) drawOnOff(0, 0);convertToConfition
2890   126E 3A C9 17      lda showPath
2891   1271 B7            ora a
2892   1272 C2 7C 12      jnz l228
2893   1275               ; 344 drawOnOff(0, 0);
2894   1275 AF            xra a
2895   1276 32 7D 19      sta drawOnOff_1
2896   1279 CD 35 10      call drawOnOff
2897   127C             l228:
2898   127C               ; 345 if(!playSound) drawOnOff(1, 0);convertToConfition
2899   127C 3A CA 17      lda playSound
2900   127F B7            ora a
2901   1280 C2 8C 12      jnz l229
2902   1283               ; 345 drawOnOff(1, 0);
2903   1283 3E 01         mvi a, 1
2904   1285 32 7D 19      sta drawOnOff_1
2905   1288 AF            xra a
2906   1289 CD 35 10      call drawOnOff
2907   128C             l229:
2908   128C               ; 346 if(!showHelp ) drawOnOff(2, 0);convertToConfition
2909   128C 3A CB 17      lda showHelp
2910   128F B7            ora a
2911   1290 C2 9C 12      jnz l230
2912   1293               ; 346 drawOnOff(2, 0);
2913   1293 3E 02         mvi a, 2
2914   1295 32 7D 19      sta drawOnOff_1
2915   1298 AF            xra a
2916   1299 CD 35 10      call drawOnOff
2917   129C             l230:
2918   129C C9            ret
2919   129D               ; --- translate -----------------------------------------------------------------
2920   129D             translate:
2921   129D 32 A7 19      sta translate_1
2922   12A0               ; 350 switch(k) {
2923   12A0 B7            ora a
2924   12A1 CA DE 12      jz l232
2925   12A4 FE 01         cpi 1
2926   12A6 CA E1 12      jz l233
2927   12A9 FE 02         cpi 2
2928   12AB CA E4 12      jz l234
2929   12AE FE 03         cpi 3
2930   12B0 CA E7 12      jz l235
2931   12B3 FE 04         cpi 4
2932   12B5 CA EA 12      jz l236
2933   12B8 FE 19         cpi 25
2934   12BA CA ED 12      jz l237
2935   12BD FE 1A         cpi 26
2936   12BF CA F0 12      jz l238
2937   12C2 FE 08         cpi 8
2938   12C4 CA F3 12      jz l239
2939   12C7 FE 18         cpi 24
2940   12C9 CA F6 12      jz l240
2941   12CC FE 0D         cpi 13
2942   12CE CA F9 12      jz l241
2943   12D1 FE 7F         cpi 127
2944   12D3 CA FC 12      jz l242
2945   12D6 FE FF         cpi 255
2946   12D8 CA FF 12      jz l243
2947   12DB C3 02 13      jmp l244
2948   12DE             l232:
2949   12DE               ; 351 return K_PATH;
2950   12DE 3E 01         mvi a, 1
2951   12E0 C9            ret
2952   12E1             l233:
2953   12E1               ; 352 return K_SOUND;
2954   12E1 3E 02         mvi a, 2
2955   12E3 C9            ret
2956   12E4             l234:
2957   12E4               ; 353 return K_HELP;
2958   12E4 3E 03         mvi a, 3
2959   12E6 C9            ret
2960   12E7             l235:
2961   12E7               ; 354 return K_RECORD;
2962   12E7 3E 04         mvi a, 4
2963   12E9 C9            ret
2964   12EA             l236:
2965   12EA               ; 355 return K_NEW;
2966   12EA 3E 05         mvi a, 5
2967   12EC C9            ret
2968   12ED             l237:
2969   12ED               ; 356 return K_UP;
2970   12ED 3E 19         mvi a, 25
2971   12EF C9            ret
2972   12F0             l238:
2973   12F0               ; 357 return K_DOWN;
2974   12F0 3E 1A         mvi a, 26
2975   12F2 C9            ret
2976   12F3             l239:
2977   12F3               ; 358 return K_LEFT;
2978   12F3 3E 08         mvi a, 8
2979   12F5 C9            ret
2980   12F6             l240:
2981   12F6               ; 359 return K_RIGHT;
2982   12F6 3E 18         mvi a, 24
2983   12F8 C9            ret
2984   12F9             l241:
2985   12F9               ; 360 return K_ENTER;
2986   12F9 3E 0D         mvi a, 13
2987   12FB C9            ret
2988   12FC             l242:
2989   12FC               ; 361 return K_LEFT;
2990   12FC 3E 08         mvi a, 8
2991   12FE C9            ret
2992   12FF             l243:
2993   12FF               ; 362 return 255;
2994   12FF 3E FF         mvi a, 255
2995   1301 C9            ret
2996   1302             l244:
2997   1302               ; 364 if(k >= ' ') return k;
2998   1302 3A A7 19      lda translate_1
2999   1305 FE 20         cpi 32
3000   1307 DA 0B 13      jc l245
3001   130A               ; 364 return k;
3002   130A C9            ret
3003   130B             l245:
3004   130B               ; 365 return 0;
3005   130B AF            xra a
3006   130C C9            ret
3007   130D             l231:
3008   130D C9            ret
3009   130E               ; --- getch_ -----------------------------------------------------------------
3010   130E             getch_:
3011   130E CD 03 F8      call 63491
3012   1311 C3 9D 12      jmp translate
3013   1314 C9            ret
3014   1315               ; --- bioskey_ -----------------------------------------------------------------
3015   1315             bioskey_:
3016   1315 CD 1B F8      call 63515
3017   1318 C3 9D 12      jmp translate
3018   131B C9            ret
3019   131C               ; --- print_p1 -----------------------------------------------------------------
3020   131C             print_p1:
3021   131C EB              XCHG
3022   131D 2A A9 21        LHLD print_p1_1
3023   1320 C5              PUSH B
3024   1321 0E 08           MVI C, 8
3025   1323             print1_l:
3026   1323 1A              LDAX D
3027   1324             print_mode1A:
3028   1324 00              NOP
3029   1325 87              ADD A
3030   1326 87              ADD A
3031   1327 47              MOV B, A
3032   1328 7E              MOV A, M
3033   1329             print_mode1:
3034   1329 E6 03           ANI 3
3035   132B A8              XRA B
3036   132C 77              MOV M, A
3037   132D             
3038   132D 13              INX D
3039   132E 23              INX H
3040   132F 0D              DCR C
3041   1330 C2 23 13        JNZ print1_l
3042   1333 C1              POP B
3043   1334               
3044   1334 C9            ret
3045   1335               ; --- print_p2 -----------------------------------------------------------------
3046   1335             print_p2:
3047   1335 EB              XCHG
3048   1336 2A AD 21        LHLD print_p2_1
3049   1339 C5              PUSH B
3050   133A 0E 08           MVI C, 8
3051   133C             print2_l:
3052   133C 1A              LDAX D    
3053   133D             print_mode2A:
3054   133D 00              NOP
3055   133E 87              ADD A
3056   133F 8F              ADC A
3057   1340 8F              ADC A
3058   1341 8F              ADC A
3059   1342 F5              PUSH PSW
3060   1343 8F              ADC A
3061   1344 E6 03           ANI 00000011b
3062   1346 47              MOV B, A
3063   1347 7E              MOV A, M
3064   1348             print_mode2:
3065   1348 E6 FC           ANI 0FCh
3066   134A A8              XRA B
3067   134B 77              MOV M, A
3068   134C             
3069   134C 24              INR H
3070   134D             
3071   134D F1              POP PSW
3072   134E E6 F0           ANI 011110000b
3073   1350 47              MOV B, A
3074   1351 7E              MOV A, M
3075   1352             print_mode3:
3076   1352 E6 0F           ANI 00Fh
3077   1354 A8              XRA B
3078   1355 77              MOV M, A
3079   1356             
3080   1356 25              DCR H
3081   1357             
3082   1357 13              INX D
3083   1358 23              INX H
3084   1359 0D              DCR C
3085   135A C2 3C 13        JNZ print2_l
3086   135D             
3087   135D C1              POP B
3088   135E               
3089   135E C9            ret
3090   135F               ; --- print_p3 -----------------------------------------------------------------
3091   135F             print_p3:
3092   135F EB              XCHG
3093   1360 2A B1 21        LHLD print_p3_1
3094   1363 C5              PUSH B
3095   1364 0E 08           MVI C, 8
3096   1366             print3_l:
3097   1366 1A              LDAX D    
3098   1367             print_mode3A:
3099   1367 00              NOP
3100   1368 1F              RAR
3101   1369 1F              RAR
3102   136A E6 0F           ANI 00001111b
3103   136C 47              MOV B, A
3104   136D 7E              MOV A, M
3105   136E             print_mode4:
3106   136E E6 F0           ANI 0F0h
3107   1370 A8              XRA B
3108   1371 77              MOV M, A
3109   1372             
3110   1372 24              INR H
3111   1373             
3112   1373 1A              LDAX D    
3113   1374             print_mode4A:
3114   1374 00              NOP
3115   1375 1F              RAR
3116   1376 1F              RAR
3117   1377 1F              RAR
3118   1378 E6 C0           ANI 11000000b
3119   137A 47              MOV B, A
3120   137B 7E              MOV A, M
3121   137C             print_mode5:
3122   137C E6 3F           ANI 03Fh
3123   137E A8              XRA B
3124   137F 77              MOV M, A
3125   1380             
3126   1380 25              DCR H
3127   1381             
3128   1381 13              INX D
3129   1382 23              INX H
3130   1383 0D              DCR C
3131   1384 C2 66 13        JNZ print3_l
3132   1387             
3133   1387 C1              POP B
3134   1388               
3135   1388 C9            ret
3136   1389               ; --- print_p4 -----------------------------------------------------------------
3137   1389             print_p4:
3138   1389 EB              XCHG
3139   138A 2A B5 21        LHLD print_p4_1
3140   138D C5              PUSH B
3141   138E 0E 08           MVI C, 8
3142   1390             print4_l:
3143   1390 1A              LDAX D    
3144   1391             print_mode5A:
3145   1391 00              NOP
3146   1392 E6 3F           ANI 03Fh
3147   1394 47              MOV B, A
3148   1395 7E              MOV A, M
3149   1396             print_mode6:
3150   1396 E6 C0           ANI 0C0h
3151   1398 A8              XRA B
3152   1399 77              MOV M, A
3153   139A 13              INX D
3154   139B 23              INX H
3155   139C 0D              DCR C
3156   139D C2 90 13        JNZ print4_l
3157   13A0 C1              POP B
3158   13A1               
3159   13A1 C9            ret
3160   13A2               ; --- print1 -----------------------------------------------------------------
3161   13A2             print1:
3162   13A2 22 BD 21      shld print1_4
3163   13A5               ; 285 e = n&0x80; n&=0x7F;
3164   13A5 3A BC 21      lda print1_3
3165   13A8 E6 80         ani 128
3166   13AA 32 C2 21      sta print1_e
3167   13AD               ; 285 n&=0x7F;
3168   13AD 3A BC 21      lda print1_3
3169   13B0 E6 7F         ani 127
3170   13B2 32 BC 21      sta print1_3
3171   13B5               ; 286 while(1) { 
3172   13B5             l246:
3173   13B5               ; 287 if(n == 0) return;     
3174   13B5 3A BC 21      lda print1_3
3175   13B8 B7            ora a
3176   13B9 C2 BD 13      jnz l248
3177   13BC               ; 287 return;     
3178   13BC C9            ret
3179   13BD             l248:
3180   13BD               ; 288 c = *text;
3181   13BD 2A BD 21      lhld print1_4
3182   13C0 7E            mov a, m
3183   13C1 32 C1 21      sta print1_c
3184   13C4               ; 289 if(c) ++text; else if(!e) return;convertToConfition
3185   13C4 B7            ora a
3186   13C5 CA CF 13      jz l249
3187   13C8               ; 289 ++text; else if(!e) return;
3188   13C8 23            inx h
3189   13C9 22 BD 21      shld print1_4
3190   13CC C3 D7 13      jmp l250
3191   13CF             l249:
3192   13CF               ; 289 if(!e) return;convertToConfition
3193   13CF 3A C2 21      lda print1_e
3194   13D2 B7            ora a
3195   13D3 C2 D7 13      jnz l251
3196   13D6               ; 289 return;
3197   13D6 C9            ret
3198   13D7             l251:
3199   13D7             l250:
3200   13D7               ; 290 s = chargen + c*8;
3201   13D7 2A C1 21      lhld print1_c
3202   13DA 26 00         mvi h, 0
3203   13DC               ; Умножение HL на 8
3204   13DC 29            dad h
3205   13DD 29            dad h
3206   13DE 29            dad h
3207   13DF               ; Сложение
3208   13DF 11 A9 19      lxi d, chargen
3209   13E2 19            dad d
3210   13E3 22 BF 21      shld print1_s
3211   13E6               ; 291 switch(st) {
3212   13E6 3A BB 21      lda print1_2
3213   13E9 B7            ora a
3214   13EA CA FF 13      jz l253
3215   13ED FE 01         cpi 1
3216   13EF CA 12 14      jz l254
3217   13F2 FE 02         cpi 2
3218   13F4 CA 2F 14      jz l255
3219   13F7 FE 03         cpi 3
3220   13F9 CA 4C 14      jz l256
3221   13FC C3 66 14      jmp l252
3222   13FF             l253:
3223   13FF               ; 292 print_p1(d, s); ++st; break;
3224   13FF 2A B9 21      lhld print1_1
3225   1402 22 A9 21      shld print_p1_1
3226   1405 2A BF 21      lhld print1_s
3227   1408 CD 1C 13      call print_p1
3228   140B               ; 292 ++st; break;
3229   140B 21 BB 21      lxi h, print1_2
3230   140E 34            inr m
3231   140F               ; 292 break;
3232   140F C3 66 14      jmp l252
3233   1412             l254:
3234   1412               ; 293 print_p2(d, s); ++st; d += 0x100; break;
3235   1412 2A B9 21      lhld print1_1
3236   1415 22 AD 21      shld print_p2_1
3237   1418 2A BF 21      lhld print1_s
3238   141B CD 35 13      call print_p2
3239   141E               ; 293 ++st; d += 0x100; break;
3240   141E 21 BB 21      lxi h, print1_2
3241   1421 34            inr m
3242   1422               ; 293 d += 0x100; break;Сложение
3243   1422 11 00 01      lxi d, 256
3244   1425 2A B9 21      lhld print1_1
3245   1428 19            dad d
3246   1429 22 B9 21      shld print1_1
3247   142C               ; 293 break;
3248   142C C3 66 14      jmp l252
3249   142F             l255:
3250   142F               ; 294 print_p3(d, s); ++st; d += 0x100; break;
3251   142F 2A B9 21      lhld print1_1
3252   1432 22 B1 21      shld print_p3_1
3253   1435 2A BF 21      lhld print1_s
3254   1438 CD 5F 13      call print_p3
3255   143B               ; 294 ++st; d += 0x100; break;
3256   143B 21 BB 21      lxi h, print1_2
3257   143E 34            inr m
3258   143F               ; 294 d += 0x100; break;Сложение
3259   143F 11 00 01      lxi d, 256
3260   1442 2A B9 21      lhld print1_1
3261   1445 19            dad d
3262   1446 22 B9 21      shld print1_1
3263   1449               ; 294 break;
3264   1449 C3 66 14      jmp l252
3265   144C             l256:
3266   144C               ; 295 print_p4(d, s); st=0; d += 0x100; break;
3267   144C 2A B9 21      lhld print1_1
3268   144F 22 B5 21      shld print_p4_1
3269   1452 2A BF 21      lhld print1_s
3270   1455 CD 89 13      call print_p4
3271   1458               ; 295 st=0; d += 0x100; break;
3272   1458 AF            xra a
3273   1459 32 BB 21      sta print1_2
3274   145C               ; 295 d += 0x100; break;Сложение
3275   145C 11 00 01      lxi d, 256
3276   145F 2A B9 21      lhld print1_1
3277   1462 19            dad d
3278   1463 22 B9 21      shld print1_1
3279   1466               ; 295 break;
3280   1466             l252:
3281   1466               ; 297 --n;
3282   1466 21 BC 21      lxi h, print1_3
3283   1469 35            dcr m
3284   146A C3 B5 13      jmp l246
3285   146D             l247:
3286   146D C9            ret
3287   146E               ; --- print -----------------------------------------------------------------
3288   146E             print:
3289   146E 22 C6 21      shld print_4
3290   1471               ; 302 print1(PRINTARGS(x, y), n, text);
3291   1471 16 0A         mvi d, 10
3292   1473 3A C4 21      lda print_2
3293   1476 CD 15 17      call op_mul
3294   1479               ; Сложение
3295   1479 11 01 C0      lxi d, 49153
3296   147C 19            dad d
3297   147D E5            push h
3298   147E 16 03         mvi d, 3
3299   1480 3A C3 21      lda print_1
3300   1483 CD 15 17      call op_mul
3301   1486 11 04 00      lxi d, 4
3302   1489 CD 4C 16      call op_div16
3303   148C 11 00 01      lxi d, 256
3304   148F CD 29 17      call op_mul16
3305   1492               ; Сложение
3306   1492 D1            pop d
3307   1493 19            dad d
3308   1494 22 B9 21      shld print1_1
3309   1497 3A C3 21      lda print_1
3310   149A E6 03         ani 3
3311   149C 32 BB 21      sta print1_2
3312   149F 3A C5 21      lda print_3
3313   14A2 32 BC 21      sta print1_3
3314   14A5 2A C6 21      lhld print_4
3315   14A8 C3 A2 13      jmp print1
3316   14AB             himem:
3317   14AB 21 B9 14        lxi h, bitBlt
3318   14AE 11 00 F0        lxi d, 0F000h
3319   14B1             initSpec:
3320   14B1 7E              mov a, m
3321   14B2 23              inx h
3322   14B3 12              stax d
3323   14B4 1C              inr e
3324   14B5 C2 B1 14        jnz initSpec
3325   14B8               
3326   14B8 C9            ret
3327   14B9               ; --- bitBlt -----------------------------------------------------------------
3328   14B9             bitBlt:
3329   14B9 22 CC 21      shld bitBlt_3
3330   14BC               ; 322 asm {
3331   14BC C3 06 F0        jmp bitBlt_himem - bitBlt + 0F000h
3332   14BF             bitBlt_himem:
3333   14BF C5              push b
3334   14C0                 ; lhld bitBlt_3
3335   14C0 44              mov b, h
3336   14C1 4D              mov c, l
3337   14C2 2A C8 21        lhld bitBlt_1
3338   14C5 EB              xchg    
3339   14C6 2A CA 21        lhld bitBlt_2
3340   14C9             bitBlt_l1:
3341   14C9 D5              push d
3342   14CA C5              push b                        
3343   14CB             bitBlt_l2:
3344   14CB 46              mov b, m
3345   14CC 23              inx h
3346   14CD 3E 01           mvi a, 1
3347   14CF 32 00 F9        sta 0F900H
3348   14D2 78              mov a, b
3349   14D3 12              stax d
3350   14D4 AF              xra a
3351   14D5 32 00 F9        sta 0F900H
3352   14D8 7E              mov a, m
3353   14D9 23              inx h
3354   14DA 12              stax d
3355   14DB 13              inx d    
3356   14DC 0D              dcr c
3357   14DD C2 12 F0        jnz bitBlt_l2 - bitBlt + 0F000h
3358   14E0 C1              pop b
3359   14E1 D1              pop d    
3360   14E2 14              inr d
3361   14E3 05              dcr b
3362   14E4 C2 10 F0        jnz bitBlt_l1 - bitBlt + 0F000h    
3363   14E7 C1              pop b
3364   14E8 C9              ret
3365   14E9               
3366   14E9 C9            ret
3367   14EA               ; --- colorizer_rand -----------------------------------------------------------------
3368   14EA             colorizer_rand:
3369   14EA C3 34 F0        jmp colorizer_himem - bitBlt + 0F000h
3370   14ED             colorizer_himem:
3371   14ED C5              push b
3372   14EE 06 00           mvi  b, 0
3373   14F0 0E 30           mvi  c, 48 
3374   14F2             colorizerr_1:
3375   14F2 CD 87 16        call rand
3376   14F5                 
3377   14F5 16 80           mvi  d, 80h
3378   14F7 5F              mov  e, a
3379   14F8 26 C0           mvi  h, 0C0h
3380   14FA 6F              mov  l, a
3381   14FB                      
3382   14FB C5              push b 
3383   14FC             colorizerr_2:
3384   14FC 1A              ldax d
3385   14FD 14              inr  d
3386   14FE 47              mov  b, a
3387   14FF             
3388   14FF 3E 01           mvi a, 1
3389   1501 32 00 F9        sta 0F900H
3390   1504 70              mov  m, b
3391   1505 24              inr  h    
3392   1506 AF              xra a
3393   1507 32 00 F9        sta 0F900H
3394   150A             
3395   150A 0D              dcr  c
3396   150B C2 43 F0        jnz  colorizerr_2 - bitBlt + 0F000h
3397   150E C1              pop  b
3398   150F             
3399   150F 05              dcr  b
3400   1510 C2 39 F0        jnz  colorizerr_1 - bitBlt + 0F000h
3401   1513 C1              pop  b
3402   1514 C9              ret
3403   1515               
3404   1515 C9            ret
3405   1516               ; --- bitBlt_bw -----------------------------------------------------------------
3406   1516             bitBlt_bw:
3407   1516 22 D2 21      shld bitBlt_bw_3
3408   1519               ; 400 asm {
3409   1519 C3 63 F0        jmp bitBlt_bw_himem - bitBlt + 0F000h
3410   151C             bitBlt_bw_himem:
3411   151C                 ;lhld bitBlt_bw_3
3412   151C C5              push b
3413   151D 44              mov b, h
3414   151E 4D              mov c, l
3415   151F 2A D0 21        lhld bitBlt_bw_2
3416   1522 EB              xchg    
3417   1523 2A CE 21        lhld bitBlt_bw_1
3418   1526             bitBlt_bw_l1:
3419   1526 E5              push h
3420   1527 C5              push b
3421   1528 3A A8 19        lda  color
3422   152B 47              mov  b, a
3423   152C             bitBlt_bw_l2:
3424   152C 1A              ldax d
3425   152D 77              mov m, a
3426   152E             
3427   152E 3E 01           mvi a, 1
3428   1530 32 00 F9        sta 0F900H
3429   1533 70              mov m, b
3430   1534 AF              xra a
3431   1535 32 00 F9        sta 0F900H
3432   1538             
3433   1538 23              inx h
3434   1539 13              inx d
3435   153A 0D              dcr c
3436   153B C2 73 F0        jnz bitBlt_bw_l2 - bitBlt + 0F000h
3437   153E             
3438   153E C1              pop b
3439   153F E1              pop h
3440   1540 24              inr h
3441   1541 05              dcr b
3442   1542 C2 6D F0        jnz bitBlt_bw_l1 - bitBlt + 0F000h
3443   1545 C1              pop b
3444   1546               
3445   1546 C9            ret
3446   1547               ; --- colorRect -----------------------------------------------------------------
3447   1547             colorRect:
3448   1547 22 D6 21      shld colorRect_2
3449   154A               ; 440 asm {
3450   154A C3 94 F0        jmp colorRect_himem - bitBlt + 0F000h
3451   154D             colorRect_himem:
3452   154D                 ; hl = colorRect_2
3453   154D EB              xchg
3454   154E 2A D4 21        lhld colorRect_1
3455   1551 3A A8 19        lda  color
3456   1554 F5              push psw
3457   1555 3E 01           mvi  a, 1
3458   1557 32 00 F9        sta  0F900H
3459   155A F1              pop  psw
3460   155B             colorRect_l1:
3461   155B E5              push h
3462   155C D5              push d
3463   155D             colorRect_l2:
3464   155D 77              mov  m, a
3465   155E 23              inx  h
3466   155F 1D              dcr  e
3467   1560 C2 A4 F0        jnz  colorRect_l2 - bitBlt + 0F000h    
3468   1563 D1              pop  d
3469   1564 E1              pop  h
3470   1565 24              inr  h
3471   1566 15              dcr  d
3472   1567 C2 A2 F0        jnz  colorRect_l1 - bitBlt + 0F000h
3473   156A AF              xra  a
3474   156B 32 00 F9        sta  0F900H
3475   156E               
3476   156E C9            ret
3477   156F               ; --- unmlz -----------------------------------------------------------------
3478   156F             unmlz:
3479   156F 22 DA 21      shld unmlz_2
3480   1572               ; 4 asm {
3481   1572 C5          		push	b
3482   1573 EB          		xchg
3483   1574 2A D8 21    		lhld	unmlz_1
3484   1577 44          		mov	b, h
3485   1578 4D          		mov	c, l
3486   1579             
3487   1579 3E 80       		mvi	a, 80h
3488   157B             UNLD:
3489   157B 32 D8 21    		sta	unmlz_1
3490   157E 1A          		ldax	d
3491   157F 13          		inx	d
3492   1580 C3 8C 15    		jmp	UNSTA
3493   1583             
3494   1583             ; ---------------------------------------------------------------------------
3495   1583             
3496   1583 7E          UNST3:		mov	a, m
3497   1584 23          		inx	h
3498   1585 02          		stax	b
3499   1586 03          		inx	b
3500   1587             		
3501   1587 7E          UNST2:		mov	a, m
3502   1588 23          		inx	h
3503   1589 02          		stax	b
3504   158A 03          		inx	b
3505   158B             
3506   158B 7E          UNST1:		mov	a, m
3507   158C             
3508   158C 02          UNSTA:		stax	b
3509   158D 03          		inx	b
3510   158E             
3511   158E 3A D8 21    ULOOP:		lda	unmlz_1
3512   1591 87          		add	a
3513   1592 C2 98 15    		jnz	L1
3514   1595 1A          		ldax	d
3515   1596 13          		inx	d
3516   1597 17          		ral
3517   1598             
3518   1598 DA 7B 15    L1:		jc	UNLD
3519   159B 87          		add	a
3520   159C C2 A2 15    		jnz	L3
3521   159F 1A          		ldax	d
3522   15A0 13          		inx	d
3523   15A1 17          		ral
3524   15A2             
3525   15A2 DA C8 15    L3:		jc	UN2
3526   15A5 87          		add	a
3527   15A6 C2 AC 15    		jnz	L2
3528   15A9 1A          		ldax	d
3529   15AA 13          		inx	d
3530   15AB 17          		ral
3531   15AC             
3532   15AC DA BC 15    L2:		jc	UN1
3533   15AF 21 FF 3F    		lxi	h, 3FFFh
3534   15B2 CD 14 16    		call	GETBITS
3535   15B5 32 D8 21    		sta	unmlz_1
3536   15B8 09          		dad	b
3537   15B9 C3 8B 15    		jmp	UNST1
3538   15BC             
3539   15BC             ; ---------------------------------------------------------------------------
3540   15BC             
3541   15BC 32 D8 21    UN1:		sta	unmlz_1
3542   15BF 1A          		ldax	d
3543   15C0 13          		inx	d
3544   15C1 6F          		mov	l, a
3545   15C2 26 FF       		mvi	h, 0FFh
3546   15C4 09          		dad	b
3547   15C5 C3 87 15    		jmp	UNST2
3548   15C8             
3549   15C8             ; ---------------------------------------------------------------------------
3550   15C8             
3551   15C8 87          UN2:		add	a
3552   15C9 C2 CF 15    		jnz	L4
3553   15CC 1A          		ldax	d
3554   15CD 13          		inx	d
3555   15CE 17          		ral
3556   15CF             
3557   15CF DA D9 15    L4:		jc	UN3
3558   15D2 CD 29 16    		call	GETBIGD
3559   15D5 09          		dad	b
3560   15D6 C3 83 15    		jmp	UNST3
3561   15D9             
3562   15D9             ; ---------------------------------------------------------------------------
3563   15D9             
3564   15D9 26 00       UN3:		mvi	h, 0
3565   15DB             
3566   15DB 24          UN3A:		inr	h
3567   15DC 87          		add	a
3568   15DD C2 E3 15    		jnz	L5
3569   15E0 1A          		ldax	d
3570   15E1 13          		inx	d
3571   15E2 17          		ral
3572   15E3             
3573   15E3 D2 DB 15    L5:		jnc	UN3A
3574   15E6 F5          		push	psw
3575   15E7 7C          		mov	a, h
3576   15E8 FE 08       		cpi	8
3577   15EA D2 11 16    		jnc	UNEXIT
3578   15ED 3E 00       		mvi	a, 0
3579   15EF             
3580   15EF 1F          L5B:		rar
3581   15F0 25          		dcr	h
3582   15F1 C2 EF 15    		jnz	L5B
3583   15F4 67          		mov	h, a
3584   15F5 2E 01       		mvi	l, 1
3585   15F7 F1          		pop	psw
3586   15F8 CD 14 16    		call	GETBITS
3587   15FB 23          		inx	h
3588   15FC 23          		inx	h
3589   15FD E5          		push	h
3590   15FE CD 29 16    		call	GETBIGD
3591   1601 EB          		xchg
3592   1602 E3          		xthl
3593   1603 EB          		xchg
3594   1604 09          		dad	b
3595   1605             
3596   1605 7E          LDIR:		mov	a, m
3597   1606 23          		inx	h
3598   1607 02          		stax	b
3599   1608 03          		inx	b
3600   1609 1D          		dcr	e
3601   160A C2 05 16    		jnz	LDIR
3602   160D D1          		pop	d
3603   160E C3 8E 15    		jmp	ULOOP
3604   1611             
3605   1611             ; ---------------------------------------------------------------------------
3606   1611             
3607   1611 F1          UNEXIT:		pop	psw
3608   1612 C1          		pop	b
3609   1613 C9          		ret
3610   1614             
3611   1614             ; ---------------------------------------------------------------------------
3612   1614             
3613   1614 87          GETBITS:	add	a
3614   1615 C2 1B 16    		jnz	L7
3615   1618 1A          		ldax	d
3616   1619 13          		inx	d
3617   161A 17          		ral		
3618   161B DA 23 16    L7:		jc	GETB1
3619   161E 29          		dad	h
3620   161F D8          		rc
3621   1620 C3 14 16    		jmp	GETBITS
3622   1623             
3623   1623             ; ---------------------------------------------------------------------------
3624   1623             
3625   1623 29          GETB1:		dad	h
3626   1624 2C          		inr	l
3627   1625 D8          		rc
3628   1626 C3 14 16    		jmp	GETBITS
3629   1629             
3630   1629             ; ---------------------------------------------------------------------------
3631   1629             
3632   1629 87          GETBIGD:	add	a
3633   162A C2 30 16    		jnz	L8
3634   162D 1A          		ldax	d
3635   162E 13          		inx	d
3636   162F 17          		ral
3637   1630             
3638   1630 DA 3C 16    L8:		jc	GETBD1
3639   1633 32 D8 21    		sta	unmlz_1
3640   1636 1A          		ldax	d
3641   1637 13          		inx	d
3642   1638 6F          		mov	l, a
3643   1639 26 FF       		mvi	h, 0FFh
3644   163B C9          		ret
3645   163C             
3646   163C             ; ---------------------------------------------------------------------------
3647   163C             
3648   163C 21 FF 1F    GETBD1:		lxi	h, 1FFFh
3649   163F CD 14 16    		call	GETBITS
3650   1642 32 D8 21    		sta	unmlz_1
3651   1645 65          		mov	h, l
3652   1646 25          		dcr	h
3653   1647 1A          		ldax	d
3654   1648 13          		inx	d
3655   1649 6F          		mov	l, a
3656   164A C9          		ret
3657   164B               
3658   164B C9            ret
3659   164C               ; --- op_div16 -----------------------------------------------------------------
3660   164C             op_div16:
3661   164C C5                  PUSH B
3662   164D EB                  XCHG
3663   164E CD 58 16            CALL _DIV0
3664   1651 EB                  XCHG
3665   1652 22 92 3D            SHLD op_div16_mod
3666   1655 EB                  XCHG
3667   1656 C1                  POP B
3668   1657 C9                  RET
3669   1658             
3670   1658             _DIV0:
3671   1658 7C          _DIV:	MOV A,H
3672   1659 B5          	ORA L
3673   165A C8          	RZ
3674   165B 01 00 00    	LXI B,0000
3675   165E C5          	PUSH B
3676   165F 7B          _DIV1:	MOV A,E
3677   1660 95          	SUB L
3678   1661 7A          	MOV A,D
3679   1662 9C          	SBB H
3680   1663 DA 6B 16    	JC _DIV2
3681   1666 E5          	PUSH H
3682   1667 29          	DAD H
3683   1668 D2 5F 16    	JNC _DIV1
3684   166B 21 00 00    _DIV2:	LXI H,0000
3685   166E C1          _DIV3:	POP B
3686   166F 78          	MOV A,B
3687   1670 B1          	ORA C
3688   1671 C8          	RZ
3689   1672 29          	DAD H
3690   1673 D5          	PUSH D
3691   1674 7B          	MOV A,E
3692   1675 91          	SUB C
3693   1676 5F          	MOV E,A
3694   1677 7A          	MOV A,D
3695   1678 98          	SBB B
3696   1679 57          	MOV D,A
3697   167A DA 82 16    	JC _DIV4
3698   167D 23          	INX H
3699   167E C1          	POP B
3700   167F C3 6E 16    	JMP _DIV3
3701   1682 D1          _DIV4:	POP D
3702   1683 C3 6E 16    	JMP _DIV3  
3703   1686               
3704   1686 C9            ret
3705   1687               ; --- rand -----------------------------------------------------------------
3706   1687             rand:
3707   1687 3A 94 3D        LDA rand_seed
3708   168A 5F              mov e,a
3709   168B 87              add a
3710   168C 87              add a
3711   168D 83              add e
3712   168E 3C              inr a
3713   168F 32 94 3D        sta rand_seed
3714   1692               
3715   1692 C9            ret
3716   1693               ; --- op_mod -----------------------------------------------------------------
3717   1693             op_mod:
3718   1693 C5              PUSH B
3719   1694 5F              MOV E, A
3720   1695 21 08 00        LXI H, 8
3721   1698 0E 00           MVI C, 0
3722   169A             op_mod_1:
3723   169A 7B              MOV A,E
3724   169B 17              RAL
3725   169C 5F              MOV E,A
3726   169D 79              MOV A,C
3727   169E 17              RAL
3728   169F 92              SUB D
3729   16A0 D2 A4 16        JNC op_mod_2
3730   16A3 82              ADD D
3731   16A4             op_mod_2:
3732   16A4 4F              MOV C,A ; Остаток в С
3733   16A5 3F              CMC
3734   16A6 7C              MOV A,H
3735   16A7 17              RAL
3736   16A8 67              MOV H,A ; Частное в Н
3737   16A9 2D              DCR L
3738   16AA C2 9A 16        JNZ op_mod_1
3739   16AD 79              MOV A, C
3740   16AE C1              POP B
3741   16AF               
3742   16AF C9            ret
3743   16B0               ; --- op_div -----------------------------------------------------------------
3744   16B0             op_div:
3745   16B0 C5              push b
3746   16B1 5F              mov e, a
3747   16B2 21 08 00        LXI H,0008h
3748   16B5 0E 00           MVI C,00
3749   16B7             op_div_1:
3750   16B7 7B              MOV A,E
3751   16B8 17              RAL
3752   16B9 5F              MOV E,A
3753   16BA 79              MOV A,C
3754   16BB 17              RAL
3755   16BC 92              SUB D
3756   16BD D2 C1 16        JNC op_div_2
3757   16C0 82              ADD D
3758   16C1             op_div_2:
3759   16C1 4F              MOV C,A ; Остаток в С
3760   16C2 3F              CMC
3761   16C3 7C              MOV A,H
3762   16C4 17              RAL
3763   16C5 67              MOV H,A ; Частное в Н
3764   16C6 2D              DCR L
3765   16C7 C2 B7 16        JNZ op_div_1
3766   16CA 79              MOV A, C
3767   16CB 32 95 3D        STA op_div_mod
3768   16CE 7C              MOV A, H
3769   16CF C1              pop b
3770   16D0               
3771   16D0 C9            ret
3772   16D1               ; --- op_cmp16 -----------------------------------------------------------------
3773   16D1             op_cmp16:
3774   16D1 7C              mov a, h
3775   16D2 BA              cmp d
3776   16D3 C0              rnz
3777   16D4 7D              mov a, l
3778   16D5 BB              cmp e
3779   16D6               
3780   16D6 C9            ret
3781   16D7               ; --- memset -----------------------------------------------------------------
3782   16D7             memset:
3783   16D7 22 99 3D      shld memset_3
3784   16DA               ; 2 asm {
3785   16DA C5              push b
3786   16DB 3A 98 3D        lda memset_2
3787   16DE EB              xchg
3788   16DF 2A 96 3D        lhld memset_1
3789   16E2 EB              xchg
3790   16E3 01 FF FF        lxi b, -1    
3791   16E6             memset_l1:
3792   16E6 09              dad b
3793   16E7 D2 EF 16        jnc memset_l2
3794   16EA 12              stax d
3795   16EB 13              inx d
3796   16EC C3 E6 16        jmp memset_l1
3797   16EF             memset_l2:
3798   16EF C1              pop b
3799   16F0               
3800   16F0 C9            ret
3801   16F1               ; --- memcpy -----------------------------------------------------------------
3802   16F1             memcpy:
3803   16F1 22 9F 3D      shld memcpy_3
3804   16F4               ; 2 asm {
3805   16F4                 ; if(cnt==0) return
3806   16F4 7C              mov a, h
3807   16F5 B5              ora l
3808   16F6 C8              rz
3809   16F7                 ; start
3810   16F7 C5              push b
3811   16F8                 ; de = count
3812   16F8 EB              xchg
3813   16F9                 ; bc = from
3814   16F9 2A 9D 3D        lhld memcpy_2
3815   16FC 4D              mov c, l
3816   16FD 44              mov b, h
3817   16FE                 ; hl = to
3818   16FE 2A 9B 3D        lhld memcpy_1
3819   1701                 ; enter loop
3820   1701 14              inr d
3821   1702 AF              xra a
3822   1703 B3              ora e
3823   1704 CA 0F 17        jz memcpy_l2
3824   1707             memcpy_l1:
3825   1707                 ; *dest = *src
3826   1707 0A              ldax b
3827   1708 77              mov m, a
3828   1709                 ; dest++, src++
3829   1709 23              inx h
3830   170A 03              inx b
3831   170B                 ; while(--cnt)
3832   170B 1D              dcr e
3833   170C C2 07 17        jnz memcpy_l1
3834   170F             memcpy_l2:
3835   170F 15              dcr d
3836   1710 C2 07 17        jnz memcpy_l1
3837   1713 C1              pop b
3838   1714               
3839   1714 C9            ret
3840   1715               ; --- op_mul -----------------------------------------------------------------
3841   1715             op_mul:
3842   1715 C5            push b
3843   1716 21 00 00      lxi h, 0
3844   1719 5A            mov e, d  ; de=d
3845   171A 55            mov d, l  
3846   171B 0E 08         mvi c, 8
3847   171D             op_mul1:
3848   171D 29            dad h
3849   171E 87            add a
3850   171F D2 23 17      jnc op_mul2
3851   1722 19              dad d
3852   1723             op_mul2:
3853   1723 0D            dcr c
3854   1724 C2 1D 17      jnz op_mul1
3855   1727             pop_bc_ret:
3856   1727 C1            pop b
3857   1728             
3858   1728 C9            ret
3859   1729               ; --- op_mul16 -----------------------------------------------------------------
3860   1729             op_mul16:
3861   1729 C5            push b
3862   172A 44            mov b, h
3863   172B 4D            mov c, l
3864   172C 21 00 00      lxi h, 0
3865   172F 3E 11         mvi a, 17
3866   1731             op_mul16_1:
3867   1731 3D            dcr a
3868   1732 CA 27 17      jz pop_bc_ret
3869   1735 29            dad h
3870   1736 EB            xchg
3871   1737 D2 3F 17      jnc op_mul16_2
3872   173A 29            dad h
3873   173B 23            inx h
3874   173C C3 40 17      jmp op_mul16_3
3875   173F             op_mul16_2:
3876   173F 29            dad h
3877   1740             op_mul16_3:
3878   1740 EB            xchg
3879   1741 D2 31 17      jnc op_mul16_1
3880   1744 09            dad b
3881   1745 D2 31 17      jnc op_mul16_1
3882   1748 13            inx d
3883   1749 C3 31 17      jmp op_mul16_1
3884   174C             
3885   174C C9            ret
3886   174D               ; --- strlen -----------------------------------------------------------------
3887   174D             strlen:
3888   174D 22 A1 3D      shld strlen_1
3889   1750               ; 2 asm { 
3890   1750              
3891   1750 11 FF FF        lxi d, -1
3892   1753             strlen_l1:
3893   1753 AF              xra a
3894   1754 B6              ora m
3895   1755 13              inx d
3896   1756 23              inx h
3897   1757 C2 53 17        jnz strlen_l1
3898   175A EB              xchg
3899   175B               
3900   175B C9            ret
3901   175C             game:
3902   175C 6E 17        .dw $+18
3903   175E 77 17        .dw $+25
3904   1760 80 17        .dw $+32
3905   1762 89 17        .dw $+39
3906   1764 92 17        .dw $+46
3907   1766 9B 17        .dw $+53
3908   1768 A4 17        .dw $+60
3909   176A AD 17        .dw $+67
3910   176C B6 17        .dw $+74
3911   176E              .ds 81
3912   17BF             gameOver:
3913   17BF 00           .db 0
3914   17C0             
3915   17C0             cursorX:
3916   17C0 04           .db 4
3917   17C1             
3918   17C1             cursorY:
3919   17C1 04           .db 4
3920   17C2             
3921   17C2             selX:
3922   17C2 FF           .db 255
3923   17C3             
3924   17C3             selY:
3925   17C3              .ds 1
3926   17C4             score:
3927   17C4 00 00        .dw 0
3928   17C6             
3929   17C6             newBall1:
3930   17C6              .ds 1
3931   17C7             newBall2:
3932   17C7              .ds 1
3933   17C8             newBall3:
3934   17C8              .ds 1
3935   17C9             showPath:
3936   17C9 01           .db 1
3937   17CA             
3938   17CA             playSound:
3939   17CA 01           .db 1
3940   17CB             
3941   17CB             showHelp:
3942   17CB 01           .db 1
3943   17CC             
3944   17CC             nx:
3945   17CC              .ds 1
3946   17CD             ny:
3947   17CD              .ds 1
3948   17CE             hiScores:
3949   17CE 56 49 4E 58  .db "VINXRU",0,0,0,0,0,0,0,0
3949   17D2 52 55 00 00 
3949   17D6 00 00 00 00 
3949   17DA 00 00 
3950   17DC 28 00        .dw 40
3951   17DE 45 4C 54 41  .db "ELTARO",0,0,0,0,0,0,0,0
3951   17E2 52 4F 00 00 
3951   17E6 00 00 00 00 
3951   17EA 00 00 
3952   17EC 12 00        .dw 18
3953   17EE 45 52 52 34  .db "ERR404",0,0,0,0,0,0,0,0
3953   17F2 30 34 00 00 
3953   17F6 00 00 00 00 
3953   17FA 00 00 
3954   17FC 10 00        .dw 16
3955   17FE 53 59 53 43  .db "SYSCAT",0,0,0,0,0,0,0,0
3955   1802 41 54 00 00 
3955   1806 00 00 00 00 
3955   180A 00 00 
3956   180C 0E 00        .dw 14
3957   180E 4D 49 43 4B  .db "MICK",0,0,0,0,0,0,0,0,0,0
3957   1812 00 00 00 00 
3957   1816 00 00 00 00 
3957   181A 00 00 
3958   181C 0C 00        .dw 12
3959   181E 53 43 4C 20  .db "SCL MC",0,0,0,0,0,0,0,0
3959   1822 4D 43 00 00 
3959   1826 00 00 00 00 
3959   182A 00 00 
3960   182C 0A 00        .dw 10
3961   182E 53 56 4F 46  .db "SVOFSK",0,0,0,0,0,0,0,0
3961   1832 53 4B 00 00 
3961   1836 00 00 00 00 
3961   183A 00 00 
3962   183C 08 00        .dw 8
3963   183E 54 49 54 55  .db "TITUS",0,0,0,0,0,0,0,0,0
3963   1842 53 00 00 00 
3963   1846 00 00 00 00 
3963   184A 00 00 
3964   184C 06 00        .dw 6
3965   184E 42 32 4D 00  .db "B2M",0,0,0,0,0,0,0,0,0,0,0
3965   1852 00 00 00 00 
3965   1856 00 00 00 00 
3965   185A 00 00 
3966   185C 04 00        .dw 4
3967   185E             
3968   185E              .ds 117
3969   18D3             i2s_1:
3970   18D3              .ds 2
3971   18D5             i2s_2:
3972   18D5              .ds 2
3973   18D7             i2s_i:
3974   18D7              .ds 1
3975   18D8             drawScore1_buf:
3976   18D8              .ds 6
3977   18DE             drawCell_1:
3978   18DE              .ds 1
3979   18DF             drawCell_2:
3980   18DF              .ds 1
3981   18E0             drawCells_x:
3982   18E0              .ds 1
3983   18E1             drawCells_y:
3984   18E1              .ds 1
3985   18E2             clearLine_1:
3986   18E2              .ds 1
3987   18E3             clearLine_2:
3988   18E3              .ds 1
3989   18E4             clearLine_3:
3990   18E4              .ds 1
3991   18E5             clearLine_4:
3992   18E5              .ds 1
3993   18E6             clearLine_5:
3994   18E6              .ds 1
3995   18E7             clearLine_y:
3996   18E7              .ds 1
3997   18E8             clearLine_o:
3998   18E8              .ds 1
3999   18E9             clearLine_i:
4000   18E9              .ds 1
4001   18EA             check_prevx:
4002   18EA              .ds 1
4003   18EB             check_prevy:
4004   18EB              .ds 1
4005   18EC             check_c:
4006   18EC              .ds 1
4007   18ED             check_n:
4008   18ED              .ds 1
4009   18EE             check_total:
4010   18EE              .ds 1
4011   18EF             check_p:
4012   18EF              .ds 2
4013   18F1             calcFreeCell_c:
4014   18F1              .ds 1
4015   18F2             calcFreeCell_i:
4016   18F2              .ds 1
4017   18F3             newBall_1:
4018   18F3              .ds 1
4019   18F4             newBall_i:
4020   18F4              .ds 1
4021   18F5             newBall_c:
4022   18F5              .ds 1
4023   18F6             gameStep_nx1:
4024   18F6              .ds 1
4025   18F7             gameStep_ny1:
4026   18F7              .ds 1
4027   18F8             gameStep_nx2:
4028   18F8              .ds 1
4029   18F9             gameStep_ny2:
4030   18F9              .ds 1
4031   18FA             gameStep_o:
4032   18FA              .ds 1
4033   18FB             path_c:
4034   18FB              .ds 1
4035   18FC             path_p:
4036   18FC FE 18        .dw $+2
4037   18FE              .ds 1
4038   18FF             path_n:
4039   18FF              .ds 1
4040   1900             path_x:
4041   1900              .ds 1
4042   1901             path_y:
4043   1901              .ds 1
4044   1902             path_p1:
4045   1902 04 19        .dw $+2
4046   1904              .ds 1
4047   1905             path_n1:
4048   1905              .ds 1
4049   1906             path_x1:
4050   1906              .ds 1
4051   1907             path_y1:
4052   1907              .ds 1
4053   1908             recordAnimation_c:
4054   1908              .ds 1
4055   1909             recordAnimation_i:
4056   1909              .ds 1
4057   190A             recordAnimation_p:
4058   190A              .ds 2
4059   190C             recordAnimation_tmp:
4060   190C              .ds 16
4061   191C             main_c:
4062   191C              .ds 1
4063   191D             main_c1:
4064   191D              .ds 1
4065   191E             main_selAnimationT:
4066   191E              .ds 1
4067   191F             main_selAnimationTT:
4068   191F              .ds 2
4069   1921             main_keybTimeout:
4070   1921              .ds 2
4071   1923             sound_1:
4072   1923              .ds 1
4073   1924             sound_2:
4074   1924              .ds 2
4075   1926             cellAddr_1:
4076   1926              .ds 1
4077   1927             cellAddr_2:
4078   1927              .ds 1
4079   1928             colors:
4080   1928 09           .db 9
4081   1929 0A           .db 10
4082   192A 0B           .db 11
4083   192B 0C           .db 12
4084   192C 0D           .db 13
4085   192D 0E           .db 14
4086   192E 0F           .db 15
4087   192F 00           .db 0
4088   1930             
4089   1930             drawBall1_1:
4090   1930              .ds 2
4091   1932             drawBall1_2:
4092   1932              .ds 2
4093   1934             drawBall1_3:
4094   1934              .ds 1
4095   1935             drawBall1_4:
4096   1935              .ds 1
4097   1936             drawBall_1:
4098   1936              .ds 1
4099   1937             drawBall_2:
4100   1937              .ds 1
4101   1938             drawBall_3:
4102   1938              .ds 2
4103   193A             drawBall_4:
4104   193A              .ds 1
4105   193B             drawSprite_1:
4106   193B              .ds 1
4107   193C             drawSprite_2:
4108   193C              .ds 1
4109   193D             drawSprite_3:
4110   193D              .ds 1
4111   193E             removeAnimation:
4112   193E EE 36        .dw ((imgBalls)+(140)) & 65535
4113   1940 0A 37        .dw ((imgBalls)+(168)) & 65535
4114   1942 26 37        .dw ((imgBalls)+(196)) & 65535
4115   1944 42 37        .dw ((imgBalls)+(224)) & 65535
4116   1946             
4117   1946              .ds 4
4118   194A             drawSpriteRemove_1:
4119   194A              .ds 1
4120   194B             drawSpriteRemove_2:
4121   194B              .ds 1
4122   194C             drawSpriteRemove_3:
4123   194C              .ds 1
4124   194D             drawSpriteRemove_4:
4125   194D              .ds 1
4126   194E             drawSpriteNew_1:
4127   194E              .ds 1
4128   194F             drawSpriteNew_2:
4129   194F              .ds 1
4130   1950             drawSpriteNew_3:
4131   1950              .ds 1
4132   1951             drawSpriteNew_4:
4133   1951              .ds 1
4134   1952             drawSpriteStep_1:
4135   1952              .ds 1
4136   1953             drawSpriteStep_2:
4137   1953              .ds 1
4138   1954             drawSpriteStep_3:
4139   1954              .ds 1
4140   1955             selAnimation:
4141   1955 62 36        .dw (imgBalls) & 65535
4142   1957 62 36        .dw (imgBalls) & 65535
4143   1959 62 36        .dw (imgBalls) & 65535
4144   195B 7A 37        .dw ((imgBalls)+(280)) & 65535
4145   195D 96 37        .dw ((imgBalls)+(308)) & 65535
4146   195F 7A 37        .dw ((imgBalls)+(280)) & 65535
4147   1961             
4148   1961              .ds 6
4149   1967             drawSpriteSel_1:
4150   1967              .ds 1
4151   1968             drawSpriteSel_2:
4152   1968              .ds 1
4153   1969             drawSpriteSel_3:
4154   1969              .ds 1
4155   196A             drawSpriteSel_4:
4156   196A              .ds 1
4157   196B             drawSpriteSel_5:
4158   196B              .ds 1
4159   196C             drawSpriteSel_d:
4160   196C              .ds 2
4161   196E             playerSpriteTop:
4162   196E              .ds 1
4163   196F             drawScore_1:
4164   196F              .ds 2
4165   1971             drawScore_2:
4166   1971              .ds 2
4167   1973             drawScore_n:
4168   1973              .ds 1
4169   1974             redrawNewBalls_1:
4170   1974              .ds 1
4171   1975             redrawNewBalls_2:
4172   1975              .ds 1
4173   1976             redrawNewBalls_3:
4174   1976              .ds 1
4175   1977             onOff:
4176   1977 F1 C4        .dw 50417
4177   1979 F1 CD        .dw 52721
4178   197B F1 D6        .dw 55025
4179   197D             
4180   197D             drawOnOff_1:
4181   197D              .ds 1
4182   197E             drawOnOff_2:
4183   197E              .ds 1
4184   197F             drawOnOff_i:
4185   197F              .ds 1
4186   1980             drawOnOff_d:
4187   1980              .ds 2
4188   1982             delay_1:
4189   1982              .ds 1
4190   1983             delay_i:
4191   1983              .ds 1
4192   1984             intro_p:
4193   1984              .ds 2
4194   1986             intro_s:
4195   1986              .ds 1
4196   1987             drawRecordScreen1_1:
4197   1987              .ds 1
4198   1988             drawRecordScreen1_2:
4199   1988              .ds 1
4200   1989             drawRecordScreen1_h:
4201   1989              .ds 2
4202   198B             drawRecordScreen1_l:
4203   198B              .ds 1
4204   198C             drawRecordScreen1_buf:
4205   198C              .ds 14
4206   199A             drawRecordScreen_1:
4207   199A              .ds 1
4208   199B             updateTopScore_buf:
4209   199B              .ds 7
4210   19A2             initGameScreen_s:
4211   19A2              .ds 2
4212   19A4             initGameScreen_i:
4213   19A4              .ds 1
4214   19A5             initGameScreen_x:
4215   19A5              .ds 1
4216   19A6             initGameScreen_y:
4217   19A6              .ds 1
4218   19A7             translate_1:
4219   19A7              .ds 1
4220   19A8             color:
4221   19A8 0F           .db 15
4222   19A9             
4223   19A9             chargen:
4224   19A9 00           .db 0
4225   19AA 00           .db 0
4226   19AB 00           .db 0
4227   19AC 00           .db 0
4228   19AD 00           .db 0
4229   19AE 00           .db 0
4230   19AF 00           .db 0
4231   19B0 00           .db 0
4232   19B1 00           .db 0
4233   19B2 1E           .db 30
4234   19B3 21           .db 33
4235   19B4 33           .db 51
4236   19B5 21           .db 33
4237   19B6 2D           .db 45
4238   19B7 21           .db 33
4239   19B8 1E           .db 30
4240   19B9 00           .db 0
4241   19BA 1E           .db 30
4242   19BB 3F           .db 63
4243   19BC 2D           .db 45
4244   19BD 3F           .db 63
4245   19BE 33           .db 51
4246   19BF 3F           .db 63
4247   19C0 1E           .db 30
4248   19C1 00           .db 0
4249   19C2 00           .db 0
4250   19C3 00           .db 0
4251   19C4 0A           .db 10
4252   19C5 1F           .db 31
4253   19C6 1F           .db 31
4254   19C7 0E           .db 14
4255   19C8 04           .db 4
4256   19C9 00           .db 0
4257   19CA 00           .db 0
4258   19CB 00           .db 0
4259   19CC 04           .db 4
4260   19CD 0E           .db 14
4261   19CE 1F           .db 31
4262   19CF 0E           .db 14
4263   19D0 04           .db 4
4264   19D1 00           .db 0
4265   19D2 00           .db 0
4266   19D3 00           .db 0
4267   19D4 04           .db 4
4268   19D5 0E           .db 14
4269   19D6 1F           .db 31
4270   19D7 04           .db 4
4271   19D8 0E           .db 14
4272   19D9 00           .db 0
4273   19DA 00           .db 0
4274   19DB 00           .db 0
4275   19DC 04           .db 4
4276   19DD 0E           .db 14
4277   19DE 1F           .db 31
4278   19DF 0E           .db 14
4279   19E0 1F           .db 31
4280   19E1 00           .db 0
4281   19E2 00           .db 0
4282   19E3 0C           .db 12
4283   19E4 1E           .db 30
4284   19E5 1E           .db 30
4285   19E6 0C           .db 12
4286   19E7 00           .db 0
4287   19E8 00           .db 0
4288   19E9 3F           .db 63
4289   19EA 3F           .db 63
4290   19EB 33           .db 51
4291   19EC 21           .db 33
4292   19ED 21           .db 33
4293   19EE 33           .db 51
4294   19EF 3F           .db 63
4295   19F0 3F           .db 63
4296   19F1 00           .db 0
4297   19F2 00           .db 0
4298   19F3 0C           .db 12
4299   19F4 12           .db 18
4300   19F5 12           .db 18
4301   19F6 0C           .db 12
4302   19F7 00           .db 0
4303   19F8 00           .db 0
4304   19F9 3F           .db 63
4305   19FA 3F           .db 63
4306   19FB 33           .db 51
4307   19FC 2D           .db 45
4308   19FD 2D           .db 45
4309   19FE 33           .db 51
4310   19FF 3F           .db 63
4311   1A00 3F           .db 63
4312   1A01 00           .db 0
4313   1A02 00           .db 0
4314   1A03 07           .db 7
4315   1A04 03           .db 3
4316   1A05 1D           .db 29
4317   1A06 24           .db 36
4318   1A07 24           .db 36
4319   1A08 18           .db 24
4320   1A09 00           .db 0
4321   1A0A 0E           .db 14
4322   1A0B 11           .db 17
4323   1A0C 11           .db 17
4324   1A0D 0E           .db 14
4325   1A0E 04           .db 4
4326   1A0F 1F           .db 31
4327   1A10 04           .db 4
4328   1A11 00           .db 0
4329   1A12 1E           .db 30
4330   1A13 12           .db 18
4331   1A14 1E           .db 30
4332   1A15 10           .db 16
4333   1A16 10           .db 16
4334   1A17 30           .db 48
4335   1A18 30           .db 48
4336   1A19 00           .db 0
4337   1A1A 1F           .db 31
4338   1A1B 11           .db 17
4339   1A1C 1F           .db 31
4340   1A1D 11           .db 17
4341   1A1E 11           .db 17
4342   1A1F 33           .db 51
4343   1A20 33           .db 51
4344   1A21 0C           .db 12
4345   1A22 2D           .db 45
4346   1A23 0C           .db 12
4347   1A24 33           .db 51
4348   1A25 33           .db 51
4349   1A26 0C           .db 12
4350   1A27 2D           .db 45
4351   1A28 0C           .db 12
4352   1A29 00           .db 0
4353   1A2A 30           .db 48
4354   1A2B 3C           .db 60
4355   1A2C 3F           .db 63
4356   1A2D 3F           .db 63
4357   1A2E 3C           .db 60
4358   1A2F 30           .db 48
4359   1A30 00           .db 0
4360   1A31 00           .db 0
4361   1A32 03           .db 3
4362   1A33 0F           .db 15
4363   1A34 3F           .db 63
4364   1A35 3F           .db 63
4365   1A36 0F           .db 15
4366   1A37 03           .db 3
4367   1A38 00           .db 0
4368   1A39 04           .db 4
4369   1A3A 0E           .db 14
4370   1A3B 1F           .db 31
4371   1A3C 04           .db 4
4372   1A3D 1F           .db 31
4373   1A3E 0E           .db 14
4374   1A3F 04           .db 4
4375   1A40 00           .db 0
4376   1A41 0A           .db 10
4377   1A42 0A           .db 10
4378   1A43 0A           .db 10
4379   1A44 0A           .db 10
4380   1A45 0A           .db 10
4381   1A46 00           .db 0
4382   1A47 0A           .db 10
4383   1A48 00           .db 0
4384   1A49 00           .db 0
4385   1A4A 1F           .db 31
4386   1A4B 29           .db 41
4387   1A4C 19           .db 25
4388   1A4D 09           .db 9
4389   1A4E 09           .db 9
4390   1A4F 09           .db 9
4391   1A50 00           .db 0
4392   1A51 0E           .db 14
4393   1A52 10           .db 16
4394   1A53 0C           .db 12
4395   1A54 12           .db 18
4396   1A55 12           .db 18
4397   1A56 0C           .db 12
4398   1A57 02           .db 2
4399   1A58 1C           .db 28
4400   1A59 00           .db 0
4401   1A5A 00           .db 0
4402   1A5B 00           .db 0
4403   1A5C 00           .db 0
4404   1A5D 00           .db 0
4405   1A5E 1F           .db 31
4406   1A5F 1F           .db 31
4407   1A60 00           .db 0
4408   1A61 04           .db 4
4409   1A62 0E           .db 14
4410   1A63 1F           .db 31
4411   1A64 04           .db 4
4412   1A65 1F           .db 31
4413   1A66 0E           .db 14
4414   1A67 04           .db 4
4415   1A68 1F           .db 31
4416   1A69 04           .db 4
4417   1A6A 0E           .db 14
4418   1A6B 1F           .db 31
4419   1A6C 04           .db 4
4420   1A6D 04           .db 4
4421   1A6E 04           .db 4
4422   1A6F 04           .db 4
4423   1A70 00           .db 0
4424   1A71 04           .db 4
4425   1A72 04           .db 4
4426   1A73 04           .db 4
4427   1A74 04           .db 4
4428   1A75 1F           .db 31
4429   1A76 0E           .db 14
4430   1A77 04           .db 4
4431   1A78 00           .db 0
4432   1A79 00           .db 0
4433   1A7A 04           .db 4
4434   1A7B 02           .db 2
4435   1A7C 1F           .db 31
4436   1A7D 02           .db 2
4437   1A7E 04           .db 4
4438   1A7F 00           .db 0
4439   1A80 00           .db 0
4440   1A81 00           .db 0
4441   1A82 04           .db 4
4442   1A83 08           .db 8
4443   1A84 1F           .db 31
4444   1A85 08           .db 8
4445   1A86 04           .db 4
4446   1A87 00           .db 0
4447   1A88 00           .db 0
4448   1A89 00           .db 0
4449   1A8A 00           .db 0
4450   1A8B 00           .db 0
4451   1A8C 00           .db 0
4452   1A8D 10           .db 16
4453   1A8E 10           .db 16
4454   1A8F 1F           .db 31
4455   1A90 00           .db 0
4456   1A91 00           .db 0
4457   1A92 12           .db 18
4458   1A93 33           .db 51
4459   1A94 3F           .db 63
4460   1A95 3F           .db 63
4461   1A96 33           .db 51
4462   1A97 12           .db 18
4463   1A98 00           .db 0
4464   1A99 00           .db 0
4465   1A9A 0C           .db 12
4466   1A9B 1E           .db 30
4467   1A9C 3F           .db 63
4468   1A9D 3F           .db 63
4469   1A9E 00           .db 0
4470   1A9F 00           .db 0
4471   1AA0 00           .db 0
4472   1AA1 00           .db 0
4473   1AA2 00           .db 0
4474   1AA3 00           .db 0
4475   1AA4 3F           .db 63
4476   1AA5 3F           .db 63
4477   1AA6 1E           .db 30
4478   1AA7 0C           .db 12
4479   1AA8 00           .db 0
4480   1AA9 00           .db 0
4481   1AAA 00           .db 0
4482   1AAB 00           .db 0
4483   1AAC 00           .db 0
4484   1AAD 00           .db 0
4485   1AAE 00           .db 0
4486   1AAF 00           .db 0
4487   1AB0 00           .db 0
4488   1AB1 04           .db 4
4489   1AB2 04           .db 4
4490   1AB3 04           .db 4
4491   1AB4 04           .db 4
4492   1AB5 04           .db 4
4493   1AB6 00           .db 0
4494   1AB7 04           .db 4
4495   1AB8 00           .db 0
4496   1AB9 0A           .db 10
4497   1ABA 0A           .db 10
4498   1ABB 0A           .db 10
4499   1ABC 00           .db 0
4500   1ABD 00           .db 0
4501   1ABE 00           .db 0
4502   1ABF 00           .db 0
4503   1AC0 00           .db 0
4504   1AC1 0A           .db 10
4505   1AC2 0A           .db 10
4506   1AC3 1F           .db 31
4507   1AC4 0A           .db 10
4508   1AC5 1F           .db 31
4509   1AC6 0A           .db 10
4510   1AC7 0A           .db 10
4511   1AC8 00           .db 0
4512   1AC9 04           .db 4
4513   1ACA 0F           .db 15
4514   1ACB 14           .db 20
4515   1ACC 0E           .db 14
4516   1ACD 05           .db 5
4517   1ACE 1E           .db 30
4518   1ACF 04           .db 4
4519   1AD0 00           .db 0
4520   1AD1 18           .db 24
4521   1AD2 19           .db 25
4522   1AD3 02           .db 2
4523   1AD4 04           .db 4
4524   1AD5 08           .db 8
4525   1AD6 13           .db 19
4526   1AD7 03           .db 3
4527   1AD8 00           .db 0
4528   1AD9 04           .db 4
4529   1ADA 0A           .db 10
4530   1ADB 0A           .db 10
4531   1ADC 0C           .db 12
4532   1ADD 15           .db 21
4533   1ADE 12           .db 18
4534   1ADF 0D           .db 13
4535   1AE0 00           .db 0
4536   1AE1 06           .db 6
4537   1AE2 06           .db 6
4538   1AE3 02           .db 2
4539   1AE4 04           .db 4
4540   1AE5 00           .db 0
4541   1AE6 00           .db 0
4542   1AE7 00           .db 0
4543   1AE8 00           .db 0
4544   1AE9 02           .db 2
4545   1AEA 04           .db 4
4546   1AEB 08           .db 8
4547   1AEC 08           .db 8
4548   1AED 08           .db 8
4549   1AEE 04           .db 4
4550   1AEF 02           .db 2
4551   1AF0 00           .db 0
4552   1AF1 08           .db 8
4553   1AF2 04           .db 4
4554   1AF3 02           .db 2
4555   1AF4 02           .db 2
4556   1AF5 02           .db 2
4557   1AF6 04           .db 4
4558   1AF7 08           .db 8
4559   1AF8 00           .db 0
4560   1AF9 00           .db 0
4561   1AFA 04           .db 4
4562   1AFB 15           .db 21
4563   1AFC 0E           .db 14
4564   1AFD 15           .db 21
4565   1AFE 04           .db 4
4566   1AFF 00           .db 0
4567   1B00 00           .db 0
4568   1B01 00           .db 0
4569   1B02 04           .db 4
4570   1B03 04           .db 4
4571   1B04 1F           .db 31
4572   1B05 04           .db 4
4573   1B06 04           .db 4
4574   1B07 00           .db 0
4575   1B08 00           .db 0
4576   1B09 00           .db 0
4577   1B0A 00           .db 0
4578   1B0B 00           .db 0
4579   1B0C 0C           .db 12
4580   1B0D 0C           .db 12
4581   1B0E 04           .db 4
4582   1B0F 08           .db 8
4583   1B10 00           .db 0
4584   1B11 00           .db 0
4585   1B12 00           .db 0
4586   1B13 00           .db 0
4587   1B14 1F           .db 31
4588   1B15 00           .db 0
4589   1B16 00           .db 0
4590   1B17 00           .db 0
4591   1B18 00           .db 0
4592   1B19 00           .db 0
4593   1B1A 00           .db 0
4594   1B1B 00           .db 0
4595   1B1C 00           .db 0
4596   1B1D 00           .db 0
4597   1B1E 0C           .db 12
4598   1B1F 0C           .db 12
4599   1B20 00           .db 0
4600   1B21 00           .db 0
4601   1B22 01           .db 1
4602   1B23 02           .db 2
4603   1B24 04           .db 4
4604   1B25 08           .db 8
4605   1B26 10           .db 16
4606   1B27 00           .db 0
4607   1B28 00           .db 0
4608   1B29 0E           .db 14
4609   1B2A 11           .db 17
4610   1B2B 13           .db 19
4611   1B2C 15           .db 21
4612   1B2D 19           .db 25
4613   1B2E 11           .db 17
4614   1B2F 0E           .db 14
4615   1B30 00           .db 0
4616   1B31 04           .db 4
4617   1B32 0C           .db 12
4618   1B33 04           .db 4
4619   1B34 04           .db 4
4620   1B35 04           .db 4
4621   1B36 04           .db 4
4622   1B37 0E           .db 14
4623   1B38 00           .db 0
4624   1B39 0E           .db 14
4625   1B3A 11           .db 17
4626   1B3B 01           .db 1
4627   1B3C 06           .db 6
4628   1B3D 08           .db 8
4629   1B3E 10           .db 16
4630   1B3F 1F           .db 31
4631   1B40 00           .db 0
4632   1B41 1F           .db 31
4633   1B42 01           .db 1
4634   1B43 02           .db 2
4635   1B44 06           .db 6
4636   1B45 01           .db 1
4637   1B46 11           .db 17
4638   1B47 0E           .db 14
4639   1B48 00           .db 0
4640   1B49 02           .db 2
4641   1B4A 06           .db 6
4642   1B4B 0A           .db 10
4643   1B4C 12           .db 18
4644   1B4D 1F           .db 31
4645   1B4E 02           .db 2
4646   1B4F 02           .db 2
4647   1B50 00           .db 0
4648   1B51 1F           .db 31
4649   1B52 10           .db 16
4650   1B53 1E           .db 30
4651   1B54 01           .db 1
4652   1B55 01           .db 1
4653   1B56 11           .db 17
4654   1B57 0E           .db 14
4655   1B58 00           .db 0
4656   1B59 07           .db 7
4657   1B5A 08           .db 8
4658   1B5B 10           .db 16
4659   1B5C 1E           .db 30
4660   1B5D 11           .db 17
4661   1B5E 11           .db 17
4662   1B5F 0E           .db 14
4663   1B60 00           .db 0
4664   1B61 1F           .db 31
4665   1B62 01           .db 1
4666   1B63 02           .db 2
4667   1B64 04           .db 4
4668   1B65 08           .db 8
4669   1B66 08           .db 8
4670   1B67 08           .db 8
4671   1B68 00           .db 0
4672   1B69 0E           .db 14
4673   1B6A 11           .db 17
4674   1B6B 11           .db 17
4675   1B6C 0E           .db 14
4676   1B6D 11           .db 17
4677   1B6E 11           .db 17
4678   1B6F 0E           .db 14
4679   1B70 00           .db 0
4680   1B71 0E           .db 14
4681   1B72 11           .db 17
4682   1B73 11           .db 17
4683   1B74 0F           .db 15
4684   1B75 01           .db 1
4685   1B76 02           .db 2
4686   1B77 1C           .db 28
4687   1B78 00           .db 0
4688   1B79 00           .db 0
4689   1B7A 0C           .db 12
4690   1B7B 0C           .db 12
4691   1B7C 00           .db 0
4692   1B7D 00           .db 0
4693   1B7E 0C           .db 12
4694   1B7F 0C           .db 12
4695   1B80 00           .db 0
4696   1B81 0C           .db 12
4697   1B82 0C           .db 12
4698   1B83 00           .db 0
4699   1B84 0C           .db 12
4700   1B85 0C           .db 12
4701   1B86 04           .db 4
4702   1B87 08           .db 8
4703   1B88 00           .db 0
4704   1B89 02           .db 2
4705   1B8A 04           .db 4
4706   1B8B 08           .db 8
4707   1B8C 10           .db 16
4708   1B8D 08           .db 8
4709   1B8E 04           .db 4
4710   1B8F 02           .db 2
4711   1B90 00           .db 0
4712   1B91 00           .db 0
4713   1B92 00           .db 0
4714   1B93 1F           .db 31
4715   1B94 00           .db 0
4716   1B95 1F           .db 31
4717   1B96 00           .db 0
4718   1B97 00           .db 0
4719   1B98 00           .db 0
4720   1B99 08           .db 8
4721   1B9A 04           .db 4
4722   1B9B 02           .db 2
4723   1B9C 01           .db 1
4724   1B9D 02           .db 2
4725   1B9E 04           .db 4
4726   1B9F 08           .db 8
4727   1BA0 00           .db 0
4728   1BA1 0E           .db 14
4729   1BA2 11           .db 17
4730   1BA3 01           .db 1
4731   1BA4 02           .db 2
4732   1BA5 04           .db 4
4733   1BA6 00           .db 0
4734   1BA7 04           .db 4
4735   1BA8 00           .db 0
4736   1BA9 0E           .db 14
4737   1BAA 11           .db 17
4738   1BAB 13           .db 19
4739   1BAC 15           .db 21
4740   1BAD 17           .db 23
4741   1BAE 10           .db 16
4742   1BAF 0E           .db 14
4743   1BB0 00           .db 0
4744   1BB1 04           .db 4
4745   1BB2 0A           .db 10
4746   1BB3 11           .db 17
4747   1BB4 11           .db 17
4748   1BB5 1F           .db 31
4749   1BB6 11           .db 17
4750   1BB7 11           .db 17
4751   1BB8 00           .db 0
4752   1BB9 1E           .db 30
4753   1BBA 11           .db 17
4754   1BBB 11           .db 17
4755   1BBC 1E           .db 30
4756   1BBD 11           .db 17
4757   1BBE 11           .db 17
4758   1BBF 1E           .db 30
4759   1BC0 00           .db 0
4760   1BC1 0E           .db 14
4761   1BC2 11           .db 17
4762   1BC3 10           .db 16
4763   1BC4 10           .db 16
4764   1BC5 10           .db 16
4765   1BC6 11           .db 17
4766   1BC7 0E           .db 14
4767   1BC8 00           .db 0
4768   1BC9 1E           .db 30
4769   1BCA 09           .db 9
4770   1BCB 09           .db 9
4771   1BCC 09           .db 9
4772   1BCD 09           .db 9
4773   1BCE 09           .db 9
4774   1BCF 1E           .db 30
4775   1BD0 00           .db 0
4776   1BD1 1F           .db 31
4777   1BD2 10           .db 16
4778   1BD3 10           .db 16
4779   1BD4 1E           .db 30
4780   1BD5 10           .db 16
4781   1BD6 10           .db 16
4782   1BD7 1F           .db 31
4783   1BD8 00           .db 0
4784   1BD9 1F           .db 31
4785   1BDA 10           .db 16
4786   1BDB 10           .db 16
4787   1BDC 1E           .db 30
4788   1BDD 10           .db 16
4789   1BDE 10           .db 16
4790   1BDF 10           .db 16
4791   1BE0 00           .db 0
4792   1BE1 0E           .db 14
4793   1BE2 11           .db 17
4794   1BE3 10           .db 16
4795   1BE4 10           .db 16
4796   1BE5 13           .db 19
4797   1BE6 11           .db 17
4798   1BE7 0F           .db 15
4799   1BE8 00           .db 0
4800   1BE9 11           .db 17
4801   1BEA 11           .db 17
4802   1BEB 11           .db 17
4803   1BEC 1F           .db 31
4804   1BED 11           .db 17
4805   1BEE 11           .db 17
4806   1BEF 11           .db 17
4807   1BF0 00           .db 0
4808   1BF1 0E           .db 14
4809   1BF2 04           .db 4
4810   1BF3 04           .db 4
4811   1BF4 04           .db 4
4812   1BF5 04           .db 4
4813   1BF6 04           .db 4
4814   1BF7 0E           .db 14
4815   1BF8 00           .db 0
4816   1BF9 01           .db 1
4817   1BFA 01           .db 1
4818   1BFB 01           .db 1
4819   1BFC 01           .db 1
4820   1BFD 11           .db 17
4821   1BFE 11           .db 17
4822   1BFF 0E           .db 14
4823   1C00 00           .db 0
4824   1C01 11           .db 17
4825   1C02 12           .db 18
4826   1C03 14           .db 20
4827   1C04 18           .db 24
4828   1C05 14           .db 20
4829   1C06 12           .db 18
4830   1C07 11           .db 17
4831   1C08 00           .db 0
4832   1C09 10           .db 16
4833   1C0A 10           .db 16
4834   1C0B 10           .db 16
4835   1C0C 10           .db 16
4836   1C0D 10           .db 16
4837   1C0E 11           .db 17
4838   1C0F 1F           .db 31
4839   1C10 00           .db 0
4840   1C11 11           .db 17
4841   1C12 1B           .db 27
4842   1C13 15           .db 21
4843   1C14 15           .db 21
4844   1C15 11           .db 17
4845   1C16 11           .db 17
4846   1C17 11           .db 17
4847   1C18 00           .db 0
4848   1C19 11           .db 17
4849   1C1A 11           .db 17
4850   1C1B 19           .db 25
4851   1C1C 15           .db 21
4852   1C1D 13           .db 19
4853   1C1E 11           .db 17
4854   1C1F 11           .db 17
4855   1C20 00           .db 0
4856   1C21 0E           .db 14
4857   1C22 11           .db 17
4858   1C23 11           .db 17
4859   1C24 11           .db 17
4860   1C25 11           .db 17
4861   1C26 11           .db 17
4862   1C27 0E           .db 14
4863   1C28 00           .db 0
4864   1C29 1E           .db 30
4865   1C2A 11           .db 17
4866   1C2B 11           .db 17
4867   1C2C 1E           .db 30
4868   1C2D 10           .db 16
4869   1C2E 10           .db 16
4870   1C2F 10           .db 16
4871   1C30 00           .db 0
4872   1C31 0E           .db 14
4873   1C32 11           .db 17
4874   1C33 11           .db 17
4875   1C34 11           .db 17
4876   1C35 15           .db 21
4877   1C36 12           .db 18
4878   1C37 0D           .db 13
4879   1C38 00           .db 0
4880   1C39 1E           .db 30
4881   1C3A 11           .db 17
4882   1C3B 11           .db 17
4883   1C3C 1E           .db 30
4884   1C3D 14           .db 20
4885   1C3E 12           .db 18
4886   1C3F 11           .db 17
4887   1C40 00           .db 0
4888   1C41 0E           .db 14
4889   1C42 11           .db 17
4890   1C43 10           .db 16
4891   1C44 0E           .db 14
4892   1C45 01           .db 1
4893   1C46 11           .db 17
4894   1C47 0E           .db 14
4895   1C48 00           .db 0
4896   1C49 1F           .db 31
4897   1C4A 04           .db 4
4898   1C4B 04           .db 4
4899   1C4C 04           .db 4
4900   1C4D 04           .db 4
4901   1C4E 04           .db 4
4902   1C4F 04           .db 4
4903   1C50 00           .db 0
4904   1C51 11           .db 17
4905   1C52 11           .db 17
4906   1C53 11           .db 17
4907   1C54 11           .db 17
4908   1C55 11           .db 17
4909   1C56 11           .db 17
4910   1C57 0E           .db 14
4911   1C58 00           .db 0
4912   1C59 11           .db 17
4913   1C5A 11           .db 17
4914   1C5B 11           .db 17
4915   1C5C 0A           .db 10
4916   1C5D 0A           .db 10
4917   1C5E 04           .db 4
4918   1C5F 04           .db 4
4919   1C60 00           .db 0
4920   1C61 11           .db 17
4921   1C62 11           .db 17
4922   1C63 11           .db 17
4923   1C64 15           .db 21
4924   1C65 15           .db 21
4925   1C66 15           .db 21
4926   1C67 0A           .db 10
4927   1C68 00           .db 0
4928   1C69 11           .db 17
4929   1C6A 11           .db 17
4930   1C6B 0A           .db 10
4931   1C6C 04           .db 4
4932   1C6D 0A           .db 10
4933   1C6E 11           .db 17
4934   1C6F 11           .db 17
4935   1C70 00           .db 0
4936   1C71 11           .db 17
4937   1C72 11           .db 17
4938   1C73 0A           .db 10
4939   1C74 04           .db 4
4940   1C75 04           .db 4
4941   1C76 04           .db 4
4942   1C77 04           .db 4
4943   1C78 00           .db 0
4944   1C79 1F           .db 31
4945   1C7A 01           .db 1
4946   1C7B 02           .db 2
4947   1C7C 0E           .db 14
4948   1C7D 08           .db 8
4949   1C7E 10           .db 16
4950   1C7F 1F           .db 31
4951   1C80 00           .db 0
4952   1C81 0E           .db 14
4953   1C82 08           .db 8
4954   1C83 08           .db 8
4955   1C84 08           .db 8
4956   1C85 08           .db 8
4957   1C86 08           .db 8
4958   1C87 0E           .db 14
4959   1C88 00           .db 0
4960   1C89 00           .db 0
4961   1C8A 10           .db 16
4962   1C8B 08           .db 8
4963   1C8C 04           .db 4
4964   1C8D 02           .db 2
4965   1C8E 01           .db 1
4966   1C8F 00           .db 0
4967   1C90 00           .db 0
4968   1C91 0E           .db 14
4969   1C92 02           .db 2
4970   1C93 02           .db 2
4971   1C94 02           .db 2
4972   1C95 02           .db 2
4973   1C96 02           .db 2
4974   1C97 0E           .db 14
4975   1C98 00           .db 0
4976   1C99 0E           .db 14
4977   1C9A 11           .db 17
4978   1C9B 00           .db 0
4979   1C9C 00           .db 0
4980   1C9D 00           .db 0
4981   1C9E 00           .db 0
4982   1C9F 00           .db 0
4983   1CA0 00           .db 0
4984   1CA1 00           .db 0
4985   1CA2 00           .db 0
4986   1CA3 00           .db 0
4987   1CA4 00           .db 0
4988   1CA5 00           .db 0
4989   1CA6 00           .db 0
4990   1CA7 00           .db 0
4991   1CA8 1F           .db 31
4992   1CA9 18           .db 24
4993   1CAA 18           .db 24
4994   1CAB 10           .db 16
4995   1CAC 08           .db 8
4996   1CAD 00           .db 0
4997   1CAE 00           .db 0
4998   1CAF 00           .db 0
4999   1CB0 00           .db 0
5000   1CB1 00           .db 0
5001   1CB2 00           .db 0
5002   1CB3 0E           .db 14
5003   1CB4 12           .db 18
5004   1CB5 12           .db 18
5005   1CB6 12           .db 18
5006   1CB7 0D           .db 13
5007   1CB8 00           .db 0
5008   1CB9 00           .db 0
5009   1CBA 18           .db 24
5010   1CBB 08           .db 8
5011   1CBC 0E           .db 14
5012   1CBD 09           .db 9
5013   1CBE 09           .db 9
5014   1CBF 16           .db 22
5015   1CC0 00           .db 0
5016   1CC1 00           .db 0
5017   1CC2 00           .db 0
5018   1CC3 0E           .db 14
5019   1CC4 11           .db 17
5020   1CC5 10           .db 16
5021   1CC6 11           .db 17
5022   1CC7 0E           .db 14
5023   1CC8 00           .db 0
5024   1CC9 00           .db 0
5025   1CCA 06           .db 6
5026   1CCB 02           .db 2
5027   1CCC 0E           .db 14
5028   1CCD 12           .db 18
5029   1CCE 12           .db 18
5030   1CCF 0D           .db 13
5031   1CD0 00           .db 0
5032   1CD1 00           .db 0
5033   1CD2 00           .db 0
5034   1CD3 0E           .db 14
5035   1CD4 11           .db 17
5036   1CD5 1F           .db 31
5037   1CD6 10           .db 16
5038   1CD7 0F           .db 15
5039   1CD8 00           .db 0
5040   1CD9 00           .db 0
5041   1CDA 03           .db 3
5042   1CDB 04           .db 4
5043   1CDC 0E           .db 14
5044   1CDD 04           .db 4
5045   1CDE 04           .db 4
5046   1CDF 0E           .db 14
5047   1CE0 00           .db 0
5048   1CE1 00           .db 0
5049   1CE2 00           .db 0
5050   1CE3 0D           .db 13
5051   1CE4 12           .db 18
5052   1CE5 12           .db 18
5053   1CE6 0E           .db 14
5054   1CE7 02           .db 2
5055   1CE8 1C           .db 28
5056   1CE9 00           .db 0
5057   1CEA 18           .db 24
5058   1CEB 08           .db 8
5059   1CEC 0E           .db 14
5060   1CED 09           .db 9
5061   1CEE 09           .db 9
5062   1CEF 19           .db 25
5063   1CF0 00           .db 0
5064   1CF1 00           .db 0
5065   1CF2 08           .db 8
5066   1CF3 00           .db 0
5067   1CF4 08           .db 8
5068   1CF5 08           .db 8
5069   1CF6 08           .db 8
5070   1CF7 06           .db 6
5071   1CF8 00           .db 0
5072   1CF9 00           .db 0
5073   1CFA 02           .db 2
5074   1CFB 00           .db 0
5075   1CFC 02           .db 2
5076   1CFD 02           .db 2
5077   1CFE 12           .db 18
5078   1CFF 0C           .db 12
5079   1D00 00           .db 0
5080   1D01 00           .db 0
5081   1D02 18           .db 24
5082   1D03 08           .db 8
5083   1D04 0B           .db 11
5084   1D05 0C           .db 12
5085   1D06 0A           .db 10
5086   1D07 19           .db 25
5087   1D08 00           .db 0
5088   1D09 00           .db 0
5089   1D0A 0C           .db 12
5090   1D0B 04           .db 4
5091   1D0C 04           .db 4
5092   1D0D 04           .db 4
5093   1D0E 04           .db 4
5094   1D0F 0E           .db 14
5095   1D10 00           .db 0
5096   1D11 00           .db 0
5097   1D12 00           .db 0
5098   1D13 1A           .db 26
5099   1D14 15           .db 21
5100   1D15 15           .db 21
5101   1D16 15           .db 21
5102   1D17 15           .db 21
5103   1D18 00           .db 0
5104   1D19 00           .db 0
5105   1D1A 00           .db 0
5106   1D1B 1C           .db 28
5107   1D1C 12           .db 18
5108   1D1D 12           .db 18
5109   1D1E 12           .db 18
5110   1D1F 12           .db 18
5111   1D20 00           .db 0
5112   1D21 00           .db 0
5113   1D22 00           .db 0
5114   1D23 0E           .db 14
5115   1D24 11           .db 17
5116   1D25 11           .db 17
5117   1D26 11           .db 17
5118   1D27 0E           .db 14
5119   1D28 00           .db 0
5120   1D29 00           .db 0
5121   1D2A 00           .db 0
5122   1D2B 16           .db 22
5123   1D2C 09           .db 9
5124   1D2D 09           .db 9
5125   1D2E 0E           .db 14
5126   1D2F 08           .db 8
5127   1D30 18           .db 24
5128   1D31 00           .db 0
5129   1D32 00           .db 0
5130   1D33 0D           .db 13
5131   1D34 12           .db 18
5132   1D35 12           .db 18
5133   1D36 0E           .db 14
5134   1D37 02           .db 2
5135   1D38 03           .db 3
5136   1D39 00           .db 0
5137   1D3A 00           .db 0
5138   1D3B 16           .db 22
5139   1D3C 09           .db 9
5140   1D3D 08           .db 8
5141   1D3E 08           .db 8
5142   1D3F 1C           .db 28
5143   1D40 00           .db 0
5144   1D41 00           .db 0
5145   1D42 00           .db 0
5146   1D43 0E           .db 14
5147   1D44 10           .db 16
5148   1D45 0E           .db 14
5149   1D46 01           .db 1
5150   1D47 1E           .db 30
5151   1D48 00           .db 0
5152   1D49 00           .db 0
5153   1D4A 08           .db 8
5154   1D4B 1C           .db 28
5155   1D4C 08           .db 8
5156   1D4D 08           .db 8
5157   1D4E 08           .db 8
5158   1D4F 06           .db 6
5159   1D50 00           .db 0
5160   1D51 00           .db 0
5161   1D52 00           .db 0
5162   1D53 12           .db 18
5163   1D54 12           .db 18
5164   1D55 12           .db 18
5165   1D56 12           .db 18
5166   1D57 0D           .db 13
5167   1D58 00           .db 0
5168   1D59 00           .db 0
5169   1D5A 00           .db 0
5170   1D5B 11           .db 17
5171   1D5C 11           .db 17
5172   1D5D 11           .db 17
5173   1D5E 0A           .db 10
5174   1D5F 04           .db 4
5175   1D60 00           .db 0
5176   1D61 00           .db 0
5177   1D62 00           .db 0
5178   1D63 11           .db 17
5179   1D64 15           .db 21
5180   1D65 15           .db 21
5181   1D66 15           .db 21
5182   1D67 0A           .db 10
5183   1D68 00           .db 0
5184   1D69 00           .db 0
5185   1D6A 00           .db 0
5186   1D6B 11           .db 17
5187   1D6C 0A           .db 10
5188   1D6D 04           .db 4
5189   1D6E 0A           .db 10
5190   1D6F 11           .db 17
5191   1D70 00           .db 0
5192   1D71 00           .db 0
5193   1D72 00           .db 0
5194   1D73 11           .db 17
5195   1D74 11           .db 17
5196   1D75 0F           .db 15
5197   1D76 01           .db 1
5198   1D77 1E           .db 30
5199   1D78 00           .db 0
5200   1D79 00           .db 0
5201   1D7A 00           .db 0
5202   1D7B 1F           .db 31
5203   1D7C 12           .db 18
5204   1D7D 04           .db 4
5205   1D7E 09           .db 9
5206   1D7F 1F           .db 31
5207   1D80 00           .db 0
5208   1D81 03           .db 3
5209   1D82 04           .db 4
5210   1D83 04           .db 4
5211   1D84 08           .db 8
5212   1D85 04           .db 4
5213   1D86 04           .db 4
5214   1D87 03           .db 3
5215   1D88 00           .db 0
5216   1D89 00           .db 0
5217   1D8A 04           .db 4
5218   1D8B 04           .db 4
5219   1D8C 00           .db 0
5220   1D8D 00           .db 0
5221   1D8E 04           .db 4
5222   1D8F 04           .db 4
5223   1D90 00           .db 0
5224   1D91 18           .db 24
5225   1D92 04           .db 4
5226   1D93 04           .db 4
5227   1D94 02           .db 2
5228   1D95 04           .db 4
5229   1D96 04           .db 4
5230   1D97 18           .db 24
5231   1D98 00           .db 0
5232   1D99 0A           .db 10
5233   1D9A 14           .db 20
5234   1D9B 00           .db 0
5235   1D9C 00           .db 0
5236   1D9D 00           .db 0
5237   1D9E 00           .db 0
5238   1D9F 00           .db 0
5239   1DA0 00           .db 0
5240   1DA1 00           .db 0
5241   1DA2 00           .db 0
5242   1DA3 04           .db 4
5243   1DA4 0A           .db 10
5244   1DA5 11           .db 17
5245   1DA6 11           .db 17
5246   1DA7 1F           .db 31
5247   1DA8 00           .db 0
5248   1DA9 04           .db 4
5249   1DAA 0A           .db 10
5250   1DAB 11           .db 17
5251   1DAC 11           .db 17
5252   1DAD 1F           .db 31
5253   1DAE 11           .db 17
5254   1DAF 11           .db 17
5255   1DB0 00           .db 0
5256   1DB1 1F           .db 31
5257   1DB2 10           .db 16
5258   1DB3 10           .db 16
5259   1DB4 1E           .db 30
5260   1DB5 11           .db 17
5261   1DB6 11           .db 17
5262   1DB7 1E           .db 30
5263   1DB8 00           .db 0
5264   1DB9 1E           .db 30
5265   1DBA 11           .db 17
5266   1DBB 11           .db 17
5267   1DBC 1E           .db 30
5268   1DBD 11           .db 17
5269   1DBE 11           .db 17
5270   1DBF 1E           .db 30
5271   1DC0 00           .db 0
5272   1DC1 1F           .db 31
5273   1DC2 11           .db 17
5274   1DC3 10           .db 16
5275   1DC4 10           .db 16
5276   1DC5 10           .db 16
5277   1DC6 10           .db 16
5278   1DC7 10           .db 16
5279   1DC8 00           .db 0
5280   1DC9 06           .db 6
5281   1DCA 0A           .db 10
5282   1DCB 0A           .db 10
5283   1DCC 0A           .db 10
5284   1DCD 0A           .db 10
5285   1DCE 1F           .db 31
5286   1DCF 11           .db 17
5287   1DD0 00           .db 0
5288   1DD1 1F           .db 31
5289   1DD2 10           .db 16
5290   1DD3 10           .db 16
5291   1DD4 1E           .db 30
5292   1DD5 10           .db 16
5293   1DD6 10           .db 16
5294   1DD7 1F           .db 31
5295   1DD8 00           .db 0
5296   1DD9 11           .db 17
5297   1DDA 15           .db 21
5298   1DDB 15           .db 21
5299   1DDC 0E           .db 14
5300   1DDD 15           .db 21
5301   1DDE 15           .db 21
5302   1DDF 11           .db 17
5303   1DE0 00           .db 0
5304   1DE1 0E           .db 14
5305   1DE2 11           .db 17
5306   1DE3 01           .db 1
5307   1DE4 06           .db 6
5308   1DE5 01           .db 1
5309   1DE6 11           .db 17
5310   1DE7 0E           .db 14
5311   1DE8 00           .db 0
5312   1DE9 11           .db 17
5313   1DEA 11           .db 17
5314   1DEB 13           .db 19
5315   1DEC 15           .db 21
5316   1DED 19           .db 25
5317   1DEE 11           .db 17
5318   1DEF 11           .db 17
5319   1DF0 00           .db 0
5320   1DF1 15           .db 21
5321   1DF2 11           .db 17
5322   1DF3 13           .db 19
5323   1DF4 15           .db 21
5324   1DF5 19           .db 25
5325   1DF6 11           .db 17
5326   1DF7 11           .db 17
5327   1DF8 00           .db 0
5328   1DF9 11           .db 17
5329   1DFA 12           .db 18
5330   1DFB 14           .db 20
5331   1DFC 18           .db 24
5332   1DFD 14           .db 20
5333   1DFE 12           .db 18
5334   1DFF 11           .db 17
5335   1E00 00           .db 0
5336   1E01 07           .db 7
5337   1E02 09           .db 9
5338   1E03 09           .db 9
5339   1E04 09           .db 9
5340   1E05 09           .db 9
5341   1E06 09           .db 9
5342   1E07 19           .db 25
5343   1E08 00           .db 0
5344   1E09 11           .db 17
5345   1E0A 1B           .db 27
5346   1E0B 15           .db 21
5347   1E0C 15           .db 21
5348   1E0D 11           .db 17
5349   1E0E 11           .db 17
5350   1E0F 11           .db 17
5351   1E10 00           .db 0
5352   1E11 11           .db 17
5353   1E12 11           .db 17
5354   1E13 11           .db 17
5355   1E14 1F           .db 31
5356   1E15 11           .db 17
5357   1E16 11           .db 17
5358   1E17 11           .db 17
5359   1E18 00           .db 0
5360   1E19 0E           .db 14
5361   1E1A 11           .db 17
5362   1E1B 11           .db 17
5363   1E1C 11           .db 17
5364   1E1D 11           .db 17
5365   1E1E 11           .db 17
5366   1E1F 0E           .db 14
5367   1E20 00           .db 0
5368   1E21 1F           .db 31
5369   1E22 11           .db 17
5370   1E23 11           .db 17
5371   1E24 11           .db 17
5372   1E25 11           .db 17
5373   1E26 11           .db 17
5374   1E27 11           .db 17
5375   1E28 00           .db 0
5376   1E29 1E           .db 30
5377   1E2A 11           .db 17
5378   1E2B 11           .db 17
5379   1E2C 1E           .db 30
5380   1E2D 10           .db 16
5381   1E2E 10           .db 16
5382   1E2F 10           .db 16
5383   1E30 00           .db 0
5384   1E31 0E           .db 14
5385   1E32 11           .db 17
5386   1E33 10           .db 16
5387   1E34 10           .db 16
5388   1E35 10           .db 16
5389   1E36 11           .db 17
5390   1E37 0E           .db 14
5391   1E38 00           .db 0
5392   1E39 1F           .db 31
5393   1E3A 04           .db 4
5394   1E3B 04           .db 4
5395   1E3C 04           .db 4
5396   1E3D 04           .db 4
5397   1E3E 04           .db 4
5398   1E3F 04           .db 4
5399   1E40 00           .db 0
5400   1E41 11           .db 17
5401   1E42 11           .db 17
5402   1E43 11           .db 17
5403   1E44 0A           .db 10
5404   1E45 04           .db 4
5405   1E46 08           .db 8
5406   1E47 10           .db 16
5407   1E48 00           .db 0
5408   1E49 04           .db 4
5409   1E4A 1F           .db 31
5410   1E4B 15           .db 21
5411   1E4C 15           .db 21
5412   1E4D 1F           .db 31
5413   1E4E 04           .db 4
5414   1E4F 04           .db 4
5415   1E50 00           .db 0
5416   1E51 11           .db 17
5417   1E52 11           .db 17
5418   1E53 0A           .db 10
5419   1E54 04           .db 4
5420   1E55 0A           .db 10
5421   1E56 11           .db 17
5422   1E57 11           .db 17
5423   1E58 00           .db 0
5424   1E59 12           .db 18
5425   1E5A 12           .db 18
5426   1E5B 12           .db 18
5427   1E5C 12           .db 18
5428   1E5D 12           .db 18
5429   1E5E 1F           .db 31
5430   1E5F 01           .db 1
5431   1E60 00           .db 0
5432   1E61 11           .db 17
5433   1E62 11           .db 17
5434   1E63 11           .db 17
5435   1E64 1F           .db 31
5436   1E65 01           .db 1
5437   1E66 01           .db 1
5438   1E67 01           .db 1
5439   1E68 00           .db 0
5440   1E69 11           .db 17
5441   1E6A 15           .db 21
5442   1E6B 15           .db 21
5443   1E6C 15           .db 21
5444   1E6D 15           .db 21
5445   1E6E 15           .db 21
5446   1E6F 1F           .db 31
5447   1E70 00           .db 0
5448   1E71 15           .db 21
5449   1E72 15           .db 21
5450   1E73 15           .db 21
5451   1E74 15           .db 21
5452   1E75 15           .db 21
5453   1E76 1F           .db 31
5454   1E77 01           .db 1
5455   1E78 00           .db 0
5456   1E79 18           .db 24
5457   1E7A 08           .db 8
5458   1E7B 08           .db 8
5459   1E7C 0E           .db 14
5460   1E7D 09           .db 9
5461   1E7E 09           .db 9
5462   1E7F 0E           .db 14
5463   1E80 00           .db 0
5464   1E81 11           .db 17
5465   1E82 11           .db 17
5466   1E83 11           .db 17
5467   1E84 19           .db 25
5468   1E85 15           .db 21
5469   1E86 15           .db 21
5470   1E87 19           .db 25
5471   1E88 00           .db 0
5472   1E89 10           .db 16
5473   1E8A 10           .db 16
5474   1E8B 10           .db 16
5475   1E8C 1E           .db 30
5476   1E8D 11           .db 17
5477   1E8E 11           .db 17
5478   1E8F 1E           .db 30
5479   1E90 00           .db 0
5480   1E91 0E           .db 14
5481   1E92 11           .db 17
5482   1E93 01           .db 1
5483   1E94 07           .db 7
5484   1E95 01           .db 1
5485   1E96 11           .db 17
5486   1E97 0E           .db 14
5487   1E98 00           .db 0
5488   1E99 12           .db 18
5489   1E9A 15           .db 21
5490   1E9B 15           .db 21
5491   1E9C 1D           .db 29
5492   1E9D 15           .db 21
5493   1E9E 15           .db 21
5494   1E9F 12           .db 18
5495   1EA0 00           .db 0
5496   1EA1 0F           .db 15
5497   1EA2 11           .db 17
5498   1EA3 11           .db 17
5499   1EA4 0F           .db 15
5500   1EA5 05           .db 5
5501   1EA6 09           .db 9
5502   1EA7 11           .db 17
5503   1EA8 00           .db 0
5504   1EA9 00           .db 0
5505   1EAA 00           .db 0
5506   1EAB 0C           .db 12
5507   1EAC 02           .db 2
5508   1EAD 0E           .db 14
5509   1EAE 12           .db 18
5510   1EAF 0D           .db 13
5511   1EB0 00           .db 0
5512   1EB1 01           .db 1
5513   1EB2 0E           .db 14
5514   1EB3 18           .db 24
5515   1EB4 1E           .db 30
5516   1EB5 11           .db 17
5517   1EB6 11           .db 17
5518   1EB7 0E           .db 14
5519   1EB8 00           .db 0
5520   1EB9 00           .db 0
5521   1EBA 00           .db 0
5522   1EBB 1C           .db 28
5523   1EBC 12           .db 18
5524   1EBD 1E           .db 30
5525   1EBE 11           .db 17
5526   1EBF 1E           .db 30
5527   1EC0 00           .db 0
5528   1EC1 00           .db 0
5529   1EC2 00           .db 0
5530   1EC3 1F           .db 31
5531   1EC4 10           .db 16
5532   1EC5 10           .db 16
5533   1EC6 10           .db 16
5534   1EC7 10           .db 16
5535   1EC8 00           .db 0
5536   1EC9 00           .db 0
5537   1ECA 00           .db 0
5538   1ECB 06           .db 6
5539   1ECC 0A           .db 10
5540   1ECD 0A           .db 10
5541   1ECE 1F           .db 31
5542   1ECF 11           .db 17
5543   1ED0 00           .db 0
5544   1ED1 00           .db 0
5545   1ED2 00           .db 0
5546   1ED3 0E           .db 14
5547   1ED4 11           .db 17
5548   1ED5 1F           .db 31
5549   1ED6 10           .db 16
5550   1ED7 0F           .db 15
5551   1ED8 00           .db 0
5552   1ED9 00           .db 0
5553   1EDA 00           .db 0
5554   1EDB 15           .db 21
5555   1EDC 15           .db 21
5556   1EDD 0E           .db 14
5557   1EDE 15           .db 21
5558   1EDF 15           .db 21
5559   1EE0 00           .db 0
5560   1EE1 00           .db 0
5561   1EE2 00           .db 0
5562   1EE3 0E           .db 14
5563   1EE4 11           .db 17
5564   1EE5 06           .db 6
5565   1EE6 11           .db 17
5566   1EE7 0E           .db 14
5567   1EE8 00           .db 0
5568   1EE9 00           .db 0
5569   1EEA 00           .db 0
5570   1EEB 11           .db 17
5571   1EEC 13           .db 19
5572   1EED 15           .db 21
5573   1EEE 19           .db 25
5574   1EEF 11           .db 17
5575   1EF0 00           .db 0
5576   1EF1 00           .db 0
5577   1EF2 04           .db 4
5578   1EF3 11           .db 17
5579   1EF4 13           .db 19
5580   1EF5 15           .db 21
5581   1EF6 19           .db 25
5582   1EF7 11           .db 17
5583   1EF8 00           .db 0
5584   1EF9 00           .db 0
5585   1EFA 00           .db 0
5586   1EFB 11           .db 17
5587   1EFC 12           .db 18
5588   1EFD 1C           .db 28
5589   1EFE 12           .db 18
5590   1EFF 11           .db 17
5591   1F00 00           .db 0
5592   1F01 00           .db 0
5593   1F02 00           .db 0
5594   1F03 07           .db 7
5595   1F04 09           .db 9
5596   1F05 09           .db 9
5597   1F06 09           .db 9
5598   1F07 19           .db 25
5599   1F08 00           .db 0
5600   1F09 00           .db 0
5601   1F0A 00           .db 0
5602   1F0B 11           .db 17
5603   1F0C 1B           .db 27
5604   1F0D 15           .db 21
5605   1F0E 11           .db 17
5606   1F0F 11           .db 17
5607   1F10 00           .db 0
5608   1F11 00           .db 0
5609   1F12 00           .db 0
5610   1F13 11           .db 17
5611   1F14 11           .db 17
5612   1F15 1F           .db 31
5613   1F16 11           .db 17
5614   1F17 11           .db 17
5615   1F18 00           .db 0
5616   1F19 00           .db 0
5617   1F1A 00           .db 0
5618   1F1B 0E           .db 14
5619   1F1C 11           .db 17
5620   1F1D 11           .db 17
5621   1F1E 11           .db 17
5622   1F1F 0E           .db 14
5623   1F20 00           .db 0
5624   1F21 00           .db 0
5625   1F22 00           .db 0
5626   1F23 1F           .db 31
5627   1F24 11           .db 17
5628   1F25 11           .db 17
5629   1F26 11           .db 17
5630   1F27 11           .db 17
5631   1F28 00           .db 0
5632   1F29 11           .db 17
5633   1F2A 04           .db 4
5634   1F2B 11           .db 17
5635   1F2C 04           .db 4
5636   1F2D 11           .db 17
5637   1F2E 04           .db 4
5638   1F2F 11           .db 17
5639   1F30 04           .db 4
5640   1F31 15           .db 21
5641   1F32 2A           .db 42
5642   1F33 15           .db 21
5643   1F34 2A           .db 42
5644   1F35 15           .db 21
5645   1F36 2A           .db 42
5646   1F37 15           .db 21
5647   1F38 2A           .db 42
5648   1F39 2E           .db 46
5649   1F3A 3B           .db 59
5650   1F3B 2E           .db 46
5651   1F3C 3B           .db 59
5652   1F3D 2E           .db 46
5653   1F3E 3B           .db 59
5654   1F3F 2E           .db 46
5655   1F40 3B           .db 59
5656   1F41 04           .db 4
5657   1F42 04           .db 4
5658   1F43 04           .db 4
5659   1F44 04           .db 4
5660   1F45 04           .db 4
5661   1F46 04           .db 4
5662   1F47 04           .db 4
5663   1F48 04           .db 4
5664   1F49 04           .db 4
5665   1F4A 04           .db 4
5666   1F4B 04           .db 4
5667   1F4C 3C           .db 60
5668   1F4D 04           .db 4
5669   1F4E 04           .db 4
5670   1F4F 04           .db 4
5671   1F50 04           .db 4
5672   1F51 04           .db 4
5673   1F52 04           .db 4
5674   1F53 3C           .db 60
5675   1F54 04           .db 4
5676   1F55 3C           .db 60
5677   1F56 04           .db 4
5678   1F57 04           .db 4
5679   1F58 04           .db 4
5680   1F59 0A           .db 10
5681   1F5A 0A           .db 10
5682   1F5B 0A           .db 10
5683   1F5C 3A           .db 58
5684   1F5D 0A           .db 10
5685   1F5E 0A           .db 10
5686   1F5F 0A           .db 10
5687   1F60 0A           .db 10
5688   1F61 00           .db 0
5689   1F62 00           .db 0
5690   1F63 00           .db 0
5691   1F64 3F           .db 63
5692   1F65 0A           .db 10
5693   1F66 0A           .db 10
5694   1F67 0A           .db 10
5695   1F68 0A           .db 10
5696   1F69 00           .db 0
5697   1F6A 00           .db 0
5698   1F6B 3C           .db 60
5699   1F6C 04           .db 4
5700   1F6D 3C           .db 60
5701   1F6E 04           .db 4
5702   1F6F 04           .db 4
5703   1F70 04           .db 4
5704   1F71 0A           .db 10
5705   1F72 0A           .db 10
5706   1F73 3A           .db 58
5707   1F74 02           .db 2
5708   1F75 3A           .db 58
5709   1F76 0A           .db 10
5710   1F77 0A           .db 10
5711   1F78 0A           .db 10
5712   1F79 0A           .db 10
5713   1F7A 0A           .db 10
5714   1F7B 0A           .db 10
5715   1F7C 0A           .db 10
5716   1F7D 0A           .db 10
5717   1F7E 0A           .db 10
5718   1F7F 0A           .db 10
5719   1F80 0A           .db 10
5720   1F81 00           .db 0
5721   1F82 00           .db 0
5722   1F83 3E           .db 62
5723   1F84 02           .db 2
5724   1F85 3A           .db 58
5725   1F86 0A           .db 10
5726   1F87 0A           .db 10
5727   1F88 0A           .db 10
5728   1F89 0A           .db 10
5729   1F8A 0A           .db 10
5730   1F8B 3A           .db 58
5731   1F8C 02           .db 2
5732   1F8D 3E           .db 62
5733   1F8E 00           .db 0
5734   1F8F 00           .db 0
5735   1F90 00           .db 0
5736   1F91 0A           .db 10
5737   1F92 0A           .db 10
5738   1F93 0A           .db 10
5739   1F94 3E           .db 62
5740   1F95 00           .db 0
5741   1F96 00           .db 0
5742   1F97 00           .db 0
5743   1F98 00           .db 0
5744   1F99 04           .db 4
5745   1F9A 04           .db 4
5746   1F9B 3C           .db 60
5747   1F9C 04           .db 4
5748   1F9D 3C           .db 60
5749   1F9E 00           .db 0
5750   1F9F 00           .db 0
5751   1FA0 00           .db 0
5752   1FA1 00           .db 0
5753   1FA2 00           .db 0
5754   1FA3 00           .db 0
5755   1FA4 3C           .db 60
5756   1FA5 04           .db 4
5757   1FA6 04           .db 4
5758   1FA7 04           .db 4
5759   1FA8 04           .db 4
5760   1FA9 04           .db 4
5761   1FAA 04           .db 4
5762   1FAB 04           .db 4
5763   1FAC 07           .db 7
5764   1FAD 00           .db 0
5765   1FAE 00           .db 0
5766   1FAF 00           .db 0
5767   1FB0 00           .db 0
5768   1FB1 04           .db 4
5769   1FB2 04           .db 4
5770   1FB3 04           .db 4
5771   1FB4 3F           .db 63
5772   1FB5 00           .db 0
5773   1FB6 00           .db 0
5774   1FB7 00           .db 0
5775   1FB8 00           .db 0
5776   1FB9 00           .db 0
5777   1FBA 00           .db 0
5778   1FBB 00           .db 0
5779   1FBC 3F           .db 63
5780   1FBD 04           .db 4
5781   1FBE 04           .db 4
5782   1FBF 04           .db 4
5783   1FC0 04           .db 4
5784   1FC1 04           .db 4
5785   1FC2 04           .db 4
5786   1FC3 04           .db 4
5787   1FC4 07           .db 7
5788   1FC5 04           .db 4
5789   1FC6 04           .db 4
5790   1FC7 04           .db 4
5791   1FC8 04           .db 4
5792   1FC9 00           .db 0
5793   1FCA 00           .db 0
5794   1FCB 00           .db 0
5795   1FCC 3F           .db 63
5796   1FCD 00           .db 0
5797   1FCE 00           .db 0
5798   1FCF 00           .db 0
5799   1FD0 00           .db 0
5800   1FD1 04           .db 4
5801   1FD2 04           .db 4
5802   1FD3 04           .db 4
5803   1FD4 3F           .db 63
5804   1FD5 04           .db 4
5805   1FD6 04           .db 4
5806   1FD7 04           .db 4
5807   1FD8 04           .db 4
5808   1FD9 00           .db 0
5809   1FDA 00           .db 0
5810   1FDB 07           .db 7
5811   1FDC 04           .db 4
5812   1FDD 07           .db 7
5813   1FDE 04           .db 4
5814   1FDF 04           .db 4
5815   1FE0 04           .db 4
5816   1FE1 0A           .db 10
5817   1FE2 0A           .db 10
5818   1FE3 0A           .db 10
5819   1FE4 0B           .db 11
5820   1FE5 0A           .db 10
5821   1FE6 0A           .db 10
5822   1FE7 0A           .db 10
5823   1FE8 0A           .db 10
5824   1FE9 0A           .db 10
5825   1FEA 0A           .db 10
5826   1FEB 0B           .db 11
5827   1FEC 08           .db 8
5828   1FED 0F           .db 15
5829   1FEE 00           .db 0
5830   1FEF 00           .db 0
5831   1FF0 00           .db 0
5832   1FF1 00           .db 0
5833   1FF2 00           .db 0
5834   1FF3 0F           .db 15
5835   1FF4 08           .db 8
5836   1FF5 0B           .db 11
5837   1FF6 0A           .db 10
5838   1FF7 0A           .db 10
5839   1FF8 0A           .db 10
5840   1FF9 0A           .db 10
5841   1FFA 0A           .db 10
5842   1FFB 3B           .db 59
5843   1FFC 00           .db 0
5844   1FFD 3F           .db 63
5845   1FFE 00           .db 0
5846   1FFF 00           .db 0
5847   2000 00           .db 0
5848   2001 00           .db 0
5849   2002 00           .db 0
5850   2003 3F           .db 63
5851   2004 00           .db 0
5852   2005 3B           .db 59
5853   2006 0A           .db 10
5854   2007 0A           .db 10
5855   2008 0A           .db 10
5856   2009 0A           .db 10
5857   200A 0A           .db 10
5858   200B 0B           .db 11
5859   200C 08           .db 8
5860   200D 0B           .db 11
5861   200E 0A           .db 10
5862   200F 0A           .db 10
5863   2010 0A           .db 10
5864   2011 00           .db 0
5865   2012 00           .db 0
5866   2013 3F           .db 63
5867   2014 00           .db 0
5868   2015 3F           .db 63
5869   2016 00           .db 0
5870   2017 00           .db 0
5871   2018 00           .db 0
5872   2019 0A           .db 10
5873   201A 0A           .db 10
5874   201B 3B           .db 59
5875   201C 00           .db 0
5876   201D 3B           .db 59
5877   201E 0A           .db 10
5878   201F 0A           .db 10
5879   2020 0A           .db 10
5880   2021 04           .db 4
5881   2022 04           .db 4
5882   2023 3F           .db 63
5883   2024 00           .db 0
5884   2025 3F           .db 63
5885   2026 00           .db 0
5886   2027 00           .db 0
5887   2028 00           .db 0
5888   2029 0A           .db 10
5889   202A 0A           .db 10
5890   202B 0A           .db 10
5891   202C 3F           .db 63
5892   202D 00           .db 0
5893   202E 00           .db 0
5894   202F 00           .db 0
5895   2030 00           .db 0
5896   2031 00           .db 0
5897   2032 00           .db 0
5898   2033 3F           .db 63
5899   2034 00           .db 0
5900   2035 3F           .db 63
5901   2036 04           .db 4
5902   2037 04           .db 4
5903   2038 04           .db 4
5904   2039 00           .db 0
5905   203A 00           .db 0
5906   203B 00           .db 0
5907   203C 3F           .db 63
5908   203D 0A           .db 10
5909   203E 0A           .db 10
5910   203F 0A           .db 10
5911   2040 0A           .db 10
5912   2041 0A           .db 10
5913   2042 0A           .db 10
5914   2043 0A           .db 10
5915   2044 0F           .db 15
5916   2045 00           .db 0
5917   2046 00           .db 0
5918   2047 00           .db 0
5919   2048 00           .db 0
5920   2049 04           .db 4
5921   204A 04           .db 4
5922   204B 07           .db 7
5923   204C 04           .db 4
5924   204D 07           .db 7
5925   204E 00           .db 0
5926   204F 00           .db 0
5927   2050 00           .db 0
5928   2051 00           .db 0
5929   2052 00           .db 0
5930   2053 07           .db 7
5931   2054 04           .db 4
5932   2055 07           .db 7
5933   2056 04           .db 4
5934   2057 04           .db 4
5935   2058 04           .db 4
5936   2059 00           .db 0
5937   205A 00           .db 0
5938   205B 00           .db 0
5939   205C 0F           .db 15
5940   205D 0A           .db 10
5941   205E 0A           .db 10
5942   205F 0A           .db 10
5943   2060 0A           .db 10
5944   2061 0A           .db 10
5945   2062 0A           .db 10
5946   2063 0A           .db 10
5947   2064 3F           .db 63
5948   2065 0A           .db 10
5949   2066 0A           .db 10
5950   2067 0A           .db 10
5951   2068 0A           .db 10
5952   2069 04           .db 4
5953   206A 04           .db 4
5954   206B 3F           .db 63
5955   206C 04           .db 4
5956   206D 3F           .db 63
5957   206E 04           .db 4
5958   206F 04           .db 4
5959   2070 04           .db 4
5960   2071 04           .db 4
5961   2072 04           .db 4
5962   2073 04           .db 4
5963   2074 3C           .db 60
5964   2075 00           .db 0
5965   2076 00           .db 0
5966   2077 00           .db 0
5967   2078 00           .db 0
5968   2079 00           .db 0
5969   207A 00           .db 0
5970   207B 00           .db 0
5971   207C 07           .db 7
5972   207D 04           .db 4
5973   207E 04           .db 4
5974   207F 04           .db 4
5975   2080 04           .db 4
5976   2081 3F           .db 63
5977   2082 3F           .db 63
5978   2083 3F           .db 63
5979   2084 3F           .db 63
5980   2085 3F           .db 63
5981   2086 3F           .db 63
5982   2087 3F           .db 63
5983   2088 3F           .db 63
5984   2089 00           .db 0
5985   208A 00           .db 0
5986   208B 00           .db 0
5987   208C 00           .db 0
5988   208D 3F           .db 63
5989   208E 3F           .db 63
5990   208F 3F           .db 63
5991   2090 3F           .db 63
5992   2091 38           .db 56
5993   2092 38           .db 56
5994   2093 38           .db 56
5995   2094 38           .db 56
5996   2095 38           .db 56
5997   2096 38           .db 56
5998   2097 38           .db 56
5999   2098 38           .db 56
6000   2099 07           .db 7
6001   209A 07           .db 7
6002   209B 07           .db 7
6003   209C 07           .db 7
6004   209D 07           .db 7
6005   209E 07           .db 7
6006   209F 07           .db 7
6007   20A0 07           .db 7
6008   20A1 3F           .db 63
6009   20A2 3F           .db 63
6010   20A3 3F           .db 63
6011   20A4 3F           .db 63
6012   20A5 00           .db 0
6013   20A6 00           .db 0
6014   20A7 00           .db 0
6015   20A8 00           .db 0
6016   20A9 00           .db 0
6017   20AA 00           .db 0
6018   20AB 1E           .db 30
6019   20AC 11           .db 17
6020   20AD 1E           .db 30
6021   20AE 10           .db 16
6022   20AF 10           .db 16
6023   20B0 00           .db 0
6024   20B1 00           .db 0
6025   20B2 00           .db 0
6026   20B3 0E           .db 14
6027   20B4 11           .db 17
6028   20B5 10           .db 16
6029   20B6 11           .db 17
6030   20B7 0E           .db 14
6031   20B8 00           .db 0
6032   20B9 00           .db 0
6033   20BA 00           .db 0
6034   20BB 1F           .db 31
6035   20BC 04           .db 4
6036   20BD 04           .db 4
6037   20BE 04           .db 4
6038   20BF 04           .db 4
6039   20C0 00           .db 0
6040   20C1 00           .db 0
6041   20C2 00           .db 0
6042   20C3 11           .db 17
6043   20C4 11           .db 17
6044   20C5 0F           .db 15
6045   20C6 01           .db 1
6046   20C7 1E           .db 30
6047   20C8 00           .db 0
6048   20C9 00           .db 0
6049   20CA 04           .db 4
6050   20CB 0E           .db 14
6051   20CC 15           .db 21
6052   20CD 0E           .db 14
6053   20CE 04           .db 4
6054   20CF 04           .db 4
6055   20D0 00           .db 0
6056   20D1 00           .db 0
6057   20D2 00           .db 0
6058   20D3 11           .db 17
6059   20D4 0A           .db 10
6060   20D5 04           .db 4
6061   20D6 0A           .db 10
6062   20D7 11           .db 17
6063   20D8 00           .db 0
6064   20D9 00           .db 0
6065   20DA 00           .db 0
6066   20DB 12           .db 18
6067   20DC 12           .db 18
6068   20DD 12           .db 18
6069   20DE 1F           .db 31
6070   20DF 01           .db 1
6071   20E0 00           .db 0
6072   20E1 00           .db 0
6073   20E2 00           .db 0
6074   20E3 11           .db 17
6075   20E4 11           .db 17
6076   20E5 0F           .db 15
6077   20E6 01           .db 1
6078   20E7 01           .db 1
6079   20E8 00           .db 0
6080   20E9 00           .db 0
6081   20EA 00           .db 0
6082   20EB 15           .db 21
6083   20EC 15           .db 21
6084   20ED 15           .db 21
6085   20EE 15           .db 21
6086   20EF 1F           .db 31
6087   20F0 00           .db 0
6088   20F1 00           .db 0
6089   20F2 00           .db 0
6090   20F3 15           .db 21
6091   20F4 15           .db 21
6092   20F5 15           .db 21
6093   20F6 1F           .db 31
6094   20F7 01           .db 1
6095   20F8 00           .db 0
6096   20F9 00           .db 0
6097   20FA 00           .db 0
6098   20FB 18           .db 24
6099   20FC 08           .db 8
6100   20FD 0E           .db 14
6101   20FE 09           .db 9
6102   20FF 0E           .db 14
6103   2100 00           .db 0
6104   2101 00           .db 0
6105   2102 00           .db 0
6106   2103 11           .db 17
6107   2104 11           .db 17
6108   2105 1D           .db 29
6109   2106 15           .db 21
6110   2107 1D           .db 29
6111   2108 00           .db 0
6112   2109 00           .db 0
6113   210A 00           .db 0
6114   210B 10           .db 16
6115   210C 10           .db 16
6116   210D 1E           .db 30
6117   210E 11           .db 17
6118   210F 1E           .db 30
6119   2110 00           .db 0
6120   2111 00           .db 0
6121   2112 00           .db 0
6122   2113 1E           .db 30
6123   2114 01           .db 1
6124   2115 0F           .db 15
6125   2116 01           .db 1
6126   2117 1E           .db 30
6127   2118 00           .db 0
6128   2119 00           .db 0
6129   211A 00           .db 0
6130   211B 12           .db 18
6131   211C 15           .db 21
6132   211D 1D           .db 29
6133   211E 15           .db 21
6134   211F 12           .db 18
6135   2120 00           .db 0
6136   2121 00           .db 0
6137   2122 00           .db 0
6138   2123 0F           .db 15
6139   2124 11           .db 17
6140   2125 0F           .db 15
6141   2126 09           .db 9
6142   2127 11           .db 17
6143   2128 00           .db 0
6144   2129 0A           .db 10
6145   212A 00           .db 0
6146   212B 1F           .db 31
6147   212C 10           .db 16
6148   212D 1E           .db 30
6149   212E 10           .db 16
6150   212F 1F           .db 31
6151   2130 00           .db 0
6152   2131 0A           .db 10
6153   2132 00           .db 0
6154   2133 0E           .db 14
6155   2134 11           .db 17
6156   2135 1F           .db 31
6157   2136 10           .db 16
6158   2137 0F           .db 15
6159   2138 00           .db 0
6160   2139 0C           .db 12
6161   213A 12           .db 18
6162   213B 04           .db 4
6163   213C 08           .db 8
6164   213D 1E           .db 30
6165   213E 00           .db 0
6166   213F 00           .db 0
6167   2140 00           .db 0
6168   2141 0C           .db 12
6169   2142 12           .db 18
6170   2143 04           .db 4
6171   2144 12           .db 18
6172   2145 0C           .db 12
6173   2146 00           .db 0
6174   2147 00           .db 0
6175   2148 00           .db 0
6176   2149 04           .db 4
6177   214A 0C           .db 12
6178   214B 14           .db 20
6179   214C 1E           .db 30
6180   214D 04           .db 4
6181   214E 00           .db 0
6182   214F 00           .db 0
6183   2150 00           .db 0
6184   2151 00           .db 0
6185   2152 00           .db 0
6186   2153 00           .db 0
6187   2154 00           .db 0
6188   2155 00           .db 0
6189   2156 00           .db 0
6190   2157 00           .db 0
6191   2158 00           .db 0
6192   2159 0C           .db 12
6193   215A 0C           .db 12
6194   215B 00           .db 0
6195   215C 3F           .db 63
6196   215D 00           .db 0
6197   215E 0C           .db 12
6198   215F 0C           .db 12
6199   2160 00           .db 0
6200   2161 00           .db 0
6201   2162 0A           .db 10
6202   2163 14           .db 20
6203   2164 00           .db 0
6204   2165 0A           .db 10
6205   2166 14           .db 20
6206   2167 00           .db 0
6207   2168 00           .db 0
6208   2169 00           .db 0
6209   216A 08           .db 8
6210   216B 14           .db 20
6211   216C 08           .db 8
6212   216D 00           .db 0
6213   216E 00           .db 0
6214   216F 00           .db 0
6215   2170 00           .db 0
6216   2171 00           .db 0
6217   2172 00           .db 0
6218   2173 00           .db 0
6219   2174 00           .db 0
6220   2175 0C           .db 12
6221   2176 00           .db 0
6222   2177 00           .db 0
6223   2178 00           .db 0
6224   2179 1C           .db 28
6225   217A 1C           .db 28
6226   217B 00           .db 0
6227   217C 00           .db 0
6228   217D 00           .db 0
6229   217E 00           .db 0
6230   217F 00           .db 0
6231   2180 00           .db 0
6232   2181 01           .db 1
6233   2182 01           .db 1
6234   2183 02           .db 2
6235   2184 02           .db 2
6236   2185 24           .db 36
6237   2186 14           .db 20
6238   2187 08           .db 8
6239   2188 00           .db 0
6240   2189 03           .db 3
6241   218A 03           .db 3
6242   218B 24           .db 36
6243   218C 34           .db 52
6244   218D 2C           .db 44
6245   218E 24           .db 36
6246   218F 24           .db 36
6247   2190 00           .db 0
6248   2191 00           .db 0
6249   2192 00           .db 0
6250   2193 00           .db 0
6251   2194 00           .db 0
6252   2195 00           .db 0
6253   2196 00           .db 0
6254   2197 00           .db 0
6255   2198 00           .db 0
6256   2199 00           .db 0
6257   219A 1E           .db 30
6258   219B 1E           .db 30
6259   219C 1E           .db 30
6260   219D 00           .db 0
6261   219E 00           .db 0
6262   219F 00           .db 0
6263   21A0 00           .db 0
6264   21A1 00           .db 0
6265   21A2 00           .db 0
6266   21A3 00           .db 0
6267   21A4 00           .db 0
6268   21A5 00           .db 0
6269   21A6 00           .db 0
6270   21A7 00           .db 0
6271   21A8 00           .db 0
6272   21A9             
6273   21A9             print_p1_1:
6274   21A9              .ds 2
6275   21AB             print_p1_2:
6276   21AB              .ds 2
6277   21AD             print_p2_1:
6278   21AD              .ds 2
6279   21AF             print_p2_2:
6280   21AF              .ds 2
6281   21B1             print_p3_1:
6282   21B1              .ds 2
6283   21B3             print_p3_2:
6284   21B3              .ds 2
6285   21B5             print_p4_1:
6286   21B5              .ds 2
6287   21B7             print_p4_2:
6288   21B7              .ds 2
6289   21B9             print1_1:
6290   21B9              .ds 2
6291   21BB             print1_2:
6292   21BB              .ds 1
6293   21BC             print1_3:
6294   21BC              .ds 1
6295   21BD             print1_4:
6296   21BD              .ds 2
6297   21BF             print1_s:
6298   21BF              .ds 2
6299   21C1             print1_c:
6300   21C1              .ds 1
6301   21C2             print1_e:
6302   21C2              .ds 1
6303   21C3             print_1:
6304   21C3              .ds 1
6305   21C4             print_2:
6306   21C4              .ds 1
6307   21C5             print_3:
6308   21C5              .ds 1
6309   21C6             print_4:
6310   21C6              .ds 2
6311   21C8             bitBlt_1:
6312   21C8              .ds 2
6313   21CA             bitBlt_2:
6314   21CA              .ds 2
6315   21CC             bitBlt_3:
6316   21CC              .ds 2
6317   21CE             bitBlt_bw_1:
6318   21CE              .ds 2
6319   21D0             bitBlt_bw_2:
6320   21D0              .ds 2
6321   21D2             bitBlt_bw_3:
6322   21D2              .ds 2
6323   21D4             colorRect_1:
6324   21D4              .ds 2
6325   21D6             colorRect_2:
6326   21D6              .ds 2
6327   21D8             unmlz_1:
6328   21D8              .ds 2
6329   21DA             unmlz_2:
6330   21DA              .ds 2
6331   21DC             music:
6332   21DC 4B 00        .dw 75
6333   21DE 55 03        .dw 853
6334   21E0 3B 00        .dw 59
6335   21E2 1E 02        .dw 542
6336   21E4 32 00        .dw 50
6337   21E6 80 02        .dw 640
6338   21E8 3B 00        .dw 59
6339   21EA 1E 02        .dw 542
6340   21EC 4B 00        .dw 75
6341   21EE 55 03        .dw 853
6342   21F0 64 00        .dw 100
6343   21F2 40 01        .dw 320
6344   21F4 59 00        .dw 89
6345   21F6 67 01        .dw 359
6346   21F8 4F 00        .dw 79
6347   21FA 95 01        .dw 405
6348   21FC 4B 00        .dw 75
6349   21FE 55 03        .dw 853
6350   2200 3B 00        .dw 59
6351   2202 1E 02        .dw 542
6352   2204 32 00        .dw 50
6353   2206 80 02        .dw 640
6354   2208 3B 00        .dw 59
6355   220A 1E 02        .dw 542
6356   220C 43 00        .dw 67
6357   220E BB 03        .dw 955
6358   2210 64 00        .dw 100
6359   2212 40 01        .dw 320
6360   2214 59 00        .dw 89
6361   2216 67 01        .dw 359
6362   2218 4F 00        .dw 79
6363   221A 95 01        .dw 405
6364   221C 4F 00        .dw 79
6365   221E 2A 03        .dw 810
6366   2220 64 00        .dw 100
6367   2222 40 01        .dw 320
6368   2224 59 00        .dw 89
6369   2226 67 01        .dw 359
6370   2228 4F 00        .dw 79
6371   222A 95 01        .dw 405
6372   222C 4B 00        .dw 75
6373   222E AA 06        .dw 1706
6374   2230 4B 00        .dw 75
6375   2232 55 03        .dw 853
6376   2234 3B 00        .dw 59
6377   2236 1E 02        .dw 542
6378   2238 32 00        .dw 50
6379   223A 80 02        .dw 640
6380   223C 3B 00        .dw 59
6381   223E 1E 02        .dw 542
6382   2240 43 00        .dw 67
6383   2242 BB 03        .dw 955
6384   2244 64 00        .dw 100
6385   2246 40 01        .dw 320
6386   2248 59 00        .dw 89
6387   224A 67 01        .dw 359
6388   224C 4F 00        .dw 79
6389   224E 95 01        .dw 405
6390   2250 4F 00        .dw 79
6391   2252 2A 03        .dw 810
6392   2254 64 00        .dw 100
6393   2256 40 01        .dw 320
6394   2258 59 00        .dw 89
6395   225A 67 01        .dw 359
6396   225C 4F 00        .dw 79
6397   225E 95 01        .dw 405
6398   2260 4B 00        .dw 75
6399   2262 AA 06        .dw 1706
6400   2264 00 00        .dw 0
6401   2266             
6402   2266             imgTitle:
6403   2266 00           .db 0
6404   2267 60           .db 96
6405   2268 54           .db 84
6406   2269 A3           .db 163
6407   226A FF           .db 255
6408   226B 01           .db 1
6409   226C C7           .db 199
6410   226D 03           .db 3
6411   226E 87           .db 135
6412   226F 02           .db 2
6413   2270 07           .db 7
6414   2271 8E           .db 142
6415   2272 0F           .db 15
6416   2273 28           .db 40
6417   2274 70           .db 112
6418   2275 06           .db 6
6419   2276 81           .db 129
6420   2277 25           .db 37
6421   2278 F4           .db 244
6422   2279 EF           .db 239
6423   227A 94           .db 148
6424   227B E3           .db 227
6425   227C A1           .db 161
6426   227D 03           .db 3
6427   227E FF           .db 255
6428   227F EF           .db 239
6429   2280 60           .db 96
6430   2281 66           .db 102
6431   2282 3F           .db 63
6432   2283 FF           .db 255
6433   2284 30           .db 48
6434   2285 78           .db 120
6435   2286 C8           .db 200
6436   2287 C0           .db 192
6437   2288 E0           .db 224
6438   2289 79           .db 121
6439   228A C6           .db 198
6440   228B 1F           .db 31
6441   228C 0F           .db 15
6442   228D 8F           .db 143
6443   228E 3F           .db 63
6444   228F 7F           .db 127
6445   2290 9C           .db 156
6446   2291 FF           .db 255
6447   2292 FF           .db 255
6448   2293 EF           .db 239
6449   2294 DF           .db 223
6450   2295 0F           .db 15
6451   2296 FD           .db 253
6452   2297 F1           .db 241
6453   2298 E1           .db 225
6454   2299 87           .db 135
6455   229A 3F           .db 63
6456   229B F2           .db 242
6457   229C 9F           .db 159
6458   229D E7           .db 231
6459   229E 3B           .db 59
6460   229F DD           .db 221
6461   22A0 EE           .db 238
6462   22A1 FF           .db 255
6463   22A2 0E           .db 14
6464   22A3 A1           .db 161
6465   22A4 FD           .db 253
6466   22A5 F3           .db 243
6467   22A6 6F           .db 111
6468   22A7 1F           .db 31
6469   22A8 3E           .db 62
6470   22A9 19           .db 25
6471   22AA 5F           .db 95
6472   22AB F5           .db 245
6473   22AC 4D           .db 77
6474   22AD D5           .db 213
6475   22AE F8           .db 248
6476   22AF BD           .db 189
6477   22B0 C0           .db 192
6478   22B1 DE           .db 222
6479   22B2 18           .db 24
6480   22B3 1A           .db 26
6481   22B4 0F           .db 15
6482   22B5 FF           .db 255
6483   22B6 7E           .db 126
6484   22B7 F0           .db 240
6485   22B8 EE           .db 238
6486   22B9 E9           .db 233
6487   22BA F8           .db 248
6488   22BB E8           .db 232
6489   22BC EC           .db 236
6490   22BD F4           .db 244
6491   22BE F9           .db 249
6492   22BF FD           .db 253
6493   22C0 FB           .db 251
6494   22C1 FE           .db 254
6495   22C2 FF           .db 255
6496   22C3 25           .db 37
6497   22C4 FF           .db 255
6498   22C5 FE           .db 254
6499   22C6 CE           .db 206
6500   22C7 E1           .db 225
6501   22C8 9F           .db 159
6502   22C9 0F           .db 15
6503   22CA F8           .db 248
6504   22CB E7           .db 231
6505   22CC 78           .db 120
6506   22CD FB           .db 251
6507   22CE F5           .db 245
6508   22CF AA           .db 170
6509   22D0 55           .db 85
6510   22D1 C2           .db 194
6511   22D2 63           .db 99
6512   22D3 3F           .db 63
6513   22D4 79           .db 121
6514   22D5 D2           .db 210
6515   22D6 F9           .db 249
6516   22D7 FF           .db 255
6517   22D8 70           .db 112
6518   22D9 C0           .db 192
6519   22DA D1           .db 209
6520   22DB 7C           .db 124
6521   22DC 00           .db 0
6522   22DD E0           .db 224
6523   22DE 90           .db 144
6524   22DF 98           .db 152
6525   22E0 46           .db 70
6526   22E1 1F           .db 31
6527   22E2 FC           .db 252
6528   22E3 15           .db 21
6529   22E4 FC           .db 252
6530   22E5 E2           .db 226
6531   22E6 DE           .db 222
6532   22E7 10           .db 16
6533   22E8 EF           .db 239
6534   22E9 8E           .db 142
6535   22EA 12           .db 18
6536   22EB D1           .db 209
6537   22EC 02           .db 2
6538   22ED 00           .db 0
6539   22EE 03           .db 3
6540   22EF 41           .db 65
6541   22F0 5D           .db 93
6542   22F1 8C           .db 140
6543   22F2 51           .db 81
6544   22F3 20           .db 32
6545   22F4 40           .db 64
6546   22F5 53           .db 83
6547   22F6 FF           .db 255
6548   22F7 02           .db 2
6549   22F8 54           .db 84
6550   22F9 A8           .db 168
6551   22FA C7           .db 199
6552   22FB 50           .db 80
6553   22FC E0           .db 224
6554   22FD DD           .db 221
6555   22FE E3           .db 227
6556   22FF F7           .db 247
6557   2300 E6           .db 230
6558   2301 DF           .db 223
6559   2302 06           .db 6
6560   2303 8B           .db 139
6561   2304 00           .db 0
6562   2305 04           .db 4
6563   2306 0E           .db 14
6564   2307 1F           .db 31
6565   2308 3E           .db 62
6566   2309 30           .db 48
6567   230A FF           .db 255
6568   230B 0C           .db 12
6569   230C 79           .db 121
6570   230D F3           .db 243
6571   230E FE           .db 254
6572   230F DC           .db 220
6573   2310 00           .db 0
6574   2311 20           .db 32
6575   2312 F0           .db 240
6576   2313 3F           .db 63
6577   2314 1D           .db 29
6578   2315 DF           .db 223
6579   2316 AC           .db 172
6580   2317 D8           .db 216
6581   2318 A8           .db 168
6582   2319 58           .db 88
6583   231A F1           .db 241
6584   231B E8           .db 232
6585   231C 78           .db 120
6586   231D 70           .db 112
6587   231E 00           .db 0
6588   231F 90           .db 144
6589   2320 FF           .db 255
6590   2321 3E           .db 62
6591   2322 60           .db 96
6592   2323 C0           .db 192
6593   2324 80           .db 128
6594   2325 DB           .db 219
6595   2326 FC           .db 252
6596   2327 D9           .db 217
6597   2328 B0           .db 176
6598   2329 D0           .db 208
6599   232A F0           .db 240
6600   232B 70           .db 112
6601   232C D8           .db 216
6602   232D 18           .db 24
6603   232E 2D           .db 45
6604   232F 10           .db 16
6605   2330 03           .db 3
6606   2331 07           .db 7
6607   2332 C5           .db 197
6608   2333 FF           .db 255
6609   2334 C4           .db 196
6610   2335 33           .db 51
6611   2336 F7           .db 247
6612   2337 5D           .db 93
6613   2338 07           .db 7
6614   2339 C7           .db 199
6615   233A 7E           .db 126
6616   233B F8           .db 248
6617   233C F3           .db 243
6618   233D DC           .db 220
6619   233E 9C           .db 156
6620   233F 38           .db 56
6621   2340 70           .db 112
6622   2341 18           .db 24
6623   2342 78           .db 120
6624   2343 FC           .db 252
6625   2344 FC           .db 252
6626   2345 3E           .db 62
6627   2346 1E           .db 30
6628   2347 FF           .db 255
6629   2348 FE           .db 254
6630   2349 F0           .db 240
6631   234A 06           .db 6
6632   234B 0B           .db 11
6633   234C 5B           .db 91
6634   234D A0           .db 160
6635   234E 22           .db 34
6636   234F 89           .db 137
6637   2350 30           .db 48
6638   2351 AC           .db 172
6639   2352 FF           .db 255
6640   2353 C1           .db 193
6641   2354 4B           .db 75
6642   2355 7C           .db 124
6643   2356 8F           .db 143
6644   2357 E0           .db 224
6645   2358 F0           .db 240
6646   2359 FC           .db 252
6647   235A 7F           .db 127
6648   235B 9E           .db 158
6649   235C 0F           .db 15
6650   235D 07           .db 7
6651   235E 83           .db 131
6652   235F 1F           .db 31
6653   2360 C1           .db 193
6654   2361 E1           .db 225
6655   2362 C7           .db 199
6656   2363 F3           .db 243
6657   2364 FF           .db 255
6658   2365 EC           .db 236
6659   2366 1F           .db 31
6660   2367 0F           .db 15
6661   2368 03           .db 3
6662   2369 18           .db 24
6663   236A 7F           .db 127
6664   236B 8C           .db 140
6665   236C 40           .db 64
6666   236D 93           .db 147
6667   236E 60           .db 96
6668   236F 8A           .db 138
6669   2370 FF           .db 255
6670   2371 F8           .db 248
6671   2372 A0           .db 160
6672   2373 FC           .db 252
6673   2374 FF           .db 255
6674   2375 6C           .db 108
6675   2376 26           .db 38
6676   2377 17           .db 23
6677   2378 FF           .db 255
6678   2379 D5           .db 213
6679   237A 73           .db 115
6680   237B 70           .db 112
6681   237C 7F           .db 127
6682   237D 3F           .db 63
6683   237E 26           .db 38
6684   237F 5E           .db 94
6685   2380 53           .db 83
6686   2381 02           .db 2
6687   2382 48           .db 72
6688   2383 FF           .db 255
6689   2384 BB           .db 187
6690   2385 4C           .db 76
6691   2386 29           .db 41
6692   2387 33           .db 51
6693   2388 FF           .db 255
6694   2389 9B           .db 155
6695   238A 7F           .db 127
6696   238B 05           .db 5
6697   238C 06           .db 6
6698   238D 53           .db 83
6699   238E FE           .db 254
6700   238F 74           .db 116
6701   2390 12           .db 18
6702   2391 80           .db 128
6703   2392 78           .db 120
6704   2393 C0           .db 192
6705   2394 F4           .db 244
6706   2395 E0           .db 224
6707   2396 FF           .db 255
6708   2397 08           .db 8
6709   2398 06           .db 6
6710   2399 0C           .db 12
6711   239A 2F           .db 47
6712   239B 00           .db 0
6713   239C 10           .db 16
6714   239D 18           .db 24
6715   239E 38           .db 56
6716   239F 3C           .db 60
6717   23A0 1F           .db 31
6718   23A1 3E           .db 62
6719   23A2 7F           .db 127
6720   23A3 5B           .db 91
6721   23A4 AA           .db 170
6722   23A5 B0           .db 176
6723   23A6 7E           .db 126
6724   23A7 98           .db 152
6725   23A8 FF           .db 255
6726   23A9 5A           .db 90
6727   23AA D3           .db 211
6728   23AB B5           .db 181
6729   23AC FF           .db 255
6730   23AD CF           .db 207
6731   23AE 07           .db 7
6732   23AF 91           .db 145
6733   23B0 88           .db 136
6734   23B1 FB           .db 251
6735   23B2 00           .db 0
6736   23B3 70           .db 112
6737   23B4 FF           .db 255
6738   23B5 0B           .db 11
6739   23B6 05           .db 5
6740   23B7 FF           .db 255
6741   23B8 26           .db 38
6742   23B9 94           .db 148
6743   23BA 7F           .db 127
6744   23BB FE           .db 254
6745   23BC 77           .db 119
6746   23BD 99           .db 153
6747   23BE 66           .db 102
6748   23BF B9           .db 185
6749   23C0 56           .db 86
6750   23C1 EB           .db 235
6751   23C2 55           .db 85
6752   23C3 B9           .db 185
6753   23C4 33           .db 51
6754   23C5 D5           .db 213
6755   23C6 F6           .db 246
6756   23C7 6A           .db 106
6757   23C8 15           .db 21
6758   23C9 0E           .db 14
6759   23CA 03           .db 3
6760   23CB 0D           .db 13
6761   23CC 98           .db 152
6762   23CD D7           .db 215
6763   23CE 2E           .db 46
6764   23CF D1           .db 209
6765   23D0 22           .db 34
6766   23D1 EC           .db 236
6767   23D2 D1           .db 209
6768   23D3 FB           .db 251
6769   23D4 34           .db 52
6770   23D5 09           .db 9
6771   23D6 8B           .db 139
6772   23D7 FF           .db 255
6773   23D8 B9           .db 185
6774   23D9 66           .db 102
6775   23DA BF           .db 191
6776   23DB 8F           .db 143
6777   23DC A0           .db 160
6778   23DD 71           .db 113
6779   23DE B5           .db 181
6780   23DF 2B           .db 43
6781   23E0 B4           .db 180
6782   23E1 0F           .db 15
6783   23E2 2C           .db 44
6784   23E3 60           .db 96
6785   23E4 2B           .db 43
6786   23E5 47           .db 71
6787   23E6 02           .db 2
6788   23E7 FC           .db 252
6789   23E8 96           .db 150
6790   23E9 7C           .db 124
6791   23EA FF           .db 255
6792   23EB 49           .db 73
6793   23EC 7D           .db 125
6794   23ED 7B           .db 123
6795   23EE B7           .db 183
6796   23EF 9F           .db 159
6797   23F0 63           .db 99
6798   23F1 FA           .db 250
6799   23F2 9C           .db 156
6800   23F3 6D           .db 109
6801   23F4 B3           .db 179
6802   23F5 5C           .db 92
6803   23F6 AF           .db 175
6804   23F7 FC           .db 252
6805   23F8 FC           .db 252
6806   23F9 EA           .db 234
6807   23FA F2           .db 242
6808   23FB FC           .db 252
6809   23FC 75           .db 117
6810   23FD 1E           .db 30
6811   23FE 0D           .db 13
6812   23FF 3F           .db 63
6813   2400 C1           .db 193
6814   2401 A7           .db 167
6815   2402 0B           .db 11
6816   2403 D7           .db 215
6817   2404 CB           .db 203
6818   2405 92           .db 146
6819   2406 6E           .db 110
6820   2407 A4           .db 164
6821   2408 47           .db 71
6822   2409 C6           .db 198
6823   240A C7           .db 199
6824   240B B3           .db 179
6825   240C C3           .db 195
6826   240D 14           .db 20
6827   240E FF           .db 255
6828   240F C7           .db 199
6829   2410 EA           .db 234
6830   2411 67           .db 103
6831   2412 2F           .db 47
6832   2413 EB           .db 235
6833   2414 C7           .db 199
6834   2415 57           .db 87
6835   2416 D4           .db 212
6836   2417 F8           .db 248
6837   2418 A8           .db 168
6838   2419 63           .db 99
6839   241A 07           .db 7
6840   241B 8E           .db 142
6841   241C 8C           .db 140
6842   241D 8D           .db 141
6843   241E 2E           .db 46
6844   241F 37           .db 55
6845   2420 FF           .db 255
6846   2421 FB           .db 251
6847   2422 B9           .db 185
6848   2423 55           .db 85
6849   2424 80           .db 128
6850   2425 F8           .db 248
6851   2426 EF           .db 239
6852   2427 EA           .db 234
6853   2428 3F           .db 63
6854   2429 8F           .db 143
6855   242A F3           .db 243
6856   242B 3C           .db 60
6857   242C FC           .db 252
6858   242D CF           .db 207
6859   242E B3           .db 179
6860   242F 5C           .db 92
6861   2430 EF           .db 239
6862   2431 55           .db 85
6863   2432 AB           .db 171
6864   2433 6A           .db 106
6865   2434 EE           .db 238
6866   2435 F7           .db 247
6867   2436 F6           .db 246
6868   2437 6E           .db 110
6869   2438 35           .db 53
6870   2439 0B           .db 11
6871   243A D8           .db 216
6872   243B 07           .db 7
6873   243C 01           .db 1
6874   243D 33           .db 51
6875   243E 61           .db 97
6876   243F D7           .db 215
6877   2440 7A           .db 122
6878   2441 E8           .db 232
6879   2442 C1           .db 193
6880   2443 6B           .db 107
6881   2444 FF           .db 255
6882   2445 C0           .db 192
6883   2446 82           .db 130
6884   2447 F8           .db 248
6885   2448 B2           .db 178
6886   2449 CB           .db 203
6887   244A FF           .db 255
6888   244B A3           .db 163
6889   244C 80           .db 128
6890   244D 16           .db 22
6891   244E EA           .db 234
6892   244F 60           .db 96
6893   2450 EB           .db 235
6894   2451 C7           .db 199
6895   2452 F2           .db 242
6896   2453 E1           .db 225
6897   2454 9F           .db 159
6898   2455 C0           .db 192
6899   2456 FF           .db 255
6900   2457 00           .db 0
6901   2458 1E           .db 30
6902   2459 3F           .db 63
6903   245A FF           .db 255
6904   245B 61           .db 97
6905   245C B9           .db 185
6906   245D FF           .db 255
6907   245E AF           .db 175
6908   245F 1B           .db 27
6909   2460 BA           .db 186
6910   2461 7F           .db 127
6911   2462 00           .db 0
6912   2463 1F           .db 31
6913   2464 E3           .db 227
6914   2465 B4           .db 180
6915   2466 FC           .db 252
6916   2467 EF           .db 239
6917   2468 E9           .db 233
6918   2469 1F           .db 31
6919   246A E7           .db 231
6920   246B F1           .db 241
6921   246C F3           .db 243
6922   246D 3E           .db 62
6923   246E CD           .db 205
6924   246F B3           .db 179
6925   2470 5D           .db 93
6926   2471 00           .db 0
6927   2472 BB           .db 187
6928   2473 18           .db 24
6929   2474 47           .db 71
6930   2475 FF           .db 255
6931   2476 F8           .db 248
6932   2477 3B           .db 59
6933   2478 0D           .db 13
6934   2479 D8           .db 216
6935   247A 06           .db 6
6936   247B 01           .db 1
6937   247C 2E           .db 46
6938   247D 63           .db 99
6939   247E D7           .db 215
6940   247F 08           .db 8
6941   2480 1C           .db 28
6942   2481 DF           .db 223
6943   2482 1E           .db 30
6944   2483 1F           .db 31
6945   2484 F8           .db 248
6946   2485 3C           .db 60
6947   2486 FE           .db 254
6948   2487 F6           .db 246
6949   2488 FC           .db 252
6950   2489 68           .db 104
6951   248A FF           .db 255
6952   248B B1           .db 177
6953   248C EE           .db 238
6954   248D 23           .db 35
6955   248E EB           .db 235
6956   248F 9E           .db 158
6957   2490 A7           .db 167
6958   2491 7F           .db 127
6959   2492 7E           .db 126
6960   2493 3C           .db 60
6961   2494 18           .db 24
6962   2495 7B           .db 123
6963   2496 FF           .db 255
6964   2497 08           .db 8
6965   2498 81           .db 129
6966   2499 C3           .db 195
6967   249A 0D           .db 13
6968   249B 51           .db 81
6969   249C 00           .db 0
6970   249D 1F           .db 31
6971   249E DD           .db 221
6972   249F D6           .db 214
6973   24A0 C5           .db 197
6974   24A1 CA           .db 202
6975   24A2 26           .db 38
6976   24A3 FE           .db 254
6977   24A4 66           .db 102
6978   24A5 AF           .db 175
6979   24A6 8F           .db 143
6980   24A7 F1           .db 241
6981   24A8 FA           .db 250
6982   24A9 C0           .db 192
6983   24AA BE           .db 190
6984   24AB AE           .db 174
6985   24AC BB           .db 187
6986   24AD F5           .db 245
6987   24AE E3           .db 227
6988   24AF FB           .db 251
6989   24B0 DC           .db 220
6990   24B1 6F           .db 111
6991   24B2 9D           .db 157
6992   24B3 E7           .db 231
6993   24B4 59           .db 89
6994   24B5 FE           .db 254
6995   24B6 FC           .db 252
6996   24B7 F7           .db 247
6997   24B8 FC           .db 252
6998   24B9 FB           .db 251
6999   24BA 35           .db 53
7000   24BB 1E           .db 30
7001   24BC 5E           .db 94
7002   24BD F6           .db 246
7003   24BE 60           .db 96
7004   24BF B5           .db 181
7005   24C0 8D           .db 141
7006   24C1 D7           .db 215
7007   24C2 80           .db 128
7008   24C3 F8           .db 248
7009   24C4 6E           .db 110
7010   24C5 06           .db 6
7011   24C6 78           .db 120
7012   24C7 94           .db 148
7013   24C8 FF           .db 255
7014   24C9 38           .db 56
7015   24CA FF           .db 255
7016   24CB 7B           .db 123
7017   24CC F9           .db 249
7018   24CD 10           .db 16
7019   24CE 01           .db 1
7020   24CF 5C           .db 92
7021   24D0 ED           .db 237
7022   24D1 76           .db 118
7023   24D2 D7           .db 215
7024   24D3 54           .db 84
7025   24D4 27           .db 39
7026   24D5 BA           .db 186
7027   24D6 10           .db 16
7028   24D7 16           .db 22
7029   24D8 3C           .db 60
7030   24D9 7E           .db 126
7031   24DA 8E           .db 142
7032   24DB 7C           .db 124
7033   24DC D4           .db 212
7034   24DD E3           .db 227
7035   24DE ED           .db 237
7036   24DF EB           .db 235
7037   24E0 04           .db 4
7038   24E1 80           .db 128
7039   24E2 01           .db 1
7040   24E3 EC           .db 236
7041   24E4 CE           .db 206
7042   24E5 3E           .db 62
7043   24E6 2F           .db 47
7044   24E7 FF           .db 255
7045   24E8 35           .db 53
7046   24E9 8F           .db 143
7047   24EA 6F           .db 111
7048   24EB 81           .db 129
7049   24EC 0F           .db 15
7050   24ED F0           .db 240
7051   24EE F6           .db 246
7052   24EF 00           .db 0
7053   24F0 C7           .db 199
7054   24F1 00           .db 0
7055   24F2 D9           .db 217
7056   24F3 E5           .db 229
7057   24F4 3F           .db 63
7058   24F5 DA           .db 218
7059   24F6 CF           .db 207
7060   24F7 B3           .db 179
7061   24F8 FE           .db 254
7062   24F9 FC           .db 252
7063   24FA BF           .db 191
7064   24FB E0           .db 224
7065   24FC 00           .db 0
7066   24FD 49           .db 73
7067   24FE F8           .db 248
7068   24FF D5           .db 213
7069   2500 D7           .db 215
7070   2501 2E           .db 46
7071   2502 1D           .db 29
7072   2503 58           .db 88
7073   2504 3F           .db 63
7074   2505 2B           .db 43
7075   2506 E3           .db 227
7076   2507 D7           .db 215
7077   2508 01           .db 1
7078   2509 07           .db 7
7079   250A 32           .db 50
7080   250B 2E           .db 46
7081   250C 7E           .db 126
7082   250D 1B           .db 27
7083   250E 81           .db 129
7084   250F FF           .db 255
7085   2510 42           .db 66
7086   2511 FE           .db 254
7087   2512 F8           .db 248
7088   2513 38           .db 56
7089   2514 18           .db 24
7090   2515 10           .db 16
7091   2516 02           .db 2
7092   2517 C6           .db 198
7093   2518 2C           .db 44
7094   2519 A2           .db 162
7095   251A FF           .db 255
7096   251B DB           .db 219
7097   251C 0D           .db 13
7098   251D 63           .db 99
7099   251E F5           .db 245
7100   251F FC           .db 252
7101   2520 FD           .db 253
7102   2521 C1           .db 193
7103   2522 00           .db 0
7104   2523 FF           .db 255
7105   2524 56           .db 86
7106   2525 BA           .db 186
7107   2526 5B           .db 91
7108   2527 8C           .db 140
7109   2528 F1           .db 241
7110   2529 00           .db 0
7111   252A FF           .db 255
7112   252B FE           .db 254
7113   252C F6           .db 246
7114   252D 80           .db 128
7115   252E 7F           .db 127
7116   252F 1F           .db 31
7117   2530 E1           .db 225
7118   2531 CF           .db 207
7119   2532 A5           .db 165
7120   2533 F0           .db 240
7121   2534 0F           .db 15
7122   2535 9F           .db 159
7123   2536 67           .db 103
7124   2537 FF           .db 255
7125   2538 F9           .db 249
7126   2539 56           .db 86
7127   253A EF           .db 239
7128   253B 35           .db 53
7129   253C CF           .db 207
7130   253D 73           .db 115
7131   253E EC           .db 236
7132   253F 57           .db 87
7133   2540 A1           .db 161
7134   2541 FF           .db 255
7135   2542 00           .db 0
7136   2543 FC           .db 252
7137   2544 84           .db 132
7138   2545 EF           .db 239
7139   2546 9E           .db 158
7140   2547 F8           .db 248
7141   2548 75           .db 117
7142   2549 1F           .db 31
7143   254A 0D           .db 13
7144   254B 03           .db 3
7145   254C C1           .db 193
7146   254D 3B           .db 59
7147   254E 18           .db 24
7148   254F D7           .db 215
7149   2550 0C           .db 12
7150   2551 1E           .db 30
7151   2552 ED           .db 237
7152   2553 3E           .db 62
7153   2554 33           .db 51
7154   2555 13           .db 19
7155   2556 08           .db 8
7156   2557 C6           .db 198
7157   2558 FF           .db 255
7158   2559 D9           .db 217
7159   255A 3E           .db 62
7160   255B 78           .db 120
7161   255C CF           .db 207
7162   255D 1C           .db 28
7163   255E 18           .db 24
7164   255F 08           .db 8
7165   2560 EC           .db 236
7166   2561 38           .db 56
7167   2562 F3           .db 243
7168   2563 02           .db 2
7169   2564 FE           .db 254
7170   2565 1D           .db 29
7171   2566 D0           .db 208
7172   2567 FF           .db 255
7173   2568 EB           .db 235
7174   2569 94           .db 148
7175   256A B8           .db 184
7176   256B 34           .db 52
7177   256C 84           .db 132
7178   256D C3           .db 195
7179   256E 87           .db 135
7180   256F F8           .db 248
7181   2570 01           .db 1
7182   2571 FE           .db 254
7183   2572 FB           .db 251
7184   2573 01           .db 1
7185   2574 A7           .db 167
7186   2575 1E           .db 30
7187   2576 F7           .db 247
7188   2577 6F           .db 111
7189   2578 E5           .db 229
7190   2579 8F           .db 143
7191   257A 73           .db 115
7192   257B FC           .db 252
7193   257C 02           .db 2
7194   257D 7D           .db 125
7195   257E FC           .db 252
7196   257F 2D           .db 45
7197   2580 FA           .db 250
7198   2581 55           .db 85
7199   2582 DC           .db 220
7200   2583 FE           .db 254
7201   2584 D5           .db 213
7202   2585 7F           .db 127
7203   2586 15           .db 21
7204   2587 D8           .db 216
7205   2588 12           .db 18
7206   2589 01           .db 1
7207   258A 26           .db 38
7208   258B 60           .db 96
7209   258C D7           .db 215
7210   258D DC           .db 220
7211   258E BA           .db 186
7212   258F F8           .db 248
7213   2590 6D           .db 109
7214   2591 94           .db 148
7215   2592 1F           .db 31
7216   2593 FF           .db 255
7217   2594 FB           .db 251
7218   2595 76           .db 118
7219   2596 30           .db 48
7220   2597 2E           .db 46
7221   2598 20           .db 32
7222   2599 30           .db 48
7223   259A 18           .db 24
7224   259B 9A           .db 154
7225   259C FF           .db 255
7226   259D 1F           .db 31
7227   259E E3           .db 227
7228   259F DD           .db 221
7229   25A0 BE           .db 190
7230   25A1 FA           .db 250
7231   25A2 C1           .db 193
7232   25A3 0C           .db 12
7233   25A4 FF           .db 255
7234   25A5 D3           .db 211
7235   25A6 97           .db 151
7236   25A7 AE           .db 174
7237   25A8 00           .db 0
7238   25A9 8B           .db 139
7239   25AA 06           .db 6
7240   25AB FB           .db 251
7241   25AC 4D           .db 77
7242   25AD BB           .db 187
7243   25AE FC           .db 252
7244   25AF 7B           .db 123
7245   25B0 F3           .db 243
7246   25B1 C3           .db 195
7247   25B2 3F           .db 63
7248   25B3 23           .db 35
7249   25B4 EF           .db 239
7250   25B5 D8           .db 216
7251   25B6 57           .db 87
7252   25B7 02           .db 2
7253   25B8 77           .db 119
7254   25B9 A8           .db 168
7255   25BA F2           .db 242
7256   25BB 76           .db 118
7257   25BC 04           .db 4
7258   25BD BE           .db 190
7259   25BE F8           .db 248
7260   25BF 5A           .db 90
7261   25C0 F4           .db 244
7262   25C1 25           .db 37
7263   25C2 F8           .db 248
7264   25C3 3F           .db 63
7265   25C4 59           .db 89
7266   25C5 82           .db 130
7267   25C6 1D           .db 29
7268   25C7 95           .db 149
7269   25C8 80           .db 128
7270   25C9 DD           .db 221
7271   25CA 42           .db 66
7272   25CB 97           .db 151
7273   25CC 02           .db 2
7274   25CD 9C           .db 156
7275   25CE 07           .db 7
7276   25CF FF           .db 255
7277   25D0 B1           .db 177
7278   25D1 8F           .db 143
7279   25D2 CC           .db 204
7280   25D3 B5           .db 181
7281   25D4 08           .db 8
7282   25D5 BF           .db 191
7283   25D6 0E           .db 14
7284   25D7 82           .db 130
7285   25D8 E0           .db 224
7286   25D9 F0           .db 240
7287   25DA 61           .db 97
7288   25DB 72           .db 114
7289   25DC 13           .db 19
7290   25DD FE           .db 254
7291   25DE B6           .db 182
7292   25DF B0           .db 176
7293   25E0 2F           .db 47
7294   25E1 F8           .db 248
7295   25E2 D8           .db 216
7296   25E3 DC           .db 220
7297   25E4 D7           .db 215
7298   25E5 8C           .db 140
7299   25E6 88           .db 136
7300   25E7 D9           .db 217
7301   25E8 4C           .db 76
7302   25E9 63           .db 99
7303   25EA 7D           .db 125
7304   25EB E4           .db 228
7305   25EC 01           .db 1
7306   25ED 5B           .db 91
7307   25EE 96           .db 150
7308   25EF 13           .db 19
7309   25F0 3F           .db 63
7310   25F1 C1           .db 193
7311   25F2 6B           .db 107
7312   25F3 EA           .db 234
7313   25F4 02           .db 2
7314   25F5 70           .db 112
7315   25F6 DB           .db 219
7316   25F7 F3           .db 243
7317   25F8 25           .db 37
7318   25F9 C7           .db 199
7319   25FA 7C           .db 124
7320   25FB FB           .db 251
7321   25FC 83           .db 131
7322   25FD E7           .db 231
7323   25FE 79           .db 121
7324   25FF FE           .db 254
7325   2600 5D           .db 93
7326   2601 5F           .db 95
7327   2602 80           .db 128
7328   2603 FC           .db 252
7329   2604 F0           .db 240
7330   2605 00           .db 0
7331   2606 8E           .db 142
7332   2607 2F           .db 47
7333   2608 F8           .db 248
7334   2609 58           .db 88
7335   260A F6           .db 246
7336   260B 37           .db 55
7337   260C 22           .db 34
7338   260D FC           .db 252
7339   260E FB           .db 251
7340   260F 0F           .db 15
7341   2610 81           .db 129
7342   2611 C3           .db 195
7343   2612 E7           .db 231
7344   2613 C7           .db 199
7345   2614 2C           .db 44
7346   2615 FF           .db 255
7347   2616 FC           .db 252
7348   2617 D9           .db 217
7349   2618 19           .db 25
7350   2619 EF           .db 239
7351   261A D9           .db 217
7352   261B 05           .db 5
7353   261C 81           .db 129
7354   261D EF           .db 239
7355   261E 83           .db 131
7356   261F F5           .db 245
7357   2620 03           .db 3
7358   2621 11           .db 17
7359   2622 30           .db 48
7360   2623 38           .db 56
7361   2624 C6           .db 198
7362   2625 D8           .db 216
7363   2626 15           .db 21
7364   2627 73           .db 115
7365   2628 FB           .db 251
7366   2629 F7           .db 247
7367   262A E3           .db 227
7368   262B 26           .db 38
7369   262C FE           .db 254
7370   262D FF           .db 255
7371   262E 77           .db 119
7372   262F 7E           .db 126
7373   2630 FD           .db 253
7374   2631 63           .db 99
7375   2632 22           .db 34
7376   2633 00           .db 0
7377   2634 41           .db 65
7378   2635 40           .db 64
7379   2636 B9           .db 185
7380   2637 44           .db 68
7381   2638 0B           .db 11
7382   2639 1B           .db 27
7383   263A 0F           .db 15
7384   263B 17           .db 23
7385   263C C2           .db 194
7386   263D 0D           .db 13
7387   263E 16           .db 22
7388   263F 98           .db 152
7389   2640 05           .db 5
7390   2641 FE           .db 254
7391   2642 02           .db 2
7392   2643 86           .db 134
7393   2644 83           .db 131
7394   2645 FC           .db 252
7395   2646 43           .db 67
7396   2647 03           .db 3
7397   2648 9F           .db 159
7398   2649 FA           .db 250
7399   264A FE           .db 254
7400   264B F5           .db 245
7401   264C EA           .db 234
7402   264D 05           .db 5
7403   264E E8           .db 232
7404   264F 21           .db 33
7405   2650 FC           .db 252
7406   2651 01           .db 1
7407   2652 80           .db 128
7408   2653 BF           .db 191
7409   2654 7E           .db 126
7410   2655 AD           .db 173
7411   2656 F8           .db 248
7412   2657 F3           .db 243
7413   2658 3E           .db 62
7414   2659 1F           .db 31
7415   265A 7F           .db 127
7416   265B 70           .db 112
7417   265C F5           .db 245
7418   265D F3           .db 243
7419   265E 7C           .db 124
7420   265F 67           .db 103
7421   2660 FD           .db 253
7422   2661 B7           .db 183
7423   2662 3F           .db 63
7424   2663 CF           .db 207
7425   2664 78           .db 120
7426   2665 F8           .db 248
7427   2666 D1           .db 209
7428   2667 04           .db 4
7429   2668 DF           .db 223
7430   2669 FC           .db 252
7431   266A E4           .db 228
7432   266B F8           .db 248
7433   266C EC           .db 236
7434   266D 5B           .db 91
7435   266E E6           .db 230
7436   266F 61           .db 97
7437   2670 D5           .db 213
7438   2671 56           .db 86
7439   2672 01           .db 1
7440   2673 56           .db 86
7441   2674 33           .db 51
7442   2675 62           .db 98
7443   2676 07           .db 7
7444   2677 FC           .db 252
7445   2678 B0           .db 176
7446   2679 85           .db 133
7447   267A FF           .db 255
7448   267B F8           .db 248
7449   267C 49           .db 73
7450   267D DA           .db 218
7451   267E E0           .db 224
7452   267F D1           .db 209
7453   2680 9B           .db 155
7454   2681 80           .db 128
7455   2682 FF           .db 255
7456   2683 0F           .db 15
7457   2684 0B           .db 11
7458   2685 F3           .db 243
7459   2686 02           .db 2
7460   2687 BF           .db 191
7461   2688 8C           .db 140
7462   2689 1F           .db 31
7463   268A 7F           .db 127
7464   268B FD           .db 253
7465   268C 0F           .db 15
7466   268D 00           .db 0
7467   268E 14           .db 20
7468   268F BE           .db 190
7469   2690 E9           .db 233
7470   2691 FE           .db 254
7471   2692 41           .db 65
7472   2693 46           .db 70
7473   2694 A1           .db 161
7474   2695 FB           .db 251
7475   2696 07           .db 7
7476   2697 DB           .db 219
7477   2698 E3           .db 227
7478   2699 75           .db 117
7479   269A AA           .db 170
7480   269B 54           .db 84
7481   269C 66           .db 102
7482   269D 14           .db 20
7483   269E A9           .db 169
7484   269F 7D           .db 125
7485   26A0 41           .db 65
7486   26A1 06           .db 6
7487   26A2 55           .db 85
7488   26A3 02           .db 2
7489   26A4 55           .db 85
7490   26A5 F6           .db 246
7491   26A6 F8           .db 248
7492   26A7 03           .db 3
7493   26A8 2A           .db 42
7494   26A9 05           .db 5
7495   26AA A8           .db 168
7496   26AB 17           .db 23
7497   26AC 00           .db 0
7498   26AD D5           .db 213
7499   26AE F7           .db 247
7500   26AF FD           .db 253
7501   26B0 F8           .db 248
7502   26B1 7E           .db 126
7503   26B2 D9           .db 217
7504   26B3 F7           .db 247
7505   26B4 3D           .db 61
7506   26B5 F5           .db 245
7507   26B6 AF           .db 175
7508   26B7 F1           .db 241
7509   26B8 B5           .db 181
7510   26B9 E6           .db 230
7511   26BA F8           .db 248
7512   26BB FC           .db 252
7513   26BC 08           .db 8
7514   26BD 04           .db 4
7515   26BE BE           .db 190
7516   26BF E9           .db 233
7517   26C0 DD           .db 221
7518   26C1 F8           .db 248
7519   26C2 3F           .db 63
7520   26C3 B1           .db 177
7521   26C4 1F           .db 31
7522   26C5 EF           .db 239
7523   26C6 E4           .db 228
7524   26C7 FB           .db 251
7525   26C8 19           .db 25
7526   26C9 04           .db 4
7527   26CA FE           .db 254
7528   26CB 8D           .db 141
7529   26CC 81           .db 129
7530   26CD 01           .db 1
7531   26CE D9           .db 217
7532   26CF 06           .db 6
7533   26D0 02           .db 2
7534   26D1 B5           .db 181
7535   26D2 02           .db 2
7536   26D3 55           .db 85
7537   26D4 01           .db 1
7538   26D5 BE           .db 190
7539   26D6 3E           .db 62
7540   26D7 A1           .db 161
7541   26D8 03           .db 3
7542   26D9 33           .db 51
7543   26DA 4B           .db 75
7544   26DB FF           .db 255
7545   26DC AC           .db 172
7546   26DD 10           .db 16
7547   26DE C2           .db 194
7548   26DF EF           .db 239
7549   26E0 E9           .db 233
7550   26E1 08           .db 8
7551   26E2 ED           .db 237
7552   26E3 5C           .db 92
7553   26E4 03           .db 3
7554   26E5 1D           .db 29
7555   26E6 72           .db 114
7556   26E7 03           .db 3
7557   26E8 E3           .db 227
7558   26E9 C3           .db 195
7559   26EA 6E           .db 110
7560   26EB 78           .db 120
7561   26EC 07           .db 7
7562   26ED 0F           .db 15
7563   26EE 03           .db 3
7564   26EF A0           .db 160
7565   26F0 60           .db 96
7566   26F1 D3           .db 211
7567   26F2 50           .db 80
7568   26F3 FE           .db 254
7569   26F4 84           .db 132
7570   26F5 30           .db 48
7571   26F6 FC           .db 252
7572   26F7 48           .db 72
7573   26F8 20           .db 32
7574   26F9 00           .db 0
7575   26FA 53           .db 83
7576   26FB 01           .db 1
7577   26FC 49           .db 73
7578   26FD 7F           .db 127
7579   26FE BF           .db 191
7580   26FF F5           .db 245
7581   2700 5F           .db 95
7582   2701 A8           .db 168
7583   2702 07           .db 7
7584   2703 A0           .db 160
7585   2704 83           .db 131
7586   2705 0F           .db 15
7587   2706 FE           .db 254
7588   2707 28           .db 40
7589   2708 FD           .db 253
7590   2709 05           .db 5
7591   270A A8           .db 168
7592   270B 57           .db 87
7593   270C AF           .db 175
7594   270D 5F           .db 95
7595   270E BF           .db 191
7596   270F A6           .db 166
7597   2710 F1           .db 241
7598   2711 6F           .db 111
7599   2712 8E           .db 142
7600   2713 F1           .db 241
7601   2714 99           .db 153
7602   2715 9C           .db 156
7603   2716 96           .db 150
7604   2717 F6           .db 246
7605   2718 7F           .db 127
7606   2719 9C           .db 156
7607   271A E3           .db 227
7608   271B F9           .db 249
7609   271C 98           .db 152
7610   271D 7F           .db 127
7611   271E DA           .db 218
7612   271F 9F           .db 159
7613   2720 E7           .db 231
7614   2721 19           .db 25
7615   2722 F7           .db 247
7616   2723 86           .db 134
7617   2724 E1           .db 225
7618   2725 35           .db 53
7619   2726 AC           .db 172
7620   2727 F8           .db 248
7621   2728 99           .db 153
7622   2729 44           .db 68
7623   272A 6C           .db 108
7624   272B 84           .db 132
7625   272C 19           .db 25
7626   272D 65           .db 101
7627   272E FB           .db 251
7628   272F FA           .db 250
7629   2730 0C           .db 12
7630   2731 13           .db 19
7631   2732 D8           .db 216
7632   2733 FE           .db 254
7633   2734 05           .db 5
7634   2735 22           .db 34
7635   2736 92           .db 146
7636   2737 FF           .db 255
7637   2738 AC           .db 172
7638   2739 3E           .db 62
7639   273A 71           .db 113
7640   273B AF           .db 175
7641   273C 1F           .db 31
7642   273D FF           .db 255
7643   273E 9F           .db 159
7644   273F 59           .db 89
7645   2740 8A           .db 138
7646   2741 FF           .db 255
7647   2742 7F           .db 127
7648   2743 D1           .db 209
7649   2744 00           .db 0
7650   2745 D5           .db 213
7651   2746 60           .db 96
7652   2747 89           .db 137
7653   2748 C7           .db 199
7654   2749 03           .db 3
7655   274A 9E           .db 158
7656   274B 99           .db 153
7657   274C F6           .db 246
7658   274D 77           .db 119
7659   274E 30           .db 48
7660   274F 00           .db 0
7661   2750 FC           .db 252
7662   2751 03           .db 3
7663   2752 06           .db 6
7664   2753 10           .db 16
7665   2754 07           .db 7
7666   2755 04           .db 4
7667   2756 A1           .db 161
7668   2757 E8           .db 232
7669   2758 7E           .db 126
7670   2759 82           .db 130
7671   275A FC           .db 252
7672   275B F8           .db 248
7673   275C D3           .db 211
7674   275D 2E           .db 46
7675   275E FB           .db 251
7676   275F EB           .db 235
7677   2760 F8           .db 248
7678   2761 27           .db 39
7679   2762 9A           .db 154
7680   2763 BE           .db 190
7681   2764 F1           .db 241
7682   2765 8F           .db 143
7683   2766 2F           .db 47
7684   2767 CE           .db 206
7685   2768 96           .db 150
7686   2769 01           .db 1
7687   276A D6           .db 214
7688   276B 2F           .db 47
7689   276C F7           .db 247
7690   276D FC           .db 252
7691   276E FD           .db 253
7692   276F FB           .db 251
7693   2770 89           .db 137
7694   2771 C7           .db 199
7695   2772 66           .db 102
7696   2773 8C           .db 140
7697   2774 42           .db 66
7698   2775 F8           .db 248
7699   2776 CC           .db 204
7700   2777 22           .db 34
7701   2778 EC           .db 236
7702   2779 02           .db 2
7703   277A BC           .db 188
7704   277B 5B           .db 91
7705   277C 9C           .db 156
7706   277D CE           .db 206
7707   277E 11           .db 17
7708   277F 9D           .db 157
7709   2780 CE           .db 206
7710   2781 07           .db 7
7711   2782 F8           .db 248
7712   2783 12           .db 18
7713   2784 05           .db 5
7714   2785 98           .db 152
7715   2786 FF           .db 255
7716   2787 B6           .db 182
7717   2788 83           .db 131
7718   2789 35           .db 53
7719   278A FF           .db 255
7720   278B 57           .db 87
7721   278C F3           .db 243
7722   278D 87           .db 135
7723   278E 15           .db 21
7724   278F 05           .db 5
7725   2790 EA           .db 234
7726   2791 49           .db 73
7727   2792 F0           .db 240
7728   2793 CC           .db 204
7729   2794 46           .db 70
7730   2795 34           .db 52
7731   2796 C5           .db 197
7732   2797 FD           .db 253
7733   2798 FB           .db 251
7734   2799 23           .db 35
7735   279A FF           .db 255
7736   279B F1           .db 241
7737   279C B3           .db 179
7738   279D F5           .db 245
7739   279E 52           .db 82
7740   279F FE           .db 254
7741   27A0 2B           .db 43
7742   27A1 AD           .db 173
7743   27A2 1F           .db 31
7744   27A3 3C           .db 60
7745   27A4 37           .db 55
7746   27A5 5F           .db 95
7747   27A6 3F           .db 63
7748   27A7 7F           .db 127
7749   27A8 BF           .db 191
7750   27A9 9F           .db 159
7751   27AA 6F           .db 111
7752   27AB FE           .db 254
7753   27AC B7           .db 183
7754   27AD 5D           .db 93
7755   27AE 2E           .db 46
7756   27AF 55           .db 85
7757   27B0 C6           .db 198
7758   27B1 2A           .db 42
7759   27B2 17           .db 23
7760   27B3 EB           .db 235
7761   27B4 15           .db 21
7762   27B5 0A           .db 10
7763   27B6 01           .db 1
7764   27B7 27           .db 39
7765   27B8 1C           .db 28
7766   27B9 0C           .db 12
7767   27BA FD           .db 253
7768   27BB 1A           .db 26
7769   27BC F3           .db 243
7770   27BD C1           .db 193
7771   27BE EA           .db 234
7772   27BF D5           .db 213
7773   27C0 AA           .db 170
7774   27C1 FE           .db 254
7775   27C2 D4           .db 212
7776   27C3 E8           .db 232
7777   27C4 A0           .db 160
7778   27C5 C5           .db 197
7779   27C6 2A           .db 42
7780   27C7 F8           .db 248
7781   27C8 B8           .db 184
7782   27C9 E0           .db 224
7783   27CA AA           .db 170
7784   27CB 1E           .db 30
7785   27CC BA           .db 186
7786   27CD F5           .db 245
7787   27CE F3           .db 243
7788   27CF 7E           .db 126
7789   27D0 7F           .db 127
7790   27D1 B3           .db 179
7791   27D2 F2           .db 242
7792   27D3 FE           .db 254
7793   27D4 FB           .db 251
7794   27D5 C4           .db 196
7795   27D6 35           .db 53
7796   27D7 E1           .db 225
7797   27D8 CC           .db 204
7798   27D9 F9           .db 249
7799   27DA 02           .db 2
7800   27DB 78           .db 120
7801   27DC 04           .db 4
7802   27DD 30           .db 48
7803   27DE 08           .db 8
7804   27DF FC           .db 252
7805   27E0 02           .db 2
7806   27E1 66           .db 102
7807   27E2 C4           .db 196
7808   27E3 29           .db 41
7809   27E4 01           .db 1
7810   27E5 E0           .db 224
7811   27E6 95           .db 149
7812   27E7 E1           .db 225
7813   27E8 2D           .db 45
7814   27E9 D0           .db 208
7815   27EA 21           .db 33
7816   27EB 58           .db 88
7817   27EC E0           .db 224
7818   27ED FF           .db 255
7819   27EE C6           .db 198
7820   27EF 07           .db 7
7821   27F0 FD           .db 253
7822   27F1 7F           .db 127
7823   27F2 4A           .db 74
7824   27F3 02           .db 2
7825   27F4 41           .db 65
7826   27F5 EB           .db 235
7827   27F6 6A           .db 106
7828   27F7 0E           .db 14
7829   27F8 6A           .db 106
7830   27F9 02           .db 2
7831   27FA CD           .db 205
7832   27FB B7           .db 183
7833   27FC 45           .db 69
7834   27FD 2A           .db 42
7835   27FE 7D           .db 125
7836   27FF D6           .db 214
7837   2800 5C           .db 92
7838   2801 EF           .db 239
7839   2802 19           .db 25
7840   2803 6A           .db 106
7841   2804 FC           .db 252
7842   2805 F7           .db 247
7843   2806 0F           .db 15
7844   2807 DD           .db 221
7845   2808 EF           .db 239
7846   2809 FA           .db 250
7847   280A A9           .db 169
7848   280B B5           .db 181
7849   280C 26           .db 38
7850   280D FD           .db 253
7851   280E FE           .db 254
7852   280F 8A           .db 138
7853   2810 54           .db 84
7854   2811 E3           .db 227
7855   2812 E3           .db 227
7856   2813 F9           .db 249
7857   2814 EA           .db 234
7858   2815 45           .db 69
7859   2816 F2           .db 242
7860   2817 A8           .db 168
7861   2818 54           .db 84
7862   2819 A2           .db 162
7863   281A 15           .db 21
7864   281B F8           .db 248
7865   281C DC           .db 220
7866   281D FE           .db 254
7867   281E BE           .db 190
7868   281F FA           .db 250
7869   2820 FF           .db 255
7870   2821 B2           .db 178
7871   2822 02           .db 2
7872   2823 BE           .db 190
7873   2824 FC           .db 252
7874   2825 C7           .db 199
7875   2826 FF           .db 255
7876   2827 FB           .db 251
7877   2828 F8           .db 248
7878   2829 E4           .db 228
7879   282A 34           .db 52
7880   282B CC           .db 204
7881   282C 22           .db 34
7882   282D FE           .db 254
7883   282E B3           .db 179
7884   282F FA           .db 250
7885   2830 5D           .db 93
7886   2831 00           .db 0
7887   2832 04           .db 4
7888   2833 06           .db 6
7889   2834 0F           .db 15
7890   2835 F5           .db 245
7891   2836 00           .db 0
7892   2837 14           .db 20
7893   2838 46           .db 70
7894   2839 74           .db 116
7895   283A 59           .db 89
7896   283B 1C           .db 28
7897   283C E2           .db 226
7898   283D EE           .db 238
7899   283E ED           .db 237
7900   283F E8           .db 232
7901   2840 0F           .db 15
7902   2841 0E           .db 14
7903   2842 0E           .db 14
7904   2843 EC           .db 236
7905   2844 04           .db 4
7906   2845 00           .db 0
7907   2846 01           .db 1
7908   2847 3A           .db 58
7909   2848 59           .db 89
7910   2849 01           .db 1
7911   284A F0           .db 240
7912   284B FD           .db 253
7913   284C 84           .db 132
7914   284D C6           .db 198
7915   284E 50           .db 80
7916   284F A8           .db 168
7917   2850 3E           .db 62
7918   2851 1E           .db 30
7919   2852 B8           .db 184
7920   2853 D4           .db 212
7921   2854 AA           .db 170
7922   2855 D0           .db 208
7923   2856 B7           .db 183
7924   2857 F0           .db 240
7925   2858 50           .db 80
7926   2859 08           .db 8
7927   285A 0C           .db 12
7928   285B A9           .db 169
7929   285C 44           .db 68
7930   285D C4           .db 196
7931   285E F0           .db 240
7932   285F 20           .db 32
7933   2860 5B           .db 91
7934   2861 66           .db 102
7935   2862 F4           .db 244
7936   2863 01           .db 1
7937   2864 07           .db 7
7938   2865 1F           .db 31
7939   2866 AB           .db 171
7940   2867 10           .db 16
7941   2868 3E           .db 62
7942   2869 EC           .db 236
7943   286A 82           .db 130
7944   286B 05           .db 5
7945   286C A0           .db 160
7946   286D 54           .db 84
7947   286E C9           .db 201
7948   286F 01           .db 1
7949   2870 00           .db 0
7950   2871 AB           .db 171
7951   2872 AC           .db 172
7952   2873 5F           .db 95
7953   2874 6E           .db 110
7954   2875 C3           .db 195
7955   2876 F3           .db 243
7956   2877 CF           .db 207
7957   2878 C3           .db 195
7958   2879 76           .db 118
7959   287A 9D           .db 157
7960   287B 59           .db 89
7961   287C 79           .db 121
7962   287D 67           .db 103
7963   287E 1F           .db 31
7964   287F 89           .db 137
7965   2880 DF           .db 223
7966   2881 54           .db 84
7967   2882 7E           .db 126
7968   2883 78           .db 120
7969   2884 DB           .db 219
7970   2885 70           .db 112
7971   2886 40           .db 64
7972   2887 91           .db 145
7973   2888 9A           .db 154
7974   2889 02           .db 2
7975   288A ED           .db 237
7976   288B FE           .db 254
7977   288C 78           .db 120
7978   288D 3C           .db 60
7979   288E 9C           .db 156
7980   288F 80           .db 128
7981   2890 D5           .db 213
7982   2891 C0           .db 192
7983   2892 F8           .db 248
7984   2893 A6           .db 166
7985   2894 2A           .db 42
7986   2895 3C           .db 60
7987   2896 FF           .db 255
7988   2897 1C           .db 28
7989   2898 42           .db 66
7990   2899 FF           .db 255
7991   289A 7A           .db 122
7992   289B F9           .db 249
7993   289C 08           .db 8
7994   289D D0           .db 208
7995   289E 69           .db 105
7996   289F F9           .db 249
7997   28A0 F5           .db 245
7998   28A1 E1           .db 225
7999   28A2 0C           .db 12
8000   28A3 1C           .db 28
8001   28A4 3E           .db 62
8002   28A5 B7           .db 183
8003   28A6 FA           .db 250
8004   28A7 AB           .db 171
8005   28A8 E4           .db 228
8006   28A9 7C           .db 124
8007   28AA 1A           .db 26
8008   28AB 53           .db 83
8009   28AC C0           .db 192
8010   28AD 01           .db 1
8011   28AE FB           .db 251
8012   28AF D2           .db 210
8013   28B0 0A           .db 10
8014   28B1 72           .db 114
8015   28B2 0B           .db 11
8016   28B3 C8           .db 200
8017   28B4 9D           .db 157
8018   28B5 BF           .db 191
8019   28B6 F8           .db 248
8020   28B7 B1           .db 177
8021   28B8 FF           .db 255
8022   28B9 9F           .db 159
8023   28BA D5           .db 213
8024   28BB 66           .db 102
8025   28BC 41           .db 65
8026   28BD 07           .db 7
8027   28BE A2           .db 162
8028   28BF 7F           .db 127
8029   28C0 89           .db 137
8030   28C1 1C           .db 28
8031   28C2 C7           .db 199
8032   28C3 03           .db 3
8033   28C4 1F           .db 31
8034   28C5 BB           .db 187
8035   28C6 80           .db 128
8036   28C7 1B           .db 27
8037   28C8 9A           .db 154
8038   28C9 0E           .db 14
8039   28CA 01           .db 1
8040   28CB AF           .db 175
8041   28CC 9A           .db 154
8042   28CD 07           .db 7
8043   28CE B4           .db 180
8044   28CF 78           .db 120
8045   28D0 FF           .db 255
8046   28D1 3B           .db 59
8047   28D2 BC           .db 188
8048   28D3 43           .db 67
8049   28D4 3F           .db 63
8050   28D5 E3           .db 227
8051   28D6 5F           .db 95
8052   28D7 AF           .db 175
8053   28D8 57           .db 87
8054   28D9 7A           .db 122
8055   28DA 17           .db 23
8056   28DB 8F           .db 143
8057   28DC 51           .db 81
8058   28DD AE           .db 174
8059   28DE DA           .db 218
8060   28DF E6           .db 230
8061   28E0 DD           .db 221
8062   28E1 E4           .db 228
8063   28E2 7F           .db 127
8064   28E3 36           .db 54
8065   28E4 A9           .db 169
8066   28E5 F9           .db 249
8067   28E6 C7           .db 199
8068   28E7 BA           .db 186
8069   28E8 80           .db 128
8070   28E9 2A           .db 42
8071   28EA F6           .db 246
8072   28EB 4C           .db 76
8073   28EC 23           .db 35
8074   28ED 49           .db 73
8075   28EE 87           .db 135
8076   28EF F8           .db 248
8077   28F0 D9           .db 217
8078   28F1 F0           .db 240
8079   28F2 C0           .db 192
8080   28F3 88           .db 136
8081   28F4 9A           .db 154
8082   28F5 0F           .db 15
8083   28F6 10           .db 16
8084   28F7 19           .db 25
8085   28F8 20           .db 32
8086   28F9 03           .db 3
8087   28FA 49           .db 73
8088   28FB 06           .db 6
8089   28FC A4           .db 164
8090   28FD F7           .db 247
8091   28FE 62           .db 98
8092   28FF 66           .db 102
8093   2900 FF           .db 255
8094   2901 2F           .db 47
8095   2902 C7           .db 199
8096   2903 5A           .db 90
8097   2904 45           .db 69
8098   2905 1C           .db 28
8099   2906 85           .db 133
8100   2907 2B           .db 43
8101   2908 0D           .db 13
8102   2909 CF           .db 207
8103   290A 44           .db 68
8104   290B FF           .db 255
8105   290C 87           .db 135
8106   290D DB           .db 219
8107   290E FF           .db 255
8108   290F 03           .db 3
8109   2910 4D           .db 77
8110   2911 1B           .db 27
8111   2912 89           .db 137
8112   2913 46           .db 70
8113   2914 90           .db 144
8114   2915 05           .db 5
8115   2916 B1           .db 177
8116   2917 FA           .db 250
8117   2918 06           .db 6
8118   2919 76           .db 118
8119   291A 46           .db 70
8120   291B 00           .db 0
8121   291C C6           .db 198
8122   291D 01           .db 1
8123   291E F0           .db 240
8124   291F C6           .db 198
8125   2920 F8           .db 248
8126   2921 04           .db 4
8127   2922 89           .db 137
8128   2923 FF           .db 255
8129   2924 07           .db 7
8130   2925 75           .db 117
8131   2926 FF           .db 255
8132   2927 03           .db 3
8133   2928 E0           .db 224
8134   2929 FD           .db 253
8135   292A FA           .db 250
8136   292B FC           .db 252
8137   292C 00           .db 0
8138   292D F5           .db 245
8139   292E 11           .db 17
8140   292F CD           .db 205
8141   2930 FE           .db 254
8142   2931 7D           .db 125
8143   2932 80           .db 128
8144   2933 77           .db 119
8145   2934 16           .db 22
8146   2935 F0           .db 240
8147   2936 8F           .db 143
8148   2937 6C           .db 108
8149   2938 85           .db 133
8150   2939 7E           .db 126
8151   293A 19           .db 25
8152   293B EB           .db 235
8153   293C 65           .db 101
8154   293D 0E           .db 14
8155   293E EB           .db 235
8156   293F FE           .db 254
8157   2940 BF           .db 191
8158   2941 11           .db 17
8159   2942 57           .db 87
8160   2943 67           .db 103
8161   2944 FC           .db 252
8162   2945 58           .db 88
8163   2946 5B           .db 91
8164   2947 8B           .db 139
8165   2948 8D           .db 141
8166   2949 0F           .db 15
8167   294A 80           .db 128
8168   294B E2           .db 226
8169   294C 99           .db 153
8170   294D 40           .db 64
8171   294E 19           .db 25
8172   294F 0C           .db 12
8173   2950 06           .db 6
8174   2951 8F           .db 143
8175   2952 C7           .db 199
8176   2953 C4           .db 196
8177   2954 96           .db 150
8178   2955 6F           .db 111
8179   2956 03           .db 3
8180   2957 6F           .db 111
8181   2958 2D           .db 45
8182   2959 03           .db 3
8183   295A 07           .db 7
8184   295B 8C           .db 140
8185   295C FF           .db 255
8186   295D BB           .db 187
8187   295E BE           .db 190
8188   295F 01           .db 1
8189   2960 F1           .db 241
8190   2961 02           .db 2
8191   2962 06           .db 6
8192   2963 F6           .db 246
8193   2964 80           .db 128
8194   2965 E0           .db 224
8195   2966 1B           .db 27
8196   2967 6C           .db 108
8197   2968 0F           .db 15
8198   2969 FA           .db 250
8199   296A FF           .db 255
8200   296B 00           .db 0
8201   296C 02           .db 2
8202   296D 17           .db 23
8203   296E 3D           .db 61
8204   296F 35           .db 53
8205   2970 4B           .db 75
8206   2971 A5           .db 165
8207   2972 8D           .db 141
8208   2973 DB           .db 219
8209   2974 42           .db 66
8210   2975 15           .db 21
8211   2976 75           .db 117
8212   2977 30           .db 48
8213   2978 9A           .db 154
8214   2979 A8           .db 168
8215   297A 15           .db 21
8216   297B 75           .db 117
8217   297C 7D           .db 125
8218   297D F5           .db 245
8219   297E EA           .db 234
8220   297F D5           .db 213
8221   2980 D0           .db 208
8222   2981 14           .db 20
8223   2982 2D           .db 45
8224   2983 A0           .db 160
8225   2984 FB           .db 251
8226   2985 16           .db 22
8227   2986 2A           .db 42
8228   2987 E2           .db 226
8229   2988 04           .db 4
8230   2989 A0           .db 160
8231   298A 05           .db 5
8232   298B 76           .db 118
8233   298C D5           .db 213
8234   298D EA           .db 234
8235   298E FD           .db 253
8236   298F 4B           .db 75
8237   2990 BB           .db 187
8238   2991 1C           .db 28
8239   2992 E3           .db 227
8240   2993 DB           .db 219
8241   2994 CF           .db 207
8242   2995 3F           .db 63
8243   2996 2C           .db 44
8244   2997 04           .db 4
8245   2998 3F           .db 63
8246   2999 4C           .db 76
8247   299A 05           .db 5
8248   299B C5           .db 197
8249   299C E9           .db 233
8250   299D F7           .db 247
8251   299E 18           .db 24
8252   299F F1           .db 241
8253   29A0 84           .db 132
8254   29A1 99           .db 153
8255   29A2 44           .db 68
8256   29A3 98           .db 152
8257   29A4 88           .db 136
8258   29A5 FC           .db 252
8259   29A6 16           .db 22
8260   29A7 8C           .db 140
8261   29A8 5A           .db 90
8262   29A9 E9           .db 233
8263   29AA 08           .db 8
8264   29AB EF           .db 239
8265   29AC 34           .db 52
8266   29AD 1E           .db 30
8267   29AE 5A           .db 90
8268   29AF 72           .db 114
8269   29B0 F7           .db 247
8270   29B1 A9           .db 169
8271   29B2 FF           .db 255
8272   29B3 F3           .db 243
8273   29B4 FF           .db 255
8274   29B5 E3           .db 227
8275   29B6 7A           .db 122
8276   29B7 FF           .db 255
8277   29B8 C3           .db 195
8278   29B9 CE           .db 206
8279   29BA 6B           .db 107
8280   29BB FF           .db 255
8281   29BC CF           .db 207
8282   29BD 83           .db 131
8283   29BE EF           .db 239
8284   29BF 2D           .db 45
8285   29C0 D5           .db 213
8286   29C1 FD           .db 253
8287   29C2 FC           .db 252
8288   29C3 86           .db 134
8289   29C4 9D           .db 157
8290   29C5 04           .db 4
8291   29C6 1C           .db 28
8292   29C7 E3           .db 227
8293   29C8 20           .db 32
8294   29C9 D4           .db 212
8295   29CA 2A           .db 42
8296   29CB 1C           .db 28
8297   29CC 16           .db 22
8298   29CD EE           .db 238
8299   29CE B5           .db 181
8300   29CF 4C           .db 76
8301   29D0 B4           .db 180
8302   29D1 6A           .db 106
8303   29D2 24           .db 36
8304   29D3 04           .db 4
8305   29D4 89           .db 137
8306   29D5 51           .db 81
8307   29D6 54           .db 84
8308   29D7 88           .db 136
8309   29D8 88           .db 136
8310   29D9 63           .db 99
8311   29DA 4B           .db 75
8312   29DB 10           .db 16
8313   29DC 6E           .db 110
8314   29DD 01           .db 1
8315   29DE 57           .db 87
8316   29DF E9           .db 233
8317   29E0 14           .db 20
8318   29E1 0E           .db 14
8319   29E2 B6           .db 182
8320   29E3 80           .db 128
8321   29E4 EA           .db 234
8322   29E5 1A           .db 26
8323   29E6 E2           .db 226
8324   29E7 0C           .db 12
8325   29E8 BA           .db 186
8326   29E9 F0           .db 240
8327   29EA EB           .db 235
8328   29EB 14           .db 20
8329   29EC CD           .db 205
8330   29ED C6           .db 198
8331   29EE FD           .db 253
8332   29EF 0B           .db 11
8333   29F0 F7           .db 247
8334   29F1 6B           .db 107
8335   29F2 E0           .db 224
8336   29F3 FF           .db 255
8337   29F4 1B           .db 27
8338   29F5 59           .db 89
8339   29F6 A3           .db 163
8340   29F7 AD           .db 173
8341   29F8 68           .db 104
8342   29F9 A2           .db 162
8343   29FA F0           .db 240
8344   29FB 05           .db 5
8345   29FC C6           .db 198
8346   29FD 9D           .db 157
8347   29FE FF           .db 255
8348   29FF F0           .db 240
8349   2A00 08           .db 8
8350   2A01 98           .db 152
8351   2A02 6C           .db 108
8352   2A03 00           .db 0
8353   2A04 81           .db 129
8354   2A05 FC           .db 252
8355   2A06 78           .db 120
8356   2A07 62           .db 98
8357   2A08 3E           .db 62
8358   2A09 71           .db 113
8359   2A0A E3           .db 227
8360   2A0B 81           .db 129
8361   2A0C E3           .db 227
8362   2A0D E1           .db 225
8363   2A0E D8           .db 216
8364   2A0F C1           .db 193
8365   2A10 8A           .db 138
8366   2A11 FF           .db 255
8367   2A12 E1           .db 225
8368   2A13 CC           .db 204
8369   2A14 60           .db 96
8370   2A15 FF           .db 255
8371   2A16 E3           .db 227
8372   2A17 F3           .db 243
8373   2A18 3B           .db 59
8374   2A19 4C           .db 76
8375   2A1A FF           .db 255
8376   2A1B 33           .db 51
8377   2A1C BA           .db 186
8378   2A1D 00           .db 0
8379   2A1E 33           .db 51
8380   2A1F FF           .db 255
8381   2A20 70           .db 112
8382   2A21 8E           .db 142
8383   2A22 34           .db 52
8384   2A23 20           .db 32
8385   2A24 BB           .db 187
8386   2A25 FC           .db 252
8387   2A26 8B           .db 139
8388   2A27 60           .db 96
8389   2A28 D1           .db 209
8390   2A29 9C           .db 156
8391   2A2A 10           .db 16
8392   2A2B 6D           .db 109
8393   2A2C 40           .db 64
8394   2A2D 27           .db 39
8395   2A2E 08           .db 8
8396   2A2F BF           .db 191
8397   2A30 EB           .db 235
8398   2A31 5F           .db 95
8399   2A32 2F           .db 47
8400   2A33 00           .db 0
8401   2A34 A3           .db 163
8402   2A35 12           .db 18
8403   2A36 77           .db 119
8404   2A37 A8           .db 168
8405   2A38 53           .db 83
8406   2A39 8F           .db 143
8407   2A3A F5           .db 245
8408   2A3B 14           .db 20
8409   2A3C 45           .db 69
8410   2A3D E5           .db 229
8411   2A3E A6           .db 166
8412   2A3F 91           .db 145
8413   2A40 CC           .db 204
8414   2A41 0C           .db 12
8415   2A42 59           .db 89
8416   2A43 0C           .db 12
8417   2A44 1E           .db 30
8418   2A45 04           .db 4
8419   2A46 F8           .db 248
8420   2A47 65           .db 101
8421   2A48 57           .db 87
8422   2A49 FC           .db 252
8423   2A4A FE           .db 254
8424   2A4B DC           .db 220
8425   2A4C EC           .db 236
8426   2A4D F0           .db 240
8427   2A4E 60           .db 96
8428   2A4F 80           .db 128
8429   2A50 38           .db 56
8430   2A51 B0           .db 176
8431   2A52 01           .db 1
8432   2A53 F7           .db 247
8433   2A54 60           .db 96
8434   2A55 69           .db 105
8435   2A56 26           .db 38
8436   2A57 71           .db 113
8437   2A58 61           .db 97
8438   2A59 95           .db 149
8439   2A5A 6B           .db 107
8440   2A5B 17           .db 23
8441   2A5C F1           .db 241
8442   2A5D 55           .db 85
8443   2A5E FF           .db 255
8444   2A5F F3           .db 243
8445   2A60 E7           .db 231
8446   2A61 FF           .db 255
8447   2A62 79           .db 121
8448   2A63 EB           .db 235
8449   2A64 BB           .db 187
8450   2A65 3B           .db 59
8451   2A66 7E           .db 126
8452   2A67 3C           .db 60
8453   2A68 AB           .db 171
8454   2A69 18           .db 24
8455   2A6A 58           .db 88
8456   2A6B FF           .db 255
8457   2A6C 00           .db 0
8458   2A6D E4           .db 228
8459   2A6E 98           .db 152
8460   2A6F 03           .db 3
8461   2A70 57           .db 87
8462   2A71 EA           .db 234
8463   2A72 65           .db 101
8464   2A73 FF           .db 255
8465   2A74 D8           .db 216
8466   2A75 FF           .db 255
8467   2A76 83           .db 131
8468   2A77 09           .db 9
8469   2A78 FE           .db 254
8470   2A79 BB           .db 187
8471   2A7A C1           .db 193
8472   2A7B EF           .db 239
8473   2A7C AC           .db 172
8474   2A7D 8D           .db 141
8475   2A7E F4           .db 244
8476   2A7F C7           .db 199
8477   2A80 BF           .db 191
8478   2A81 DF           .db 223
8479   2A82 A2           .db 162
8480   2A83 C5           .db 197
8481   2A84 EC           .db 236
8482   2A85 E9           .db 233
8483   2A86 14           .db 20
8484   2A87 DD           .db 221
8485   2A88 18           .db 24
8486   2A89 5E           .db 94
8487   2A8A 0D           .db 13
8488   2A8B C0           .db 192
8489   2A8C B7           .db 183
8490   2A8D 7F           .db 127
8491   2A8E 75           .db 117
8492   2A8F 11           .db 17
8493   2A90 08           .db 8
8494   2A91 FC           .db 252
8495   2A92 A2           .db 162
8496   2A93 F8           .db 248
8497   2A94 76           .db 118
8498   2A95 58           .db 88
8499   2A96 4B           .db 75
8500   2A97 7B           .db 123
8501   2A98 27           .db 39
8502   2A99 06           .db 6
8503   2A9A F4           .db 244
8504   2A9B 05           .db 5
8505   2A9C 7B           .db 123
8506   2A9D 1F           .db 31
8507   2A9E 27           .db 39
8508   2A9F 51           .db 81
8509   2AA0 C0           .db 192
8510   2AA1 7D           .db 125
8511   2AA2 ED           .db 237
8512   2AA3 F9           .db 249
8513   2AA4 4F           .db 79
8514   2AA5 FF           .db 255
8515   2AA6 FA           .db 250
8516   2AA7 FE           .db 254
8517   2AA8 FB           .db 251
8518   2AA9 0A           .db 10
8519   2AAA 5F           .db 95
8520   2AAB 53           .db 83
8521   2AAC E5           .db 229
8522   2AAD 81           .db 129
8523   2AAE FF           .db 255
8524   2AAF C3           .db 195
8525   2AB0 C7           .db 199
8526   2AB1 09           .db 9
8527   2AB2 FC           .db 252
8528   2AB3 2E           .db 46
8529   2AB4 BA           .db 186
8530   2AB5 30           .db 48
8531   2AB6 EC           .db 236
8532   2AB7 5C           .db 92
8533   2AB8 27           .db 39
8534   2AB9 28           .db 40
8535   2ABA 04           .db 4
8536   2ABB 58           .db 88
8537   2ABC 60           .db 96
8538   2ABD 7F           .db 127
8539   2ABE CC           .db 204
8540   2ABF D4           .db 212
8541   2AC0 56           .db 86
8542   2AC1 1D           .db 29
8543   2AC2 06           .db 6
8544   2AC3 EB           .db 235
8545   2AC4 E3           .db 227
8546   2AC5 1F           .db 31
8547   2AC6 5F           .db 95
8548   2AC7 F7           .db 247
8549   2AC8 D7           .db 215
8550   2AC9 E3           .db 227
8551   2ACA 1F           .db 31
8552   2ACB E1           .db 225
8553   2ACC 1B           .db 27
8554   2ACD A5           .db 165
8555   2ACE EF           .db 239
8556   2ACF 20           .db 32
8557   2AD0 1F           .db 31
8558   2AD1 F5           .db 245
8559   2AD2 4E           .db 78
8560   2AD3 04           .db 4
8561   2AD4 73           .db 115
8562   2AD5 CF           .db 207
8563   2AD6 37           .db 55
8564   2AD7 A7           .db 167
8565   2AD8 08           .db 8
8566   2AD9 75           .db 117
8567   2ADA 7C           .db 124
8568   2ADB DE           .db 222
8569   2ADC 04           .db 4
8570   2ADD F8           .db 248
8571   2ADE CB           .db 203
8572   2ADF FE           .db 254
8573   2AE0 78           .db 120
8574   2AE1 05           .db 5
8575   2AE2 0E           .db 14
8576   2AE3 0C           .db 12
8577   2AE4 0C           .db 12
8578   2AE5 FB           .db 251
8579   2AE6 E3           .db 227
8580   2AE7 FF           .db 255
8581   2AE8 F0           .db 240
8582   2AE9 F9           .db 249
8583   2AEA 30           .db 48
8584   2AEB 8E           .db 142
8585   2AEC 63           .db 99
8586   2AED FF           .db 255
8587   2AEE D5           .db 213
8588   2AEF F9           .db 249
8589   2AF0 F4           .db 244
8590   2AF1 DA           .db 218
8591   2AF2 60           .db 96
8592   2AF3 40           .db 64
8593   2AF4 FF           .db 255
8594   2AF5 D8           .db 216
8595   2AF6 06           .db 6
8596   2AF7 1F           .db 31
8597   2AF8 F1           .db 241
8598   2AF9 0A           .db 10
8599   2AFA BF           .db 191
8600   2AFB 36           .db 54
8601   2AFC AF           .db 175
8602   2AFD E3           .db 227
8603   2AFE C1           .db 193
8604   2AFF 37           .db 55
8605   2B00 FA           .db 250
8606   2B01 5B           .db 91
8607   2B02 83           .db 131
8608   2B03 2D           .db 45
8609   2B04 01           .db 1
8610   2B05 DB           .db 219
8611   2B06 18           .db 24
8612   2B07 80           .db 128
8613   2B08 D9           .db 217
8614   2B09 1D           .db 29
8615   2B0A 55           .db 85
8616   2B0B F4           .db 244
8617   2B0C B7           .db 183
8618   2B0D 8F           .db 143
8619   2B0E 0B           .db 11
8620   2B0F 16           .db 22
8621   2B10 56           .db 86
8622   2B11 F9           .db 249
8623   2B12 67           .db 103
8624   2B13 09           .db 9
8625   2B14 19           .db 25
8626   2B15 10           .db 16
8627   2B16 2F           .db 47
8628   2B17 FE           .db 254
8629   2B18 54           .db 84
8630   2B19 F8           .db 248
8631   2B1A 60           .db 96
8632   2B1B C0           .db 192
8633   2B1C 6F           .db 111
8634   2B1D 66           .db 102
8635   2B1E 45           .db 69
8636   2B1F 9B           .db 155
8637   2B20 55           .db 85
8638   2B21 09           .db 9
8639   2B22 87           .db 135
8640   2B23 31           .db 49
8641   2B24 F9           .db 249
8642   2B25 F5           .db 245
8643   2B26 10           .db 16
8644   2B27 30           .db 48
8645   2B28 38           .db 56
8646   2B29 78           .db 120
8647   2B2A 21           .db 33
8648   2B2B 30           .db 48
8649   2B2C EC           .db 236
8650   2B2D 7E           .db 126
8651   2B2E FC           .db 252
8652   2B2F 31           .db 49
8653   2B30 11           .db 17
8654   2B31 1B           .db 27
8655   2B32 99           .db 153
8656   2B33 FD           .db 253
8657   2B34 D9           .db 217
8658   2B35 7F           .db 127
8659   2B36 D4           .db 212
8660   2B37 C7           .db 199
8661   2B38 3C           .db 60
8662   2B39 38           .db 56
8663   2B3A 8F           .db 143
8664   2B3B 10           .db 16
8665   2B3C 00           .db 0
8666   2B3D B0           .db 176
8667   2B3E 81           .db 129
8668   2B3F BB           .db 187
8669   2B40 7D           .db 125
8670   2B41 02           .db 2
8671   2B42 7C           .db 124
8672   2B43 78           .db 120
8673   2B44 70           .db 112
8674   2B45 8A           .db 138
8675   2B46 F9           .db 249
8676   2B47 00           .db 0
8677   2B48 FA           .db 250
8678   2B49 04           .db 4
8679   2B4A 2C           .db 44
8680   2B4B F8           .db 248
8681   2B4C 88           .db 136
8682   2B4D 6B           .db 107
8683   2B4E 07           .db 7
8684   2B4F 07           .db 7
8685   2B50 F8           .db 248
8686   2B51 DA           .db 218
8687   2B52 12           .db 18
8688   2B53 35           .db 53
8689   2B54 FB           .db 251
8690   2B55 52           .db 82
8691   2B56 04           .db 4
8692   2B57 9B           .db 155
8693   2B58 04           .db 4
8694   2B59 BB           .db 187
8695   2B5A 90           .db 144
8696   2B5B 0A           .db 10
8697   2B5C FB           .db 251
8698   2B5D 93           .db 147
8699   2B5E F8           .db 248
8700   2B5F 57           .db 87
8701   2B60 FC           .db 252
8702   2B61 BB           .db 187
8703   2B62 58           .db 88
8704   2B63 AF           .db 175
8705   2B64 BA           .db 186
8706   2B65 E4           .db 228
8707   2B66 CC           .db 204
8708   2B67 3F           .db 63
8709   2B68 7F           .db 127
8710   2B69 79           .db 121
8711   2B6A F0           .db 240
8712   2B6B E0           .db 224
8713   2B6C C1           .db 193
8714   2B6D 1F           .db 31
8715   2B6E 83           .db 131
8716   2B6F 87           .db 135
8717   2B70 A3           .db 163
8718   2B71 CF           .db 207
8719   2B72 C0           .db 192
8720   2B73 0E           .db 14
8721   2B74 FD           .db 253
8722   2B75 F4           .db 244
8723   2B76 06           .db 6
8724   2B77 7C           .db 124
8725   2B78 19           .db 25
8726   2B79 00           .db 0
8727   2B7A E7           .db 231
8728   2B7B FF           .db 255
8729   2B7C E1           .db 225
8730   2B7D 18           .db 24
8731   2B7E 88           .db 136
8732   2B7F 9D           .db 157
8733   2B80 E9           .db 233
8734   2B81 98           .db 152
8735   2B82 FB           .db 251
8736   2B83 0E           .db 14
8737   2B84 F1           .db 241
8738   2B85 04           .db 4
8739   2B86 D8           .db 216
8740   2B87 5F           .db 95
8741   2B88 96           .db 150
8742   2B89 FB           .db 251
8743   2B8A 2C           .db 44
8744   2B8B 80           .db 128
8745   2B8C EF           .db 239
8746   2B8D F8           .db 248
8747   2B8E 87           .db 135
8748   2B8F 7F           .db 127
8749   2B90 FC           .db 252
8750   2B91 05           .db 5
8751   2B92 00           .db 0
8752   2B93 16           .db 22
8753   2B94 FE           .db 254
8754   2B95 0B           .db 11
8755   2B96 FC           .db 252
8756   2B97 E6           .db 230
8757   2B98 1D           .db 29
8758   2B99 FB           .db 251
8759   2B9A 5C           .db 92
8760   2B9B F3           .db 243
8761   2B9C 4D           .db 77
8762   2B9D D2           .db 210
8763   2B9E 08           .db 8
8764   2B9F FE           .db 254
8765   2BA0 04           .db 4
8766   2BA1 EF           .db 239
8767   2BA2 13           .db 19
8768   2BA3 9B           .db 155
8769   2BA4 F8           .db 248
8770   2BA5 BA           .db 186
8771   2BA6 5C           .db 92
8772   2BA7 2F           .db 47
8773   2BA8 97           .db 151
8774   2BA9 1A           .db 26
8775   2BAA C0           .db 192
8776   2BAB D4           .db 212
8777   2BAC 6E           .db 110
8778   2BAD 24           .db 36
8779   2BAE FF           .db 255
8780   2BAF 7F           .db 127
8781   2BB0 31           .db 49
8782   2BB1 42           .db 66
8783   2BB2 7E           .db 126
8784   2BB3 1F           .db 31
8785   2BB4 FF           .db 255
8786   2BB5 3B           .db 59
8787   2BB6 39           .db 57
8788   2BB7 1C           .db 28
8789   2BB8 0E           .db 14
8790   2BB9 03           .db 3
8791   2BBA 0C           .db 12
8792   2BBB FE           .db 254
8793   2BBC 1E           .db 30
8794   2BBD 3F           .db 63
8795   2BBE 7C           .db 124
8796   2BBF 78           .db 120
8797   2BC0 FF           .db 255
8798   2BC1 7F           .db 127
8799   2BC2 0F           .db 15
8800   2BC3 C2           .db 194
8801   2BC4 DF           .db 223
8802   2BC5 2F           .db 47
8803   2BC6 F1           .db 241
8804   2BC7 54           .db 84
8805   2BC8 BA           .db 186
8806   2BC9 87           .db 135
8807   2BCA 18           .db 24
8808   2BCB 26           .db 38
8809   2BCC 44           .db 68
8810   2BCD FF           .db 255
8811   2BCE C7           .db 199
8812   2BCF 83           .db 131
8813   2BD0 C7           .db 199
8814   2BD1 15           .db 21
8815   2BD2 EB           .db 235
8816   2BD3 A2           .db 162
8817   2BD4 3C           .db 60
8818   2BD5 0B           .db 11
8819   2BD6 A6           .db 166
8820   2BD7 FC           .db 252
8821   2BD8 C5           .db 197
8822   2BD9 FE           .db 254
8823   2BDA 5D           .db 93
8824   2BDB EF           .db 239
8825   2BDC BB           .db 187
8826   2BDD 0B           .db 11
8827   2BDE 9B           .db 155
8828   2BDF 0D           .db 13
8829   2BE0 01           .db 1
8830   2BE1 FE           .db 254
8831   2BE2 4E           .db 78
8832   2BE3 FF           .db 255
8833   2BE4 00           .db 0
8834   2BE5 9D           .db 157
8835   2BE6 7B           .db 123
8836   2BE7 DC           .db 220
8837   2BE8 F3           .db 243
8838   2BE9 CD           .db 205
8839   2BEA 3B           .db 59
8840   2BEB D5           .db 213
8841   2BEC A0           .db 160
8842   2BED EE           .db 238
8843   2BEE 08           .db 8
8844   2BEF 8E           .db 142
8845   2BF0 76           .db 118
8846   2BF1 00           .db 0
8847   2BF2 56           .db 86
8848   2BF3 BC           .db 188
8849   2BF4 70           .db 112
8850   2BF5 3F           .db 63
8851   2BF6 CF           .db 207
8852   2BF7 1A           .db 26
8853   2BF8 60           .db 96
8854   2BF9 70           .db 112
8855   2BFA 80           .db 128
8856   2BFB E0           .db 224
8857   2BFC FF           .db 255
8858   2BFD F0           .db 240
8859   2BFE 38           .db 56
8860   2BFF 9E           .db 158
8861   2C00 CF           .db 207
8862   2C01 7F           .db 127
8863   2C02 3B           .db 59
8864   2C03 00           .db 0
8865   2C04 04           .db 4
8866   2C05 54           .db 84
8867   2C06 63           .db 99
8868   2C07 50           .db 80
8869   2C08 F0           .db 240
8870   2C09 4E           .db 78
8871   2C0A FF           .db 255
8872   2C0B 1E           .db 30
8873   2C0C 0E           .db 14
8874   2C0D 00           .db 0
8875   2C0E 32           .db 50
8876   2C0F 07           .db 7
8877   2C10 FF           .db 255
8878   2C11 06           .db 6
8879   2C12 6F           .db 111
8880   2C13 D7           .db 215
8881   2C14 E1           .db 225
8882   2C15 E0           .db 224
8883   2C16 31           .db 49
8884   2C17 36           .db 54
8885   2C18 59           .db 89
8886   2C19 C6           .db 198
8887   2C1A B7           .db 183
8888   2C1B D9           .db 217
8889   2C1C BC           .db 188
8890   2C1D 54           .db 84
8891   2C1E 01           .db 1
8892   2C1F 6B           .db 107
8893   2C20 A7           .db 167
8894   2C21 12           .db 18
8895   2C22 AF           .db 175
8896   2C23 FF           .db 255
8897   2C24 E7           .db 231
8898   2C25 5C           .db 92
8899   2C26 FF           .db 255
8900   2C27 EF           .db 239
8901   2C28 FF           .db 255
8902   2C29 64           .db 100
8903   2C2A 39           .db 57
8904   2C2B 34           .db 52
8905   2C2C 7C           .db 124
8906   2C2D 38           .db 56
8907   2C2E 30           .db 48
8908   2C2F FF           .db 255
8909   2C30 EC           .db 236
8910   2C31 10           .db 16
8911   2C32 01           .db 1
8912   2C33 87           .db 135
8913   2C34 29           .db 41
8914   2C35 58           .db 88
8915   2C36 01           .db 1
8916   2C37 E0           .db 224
8917   2C38 B9           .db 185
8918   2C39 44           .db 68
8919   2C3A 1A           .db 26
8920   2C3B 0D           .db 13
8921   2C3C 72           .db 114
8922   2C3D B4           .db 180
8923   2C3E 03           .db 3
8924   2C3F BD           .db 189
8925   2C40 0B           .db 11
8926   2C41 3E           .db 62
8927   2C42 ED           .db 237
8928   2C43 D9           .db 217
8929   2C44 E6           .db 230
8930   2C45 DD           .db 221
8931   2C46 17           .db 23
8932   2C47 04           .db 4
8933   2C48 EA           .db 234
8934   2C49 3B           .db 59
8935   2C4A 00           .db 0
8936   2C4B 58           .db 88
8937   2C4C B0           .db 176
8938   2C4D 40           .db 64
8939   2C4E 08           .db 8
8940   2C4F F7           .db 247
8941   2C50 1F           .db 31
8942   2C51 07           .db 7
8943   2C52 F5           .db 245
8944   2C53 09           .db 9
8945   2C54 19           .db 25
8946   2C55 62           .db 98
8947   2C56 F8           .db 248
8948   2C57 2F           .db 47
8949   2C58 E7           .db 231
8950   2C59 47           .db 71
8951   2C5A 7B           .db 123
8952   2C5B 08           .db 8
8953   2C5C F7           .db 247
8954   2C5D B6           .db 182
8955   2C5E F9           .db 249
8956   2C5F DC           .db 220
8957   2C60 65           .db 101
8958   2C61 00           .db 0
8959   2C62 0E           .db 14
8960   2C63 82           .db 130
8961   2C64 BA           .db 186
8962   2C65 8A           .db 138
8963   2C66 30           .db 48
8964   2C67 81           .db 129
8965   2C68 1F           .db 31
8966   2C69 9E           .db 158
8967   2C6A AB           .db 171
8968   2C6B D5           .db 213
8969   2C6C 6A           .db 106
8970   2C6D 35           .db 53
8971   2C6E A9           .db 169
8972   2C6F 1A           .db 26
8973   2C70 5C           .db 92
8974   2C71 1D           .db 29
8975   2C72 C7           .db 199
8976   2C73 3C           .db 60
8977   2C74 B3           .db 179
8978   2C75 F7           .db 247
8979   2C76 7C           .db 124
8980   2C77 01           .db 1
8981   2C78 3D           .db 61
8982   2C79 0E           .db 14
8983   2C7A D3           .db 211
8984   2C7B FD           .db 253
8985   2C7C 66           .db 102
8986   2C7D C9           .db 201
8987   2C7E 57           .db 87
8988   2C7F A6           .db 166
8989   2C80 99           .db 153
8990   2C81 06           .db 6
8991   2C82 37           .db 55
8992   2C83 FA           .db 250
8993   2C84 64           .db 100
8994   2C85 C7           .db 199
8995   2C86 F5           .db 245
8996   2C87 8F           .db 143
8997   2C88 07           .db 7
8998   2C89 75           .db 117
8999   2C8A AB           .db 171
9000   2C8B 26           .db 38
9001   2C8C 60           .db 96
9002   2C8D CC           .db 204
9003   2C8E 88           .db 136
9004   2C8F 29           .db 41
9005   2C90 BB           .db 187
9006   2C91 FA           .db 250
9007   2C92 BA           .db 186
9008   2C93 C9           .db 201
9009   2C94 C5           .db 197
9010   2C95 0B           .db 11
9011   2C96 44           .db 68
9012   2C97 8D           .db 141
9013   2C98 0D           .db 13
9014   2C99 37           .db 55
9015   2C9A 16           .db 22
9016   2C9B 9E           .db 158
9017   2C9C FB           .db 251
9018   2C9D 79           .db 121
9019   2C9E E6           .db 230
9020   2C9F 9D           .db 157
9021   2CA0 7B           .db 123
9022   2CA1 D5           .db 213
9023   2CA2 93           .db 147
9024   2CA3 08           .db 8
9025   2CA4 AA           .db 170
9026   2CA5 FC           .db 252
9027   2CA6 56           .db 86
9028   2CA7 D8           .db 216
9029   2CA8 E8           .db 232
9030   2CA9 70           .db 112
9031   2CAA 53           .db 83
9032   2CAB DF           .db 223
9033   2CAC 2B           .db 43
9034   2CAD 7E           .db 126
9035   2CAE 0F           .db 15
9036   2CAF 77           .db 119
9037   2CB0 97           .db 151
9038   2CB1 FB           .db 251
9039   2CB2 17           .db 23
9040   2CB3 37           .db 55
9041   2CB4 2F           .db 47
9042   2CB5 9F           .db 159
9043   2CB6 BF           .db 191
9044   2CB7 22           .db 34
9045   2CB8 AA           .db 170
9046   2CB9 EE           .db 238
9047   2CBA 23           .db 35
9048   2CBB C4           .db 196
9049   2CBC 6A           .db 106
9050   2CBD 7D           .db 125
9051   2CBE 87           .db 135
9052   2CBF 58           .db 88
9053   2CC0 DB           .db 219
9054   2CC1 1F           .db 31
9055   2CC2 E7           .db 231
9056   2CC3 7A           .db 122
9057   2CC4 EE           .db 238
9058   2CC5 57           .db 87
9059   2CC6 B8           .db 184
9060   2CC7 AF           .db 175
9061   2CC8 98           .db 152
9062   2CC9 FC           .db 252
9063   2CCA 9E           .db 158
9064   2CCB F4           .db 244
9065   2CCC 9F           .db 159
9066   2CCD FF           .db 255
9067   2CCE B1           .db 177
9068   2CCF 0E           .db 14
9069   2CD0 02           .db 2
9070   2CD1 C1           .db 193
9071   2CD2 D2           .db 210
9072   2CD3 FE           .db 254
9073   2CD4 D0           .db 208
9074   2CD5 16           .db 22
9075   2CD6 8C           .db 140
9076   2CD7 23           .db 35
9077   2CD8 2F           .db 47
9078   2CD9 FF           .db 255
9079   2CDA 6E           .db 110
9080   2CDB E6           .db 230
9081   2CDC F1           .db 241
9082   2CDD F9           .db 249
9083   2CDE 8B           .db 139
9084   2CDF 3B           .db 59
9085   2CE0 A3           .db 163
9086   2CE1 F7           .db 247
9087   2CE2 03           .db 3
9088   2CE3 61           .db 97
9089   2CE4 C4           .db 196
9090   2CE5 9B           .db 155
9091   2CE6 07           .db 7
9092   2CE7 9F           .db 159
9093   2CE8 FF           .db 255
9094   2CE9 EC           .db 236
9095   2CEA 0B           .db 11
9096   2CEB 9C           .db 156
9097   2CEC 7B           .db 123
9098   2CED EA           .db 234
9099   2CEE 04           .db 4
9100   2CEF 7A           .db 122
9101   2CF0 D5           .db 213
9102   2CF1 69           .db 105
9103   2CF2 25           .db 37
9104   2CF3 58           .db 88
9105   2CF4 BC           .db 188
9106   2CF5 D8           .db 216
9107   2CF6 58           .db 88
9108   2CF7 A0           .db 160
9109   2CF8 55           .db 85
9110   2CF9 CF           .db 207
9111   2CFA 30           .db 48
9112   2CFB 0C           .db 12
9113   2CFC 1E           .db 30
9114   2CFD 13           .db 19
9115   2CFE 03           .db 3
9116   2CFF EE           .db 238
9117   2D00 07           .db 7
9118   2D01 9E           .db 158
9119   2D02 F8           .db 248
9120   2D03 FD           .db 253
9121   2D04 71           .db 113
9122   2D05 FE           .db 254
9123   2D06 DF           .db 223
9124   2D07 21           .db 33
9125   2D08 81           .db 129
9126   2D09 FB           .db 251
9127   2D0A BF           .db 191
9128   2D0B FF           .db 255
9129   2D0C 8F           .db 143
9130   2D0D 87           .db 135
9131   2D0E E1           .db 225
9132   2D0F F8           .db 248
9133   2D10 5C           .db 92
9134   2D11 B9           .db 185
9135   2D12 67           .db 103
9136   2D13 DC           .db 220
9137   2D14 FF           .db 255
9138   2D15 BB           .db 187
9139   2D16 77           .db 119
9140   2D17 70           .db 112
9141   2D18 7B           .db 123
9142   2D19 BF           .db 191
9143   2D1A CF           .db 207
9144   2D1B F6           .db 246
9145   2D1C F8           .db 248
9146   2D1D EF           .db 239
9147   2D1E 7C           .db 124
9148   2D1F 98           .db 152
9149   2D20 E0           .db 224
9150   2D21 D6           .db 214
9151   2D22 CC           .db 204
9152   2D23 1F           .db 31
9153   2D24 BF           .db 191
9154   2D25 CF           .db 207
9155   2D26 E4           .db 228
9156   2D27 77           .db 119
9157   2D28 20           .db 32
9158   2D29 7C           .db 124
9159   2D2A 60           .db 96
9160   2D2B 70           .db 112
9161   2D2C 78           .db 120
9162   2D2D 78           .db 120
9163   2D2E E4           .db 228
9164   2D2F C5           .db 197
9165   2D30 6B           .db 107
9166   2D31 F8           .db 248
9167   2D32 13           .db 19
9168   2D33 5B           .db 91
9169   2D34 FF           .db 255
9170   2D35 F9           .db 249
9171   2D36 1D           .db 29
9172   2D37 FF           .db 255
9173   2D38 06           .db 6
9174   2D39 42           .db 66
9175   2D3A 56           .db 86
9176   2D3B F1           .db 241
9177   2D3C 2F           .db 47
9178   2D3D 3F           .db 63
9179   2D3E 1E           .db 30
9180   2D3F FD           .db 253
9181   2D40 0C           .db 12
9182   2D41 04           .db 4
9183   2D42 C0           .db 192
9184   2D43 F0           .db 240
9185   2D44 87           .db 135
9186   2D45 E0           .db 224
9187   2D46 01           .db 1
9188   2D47 3F           .db 63
9189   2D48 F7           .db 247
9190   2D49 CC           .db 204
9191   2D4A 33           .db 51
9192   2D4B CE           .db 206
9193   2D4C 35           .db 53
9194   2D4D EB           .db 235
9195   2D4E 69           .db 105
9196   2D4F 2D           .db 45
9197   2D50 27           .db 39
9198   2D51 54           .db 84
9199   2D52 B8           .db 184
9200   2D53 71           .db 113
9201   2D54 1A           .db 26
9202   2D55 87           .db 135
9203   2D56 D9           .db 217
9204   2D57 32           .db 50
9205   2D58 1E           .db 30
9206   2D59 40           .db 64
9207   2D5A B8           .db 184
9208   2D5B F3           .db 243
9209   2D5C AB           .db 171
9210   2D5D F0           .db 240
9211   2D5E 60           .db 96
9212   2D5F 76           .db 118
9213   2D60 CB           .db 203
9214   2D61 DE           .db 222
9215   2D62 EF           .db 239
9216   2D63 2F           .db 47
9217   2D64 E8           .db 232
9218   2D65 18           .db 24
9219   2D66 FF           .db 255
9220   2D67 CC           .db 204
9221   2D68 2A           .db 42
9222   2D69 9F           .db 159
9223   2D6A BB           .db 187
9224   2D6B 31           .db 49
9225   2D6C 2F           .db 47
9226   2D6D BD           .db 189
9227   2D6E D0           .db 208
9228   2D6F FF           .db 255
9229   2D70 61           .db 97
9230   2D71 38           .db 56
9231   2D72 F9           .db 249
9232   2D73 D7           .db 215
9233   2D74 52           .db 82
9234   2D75 0B           .db 11
9235   2D76 7C           .db 124
9236   2D77 FF           .db 255
9237   2D78 C8           .db 200
9238   2D79 FD           .db 253
9239   2D7A FA           .db 250
9240   2D7B F0           .db 240
9241   2D7C 93           .db 147
9242   2D7D C7           .db 199
9243   2D7E E1           .db 225
9244   2D7F 17           .db 23
9245   2D80 BC           .db 188
9246   2D81 B5           .db 181
9247   2D82 FB           .db 251
9248   2D83 81           .db 129
9249   2D84 01           .db 1
9250   2D85 F2           .db 242
9251   2D86 C3           .db 195
9252   2D87 9D           .db 157
9253   2D88 C2           .db 194
9254   2D89 83           .db 131
9255   2D8A FF           .db 255
9256   2D8B 17           .db 23
9257   2D8C E5           .db 229
9258   2D8D 44           .db 68
9259   2D8E A0           .db 160
9260   2D8F A8           .db 168
9261   2D90 FE           .db 254
9262   2D91 B0           .db 176
9263   2D92 4E           .db 78
9264   2D93 CF           .db 207
9265   2D94 2C           .db 44
9266   2D95 29           .db 41
9267   2D96 3F           .db 63
9268   2D97 C0           .db 192
9269   2D98 01           .db 1
9270   2D99 CF           .db 207
9271   2D9A DA           .db 218
9272   2D9B FF           .db 255
9273   2D9C F3           .db 243
9274   2D9D FF           .db 255
9275   2D9E 0A           .db 10
9276   2D9F D8           .db 216
9277   2DA0 FF           .db 255
9278   2DA1 FC           .db 252
9279   2DA2 FE           .db 254
9280   2DA3 1E           .db 30
9281   2DA4 78           .db 120
9282   2DA5 70           .db 112
9283   2DA6 30           .db 48
9284   2DA7 10           .db 16
9285   2DA8 58           .db 88
9286   2DA9 FF           .db 255
9287   2DAA 22           .db 34
9288   2DAB 18           .db 24
9289   2DAC 79           .db 121
9290   2DAD AE           .db 174
9291   2DAE 58           .db 88
9292   2DAF 29           .db 41
9293   2DB0 1D           .db 29
9294   2DB1 66           .db 102
9295   2DB2 FF           .db 255
9296   2DB3 3F           .db 63
9297   2DB4 96           .db 150
9298   2DB5 29           .db 41
9299   2DB6 06           .db 6
9300   2DB7 D1           .db 209
9301   2DB8 04           .db 4
9302   2DB9 87           .db 135
9303   2DBA F9           .db 249
9304   2DBB 29           .db 41
9305   2DBC 60           .db 96
9306   2DBD 5E           .db 94
9307   2DBE 98           .db 152
9308   2DBF 14           .db 20
9309   2DC0 7F           .db 127
9310   2DC1 96           .db 150
9311   2DC2 29           .db 41
9312   2DC3 05           .db 5
9313   2DC4 E9           .db 233
9314   2DC5 14           .db 20
9315   2DC6 87           .db 135
9316   2DC7 F9           .db 249
9317   2DC8 29           .db 41
9318   2DC9 60           .db 96
9319   2DCA 5E           .db 94
9320   2DCB 98           .db 152
9321   2DCC 14           .db 20
9322   2DCD 7F           .db 127
9323   2DCE 96           .db 150
9324   2DCF 29           .db 41
9325   2DD0 05           .db 5
9326   2DD1 E9           .db 233
9327   2DD2 10           .db 16
9328   2DD3 87           .db 135
9329   2DD4 F9           .db 249
9330   2DD5 29           .db 41
9331   2DD6 61           .db 97
9332   2DD7 79           .db 121
9333   2DD8 AC           .db 172
9334   2DD9 80           .db 128
9335   2DDA 40           .db 64
9336   2DDB             
9337   2DDB             imgTitle_colors:
9338   2DDB 0A           .db 10
9339   2DDC 60           .db 96
9340   2DDD 54           .db 84
9341   2DDE AC           .db 172
9342   2DDF FF           .db 255
9343   2DE0 0D           .db 13
9344   2DE1 D1           .db 209
9345   2DE2 FF           .db 255
9346   2DE3 EF           .db 239
9347   2DE4 64           .db 100
9348   2DE5 AD           .db 173
9349   2DE6 E3           .db 227
9350   2DE7 07           .db 7
9351   2DE8 0C           .db 12
9352   2DE9 ED           .db 237
9353   2DEA 0C           .db 12
9354   2DEB C5           .db 197
9355   2DEC FF           .db 255
9356   2DED 0D           .db 13
9357   2DEE 8D           .db 141
9358   2DEF AD           .db 173
9359   2DF0 FF           .db 255
9360   2DF1 70           .db 112
9361   2DF2 CE           .db 206
9362   2DF3 F6           .db 246
9363   2DF4 37           .db 55
9364   2DF5 D5           .db 213
9365   2DF6 30           .db 48
9366   2DF7 00           .db 0
9367   2DF8 3A           .db 58
9368   2DF9 FE           .db 254
9369   2DFA FC           .db 252
9370   2DFB DC           .db 220
9371   2DFC FF           .db 255
9372   2DFD C0           .db 192
9373   2DFE EC           .db 236
9374   2DFF 6D           .db 109
9375   2E00 00           .db 0
9376   2E01 0A           .db 10
9377   2E02 0E           .db 14
9378   2E03 00           .db 0
9379   2E04 FF           .db 255
9380   2E05 30           .db 48
9381   2E06 39           .db 57
9382   2E07 4C           .db 76
9383   2E08 00           .db 0
9384   2E09 40           .db 64
9385   2E0A 13           .db 19
9386   2E0B F0           .db 240
9387   2E0C F3           .db 243
9388   2E0D 6C           .db 108
9389   2E0E 83           .db 131
9390   2E0F 0D           .db 13
9391   2E10 03           .db 3
9392   2E11 1D           .db 29
9393   2E12 00           .db 0
9394   2E13 0E           .db 14
9395   2E14 62           .db 98
9396   2E15 A6           .db 166
9397   2E16 FF           .db 255
9398   2E17 0C           .db 12
9399   2E18 FF           .db 255
9400   2E19 1D           .db 29
9401   2E1A B7           .db 183
9402   2E1B 0C           .db 12
9403   2E1C 3C           .db 60
9404   2E1D FC           .db 252
9405   2E1E FD           .db 253
9406   2E1F CA           .db 202
9407   2E20 35           .db 53
9408   2E21 FE           .db 254
9409   2E22 37           .db 55
9410   2E23 FD           .db 253
9411   2E24 16           .db 22
9412   2E25 FC           .db 252
9413   2E26 FF           .db 255
9414   2E27 0C           .db 12
9415   2E28 26           .db 38
9416   2E29 00           .db 0
9417   2E2A 0C           .db 12
9418   2E2B DF           .db 223
9419   2E2C 87           .db 135
9420   2E2D B0           .db 176
9421   2E2E 0C           .db 12
9422   2E2F C8           .db 200
9423   2E30 00           .db 0
9424   2E31 DC           .db 220
9425   2E32 F8           .db 248
9426   2E33 6C           .db 108
9427   2E34 D6           .db 214
9428   2E35 0B           .db 11
9429   2E36 B5           .db 181
9430   2E37 FF           .db 255
9431   2E38 0E           .db 14
9432   2E39 B1           .db 177
9433   2E3A F8           .db 248
9434   2E3B B9           .db 185
9435   2E3C FC           .db 252
9436   2E3D E6           .db 230
9437   2E3E FD           .db 253
9438   2E3F A6           .db 166
9439   2E40 FE           .db 254
9440   2E41 79           .db 121
9441   2E42 0B           .db 11
9442   2E43 9E           .db 158
9443   2E44 12           .db 18
9444   2E45 60           .db 96
9445   2E46 56           .db 86
9446   2E47 91           .db 145
9447   2E48 00           .db 0
9448   2E49 02           .db 2
9449   2E4A 85           .db 133
9450   2E4B 26           .db 38
9451   2E4C 00           .db 0
9452   2E4D 7F           .db 127
9453   2E4E D8           .db 216
9454   2E4F FC           .db 252
9455   2E50 26           .db 38
9456   2E51 7E           .db 126
9457   2E52 0D           .db 13
9458   2E53 0F           .db 15
9459   2E54 CD           .db 205
9460   2E55 16           .db 22
9461   2E56 FF           .db 255
9462   2E57 EF           .db 239
9463   2E58 56           .db 86
9464   2E59 1E           .db 30
9465   2E5A D7           .db 215
9466   2E5B ED           .db 237
9467   2E5C 60           .db 96
9468   2E5D 94           .db 148
9469   2E5E 00           .db 0
9470   2E5F 7F           .db 127
9471   2E60 D8           .db 216
9472   2E61 05           .db 5
9473   2E62 60           .db 96
9474   2E63 00           .db 0
9475   2E64 01           .db 1
9476   2E65 98           .db 152
9477   2E66 4E           .db 78
9478   2E67 B0           .db 176
9479   2E68 0E           .db 14
9480   2E69 EB           .db 235
9481   2E6A D6           .db 214
9482   2E6B 07           .db 7
9483   2E6C 0F           .db 15
9484   2E6D 36           .db 54
9485   2E6E FF           .db 255
9486   2E6F B7           .db 183
9487   2E70 70           .db 112
9488   2E71 38           .db 56
9489   2E72 F6           .db 246
9490   2E73 D5           .db 213
9491   2E74 C1           .db 193
9492   2E75 2C           .db 44
9493   2E76 00           .db 0
9494   2E77 D0           .db 208
9495   2E78 1B           .db 27
9496   2E79 C3           .db 195
9497   2E7A 43           .db 67
9498   2E7B 00           .db 0
9499   2E7C 8C           .db 140
9500   2E7D FD           .db 253
9501   2E7E C5           .db 197
9502   2E7F 40           .db 64
9503   2E80 0E           .db 14
9504   2E81 87           .db 135
9505   2E82 5F           .db 95
9506   2E83 FB           .db 251
9507   2E84 B0           .db 176
9508   2E85 0F           .db 15
9509   2E86 90           .db 144
9510   2E87 FF           .db 255
9511   2E88 C2           .db 194
9512   2E89 F0           .db 240
9513   2E8A 00           .db 0
9514   2E8B 2C           .db 44
9515   2E8C 54           .db 84
9516   2E8D 00           .db 0
9517   2E8E FF           .db 255
9518   2E8F 30           .db 48
9519   2E90 0C           .db 12
9520   2E91 49           .db 73
9521   2E92 31           .db 49
9522   2E93 00           .db 0
9523   2E94 8F           .db 143
9524   2E95 80           .db 128
9525   2E96 FC           .db 252
9526   2E97 C3           .db 195
9527   2E98 83           .db 131
9528   2E99 00           .db 0
9529   2E9A 7C           .db 124
9530   2E9B 37           .db 55
9531   2E9C D7           .db 215
9532   2E9D 30           .db 48
9533   2E9E EE           .db 238
9534   2E9F 25           .db 37
9535   2EA0 BE           .db 190
9536   2EA1 00           .db 0
9537   2EA2 C7           .db 199
9538   2EA3 7E           .db 126
9539   2EA4 FD           .db 253
9540   2EA5 58           .db 88
9541   2EA6 FF           .db 255
9542   2EA7 46           .db 70
9543   2EA8 00           .db 0
9544   2EA9 62           .db 98
9545   2EAA 07           .db 7
9546   2EAB 13           .db 19
9547   2EAC 83           .db 131
9548   2EAD F3           .db 243
9549   2EAE 64           .db 100
9550   2EAF 18           .db 24
9551   2EB0 0D           .db 13
9552   2EB1 4E           .db 78
9553   2EB2 00           .db 0
9554   2EB3 64           .db 100
9555   2EB4 99           .db 153
9556   2EB5 33           .db 51
9557   2EB6 E6           .db 230
9558   2EB7 00           .db 0
9559   2EB8 E6           .db 230
9560   2EB9 07           .db 7
9561   2EBA 09           .db 9
9562   2EBB AB           .db 171
9563   2EBC 00           .db 0
9564   2EBD 0A           .db 10
9565   2EBE 1D           .db 29
9566   2EBF F8           .db 248
9567   2EC0 FC           .db 252
9568   2EC1 0C           .db 12
9569   2EC2 21           .db 33
9570   2EC3 C3           .db 195
9571   2EC4 D7           .db 215
9572   2EC5 63           .db 99
9573   2EC6 BE           .db 190
9574   2EC7 0F           .db 15
9575   2EC8 76           .db 118
9576   2EC9 00           .db 0
9577   2ECA C7           .db 199
9578   2ECB 4C           .db 76
9579   2ECC 20           .db 32
9580   2ECD 15           .db 21
9581   2ECE 0C           .db 12
9582   2ECF 00           .db 0
9583   2ED0 7F           .db 127
9584   2ED1 CF           .db 207
9585   2ED2 F9           .db 249
9586   2ED3 31           .db 49
9587   2ED4 FF           .db 255
9588   2ED5 53           .db 83
9589   2ED6 00           .db 0
9590   2ED7 07           .db 7
9591   2ED8 0D           .db 13
9592   2ED9 30           .db 48
9593   2EDA 00           .db 0
9594   2EDB FC           .db 252
9595   2EDC 00           .db 0
9596   2EDD 8E           .db 142
9597   2EDE FD           .db 253
9598   2EDF 36           .db 54
9599   2EE0 FC           .db 252
9600   2EE1 00           .db 0
9601   2EE2 00           .db 0
9602   2EE3 C2           .db 194
9603   2EE4 8F           .db 143
9604   2EE5 96           .db 150
9605   2EE6 FC           .db 252
9606   2EE7 FF           .db 255
9607   2EE8 3D           .db 61
9608   2EE9 86           .db 134
9609   2EEA D7           .db 215
9610   2EEB 05           .db 5
9611   2EEC 17           .db 23
9612   2EED DB           .db 219
9613   2EEE 00           .db 0
9614   2EEF 86           .db 134
9615   2EF0 00           .db 0
9616   2EF1 64           .db 100
9617   2EF2 18           .db 24
9618   2EF3 01           .db 1
9619   2EF4 55           .db 85
9620   2EF5 F0           .db 240
9621   2EF6 FC           .db 252
9622   2EF7 18           .db 24
9623   2EF8 3C           .db 60
9624   2EF9 E1           .db 225
9625   2EFA 00           .db 0
9626   2EFB 87           .db 135
9627   2EFC A6           .db 166
9628   2EFD 00           .db 0
9629   2EFE 15           .db 21
9630   2EFF EA           .db 234
9631   2F00 44           .db 68
9632   2F01 0E           .db 14
9633   2F02 C6           .db 198
9634   2F03 CC           .db 204
9635   2F04 FF           .db 255
9636   2F05 1C           .db 28
9637   2F06 0C           .db 12
9638   2F07 00           .db 0
9639   2F08 3A           .db 58
9640   2F09 F9           .db 249
9641   2F0A 00           .db 0
9642   2F0B C3           .db 195
9643   2F0C 08           .db 8
9644   2F0D B2           .db 178
9645   2F0E BC           .db 188
9646   2F0F C8           .db 200
9647   2F10 FF           .db 255
9648   2F11 00           .db 0
9649   2F12 FB           .db 251
9650   2F13 B0           .db 176
9651   2F14 5B           .db 91
9652   2F15 EB           .db 235
9653   2F16 E0           .db 224
9654   2F17 FC           .db 252
9655   2F18 30           .db 48
9656   2F19 29           .db 41
9657   2F1A FE           .db 254
9658   2F1B 00           .db 0
9659   2F1C F3           .db 243
9660   2F1D 03           .db 3
9661   2F1E 3B           .db 59
9662   2F1F EC           .db 236
9663   2F20 FF           .db 255
9664   2F21 CC           .db 204
9665   2F22 B0           .db 176
9666   2F23 63           .db 99
9667   2F24 DB           .db 219
9668   2F25 E0           .db 224
9669   2F26 FC           .db 252
9670   2F27 31           .db 49
9671   2F28 DC           .db 220
9672   2F29 D1           .db 209
9673   2F2A DE           .db 222
9674   2F2B 09           .db 9
9675   2F2C FE           .db 254
9676   2F2D E6           .db 230
9677   2F2E FA           .db 250
9678   2F2F 0F           .db 15
9679   2F30 DE           .db 222
9680   2F31 00           .db 0
9681   2F32 65           .db 101
9682   2F33 00           .db 0
9683   2F34 04           .db 4
9684   2F35 2C           .db 44
9685   2F36 F0           .db 240
9686   2F37 2A           .db 42
9687   2F38 BD           .db 189
9688   2F39 43           .db 67
9689   2F3A 0E           .db 14
9690   2F3B 8F           .db 143
9691   2F3C 98           .db 152
9692   2F3D FF           .db 255
9693   2F3E E0           .db 224
9694   2F3F 00           .db 0
9695   2F40 46           .db 70
9696   2F41 2C           .db 44
9697   2F42 00           .db 0
9698   2F43 67           .db 103
9699   2F44 2C           .db 44
9700   2F45 2E           .db 46
9701   2F46 0A           .db 10
9702   2F47 58           .db 88
9703   2F48 00           .db 0
9704   2F49 58           .db 88
9705   2F4A EB           .db 235
9706   2F4B 2A           .db 42
9707   2F4C F1           .db 241
9708   2F4D 00           .db 0
9709   2F4E BF           .db 191
9710   2F4F D8           .db 216
9711   2F50 02           .db 2
9712   2F51 7F           .db 127
9713   2F52 F4           .db 244
9714   2F53 FC           .db 252
9715   2F54 FF           .db 255
9716   2F55 63           .db 99
9717   2F56 26           .db 38
9718   2F57 00           .db 0
9719   2F58 1F           .db 31
9720   2F59 FD           .db 253
9721   2F5A 00           .db 0
9722   2F5B E6           .db 230
9723   2F5C 26           .db 38
9724   2F5D 09           .db 9
9725   2F5E 7C           .db 124
9726   2F5F 00           .db 0
9727   2F60 96           .db 150
9728   2F61 0D           .db 13
9729   2F62 FE           .db 254
9730   2F63 24           .db 36
9731   2F64 FF           .db 255
9732   2F65 61           .db 97
9733   2F66 EF           .db 239
9734   2F67 C0           .db 192
9735   2F68 FC           .db 252
9736   2F69 60           .db 96
9737   2F6A A8           .db 168
9738   2F6B 00           .db 0
9739   2F6C 79           .db 121
9740   2F6D F9           .db 249
9741   2F6E 87           .db 135
9742   2F6F 66           .db 102
9743   2F70 00           .db 0
9744   2F71 6A           .db 106
9745   2F72 67           .db 103
9746   2F73 0D           .db 13
9747   2F74 C5           .db 197
9748   2F75 8E           .db 142
9749   2F76 FF           .db 255
9750   2F77 30           .db 48
9751   2F78 E3           .db 227
9752   2F79 F7           .db 247
9753   2F7A E5           .db 229
9754   2F7B FD           .db 253
9755   2F7C FF           .db 255
9756   2F7D 82           .db 130
9757   2F7E 89           .db 137
9758   2F7F 00           .db 0
9759   2F80 89           .db 137
9760   2F81 18           .db 24
9761   2F82 01           .db 1
9762   2F83 75           .db 117
9763   2F84 06           .db 6
9764   2F85 00           .db 0
9765   2F86 2C           .db 44
9766   2F87 02           .db 2
9767   2F88 01           .db 1
9768   2F89 8E           .db 142
9769   2F8A 75           .db 117
9770   2F8B F8           .db 248
9771   2F8C 82           .db 130
9772   2F8D D1           .db 209
9773   2F8E 00           .db 0
9774   2F8F B9           .db 185
9775   2F90 ED           .db 237
9776   2F91 9E           .db 158
9777   2F92 00           .db 0
9778   2F93 60           .db 96
9779   2F94 81           .db 129
9780   2F95 86           .db 134
9781   2F96 00           .db 0
9782   2F97 35           .db 53
9783   2F98 36           .db 54
9784   2F99 44           .db 68
9785   2F9A 59           .db 89
9786   2F9B 0D           .db 13
9787   2F9C 82           .db 130
9788   2F9D 67           .db 103
9789   2F9E AD           .db 173
9790   2F9F 00           .db 0
9791   2FA0 0E           .db 14
9792   2FA1 10           .db 16
9793   2FA2 FE           .db 254
9794   2FA3 09           .db 9
9795   2FA4 18           .db 24
9796   2FA5 99           .db 153
9797   2FA6 00           .db 0
9798   2FA7 86           .db 134
9799   2FA8 F7           .db 247
9800   2FA9 0D           .db 13
9801   2FAA 63           .db 99
9802   2FAB E6           .db 230
9803   2FAC 00           .db 0
9804   2FAD 10           .db 16
9805   2FAE C8           .db 200
9806   2FAF 44           .db 68
9807   2FB0 06           .db 6
9808   2FB1 6C           .db 108
9809   2FB2 98           .db 152
9810   2FB3 61           .db 97
9811   2FB4 29           .db 41
9812   2FB5 F0           .db 240
9813   2FB6 00           .db 0
9814   2FB7 BC           .db 188
9815   2FB8 08           .db 8
9816   2FB9 FE           .db 254
9817   2FBA 8C           .db 140
9818   2FBB F8           .db 248
9819   2FBC 3F           .db 63
9820   2FBD F3           .db 243
9821   2FBE 00           .db 0
9822   2FBF 0E           .db 14
9823   2FC0 BE           .db 190
9824   2FC1 00           .db 0
9825   2FC2 C7           .db 199
9826   2FC3 A2           .db 162
9827   2FC4 3D           .db 61
9828   2FC5 03           .db 3
9829   2FC6 05           .db 5
9830   2FC7 4C           .db 76
9831   2FC8 B7           .db 183
9832   2FC9 FF           .db 255
9833   2FCA 04           .db 4
9834   2FCB 00           .db 0
9835   2FCC C1           .db 193
9836   2FCD 04           .db 4
9837   2FCE 00           .db 0
9838   2FCF 03           .db 3
9839   2FD0 05           .db 5
9840   2FD1 13           .db 19
9841   2FD2 00           .db 0
9842   2FD3 0F           .db 15
9843   2FD4 B4           .db 180
9844   2FD5 07           .db 7
9845   2FD6 DC           .db 220
9846   2FD7 05           .db 5
9847   2FD8 C7           .db 199
9848   2FD9 CC           .db 204
9849   2FDA 00           .db 0
9850   2FDB 1E           .db 30
9851   2FDC 30           .db 48
9852   2FDD 00           .db 0
9853   2FDE C2           .db 194
9854   2FDF 45           .db 69
9855   2FE0 06           .db 6
9856   2FE1 0A           .db 10
9857   2FE2 86           .db 134
9858   2FE3 46           .db 70
9859   2FE4 03           .db 3
9860   2FE5 0D           .db 13
9861   2FE6 D6           .db 214
9862   2FE7 00           .db 0
9863   2FE8 0D           .db 13
9864   2FE9 82           .db 130
9865   2FEA A9           .db 169
9866   2FEB 00           .db 0
9867   2FEC 86           .db 134
9868   2FED 26           .db 38
9869   2FEE 04           .db 4
9870   2FEF 0D           .db 13
9871   2FF0 F4           .db 244
9872   2FF1 00           .db 0
9873   2FF2 2C           .db 44
9874   2FF3 FF           .db 255
9875   2FF4 34           .db 52
9876   2FF5 CB           .db 203
9877   2FF6 00           .db 0
9878   2FF7 18           .db 24
9879   2FF8 F3           .db 243
9880   2FF9 06           .db 6
9881   2FFA 02           .db 2
9882   2FFB C2           .db 194
9883   2FFC 45           .db 69
9884   2FFD 00           .db 0
9885   2FFE FD           .db 253
9886   2FFF 85           .db 133
9887   3000 84           .db 132
9888   3001 00           .db 0
9889   3002 AD           .db 173
9890   3003 61           .db 97
9891   3004 8F           .db 143
9892   3005 58           .db 88
9893   3006 06           .db 6
9894   3007 53           .db 83
9895   3008 06           .db 6
9896   3009 00           .db 0
9897   300A 0D           .db 13
9898   300B E0           .db 224
9899   300C 00           .db 0
9900   300D 58           .db 88
9901   300E 65           .db 101
9902   300F C6           .db 198
9903   3010 00           .db 0
9904   3011 34           .db 52
9905   3012 00           .db 0
9906   3013 01           .db 1
9907   3014 84           .db 132
9908   3015 A6           .db 166
9909   3016 04           .db 4
9910   3017 51           .db 81
9911   3018 07           .db 7
9912   3019 83           .db 131
9913   301A C8           .db 200
9914   301B 00           .db 0
9915   301C 06           .db 6
9916   301D 09           .db 9
9917   301E 1E           .db 30
9918   301F 00           .db 0
9919   3020 67           .db 103
9920   3021 FD           .db 253
9921   3022 FF           .db 255
9922   3023 84           .db 132
9923   3024 1E           .db 30
9924   3025 0F           .db 15
9925   3026 62           .db 98
9926   3027 A6           .db 166
9927   3028 DF           .db 223
9928   3029 0C           .db 12
9929   302A 87           .db 135
9930   302B 00           .db 0
9931   302C 98           .db 152
9932   302D D3           .db 211
9933   302E 27           .db 39
9934   302F 75           .db 117
9935   3030 00           .db 0
9936   3031 B9           .db 185
9937   3032 FF           .db 255
9938   3033 86           .db 134
9939   3034 A6           .db 166
9940   3035 26           .db 38
9941   3036 C6           .db 198
9942   3037 D7           .db 215
9943   3038 0C           .db 12
9944   3039 FF           .db 255
9945   303A 00           .db 0
9946   303B 2C           .db 44
9947   303C FF           .db 255
9948   303D 2C           .db 44
9949   303E 30           .db 48
9950   303F 00           .db 0
9951   3040 8B           .db 139
9952   3041 AC           .db 172
9953   3042 00           .db 0
9954   3043 13           .db 19
9955   3044 78           .db 120
9956   3045 19           .db 25
9957   3046 D4           .db 212
9958   3047 BF           .db 191
9959   3048 C0           .db 192
9960   3049 83           .db 131
9961   304A F5           .db 245
9962   304B 00           .db 0
9963   304C 07           .db 7
9964   304D 18           .db 24
9965   304E FA           .db 250
9966   304F D9           .db 217
9967   3050 00           .db 0
9968   3051 82           .db 130
9969   3052 29           .db 41
9970   3053 06           .db 6
9971   3054 83           .db 131
9972   3055 4F           .db 79
9973   3056 D1           .db 209
9974   3057 00           .db 0
9975   3058 F8           .db 248
9976   3059 85           .db 133
9977   305A 3F           .db 63
9978   305B 00           .db 0
9979   305C 63           .db 99
9980   305D 66           .db 102
9981   305E 00           .db 0
9982   305F 28           .db 40
9983   3060 05           .db 5
9984   3061 60           .db 96
9985   3062 66           .db 102
9986   3063 18           .db 24
9987   3064 00           .db 0
9988   3065 B1           .db 177
9989   3066 2C           .db 44
9990   3067 89           .db 137
9991   3068 98           .db 152
9992   3069 05           .db 5
9993   306A 14           .db 20
9994   306B 42           .db 66
9995   306C 00           .db 0
9996   306D DF           .db 223
9997   306E C1           .db 193
9998   306F 0F           .db 15
9999   3070 8C           .db 140
10000  3071 00           .db 0
10001  3072 6B           .db 107
10002  3073 2C           .db 44
10003  3074 29           .db 41
10004  3075 09           .db 9
10005  3076 A3           .db 163
10006  3077 00           .db 0
10007  3078 63           .db 99
10008  3079 F8           .db 248
10009  307A 04           .db 4
10010  307B 43           .db 67
10011  307C 7E           .db 126
10012  307D 15           .db 21
10013  307E CB           .db 203
10014  307F 29           .db 41
10015  3080 03           .db 3
10016  3081 88           .db 136
10017  3082 FF           .db 255
10018  3083 C7           .db 199
10019  3084 F3           .db 243
10020  3085 29           .db 41
10021  3086 0C           .db 12
10022  3087 6C           .db 108
10023  3088 FF           .db 255
10024  3089 60           .db 96
10025  308A 76           .db 118
10026  308B FD           .db 253
10027  308C F1           .db 241
10028  308D 79           .db 121
10029  308E A1           .db 161
10030  308F BF           .db 191
10031  3090 9E           .db 158
10032  3091 F7           .db 247
10033  3092 00           .db 0
10034  3093 65           .db 101
10035  3094 F9           .db 249
10036  3095 89           .db 137
10037  3096 91           .db 145
10038  3097 F6           .db 246
10039  3098 F0           .db 240
10040  3099 06           .db 6
10041  309A BF           .db 191
10042  309B DB           .db 219
10043  309C E3           .db 227
10044  309D 99           .db 153
10045  309E 0E           .db 14
10046  309F 66           .db 102
10047  30A0 02           .db 2
10048  30A1 7F           .db 127
10049  30A2 D8           .db 216
10050  30A3 ED           .db 237
10051  30A4 1C           .db 28
10052  30A5 66           .db 102
10053  30A6 00           .db 0
10054  30A7 3E           .db 62
10055  30A8 FF           .db 255
10056  30A9 60           .db 96
10057  30AA 7A           .db 122
10058  30AB 91           .db 145
10059  30AC 04           .db 4
10060  30AD D5           .db 213
10061  30AE 81           .db 129
10062  30AF C3           .db 195
10063  30B0 C6           .db 198
10064  30B1 E3           .db 227
10065  30B2 79           .db 121
10066  30B3 0A           .db 10
10067  30B4 B9           .db 185
10068  30B5 11           .db 17
10069  30B6 87           .db 135
10070  30B7 06           .db 6
10071  30B8 00           .db 0
10072  30B9 01           .db 1
10073  30BA             
10074  30BA             imgScreen:
10075  30BA FF           .db 255
10076  30BB 62           .db 98
10077  30BC AB           .db 171
10078  30BD FF           .db 255
10079  30BE FE           .db 254
10080  30BF 02           .db 2
10081  30C0 D9           .db 217
10082  30C1 FF           .db 255
10083  30C2 FF           .db 255
10084  30C3 60           .db 96
10085  30C4 84           .db 132
10086  30C5 FF           .db 255
10087  30C6 E2           .db 226
10088  30C7 80           .db 128
10089  30C8 3F           .db 63
10090  30C9 40           .db 64
10091  30CA B0           .db 176
10092  30CB 2D           .db 45
10093  30CC 50           .db 80
10094  30CD FF           .db 255
10095  30CE 7F           .db 127
10096  30CF 18           .db 24
10097  30D0 60           .db 96
10098  30D1 12           .db 18
10099  30D2 D9           .db 217
10100  30D3 7F           .db 127
10101  30D4 40           .db 64
10102  30D5 07           .db 7
10103  30D6 FF           .db 255
10104  30D7 A5           .db 165
10105  30D8 C0           .db 192
10106  30D9 00           .db 0
10107  30DA FE           .db 254
10108  30DB 81           .db 129
10109  30DC 6C           .db 108
10110  30DD FF           .db 255
10111  30DE 63           .db 99
10112  30DF 66           .db 102
10113  30E0 16           .db 22
10114  30E1 29           .db 41
10115  30E2 E2           .db 226
10116  30E3 D6           .db 214
10117  30E4 CC           .db 204
10118  30E5 CB           .db 203
10119  30E6 30           .db 48
10120  30E7 C0           .db 192
10121  30E8 47           .db 71
10122  30E9 4D           .db 77
10123  30EA 00           .db 0
10124  30EB 01           .db 1
10125  30EC FF           .db 255
10126  30ED 03           .db 3
10127  30EE A2           .db 162
10128  30EF FF           .db 255
10129  30F0 07           .db 7
10130  30F1 3D           .db 61
10131  30F2 06           .db 6
10132  30F3 CD           .db 205
10133  30F4 FF           .db 255
10134  30F5 04           .db 4
10135  30F6 01           .db 1
10136  30F7 87           .db 135
10137  30F8 64           .db 100
10138  30F9 B0           .db 176
10139  30FA B9           .db 185
10140  30FB 18           .db 24
10141  30FC 4B           .db 75
10142  30FD 01           .db 1
10143  30FE 0E           .db 14
10144  30FF 45           .db 69
10145  3100 00           .db 0
10146  3101 E3           .db 227
10147  3102 93           .db 147
10148  3103 EB           .db 235
10149  3104 D7           .db 215
10150  3105 FF           .db 255
10151  3106 05           .db 5
10152  3107 34           .db 52
10153  3108 00           .db 0
10154  3109 01           .db 1
10155  310A E3           .db 227
10156  310B 5B           .db 91
10157  310C 0F           .db 15
10158  310D 1F           .db 31
10159  310E C7           .db 199
10160  310F 3F           .db 63
10161  3110 FB           .db 251
10162  3111 5F           .db 95
10163  3112 4F           .db 79
10164  3113 E3           .db 227
10165  3114 F9           .db 249
10166  3115 FC           .db 252
10167  3116 40           .db 64
10168  3117 A1           .db 161
10169  3118 3F           .db 63
10170  3119 F3           .db 243
10171  311A E1           .db 225
10172  311B 84           .db 132
10173  311C 2A           .db 42
10174  311D 55           .db 85
10175  311E FF           .db 255
10176  311F AA           .db 170
10177  3120 41           .db 65
10178  3121 9C           .db 156
10179  3122 26           .db 38
10180  3123 AF           .db 175
10181  3124 3F           .db 63
10182  3125 7F           .db 127
10183  3126 9F           .db 159
10184  3127 F1           .db 241
10185  3128 E0           .db 224
10186  3129 FC           .db 252
10187  312A DF           .db 223
10188  312B AD           .db 173
10189  312C AF           .db 175
10190  312D AB           .db 171
10191  312E 04           .db 4
10192  312F FC           .db 252
10193  3130 E3           .db 227
10194  3131 F8           .db 248
10195  3132 0A           .db 10
10196  3133 46           .db 70
10197  3134 FC           .db 252
10198  3135 C3           .db 195
10199  3136 E3           .db 227
10200  3137 9B           .db 155
10201  3138 AD           .db 173
10202  3139 3F           .db 63
10203  313A 07           .db 7
10204  313B 08           .db 8
10205  313C 5B           .db 91
10206  313D 00           .db 0
10207  313E FE           .db 254
10208  313F FC           .db 252
10209  3140 39           .db 57
10210  3141 FF           .db 255
10211  3142 FE           .db 254
10212  3143 6A           .db 106
10213  3144 29           .db 41
10214  3145 DE           .db 222
10215  3146 0F           .db 15
10216  3147 08           .db 8
10217  3148 FF           .db 255
10218  3149 2C           .db 44
10219  314A F7           .db 247
10220  314B 10           .db 16
10221  314C 98           .db 152
10222  314D 00           .db 0
10223  314E 02           .db 2
10224  314F 07           .db 7
10225  3150 C2           .db 194
10226  3151 E3           .db 227
10227  3152 75           .db 117
10228  3153 FA           .db 250
10229  3154 E3           .db 227
10230  3155 DA           .db 218
10231  3156 AA           .db 170
10232  3157 8B           .db 139
10233  3158 7A           .db 122
10234  3159 E7           .db 231
10235  315A 3A           .db 58
10236  315B 00           .db 0
10237  315C 3F           .db 63
10238  315D 07           .db 7
10239  315E 62           .db 98
10240  315F DD           .db 221
10241  3160 8F           .db 143
10242  3161 D2           .db 210
10243  3162 E2           .db 226
10244  3163 E7           .db 231
10245  3164 F7           .db 247
10246  3165 EF           .db 239
10247  3166 DF           .db 223
10248  3167 FF           .db 255
10249  3168 E0           .db 224
10250  3169 BF           .db 191
10251  316A F2           .db 242
10252  316B C0           .db 192
10253  316C 7F           .db 127
10254  316D 03           .db 3
10255  316E F8           .db 248
10256  316F B5           .db 181
10257  3170 2C           .db 44
10258  3171 87           .db 135
10259  3172 14           .db 20
10260  3173 AF           .db 175
10261  3174 F1           .db 241
10262  3175 1F           .db 31
10263  3176 50           .db 80
10264  3177 94           .db 148
10265  3178 52           .db 82
10266  3179 A0           .db 160
10267  317A 30           .db 48
10268  317B 47           .db 71
10269  317C F9           .db 249
10270  317D 9B           .db 155
10271  317E F0           .db 240
10272  317F CB           .db 203
10273  3180 E0           .db 224
10274  3181 0E           .db 14
10275  3182 79           .db 121
10276  3183 67           .db 103
10277  3184 1F           .db 31
10278  3185 71           .db 113
10279  3186 C3           .db 195
10280  3187 84           .db 132
10281  3188 7F           .db 127
10282  3189 00           .db 0
10283  318A 77           .db 119
10284  318B F1           .db 241
10285  318C 20           .db 32
10286  318D E0           .db 224
10287  318E EF           .db 239
10288  318F E2           .db 226
10289  3190 E1           .db 225
10290  3191 97           .db 151
10291  3192 FF           .db 255
10292  3193 0B           .db 11
10293  3194 F2           .db 242
10294  3195 E7           .db 231
10295  3196 54           .db 84
10296  3197 29           .db 41
10297  3198 A1           .db 161
10298  3199 E3           .db 227
10299  319A FF           .db 255
10300  319B 9F           .db 159
10301  319C 81           .db 129
10302  319D D8           .db 216
10303  319E BE           .db 190
10304  319F 7E           .db 126
10305  31A0 00           .db 0
10306  31A1 6E           .db 110
10307  31A2 FF           .db 255
10308  31A3 C7           .db 199
10309  31A4 70           .db 112
10310  31A5 F8           .db 248
10311  31A6 C7           .db 199
10312  31A7 D8           .db 216
10313  31A8 A8           .db 168
10314  31A9 17           .db 23
10315  31AA F0           .db 240
10316  31AB E0           .db 224
10317  31AC 31           .db 49
10318  31AD 27           .db 39
10319  31AE C0           .db 192
10320  31AF FF           .db 255
10321  31B0 30           .db 48
10322  31B1 DC           .db 220
10323  31B2 5E           .db 94
10324  31B3 5F           .db 95
10325  31B4 3F           .db 63
10326  31B5 7F           .db 127
10327  31B6 A0           .db 160
10328  31B7 BF           .db 191
10329  31B8 00           .db 0
10330  31B9 5F           .db 95
10331  31BA EB           .db 235
10332  31BB 10           .db 16
10333  31BC E4           .db 228
10334  31BD CE           .db 206
10335  31BE 1F           .db 31
10336  31BF 00           .db 0
10337  31C0 58           .db 88
10338  31C1 0E           .db 14
10339  31C2 5F           .db 95
10340  31C3 F0           .db 240
10341  31C4 F8           .db 248
10342  31C5 F9           .db 249
10343  31C6 F2           .db 242
10344  31C7 C5           .db 197
10345  31C8 F0           .db 240
10346  31C9 CA           .db 202
10347  31CA D5           .db 213
10348  31CB C8           .db 200
10349  31CC E1           .db 225
10350  31CD 9F           .db 159
10351  31CE FE           .db 254
10352  31CF 7C           .db 124
10353  31D0 01           .db 1
10354  31D1 3F           .db 63
10355  31D2 FD           .db 253
10356  31D3 09           .db 9
10357  31D4 F7           .db 247
10358  31D5 47           .db 71
10359  31D6 FC           .db 252
10360  31D7 80           .db 128
10361  31D8 FE           .db 254
10362  31D9 61           .db 97
10363  31DA 49           .db 73
10364  31DB FC           .db 252
10365  31DC 7F           .db 127
10366  31DD 29           .db 41
10367  31DE C1           .db 193
10368  31DF 3F           .db 63
10369  31E0 61           .db 97
10370  31E1 29           .db 41
10371  31E2 00           .db 0
10372  31E3 EE           .db 238
10373  31E4 FF           .db 255
10374  31E5 EF           .db 239
10375  31E6 CF           .db 207
10376  31E7 AF           .db 175
10377  31E8 97           .db 151
10378  31E9 01           .db 1
10379  31EA 83           .db 131
10380  31EB 1B           .db 27
10381  31EC F5           .db 245
10382  31ED B7           .db 183
10383  31EE 00           .db 0
10384  31EF 7D           .db 125
10385  31F0 11           .db 17
10386  31F1 98           .db 152
10387  31F2 FF           .db 255
10388  31F3 20           .db 32
10389  31F4 B1           .db 177
10390  31F5 00           .db 0
10391  31F6 06           .db 6
10392  31F7 0F           .db 15
10393  31F8 9A           .db 154
10394  31F9 79           .db 121
10395  31FA 0E           .db 14
10396  31FB 9B           .db 155
10397  31FC D8           .db 216
10398  31FD 6C           .db 108
10399  31FE 80           .db 128
10400  31FF F1           .db 241
10401  3200 C0           .db 192
10402  3201 FF           .db 255
10403  3202 E1           .db 225
10404  3203 D3           .db 211
10405  3204 98           .db 152
10406  3205 3D           .db 61
10407  3206 7D           .db 125
10408  3207 FD           .db 253
10409  3208 1F           .db 31
10410  3209 6C           .db 108
10411  320A 4F           .db 79
10412  320B F1           .db 241
10413  320C C6           .db 198
10414  320D 80           .db 128
10415  320E 00           .db 0
10416  320F 40           .db 64
10417  3210 5E           .db 94
10418  3211 FE           .db 254
10419  3212 03           .db 3
10420  3213 C0           .db 192
10421  3214 60           .db 96
10422  3215 8F           .db 143
10423  3216 E0           .db 224
10424  3217 F0           .db 240
10425  3218 D7           .db 215
10426  3219 C8           .db 200
10427  321A 38           .db 56
10428  321B D8           .db 216
10429  321C D2           .db 210
10430  321D 6A           .db 106
10431  321E FE           .db 254
10432  321F EB           .db 235
10433  3220 F6           .db 246
10434  3221 CF           .db 207
10435  3222 3F           .db 63
10436  3223 D6           .db 214
10437  3224 27           .db 39
10438  3225 E0           .db 224
10439  3226 11           .db 17
10440  3227 74           .db 116
10441  3228 00           .db 0
10442  3229 EC           .db 236
10443  322A 7D           .db 125
10444  322B 1F           .db 31
10445  322C 9F           .db 159
10446  322D A2           .db 162
10447  322E FF           .db 255
10448  322F EB           .db 235
10449  3230 6D           .db 109
10450  3231 21           .db 33
10451  3232 29           .db 41
10452  3233 E0           .db 224
10453  3234 8E           .db 142
10454  3235 10           .db 16
10455  3236 2B           .db 43
10456  3237 31           .db 49
10457  3238 00           .db 0
10458  3239 01           .db 1
10459  323A 64           .db 100
10460  323B 18           .db 24
10461  323C FF           .db 255
10462  323D 46           .db 70
10463  323E 00           .db 0
10464  323F D6           .db 214
10465  3240 40           .db 64
10466  3241 E0           .db 224
10467  3242 B1           .db 177
10468  3243 D6           .db 214
10469  3244 4C           .db 76
10470  3245 FE           .db 254
10471  3246 90           .db 144
10472  3247 FA           .db 250
10473  3248 C7           .db 199
10474  3249 2D           .db 45
10475  324A F8           .db 248
10476  324B 14           .db 20
10477  324C 36           .db 54
10478  324D 73           .db 115
10479  324E FF           .db 255
10480  324F 80           .db 128
10481  3250 B0           .db 176
10482  3251 D0           .db 208
10483  3252 10           .db 16
10484  3253 F0           .db 240
10485  3254 FF           .db 255
10486  3255 B3           .db 179
10487  3256 95           .db 149
10488  3257 CC           .db 204
10489  3258 FF           .db 255
10490  3259 1E           .db 30
10491  325A B6           .db 182
10492  325B 00           .db 0
10493  325C 58           .db 88
10494  325D E3           .db 227
10495  325E A1           .db 161
10496  325F D7           .db 215
10497  3260 97           .db 151
10498  3261 9B           .db 155
10499  3262 BF           .db 191
10500  3263 FF           .db 255
10501  3264 03           .db 3
10502  3265 63           .db 99
10503  3266 5B           .db 91
10504  3267 00           .db 0
10505  3268 7F           .db 127
10506  3269 BF           .db 191
10507  326A 29           .db 41
10508  326B FF           .db 255
10509  326C 80           .db 128
10510  326D 63           .db 99
10511  326E BF           .db 191
10512  326F D7           .db 215
10513  3270 B1           .db 177
10514  3271 0F           .db 15
10515  3272 03           .db 3
10516  3273 FF           .db 255
10517  3274 02           .db 2
10518  3275 7C           .db 124
10519  3276 EC           .db 236
10520  3277 8C           .db 140
10521  3278 00           .db 0
10522  3279 10           .db 16
10523  327A 85           .db 133
10524  327B FF           .db 255
10525  327C BA           .db 186
10526  327D 8A           .db 138
10527  327E 18           .db 24
10528  327F B6           .db 182
10529  3280 13           .db 19
10530  3281 C6           .db 198
10531  3282 EC           .db 236
10532  3283 19           .db 25
10533  3284 E1           .db 225
10534  3285 00           .db 0
10535  3286 E9           .db 233
10536  3287 FF           .db 255
10537  3288 E7           .db 231
10538  3289 FF           .db 255
10539  328A A3           .db 163
10540  328B E0           .db 224
10541  328C FC           .db 252
10542  328D 03           .db 3
10543  328E 44           .db 68
10544  328F 00           .db 0
10545  3290 C7           .db 199
10546  3291 F0           .db 240
10547  3292 00           .db 0
10548  3293 F6           .db 246
10549  3294 FF           .db 255
10550  3295 98           .db 152
10551  3296 93           .db 147
10552  3297 3C           .db 60
10553  3298 EC           .db 236
10554  3299 84           .db 132
10555  329A FD           .db 253
10556  329B CA           .db 202
10557  329C 58           .db 88
10558  329D 00           .db 0
10559  329E EF           .db 239
10560  329F 81           .db 129
10561  32A0 FF           .db 255
10562  32A1 81           .db 129
10563  32A2 3C           .db 60
10564  32A3 EC           .db 236
10565  32A4 61           .db 97
10566  32A5 0E           .db 14
10567  32A6 30           .db 48
10568  32A7 00           .db 0
10569  32A8 07           .db 7
10570  32A9 08           .db 8
10571  32AA A0           .db 160
10572  32AB 01           .db 1
10573  32AC 08           .db 8
10574  32AD 13           .db 19
10575  32AE 3B           .db 59
10576  32AF F3           .db 243
10577  32B0 D7           .db 215
10578  32B1 CF           .db 207
10579  32B2 03           .db 3
10580  32B3 90           .db 144
10581  32B4 21           .db 33
10582  32B5 FD           .db 253
10583  32B6 30           .db 48
10584  32B7 2F           .db 47
10585  32B8 FE           .db 254
10586  32B9 00           .db 0
10587  32BA C7           .db 199
10588  32BB F1           .db 241
10589  32BC 00           .db 0
10590  32BD 3E           .db 62
10591  32BE 8E           .db 142
10592  32BF A1           .db 161
10593  32C0 E3           .db 227
10594  32C1 FD           .db 253
10595  32C2 39           .db 57
10596  32C3 21           .db 33
10597  32C4 E6           .db 230
10598  32C5 8F           .db 143
10599  32C6 C9           .db 201
10600  32C7 E7           .db 231
10601  32C8 2C           .db 44
10602  32C9 FD           .db 253
10603  32CA 0C           .db 12
10604  32CB DF           .db 223
10605  32CC 71           .db 113
10606  32CD 00           .db 0
10607  32CE C7           .db 199
10608  32CF BB           .db 187
10609  32D0 FB           .db 251
10610  32D1 C4           .db 196
10611  32D2 B3           .db 179
10612  32D3 BF           .db 191
10613  32D4 31           .db 49
10614  32D5 00           .db 0
10615  32D6 45           .db 69
10616  32D7 38           .db 56
10617  32D8 FF           .db 255
10618  32D9 3D           .db 61
10619  32DA 05           .db 5
10620  32DB F6           .db 246
10621  32DC 79           .db 121
10622  32DD 72           .db 114
10623  32DE 21           .db 33
10624  32DF F9           .db 249
10625  32E0 57           .db 87
10626  32E1 FF           .db 255
10627  32E2 C5           .db 197
10628  32E3 FD           .db 253
10629  32E4 60           .db 96
10630  32E5 5F           .db 95
10631  32E6 F9           .db 249
10632  32E7 00           .db 0
10633  32E8 8F           .db 143
10634  32E9 E2           .db 226
10635  32EA 00           .db 0
10636  32EB 10           .db 16
10637  32EC 3E           .db 62
10638  32ED 20           .db 32
10639  32EE C0           .db 192
10640  32EF 31           .db 49
10641  32F0 FB           .db 251
10642  32F1 67           .db 103
10643  32F2 31           .db 49
10644  32F3 00           .db 0
10645  32F4 FE           .db 254
10646  32F5 C0           .db 192
10647  32F6 E4           .db 228
10648  32F7 FC           .db 252
10649  32F8 FD           .db 253
10650  32F9 26           .db 38
10651  32FA 06           .db 6
10652  32FB 87           .db 135
10653  32FC 18           .db 24
10654  32FD 00           .db 0
10655  32FE FE           .db 254
10656  32FF 36           .db 54
10657  3300 00           .db 0
10658  3301 FE           .db 254
10659  3302 FD           .db 253
10660  3303 6A           .db 106
10661  3304 FF           .db 255
10662  3305 FE           .db 254
10663  3306 C0           .db 192
10664  3307 D6           .db 214
10665  3308 33           .db 51
10666  3309 00           .db 0
10667  330A F0           .db 240
10668  330B 00           .db 0
10669  330C C4           .db 196
10670  330D EC           .db 236
10671  330E 14           .db 20
10672  330F C0           .db 192
10673  3310 BE           .db 190
10674  3311 F3           .db 243
10675  3312 00           .db 0
10676  3313 0B           .db 11
10677  3314 4C           .db 76
10678  3315 FF           .db 255
10679  3316 F3           .db 243
10680  3317 00           .db 0
10681  3318 03           .db 3
10682  3319 B7           .db 183
10683  331A 0F           .db 15
10684  331B 00           .db 0
10685  331C F3           .db 243
10686  331D EB           .db 235
10687  331E 33           .db 51
10688  331F CC           .db 204
10689  3320 E8           .db 232
10690  3321 0E           .db 14
10691  3322 4C           .db 76
10692  3323 31           .db 49
10693  3324 00           .db 0
10694  3325 8E           .db 142
10695  3326 B0           .db 176
10696  3327 00           .db 0
10697  3328 36           .db 54
10698  3329 F1           .db 241
10699  332A 00           .db 0
10700  332B 3E           .db 62
10701  332C BC           .db 188
10702  332D 22           .db 34
10703  332E FF           .db 255
10704  332F 58           .db 88
10705  3330 F7           .db 247
10706  3331 B7           .db 183
10707  3332 98           .db 152
10708  3333 00           .db 0
10709  3334 1B           .db 27
10710  3335 B8           .db 184
10711  3336 00           .db 0
10712  3337 DC           .db 220
10713  3338 71           .db 113
10714  3339 8A           .db 138
10715  333A FF           .db 255
10716  333B B0           .db 176
10717  333C 77           .db 119
10718  333D 37           .db 55
10719  333E 4D           .db 77
10720  333F 00           .db 0
10721  3340 F1           .db 241
10722  3341 00           .db 0
10723  3342 E7           .db 231
10724  3343 18           .db 24
10725  3344 40           .db 64
10726  3345 99           .db 153
10727  3346 78           .db 120
10728  3347 00           .db 0
10729  3348 DC           .db 220
10730  3349 C7           .db 199
10731  334A 28           .db 40
10732  334B FF           .db 255
10733  334C A3           .db 163
10734  334D F7           .db 247
10735  334E F0           .db 240
10736  334F 17           .db 23
10737  3350 EB           .db 235
10738  3351 00           .db 0
10739  3352 03           .db 3
10740  3353 6F           .db 111
10741  3354 1E           .db 30
10742  3355 00           .db 0
10743  3356 22           .db 34
10744  3357 A2           .db 162
10745  3358 24           .db 36
10746  3359 38           .db 56
10747  335A 30           .db 48
10748  335B 81           .db 129
10749  335C 30           .db 48
10750  335D 3B           .db 59
10751  335E F2           .db 242
10752  335F 00           .db 0
10753  3360 CF           .db 207
10754  3361 F3           .db 243
10755  3362 15           .db 21
10756  3363 03           .db 3
10757  3364 BF           .db 191
10758  3365 4C           .db 76
10759  3366 00           .db 0
10760  3367 0F           .db 15
10761  3368 DC           .db 220
10762  3369 33           .db 51
10763  336A 00           .db 0
10764  336B CC           .db 204
10765  336C FF           .db 255
10766  336D 0E           .db 14
10767  336E DC           .db 220
10768  336F B3           .db 179
10769  3370 00           .db 0
10770  3371 F0           .db 240
10771  3372 00           .db 0
10772  3373 CB           .db 203
10773  3374 5E           .db 94
10774  3375 E6           .db 230
10775  3376 9C           .db 156
10776  3377 FF           .db 255
10777  3378 BC           .db 188
10778  3379 80           .db 128
10779  337A EB           .db 235
10780  337B C0           .db 192
10781  337C E9           .db 233
10782  337D C3           .db 195
10783  337E 00           .db 0
10784  337F 76           .db 118
10785  3380 FF           .db 255
10786  3381 C0           .db 192
10787  3382 CE           .db 206
10788  3383 3A           .db 58
10789  3384 34           .db 52
10790  3385 FD           .db 253
10791  3386 EB           .db 235
10792  3387 EC           .db 236
10793  3388 03           .db 3
10794  3389 6F           .db 111
10795  338A 18           .db 24
10796  338B 00           .db 0
10797  338C F3           .db 243
10798  338D 8A           .db 138
10799  338E FE           .db 254
10800  338F 8B           .db 139
10801  3390 F2           .db 242
10802  3391 82           .db 130
10803  3392 83           .db 131
10804  3393 59           .db 89
10805  3394 F7           .db 247
10806  3395 A8           .db 168
10807  3396 00           .db 0
10808  3397 B0           .db 176
10809  3398 EE           .db 238
10810  3399 23           .db 35
10811  339A FD           .db 253
10812  339B F6           .db 246
10813  339C 03           .db 3
10814  339D 77           .db 119
10815  339E 1E           .db 30
10816  339F 00           .db 0
10817  33A0 E8           .db 232
10818  33A1 08           .db 8
10819  33A2 09           .db 9
10820  33A3 CE           .db 206
10821  33A4 30           .db 48
10822  33A5 81           .db 129
10823  33A6 33           .db 51
10824  33A7 9B           .db 155
10825  33A8 21           .db 33
10826  33A9 80           .db 128
10827  33AA F3           .db 243
10828  33AB CC           .db 204
10829  33AC FF           .db 255
10830  33AD 0C           .db 12
10831  33AE C8           .db 200
10832  33AF CE           .db 206
10833  33B0 00           .db 0
10834  33B1 BB           .db 187
10835  33B2 FF           .db 255
10836  33B3 83           .db 131
10837  33B4 FB           .db 251
10838  33B5 59           .db 89
10839  33B6 FF           .db 255
10840  33B7 78           .db 120
10841  33B8 00           .db 0
10842  33B9 D5           .db 213
10843  33BA 9C           .db 156
10844  33BB A2           .db 162
10845  33BC 84           .db 132
10846  33BD 02           .db 2
10847  33BE 09           .db 9
10848  33BF 9C           .db 156
10849  33C0 21           .db 33
10850  33C1 BF           .db 191
10851  33C2 9F           .db 159
10852  33C3 C1           .db 193
10853  33C4 00           .db 0
10854  33C5 BC           .db 188
10855  33C6 F4           .db 244
10856  33C7 C0           .db 192
10857  33C8 DB           .db 219
10858  33C9 C5           .db 197
10859  33CA 00           .db 0
10860  33CB F1           .db 241
10861  33CC 5B           .db 91
10862  33CD 02           .db 2
10863  33CE F2           .db 242
10864  33CF 82           .db 130
10865  33D0 B3           .db 179
10866  33D1 87           .db 135
10867  33D2 FE           .db 254
10868  33D3 21           .db 33
10869  33D4 C9           .db 201
10870  33D5 E3           .db 227
10871  33D6 EB           .db 235
10872  33D7 03           .db 3
10873  33D8 6F           .db 111
10874  33D9 1B           .db 27
10875  33DA 00           .db 0
10876  33DB C0           .db 192
10877  33DC 20           .db 32
10878  33DD 96           .db 150
10879  33DE FF           .db 255
10880  33DF F0           .db 240
10881  33E0 30           .db 48
10882  33E1 D7           .db 215
10883  33E2 60           .db 96
10884  33E3 74           .db 116
10885  33E4 61           .db 97
10886  33E5 00           .db 0
10887  33E6 8E           .db 142
10888  33E7 AC           .db 172
10889  33E8 00           .db 0
10890  33E9 E0           .db 224
10891  33EA 40           .db 64
10892  33EB FF           .db 255
10893  33EC C0           .db 192
10894  33ED 9E           .db 158
10895  33EE 30           .db 48
10896  33EF EC           .db 236
10897  33F0 B3           .db 179
10898  33F1 0C           .db 12
10899  33F2 00           .db 0
10900  33F3 6C           .db 108
10901  33F4 00           .db 0
10902  33F5 C0           .db 192
10903  33F6 B3           .db 179
10904  33F7 30           .db 48
10905  33F8 FF           .db 255
10906  33F9 D3           .db 211
10907  33FA 1D           .db 29
10908  33FB 00           .db 0
10909  33FC 80           .db 128
10910  33FD 7F           .db 127
10911  33FE 40           .db 64
10912  33FF 90           .db 144
10913  3400 FF           .db 255
10914  3401 D8           .db 216
10915  3402 7F           .db 127
10916  3403 80           .db 128
10917  3404 19           .db 25
10918  3405 66           .db 102
10919  3406 00           .db 0
10920  3407 3F           .db 63
10921  3408 86           .db 134
10922  3409 00           .db 0
10923  340A 71           .db 113
10924  340B 12           .db 18
10925  340C 81           .db 129
10926  340D 33           .db 51
10927  340E FC           .db 252
10928  340F 00           .db 0
10929  3410 03           .db 3
10930  3411 07           .db 7
10931  3412 89           .db 137
10932  3413 FF           .db 255
10933  3414 01           .db 1
10934  3415 63           .db 99
10935  3416 86           .db 134
10936  3417 DC           .db 220
10937  3418 3F           .db 63
10938  3419 8C           .db 140
10939  341A 00           .db 0
10940  341B 89           .db 137
10941  341C 8A           .db 138
10942  341D 7A           .db 122
10943  341E FB           .db 251
10944  341F D1           .db 209
10945  3420 FD           .db 253
10946  3421 F7           .db 247
10947  3422 60           .db 96
10948  3423 58           .db 88
10949  3424 3C           .db 60
10950  3425 00           .db 0
10951  3426 7F           .db 127
10952  3427 9F           .db 159
10953  3428 E3           .db 227
10954  3429 FC           .db 252
10955  342A EC           .db 236
10956  342B 64           .db 100
10957  342C 3F           .db 63
10958  342D 07           .db 7
10959  342E 68           .db 104
10960  342F DC           .db 220
10961  3430 C7           .db 199
10962  3431 F1           .db 241
10963  3432 00           .db 0
10964  3433 C8           .db 200
10965  3434 8F           .db 143
10966  3435 28           .db 40
10967  3436 EF           .db 239
10968  3437 5A           .db 90
10969  3438 FF           .db 255
10970  3439 60           .db 96
10971  343A 59           .db 89
10972  343B 13           .db 19
10973  343C 00           .db 0
10974  343D 67           .db 103
10975  343E 1F           .db 31
10976  343F E0           .db 224
10977  3440 46           .db 70
10978  3441 FB           .db 251
10979  3442 13           .db 19
10980  3443 FB           .db 251
10981  3444 00           .db 0
10982  3445 83           .db 131
10983  3446 BF           .db 191
10984  3447 AC           .db 172
10985  3448 87           .db 135
10986  3449 08           .db 8
10987  344A 01           .db 1
10988  344B CD           .db 205
10989  344C C0           .db 192
10990  344D 00           .db 0
10991  344E F1           .db 241
10992  344F BE           .db 190
10993  3450 4B           .db 75
10994  3451 FF           .db 255
10995  3452 02           .db 2
10996  3453 D1           .db 209
10997  3454 00           .db 0
10998  3455 FE           .db 254
10999  3456 D8           .db 216
11000  3457 C1           .db 193
11001  3458 3F           .db 63
11002  3459 E9           .db 233
11003  345A 00           .db 0
11004  345B 8F           .db 143
11005  345C E3           .db 227
11006  345D 00           .db 0
11007  345E 71           .db 113
11008  345F 8A           .db 138
11009  3460 72           .db 114
11010  3461 FF           .db 255
11011  3462 89           .db 137
11012  3463 C0           .db 192
11013  3464 B2           .db 178
11014  3465 75           .db 117
11015  3466 00           .db 0
11016  3467 F6           .db 246
11017  3468 CF           .db 207
11018  3469 3F           .db 63
11019  346A DB           .db 219
11020  346B 27           .db 39
11021  346C E0           .db 224
11022  346D 19           .db 25
11023  346E 30           .db 48
11024  346F DE           .db 222
11025  3470 9F           .db 159
11026  3471 01           .db 1
11027  3472 00           .db 0
11028  3473 33           .db 51
11029  3474 16           .db 22
11030  3475 00           .db 0
11031  3476 01           .db 1
11032  3477 41           .db 65
11033  3478 FF           .db 255
11034  3479 81           .db 129
11035  347A A3           .db 163
11036  347B A6           .db 166
11037  347C 00           .db 0
11038  347D 3F           .db 63
11039  347E 88           .db 136
11040  347F 00           .db 0
11041  3480 80           .db 128
11042  3481 EC           .db 236
11043  3482 DD           .db 221
11044  3483 63           .db 99
11045  3484 E8           .db 232
11046  3485 01           .db 1
11047  3486 FE           .db 254
11048  3487 30           .db 48
11049  3488 2D           .db 45
11050  3489 96           .db 150
11051  348A FF           .db 255
11052  348B FF           .db 255
11053  348C 08           .db 8
11054  348D 8D           .db 141
11055  348E FF           .db 255
11056  348F 7F           .db 127
11057  3490 80           .db 128
11058  3491 81           .db 129
11059  3492 6C           .db 108
11060  3493 FF           .db 255
11061  3494 61           .db 97
11062  3495 61           .db 97
11063  3496 18           .db 24
11064  3497 80           .db 128
11065  3498 40           .db 64
11066  3499             
11067  3499             imgScreen_colors:
11068  3499 07           .db 7
11069  349A 60           .db 96
11070  349B 68           .db 104
11071  349C 18           .db 24
11072  349D FF           .db 255
11073  349E 1F           .db 31
11074  349F AB           .db 171
11075  34A0 FF           .db 255
11076  34A1 F7           .db 247
11077  34A2 04           .db 4
11078  34A3 14           .db 20
11079  34A4 C0           .db 192
11080  34A5 0A           .db 10
11081  34A6 B0           .db 176
11082  34A7 FE           .db 254
11083  34A8 2D           .db 45
11084  34A9 9B           .db 155
11085  34AA FF           .db 255
11086  34AB 07           .db 7
11087  34AC 0F           .db 15
11088  34AD 0B           .db 11
11089  34AE C5           .db 197
11090  34AF 0E           .db 14
11091  34B0 CC           .db 204
11092  34B1 96           .db 150
11093  34B2 C0           .db 192
11094  34B3 60           .db 96
11095  34B4 8E           .db 142
11096  34B5 00           .db 0
11097  34B6 B1           .db 177
11098  34B7 0C           .db 12
11099  34B8 03           .db 3
11100  34B9 FF           .db 255
11101  34BA 0E           .db 14
11102  34BB D7           .db 215
11103  34BC B0           .db 176
11104  34BD 0F           .db 15
11105  34BE 98           .db 152
11106  34BF FF           .db 255
11107  34C0 72           .db 114
11108  34C1 00           .db 0
11109  34C2 B2           .db 178
11110  34C3 0A           .db 10
11111  34C4 D6           .db 214
11112  34C5 F2           .db 242
11113  34C6 0F           .db 15
11114  34C7 0A           .db 10
11115  34C8 4B           .db 75
11116  34C9 00           .db 0
11117  34CA 0C           .db 12
11118  34CB 1E           .db 30
11119  34CC 58           .db 88
11120  34CD FF           .db 255
11121  34CE 0F           .db 15
11122  34CF 20           .db 32
11123  34D0 18           .db 24
11124  34D1 FF           .db 255
11125  34D2 42           .db 66
11126  34D3 00           .db 0
11127  34D4 B3           .db 179
11128  34D5 F7           .db 247
11129  34D6 CC           .db 204
11130  34D7 FF           .db 255
11131  34D8 F3           .db 243
11132  34D9 17           .db 23
11133  34DA 0F           .db 15
11134  34DB 4D           .db 77
11135  34DC 00           .db 0
11136  34DD D6           .db 214
11137  34DE 12           .db 18
11138  34DF 0E           .db 14
11139  34E0 C9           .db 201
11140  34E1 FF           .db 255
11141  34E2 0A           .db 10
11142  34E3 FD           .db 253
11143  34E4 63           .db 99
11144  34E5 C7           .db 199
11145  34E6 03           .db 3
11146  34E7 F9           .db 249
11147  34E8 FE           .db 254
11148  34E9 83           .db 131
11149  34EA 10           .db 16
11150  34EB 00           .db 0
11151  34EC D9           .db 217
11152  34ED DB           .db 219
11153  34EE 7F           .db 127
11154  34EF 7F           .db 127
11155  34F0 14           .db 20
11156  34F1 96           .db 150
11157  34F2 7F           .db 127
11158  34F3 E7           .db 231
11159  34F4 0A           .db 10
11160  34F5 27           .db 39
11161  34F6 00           .db 0
11162  34F7 98           .db 152
11163  34F8 FF           .db 255
11164  34F9 5C           .db 92
11165  34FA 00           .db 0
11166  34FB B0           .db 176
11167  34FC 0F           .db 15
11168  34FD 63           .db 99
11169  34FE 33           .db 51
11170  34FF 00           .db 0
11171  3500 BA           .db 186
11172  3501 FA           .db 250
11173  3502 C1           .db 193
11174  3503 44           .db 68
11175  3504 00           .db 0
11176  3505 8D           .db 141
11177  3506 0D           .db 13
11178  3507 8C           .db 140
11179  3508 00           .db 0
11180  3509 6B           .db 107
11181  350A B6           .db 182
11182  350B FD           .db 253
11183  350C 0A           .db 10
11184  350D 61           .db 97
11185  350E F8           .db 248
11186  350F 82           .db 130
11187  3510 D9           .db 217
11188  3511 01           .db 1
11189  3512 BA           .db 186
11190  3513 29           .db 41
11191  3514 7F           .db 127
11192  3515 3B           .db 59
11193  3516 08           .db 8
11194  3517 78           .db 120
11195  3518 17           .db 23
11196  3519 C5           .db 197
11197  351A F8           .db 248
11198  351B E9           .db 233
11199  351C C7           .db 199
11200  351D D6           .db 214
11201  351E 00           .db 0
11202  351F 0E           .db 14
11203  3520 3E           .db 62
11204  3521 FF           .db 255
11205  3522 68           .db 104
11206  3523 13           .db 19
11207  3524 62           .db 98
11208  3525 26           .db 38
11209  3526 D7           .db 215
11210  3527 0E           .db 14
11211  3528 1B           .db 27
11212  3529 00           .db 0
11213  352A 63           .db 99
11214  352B E0           .db 224
11215  352C 00           .db 0
11216  352D 2C           .db 44
11217  352E 7F           .db 127
11218  352F A5           .db 165
11219  3530 FF           .db 255
11220  3531 07           .db 7
11221  3532 81           .db 129
11222  3533 AB           .db 171
11223  3534 A6           .db 166
11224  3535 00           .db 0
11225  3536 7E           .db 126
11226  3537 EC           .db 236
11227  3538 E9           .db 233
11228  3539 7F           .db 127
11229  353A 77           .db 119
11230  353B EC           .db 236
11231  353C D7           .db 215
11232  353D 44           .db 68
11233  353E E8           .db 232
11234  353F C0           .db 192
11235  3540 9E           .db 158
11236  3541 30           .db 48
11237  3542 EC           .db 236
11238  3543 BF           .db 191
11239  3544 2C           .db 44
11240  3545 00           .db 0
11241  3546 0F           .db 15
11242  3547 D3           .db 211
11243  3548 00           .db 0
11244  3549 3F           .db 63
11245  354A CC           .db 204
11246  354B E6           .db 230
11247  354C 0D           .db 13
11248  354D A3           .db 163
11249  354E 00           .db 0
11250  354F 3F           .db 63
11251  3550 8C           .db 140
11252  3551 17           .db 23
11253  3552 D5           .db 213
11254  3553 00           .db 0
11255  3554 7F           .db 127
11256  3555 81           .db 129
11257  3556 80           .db 128
11258  3557 00           .db 0
11259  3558 61           .db 97
11260  3559 A6           .db 166
11261  355A 1F           .db 31
11262  355B 00           .db 0
11263  355C B6           .db 182
11264  355D FD           .db 253
11265  355E 9C           .db 156
11266  355F ED           .db 237
11267  3560 60           .db 96
11268  3561 5E           .db 94
11269  3562 98           .db 152
11270  3563 00           .db 0
11271  3564 65           .db 101
11272  3565 86           .db 134
11273  3566 00           .db 0
11274  3567 E1           .db 225
11275  3568 00           .db 0
11276  3569 58           .db 88
11277  356A 18           .db 24
11278  356B 06           .db 6
11279  356C 00           .db 0
11280  356D 1A           .db 26
11281  356E 61           .db 97
11282  356F 00           .db 0
11283  3570 FE           .db 254
11284  3571 CF           .db 207
11285  3572 60           .db 96
11286  3573 61           .db 97
11287  3574 98           .db 152
11288  3575 00           .db 0
11289  3576 5F           .db 95
11290  3577 86           .db 134
11291  3578 00           .db 0
11292  3579 76           .db 118
11293  357A 18           .db 24
11294  357B FD           .db 253
11295  357C 1B           .db 27
11296  357D DC           .db 220
11297  357E 00           .db 0
11298  357F 61           .db 97
11299  3580 16           .db 22
11300  3581 2C           .db 44
11301  3582 D7           .db 215
11302  3583 F7           .db 247
11303  3584 0C           .db 12
11304  3585 B3           .db 179
11305  3586 00           .db 0
11306  3587 1F           .db 31
11307  3588 C1           .db 193
11308  3589 00           .db 0
11309  358A CE           .db 206
11310  358B 67           .db 103
11311  358C 5D           .db 93
11312  358D BF           .db 191
11313  358E 81           .db 129
11314  358F D5           .db 213
11315  3590 96           .db 150
11316  3591 00           .db 0
11317  3592 07           .db 7
11318  3593 E9           .db 233
11319  3594 00           .db 0
11320  3595 89           .db 137
11321  3596 66           .db 102
11322  3597 D4           .db 212
11323  3598 7F           .db 127
11324  3599 C0           .db 192
11325  359A ED           .db 237
11326  359B C3           .db 195
11327  359C 00           .db 0
11328  359D 3F           .db 63
11329  359E EC           .db 236
11330  359F F0           .db 240
11331  35A0 0E           .db 14
11332  35A1 6C           .db 108
11333  35A2 31           .db 49
11334  35A3 00           .db 0
11335  35A4 6F           .db 111
11336  35A5 30           .db 48
11337  35A6 00           .db 0
11338  35A7 37           .db 55
11339  35A8 70           .db 112
11340  35A9 00           .db 0
11341  35AA C7           .db 199
11342  35AB CC           .db 204
11343  35AC 00           .db 0
11344  35AD 0E           .db 14
11345  35AE DC           .db 220
11346  35AF 33           .db 51
11347  35B0 00           .db 0
11348  35B1 FA           .db 250
11349  35B2 00           .db 0
11350  35B3 C0           .db 192
11351  35B4 D4           .db 212
11352  35B5 C3           .db 195
11353  35B6 00           .db 0
11354  35B7 03           .db 3
11355  35B8 F7           .db 247
11356  35B9 2C           .db 44
11357  35BA 00           .db 0
11358  35BB 0E           .db 14
11359  35BC BE           .db 190
11360  35BD B0           .db 176
11361  35BE 00           .db 0
11362  35BF 3F           .db 63
11363  35C0 70           .db 112
11364  35C1 00           .db 0
11365  35C2 C0           .db 192
11366  35C3 FD           .db 253
11367  35C4 CB           .db 203
11368  35C5 00           .db 0
11369  35C6 0C           .db 12
11370  35C7 8C           .db 140
11371  35C8 FF           .db 255
11372  35C9 AC           .db 172
11373  35CA B0           .db 176
11374  35CB D9           .db 217
11375  35CC 3B           .db 59
11376  35CD F0           .db 240
11377  35CE 00           .db 0
11378  35CF DC           .db 220
11379  35D0 00           .db 0
11380  35D1 D3           .db 211
11381  35D2 6C           .db 108
11382  35D3 C9           .db 201
11383  35D4 0E           .db 14
11384  35D5 AC           .db 172
11385  35D6 37           .db 55
11386  35D7 00           .db 0
11387  35D8 17           .db 23
11388  35D9 00           .db 0
11389  35DA 05           .db 5
11390  35DB 1E           .db 30
11391  35DC FD           .db 253
11392  35DD F4           .db 244
11393  35DE 60           .db 96
11394  35DF 74           .db 116
11395  35E0 61           .db 97
11396  35E1 00           .db 0
11397  35E2 9F           .db 159
11398  35E3 E7           .db 231
11399  35E4 00           .db 0
11400  35E5 98           .db 152
11401  35E6 F4           .db 244
11402  35E7 1D           .db 29
11403  35E8 58           .db 88
11404  35E9 00           .db 0
11405  35EA 6F           .db 111
11406  35EB F6           .db 246
11407  35EC DF           .db 223
11408  35ED 49           .db 73
11409  35EE 00           .db 0
11410  35EF 81           .db 129
11411  35F0 E7           .db 231
11412  35F1 8A           .db 138
11413  35F2 00           .db 0
11414  35F3 7F           .db 127
11415  35F4 35           .db 53
11416  35F5 FF           .db 255
11417  35F6 30           .db 48
11418  35F7 CA           .db 202
11419  35F8 38           .db 56
11420  35F9 70           .db 112
11421  35FA 00           .db 0
11422  35FB C6           .db 198
11423  35FC CC           .db 204
11424  35FD D7           .db 215
11425  35FE 0E           .db 14
11426  35FF 6C           .db 108
11427  3600 30           .db 48
11428  3601 00           .db 0
11429  3602 35           .db 53
11430  3603 CC           .db 204
11431  3604 00           .db 0
11432  3605 3F           .db 63
11433  3606 23           .db 35
11434  3607 FF           .db 255
11435  3608 00           .db 0
11436  3609 02           .db 2
11437  360A D8           .db 216
11438  360B FF           .db 255
11439  360C C3           .db 195
11440  360D F5           .db 245
11441  360E 00           .db 0
11442  360F F7           .db 247
11443  3610 81           .db 129
11444  3611 AC           .db 172
11445  3612 00           .db 0
11446  3613 67           .db 103
11447  3614 E1           .db 225
11448  3615 00           .db 0
11449  3616 8A           .db 138
11450  3617 F1           .db 241
11451  3618 E9           .db 233
11452  3619 81           .db 129
11453  361A 2E           .db 46
11454  361B 00           .db 0
11455  361C BC           .db 188
11456  361D 0F           .db 15
11457  361E FF           .db 255
11458  361F C6           .db 198
11459  3620 8C           .db 140
11460  3621 DE           .db 222
11461  3622 2A           .db 42
11462  3623 C3           .db 195
11463  3624 00           .db 0
11464  3625 02           .db 2
11465  3626 C8           .db 200
11466  3627 00           .db 0
11467  3628 C7           .db 199
11468  3629 BE           .db 190
11469  362A FE           .db 254
11470  362B C6           .db 198
11471  362C B0           .db 176
11472  362D 00           .db 0
11473  362E C0           .db 192
11474  362F EB           .db 235
11475  3630 33           .db 51
11476  3631 00           .db 0
11477  3632 F0           .db 240
11478  3633 00           .db 0
11479  3634 C0           .db 192
11480  3635 E4           .db 228
11481  3636 31           .db 49
11482  3637 00           .db 0
11483  3638 AC           .db 172
11484  3639 30           .db 48
11485  363A 00           .db 0
11486  363B 31           .db 49
11487  363C CC           .db 204
11488  363D 00           .db 0
11489  363E 36           .db 54
11490  363F E3           .db 227
11491  3640 00           .db 0
11492  3641 3C           .db 60
11493  3642 17           .db 23
11494  3643 C5           .db 197
11495  3644 76           .db 118
11496  3645 E9           .db 233
11497  3646 C0           .db 192
11498  3647 CF           .db 207
11499  3648 DB           .db 219
11500  3649 00           .db 0
11501  364A 1F           .db 31
11502  364B C5           .db 197
11503  364C 00           .db 0
11504  364D 7F           .db 127
11505  364E 94           .db 148
11506  364F FF           .db 255
11507  3650 B0           .db 176
11508  3651 07           .db 7
11509  3652 2F           .db 47
11510  3653 56           .db 86
11511  3654 FF           .db 255
11512  3655 0F           .db 15
11513  3656 08           .db 8
11514  3657 8B           .db 139
11515  3658 B9           .db 185
11516  3659 7F           .db 127
11517  365A 02           .db 2
11518  365B D8           .db 216
11519  365C FF           .db 255
11520  365D C2           .db 194
11521  365E C3           .db 195
11522  365F 19           .db 25
11523  3660 00           .db 0
11524  3661 80           .db 128
11525  3662             
11526  3662             imgBalls:
11527  3662 07           .db 7
11528  3663 1F           .db 31
11529  3664 3F           .db 63
11530  3665 7F           .db 127
11531  3666 7F           .db 127
11532  3667 FF           .db 255
11533  3668 FF           .db 255
11534  3669 FF           .db 255
11535  366A FF           .db 255
11536  366B 7F           .db 127
11537  366C 4A           .db 74
11538  366D 20           .db 32
11539  366E 18           .db 24
11540  366F 07           .db 7
11541  3670 E0           .db 224
11542  3671 F8           .db 248
11543  3672 FC           .db 252
11544  3673 FA           .db 250
11545  3674 FE           .db 254
11546  3675 F9           .db 249
11547  3676 ED           .db 237
11548  3677 F1           .db 241
11549  3678 C1           .db 193
11550  3679 A2           .db 162
11551  367A 02           .db 2
11552  367B 04           .db 4
11553  367C 18           .db 24
11554  367D E0           .db 224
11555  367E 00           .db 0
11556  367F 03           .db 3
11557  3680 0F           .db 15
11558  3681 1F           .db 31
11559  3682 3F           .db 63
11560  3683 3F           .db 63
11561  3684 7F           .db 127
11562  3685 7F           .db 127
11563  3686 3F           .db 63
11564  3687 25           .db 37
11565  3688 10           .db 16
11566  3689 0C           .db 12
11567  368A 03           .db 3
11568  368B 00           .db 0
11569  368C 00           .db 0
11570  368D C0           .db 192
11571  368E F0           .db 240
11572  368F F8           .db 248
11573  3690 F4           .db 244
11574  3691 FC           .db 252
11575  3692 F2           .db 242
11576  3693 82           .db 130
11577  3694 44           .db 68
11578  3695 04           .db 4
11579  3696 08           .db 8
11580  3697 30           .db 48
11581  3698 C0           .db 192
11582  3699 00           .db 0
11583  369A 00           .db 0
11584  369B 00           .db 0
11585  369C 01           .db 1
11586  369D 07           .db 7
11587  369E 0F           .db 15
11588  369F 1F           .db 31
11589  36A0 3F           .db 63
11590  36A1 3F           .db 63
11591  36A2 13           .db 19
11592  36A3 08           .db 8
11593  36A4 06           .db 6
11594  36A5 01           .db 1
11595  36A6 00           .db 0
11596  36A7 00           .db 0
11597  36A8 00           .db 0
11598  36A9 00           .db 0
11599  36AA 80           .db 128
11600  36AB E0           .db 224
11601  36AC F0           .db 240
11602  36AD F8           .db 248
11603  36AE E4           .db 228
11604  36AF 84           .db 132
11605  36B0 08           .db 8
11606  36B1 10           .db 16
11607  36B2 60           .db 96
11608  36B3 80           .db 128
11609  36B4 00           .db 0
11610  36B5 00           .db 0
11611  36B6 00           .db 0
11612  36B7 00           .db 0
11613  36B8 00           .db 0
11614  36B9 00           .db 0
11615  36BA 00           .db 0
11616  36BB 03           .db 3
11617  36BC 07           .db 7
11618  36BD 07           .db 7
11619  36BE 07           .db 7
11620  36BF 03           .db 3
11621  36C0 00           .db 0
11622  36C1 00           .db 0
11623  36C2 00           .db 0
11624  36C3 00           .db 0
11625  36C4 00           .db 0
11626  36C5 00           .db 0
11627  36C6 00           .db 0
11628  36C7 00           .db 0
11629  36C8 00           .db 0
11630  36C9 C0           .db 192
11631  36CA E0           .db 224
11632  36CB A0           .db 160
11633  36CC 20           .db 32
11634  36CD C0           .db 192
11635  36CE 00           .db 0
11636  36CF 00           .db 0
11637  36D0 00           .db 0
11638  36D1 00           .db 0
11639  36D2 00           .db 0
11640  36D3 00           .db 0
11641  36D4 00           .db 0
11642  36D5 00           .db 0
11643  36D6 00           .db 0
11644  36D7 00           .db 0
11645  36D8 01           .db 1
11646  36D9 01           .db 1
11647  36DA 00           .db 0
11648  36DB 00           .db 0
11649  36DC 00           .db 0
11650  36DD 00           .db 0
11651  36DE 00           .db 0
11652  36DF 00           .db 0
11653  36E0 00           .db 0
11654  36E1 00           .db 0
11655  36E2 00           .db 0
11656  36E3 00           .db 0
11657  36E4 00           .db 0
11658  36E5 00           .db 0
11659  36E6 80           .db 128
11660  36E7 80           .db 128
11661  36E8 00           .db 0
11662  36E9 00           .db 0
11663  36EA 00           .db 0
11664  36EB 00           .db 0
11665  36EC 00           .db 0
11666  36ED 00           .db 0
11667  36EE 07           .db 7
11668  36EF 1F           .db 31
11669  36F0 3F           .db 63
11670  36F1 7F           .db 127
11671  36F2 7F           .db 127
11672  36F3 FF           .db 255
11673  36F4 FF           .db 255
11674  36F5 FF           .db 255
11675  36F6 FF           .db 255
11676  36F7 7F           .db 127
11677  36F8 4A           .db 74
11678  36F9 20           .db 32
11679  36FA 18           .db 24
11680  36FB 07           .db 7
11681  36FC E0           .db 224
11682  36FD F8           .db 248
11683  36FE FC           .db 252
11684  36FF FA           .db 250
11685  3700 FE           .db 254
11686  3701 F9           .db 249
11687  3702 ED           .db 237
11688  3703 F1           .db 241
11689  3704 C1           .db 193
11690  3705 A2           .db 162
11691  3706 02           .db 2
11692  3707 04           .db 4
11693  3708 18           .db 24
11694  3709 E0           .db 224
11695  370A 04           .db 4
11696  370B 1E           .db 30
11697  370C 3E           .db 62
11698  370D 7A           .db 122
11699  370E 72           .db 114
11700  370F BC           .db 188
11701  3710 80           .db 128
11702  3711 80           .db 128
11703  3712 BC           .db 188
11704  3713 7E           .db 126
11705  3714 4A           .db 74
11706  3715 22           .db 34
11707  3716 1A           .db 26
11708  3717 04           .db 4
11709  3718 20           .db 32
11710  3719 78           .db 120
11711  371A 7C           .db 124
11712  371B 7A           .db 122
11713  371C 62           .db 98
11714  371D 3C           .db 60
11715  371E 00           .db 0
11716  371F 00           .db 0
11717  3720 3C           .db 60
11718  3721 72           .db 114
11719  3722 72           .db 114
11720  3723 44           .db 68
11721  3724 58           .db 88
11722  3725 20           .db 32
11723  3726 00           .db 0
11724  3727 18           .db 24
11725  3728 3C           .db 60
11726  3729 74           .db 116
11727  372A 38           .db 56
11728  372B 00           .db 0
11729  372C 00           .db 0
11730  372D 00           .db 0
11731  372E 00           .db 0
11732  372F 38           .db 56
11733  3730 6C           .db 108
11734  3731 24           .db 36
11735  3732 18           .db 24
11736  3733 00           .db 0
11737  3734 00           .db 0
11738  3735 18           .db 24
11739  3736 3C           .db 60
11740  3737 3A           .db 58
11741  3738 1C           .db 28
11742  3739 00           .db 0
11743  373A 00           .db 0
11744  373B 00           .db 0
11745  373C 00           .db 0
11746  373D 1C           .db 28
11747  373E 32           .db 50
11748  373F 24           .db 36
11749  3740 18           .db 24
11750  3741 00           .db 0
11751  3742 00           .db 0
11752  3743 20           .db 32
11753  3744 70           .db 112
11754  3745 20           .db 32
11755  3746 00           .db 0
11756  3747 00           .db 0
11757  3748 00           .db 0
11758  3749 00           .db 0
11759  374A 00           .db 0
11760  374B 00           .db 0
11761  374C 20           .db 32
11762  374D 70           .db 112
11763  374E 20           .db 32
11764  374F 00           .db 0
11765  3750 00           .db 0
11766  3751 04           .db 4
11767  3752 0E           .db 14
11768  3753 04           .db 4
11769  3754 00           .db 0
11770  3755 00           .db 0
11771  3756 00           .db 0
11772  3757 00           .db 0
11773  3758 00           .db 0
11774  3759 00           .db 0
11775  375A 04           .db 4
11776  375B 0E           .db 14
11777  375C 04           .db 4
11778  375D 00           .db 0
11779  375E 00           .db 0
11780  375F 00           .db 0
11781  3760 00           .db 0
11782  3761 00           .db 0
11783  3762 01           .db 1
11784  3763 03           .db 3
11785  3764 07           .db 7
11786  3765 07           .db 7
11787  3766 02           .db 2
11788  3767 01           .db 1
11789  3768 00           .db 0
11790  3769 00           .db 0
11791  376A 00           .db 0
11792  376B 00           .db 0
11793  376C 00           .db 0
11794  376D 00           .db 0
11795  376E 00           .db 0
11796  376F 00           .db 0
11797  3770 80           .db 128
11798  3771 C0           .db 192
11799  3772 A0           .db 160
11800  3773 A0           .db 160
11801  3774 40           .db 64
11802  3775 80           .db 128
11803  3776 00           .db 0
11804  3777 00           .db 0
11805  3778 00           .db 0
11806  3779 00           .db 0
11807  377A 00           .db 0
11808  377B 00           .db 0
11809  377C 07           .db 7
11810  377D 1F           .db 31
11811  377E 3F           .db 63
11812  377F 7F           .db 127
11813  3780 FF           .db 255
11814  3781 FF           .db 255
11815  3782 FF           .db 255
11816  3783 FF           .db 255
11817  3784 7F           .db 127
11818  3785 20           .db 32
11819  3786 18           .db 24
11820  3787 07           .db 7
11821  3788 00           .db 0
11822  3789 00           .db 0
11823  378A E0           .db 224
11824  378B F8           .db 248
11825  378C FC           .db 252
11826  378D FE           .db 254
11827  378E F9           .db 249
11828  378F ED           .db 237
11829  3790 F1           .db 241
11830  3791 C1           .db 193
11831  3792 A2           .db 162
11832  3793 04           .db 4
11833  3794 18           .db 24
11834  3795 E0           .db 224
11835  3796 00           .db 0
11836  3797 00           .db 0
11837  3798 00           .db 0
11838  3799 00           .db 0
11839  379A 07           .db 7
11840  379B 3F           .db 63
11841  379C 7F           .db 127
11842  379D 7F           .db 127
11843  379E FF           .db 255
11844  379F FF           .db 255
11845  37A0 7F           .db 127
11846  37A1 4A           .db 74
11847  37A2 38           .db 56
11848  37A3 07           .db 7
11849  37A4 00           .db 0
11850  37A5 00           .db 0
11851  37A6 00           .db 0
11852  37A7 00           .db 0
11853  37A8 E0           .db 224
11854  37A9 FC           .db 252
11855  37AA FA           .db 250
11856  37AB FE           .db 254
11857  37AC ED           .db 237
11858  37AD F1           .db 241
11859  37AE A2           .db 162
11860  37AF 02           .db 2
11861  37B0 1C           .db 28
11862  37B1 E0           .db 224
11863  37B2 00           .db 0
11864  37B3 00           .db 0
11865  37B4 00           .db 0
11866  37B5 00           .db 0
11867  37B6 0A           .db 10
11868  37B7 20           .db 32
11869  37B8 0E           .db 14
11870  37B9 1E           .db 30
11871  37BA 0E           .db 14
11872  37BB 06           .db 6
11873  37BC 06           .db 6
11874  37BD 00           .db 0
11875  37BE 06           .db 6
11876  37BF 00           .db 0
11877  37C0 00           .db 0
11878  37C1 00           .db 0
11879  37C2 50           .db 80
11880  37C3 04           .db 4
11881  37C4 70           .db 112
11882  37C5 78           .db 120
11883  37C6 70           .db 112
11884  37C7 60           .db 96
11885  37C8 60           .db 96
11886  37C9 00           .db 0
11887  37CA 60           .db 96
11888  37CB 00           .db 0
11889  37CC 00           .db 0
11890  37CD 00           .db 0
11891  37CE 00           .db 0
11892  37CF 06           .db 6
11893  37D0 00           .db 0
11894  37D1 06           .db 6
11895  37D2 06           .db 6
11896  37D3 0E           .db 14
11897  37D4 1E           .db 30
11898  37D5 0E           .db 14
11899  37D6 20           .db 32
11900  37D7 0A           .db 10
11901  37D8 00           .db 0
11902  37D9 00           .db 0
11903  37DA 00           .db 0
11904  37DB 00           .db 0
11905  37DC 00           .db 0
11906  37DD 00           .db 0
11907  37DE 00           .db 0
11908  37DF 60           .db 96
11909  37E0 00           .db 0
11910  37E1 60           .db 96
11911  37E2 60           .db 96
11912  37E3 70           .db 112
11913  37E4 78           .db 120
11914  37E5 70           .db 112
11915  37E6 04           .db 4
11916  37E7 50           .db 80
11917  37E8 00           .db 0
11918  37E9 00           .db 0
11919  37EA 00           .db 0
11920  37EB 08           .db 8
11921  37EC 02           .db 2
11922  37ED 17           .db 23
11923  37EE 07           .db 7
11924  37EF 17           .db 23
11925  37F0 00           .db 0
11926  37F1 00           .db 0
11927  37F2 05           .db 5
11928  37F3 01           .db 1
11929  37F4 05           .db 5
11930  37F5 00           .db 0
11931  37F6 02           .db 2
11932  37F7 00           .db 0
11933  37F8 00           .db 0
11934  37F9 00           .db 0
11935  37FA 00           .db 0
11936  37FB 00           .db 0
11937  37FC D0           .db 208
11938  37FD D0           .db 208
11939  37FE 00           .db 0
11940  37FF 00           .db 0
11941  3800 F4           .db 244
11942  3801 F4           .db 244
11943  3802 C0           .db 192
11944  3803 80           .db 128
11945  3804 00           .db 0
11946  3805 00           .db 0
11947  3806 00           .db 0
11948  3807 00           .db 0
11949  3808 00           .db 0
11950  3809 00           .db 0
11951  380A 0B           .db 11
11952  380B 0B           .db 11
11953  380C 00           .db 0
11954  380D 00           .db 0
11955  380E 2F           .db 47
11956  380F 2F           .db 47
11957  3810 03           .db 3
11958  3811 01           .db 1
11959  3812 00           .db 0
11960  3813 00           .db 0
11961  3814 00           .db 0
11962  3815 10           .db 16
11963  3816 40           .db 64
11964  3817 E8           .db 232
11965  3818 E0           .db 224
11966  3819 E8           .db 232
11967  381A 00           .db 0
11968  381B 00           .db 0
11969  381C A0           .db 160
11970  381D 80           .db 128
11971  381E A0           .db 160
11972  381F 00           .db 0
11973  3820 40           .db 64
11974  3821 00           .db 0
11975  3822 00           .db 0
11976  3823 00           .db 0
11977  3824 00           .db 0
11978  3825 00           .db 0
11979  3826 00           .db 0
11980  3827 00           .db 0
11981  3828 00           .db 0
11982  3829 00           .db 0
11983  382A 00           .db 0
11984  382B 00           .db 0
11985  382C 00           .db 0
11986  382D 00           .db 0
11987  382E 00           .db 0
11988  382F 00           .db 0
11989  3830 00           .db 0
11990  3831 00           .db 0
11991  3832 00           .db 0
11992  3833 00           .db 0
11993  3834 00           .db 0
11994  3835 00           .db 0
11995  3836 00           .db 0
11996  3837 00           .db 0
11997  3838 00           .db 0
11998  3839 00           .db 0
11999  383A 00           .db 0
12000  383B 00           .db 0
12001  383C 00           .db 0
12002  383D 00           .db 0
12003  383E             
12004  383E             imgPlayerD:
12005  383E 0A           .db 10
12006  383F 00           .db 0
12007  3840 0A           .db 10
12008  3841 00           .db 0
12009  3842 0A           .db 10
12010  3843 00           .db 0
12011  3844 0A           .db 10
12012  3845 00           .db 0
12013  3846 0F           .db 15
12014  3847 AD           .db 173
12015  3848 0F           .db 15
12016  3849 DF           .db 223
12017  384A 0F           .db 15
12018  384B AB           .db 171
12019  384C 0F           .db 15
12020  384D DF           .db 223
12021  384E 0F           .db 15
12022  384F FF           .db 255
12023  3850 0F           .db 15
12024  3851 FF           .db 255
12025  3852 0F           .db 15
12026  3853 FF           .db 255
12027  3854 0F           .db 15
12028  3855 FF           .db 255
12029  3856 0F           .db 15
12030  3857 FD           .db 253
12031  3858 0F           .db 15
12032  3859 FF           .db 255
12033  385A 0F           .db 15
12034  385B FE           .db 254
12035  385C 0F           .db 15
12036  385D FF           .db 255
12037  385E 0F           .db 15
12038  385F A8           .db 168
12039  3860 0F           .db 15
12040  3861 D8           .db 216
12041  3862 0F           .db 15
12042  3863 A8           .db 168
12043  3864 0F           .db 15
12044  3865 D8           .db 216
12045  3866             
12046  3866             imgPlayer:
12047  3866 0E           .db 14
12048  3867 10           .db 16
12049  3868 0E           .db 14
12050  3869 38           .db 56
12051  386A 0E           .db 14
12052  386B 38           .db 56
12053  386C 0E           .db 14
12054  386D 38           .db 56
12055  386E 0E           .db 14
12056  386F 38           .db 56
12057  3870 0E           .db 14
12058  3871 38           .db 56
12059  3872 0E           .db 14
12060  3873 38           .db 56
12061  3874 0E           .db 14
12062  3875 38           .db 56
12063  3876 0E           .db 14
12064  3877 38           .db 56
12065  3878 0E           .db 14
12066  3879 38           .db 56
12067  387A 0E           .db 14
12068  387B 38           .db 56
12069  387C 0E           .db 14
12070  387D 38           .db 56
12071  387E 0E           .db 14
12072  387F 38           .db 56
12073  3880 0E           .db 14
12074  3881 38           .db 56
12075  3882 0E           .db 14
12076  3883 38           .db 56
12077  3884 0E           .db 14
12078  3885 38           .db 56
12079  3886 0E           .db 14
12080  3887 38           .db 56
12081  3888 0E           .db 14
12082  3889 82           .db 130
12083  388A 0E           .db 14
12084  388B FE           .db 254
12085  388C 0E           .db 14
12086  388D DA           .db 218
12087  388E 0E           .db 14
12088  388F 8A           .db 138
12089  3890 0D           .db 13
12090  3891 60           .db 96
12091  3892 0D           .db 13
12092  3893 60           .db 96
12093  3894 0D           .db 13
12094  3895 40           .db 64
12095  3896 0D           .db 13
12096  3897 7C           .db 124
12097  3898 0D           .db 13
12098  3899 7D           .db 125
12099  389A 0D           .db 13
12100  389B 7D           .db 125
12101  389C 0D           .db 13
12102  389D 7D           .db 125
12103  389E 0D           .db 13
12104  389F 01           .db 1
12105  38A0 0E           .db 14
12106  38A1 38           .db 56
12107  38A2 0E           .db 14
12108  38A3 7C           .db 124
12109  38A4 0E           .db 14
12110  38A5 38           .db 56
12111  38A6 0A           .db 10
12112  38A7 00           .db 0
12113  38A8 0A           .db 10
12114  38A9 00           .db 0
12115  38AA 0A           .db 10
12116  38AB 00           .db 0
12117  38AC 0A           .db 10
12118  38AD 00           .db 0
12119  38AE 0A           .db 10
12120  38AF 00           .db 0
12121  38B0 0A           .db 10
12122  38B1 00           .db 0
12123  38B2 0A           .db 10
12124  38B3 00           .db 0
12125  38B4 0A           .db 10
12126  38B5 00           .db 0
12127  38B6 0A           .db 10
12128  38B7 00           .db 0
12129  38B8 0A           .db 10
12130  38B9 00           .db 0
12131  38BA 0A           .db 10
12132  38BB 00           .db 0
12133  38BC 0A           .db 10
12134  38BD 00           .db 0
12135  38BE 0A           .db 10
12136  38BF 00           .db 0
12137  38C0 0A           .db 10
12138  38C1 00           .db 0
12139  38C2 0A           .db 10
12140  38C3 00           .db 0
12141  38C4 0A           .db 10
12142  38C5 00           .db 0
12143  38C6 0A           .db 10
12144  38C7 00           .db 0
12145  38C8 0A           .db 10
12146  38C9 00           .db 0
12147  38CA 0A           .db 10
12148  38CB 00           .db 0
12149  38CC 0A           .db 10
12150  38CD 00           .db 0
12151  38CE 0A           .db 10
12152  38CF 00           .db 0
12153  38D0 0A           .db 10
12154  38D1 00           .db 0
12155  38D2 0A           .db 10
12156  38D3 00           .db 0
12157  38D4 0A           .db 10
12158  38D5 00           .db 0
12159  38D6 0A           .db 10
12160  38D7 00           .db 0
12161  38D8 0A           .db 10
12162  38D9 00           .db 0
12163  38DA 0A           .db 10
12164  38DB 00           .db 0
12165  38DC 0A           .db 10
12166  38DD 00           .db 0
12167  38DE 0A           .db 10
12168  38DF 00           .db 0
12169  38E0 0A           .db 10
12170  38E1 00           .db 0
12171  38E2 0A           .db 10
12172  38E3 00           .db 0
12173  38E4 0A           .db 10
12174  38E5 00           .db 0
12175  38E6 0D           .db 13
12176  38E7 01           .db 1
12177  38E8 0D           .db 13
12178  38E9 03           .db 3
12179  38EA 0D           .db 13
12180  38EB 07           .db 7
12181  38EC 0D           .db 13
12182  38ED 0F           .db 15
12183  38EE 0D           .db 13
12184  38EF 0F           .db 15
12185  38F0 0D           .db 13
12186  38F1 1F           .db 31
12187  38F2 0D           .db 13
12188  38F3 1F           .db 31
12189  38F4 0D           .db 13
12190  38F5 3F           .db 63
12191  38F6 0D           .db 13
12192  38F7 5F           .db 95
12193  38F8 0D           .db 13
12194  38F9 4F           .db 79
12195  38FA 0D           .db 13
12196  38FB E6           .db 230
12197  38FC 0D           .db 13
12198  38FD F0           .db 240
12199  38FE 0D           .db 13
12200  38FF F9           .db 249
12201  3900 0D           .db 13
12202  3901 FB           .db 251
12203  3902 0D           .db 13
12204  3903 B7           .db 183
12205  3904 0D           .db 13
12206  3905 17           .db 23
12207  3906 0D           .db 13
12208  3907 1B           .db 27
12209  3908 0D           .db 13
12210  3909 0B           .db 11
12211  390A 0D           .db 13
12212  390B 01           .db 1
12213  390C 0D           .db 13
12214  390D 10           .db 16
12215  390E 0D           .db 13
12216  390F 08           .db 8
12217  3910 0D           .db 13
12218  3911 14           .db 20
12219  3912 0D           .db 13
12220  3913 0A           .db 10
12221  3914 0D           .db 13
12222  3915 15           .db 21
12223  3916 0D           .db 13
12224  3917 0A           .db 10
12225  3918 0D           .db 13
12226  3919 15           .db 21
12227  391A 0A           .db 10
12228  391B 00           .db 0
12229  391C 0D           .db 13
12230  391D 1C           .db 28
12231  391E 0D           .db 13
12232  391F 32           .db 50
12233  3920 0D           .db 13
12234  3921 3B           .db 59
12235  3922 0D           .db 13
12236  3923 3F           .db 63
12237  3924 0D           .db 13
12238  3925 3F           .db 63
12239  3926 0D           .db 13
12240  3927 1F           .db 31
12241  3928 0F           .db 15
12242  3929 E0           .db 224
12243  392A 0F           .db 15
12244  392B FC           .db 252
12245  392C 0F           .db 15
12246  392D DF           .db 223
12247  392E 0A           .db 10
12248  392F 00           .db 0
12249  3930 0D           .db 13
12250  3931 01           .db 1
12251  3932 0A           .db 10
12252  3933 00           .db 0
12253  3934 0A           .db 10
12254  3935 00           .db 0
12255  3936 0A           .db 10
12256  3937 00           .db 0
12257  3938 0A           .db 10
12258  3939 00           .db 0
12259  393A 0D           .db 13
12260  393B 03           .db 3
12261  393C 0D           .db 13
12262  393D 04           .db 4
12263  393E 0D           .db 13
12264  393F 07           .db 7
12265  3940 0D           .db 13
12266  3941 09           .db 9
12267  3942 0D           .db 13
12268  3943 08           .db 8
12269  3944 0D           .db 13
12270  3945 07           .db 7
12271  3946 0D           .db 13
12272  3947 1F           .db 31
12273  3948 0D           .db 13
12274  3949 62           .db 98
12275  394A 0D           .db 13
12276  394B DD           .db 221
12277  394C 0D           .db 13
12278  394D D2           .db 210
12279  394E 0D           .db 13
12280  394F D2           .db 210
12281  3950 0D           .db 13
12282  3951 E2           .db 226
12283  3952 0D           .db 13
12284  3953 F7           .db 247
12285  3954 0D           .db 13
12286  3955 EF           .db 239
12287  3956 0D           .db 13
12288  3957 DF           .db 223
12289  3958 0D           .db 13
12290  3959 DF           .db 223
12291  395A 0D           .db 13
12292  395B DF           .db 223
12293  395C 0D           .db 13
12294  395D E0           .db 224
12295  395E 0D           .db 13
12296  395F BF           .db 191
12297  3960 0D           .db 13
12298  3961 40           .db 64
12299  3962 0D           .db 13
12300  3963 3F           .db 63
12301  3964 0D           .db 13
12302  3965 9E           .db 158
12303  3966 0D           .db 13
12304  3967 C0           .db 192
12305  3968 0D           .db 13
12306  3969 DF           .db 223
12307  396A 0D           .db 13
12308  396B 9F           .db 159
12309  396C 0D           .db 13
12310  396D 80           .db 128
12311  396E 0D           .db 13
12312  396F 3F           .db 63
12313  3970 0D           .db 13
12314  3971 7F           .db 127
12315  3972 0D           .db 13
12316  3973 FF           .db 255
12317  3974 0D           .db 13
12318  3975 FF           .db 255
12319  3976 0D           .db 13
12320  3977 7F           .db 127
12321  3978 0D           .db 13
12322  3979 1F           .db 31
12323  397A 0D           .db 13
12324  397B 98           .db 152
12325  397C 0D           .db 13
12326  397D 59           .db 89
12327  397E 0D           .db 13
12328  397F 9A           .db 154
12329  3980 0D           .db 13
12330  3981 39           .db 57
12331  3982 0D           .db 13
12332  3983 78           .db 120
12333  3984 0D           .db 13
12334  3985 FB           .db 251
12335  3986 0D           .db 13
12336  3987 FC           .db 252
12337  3988 0D           .db 13
12338  3989 FC           .db 252
12339  398A 0D           .db 13
12340  398B F8           .db 248
12341  398C 0A           .db 10
12342  398D 00           .db 0
12343  398E 0A           .db 10
12344  398F 00           .db 0
12345  3990 0F           .db 15
12346  3991 E0           .db 224
12347  3992 0D           .db 13
12348  3993 80           .db 128
12349  3994 0D           .db 13
12350  3995 C0           .db 192
12351  3996 0D           .db 13
12352  3997 80           .db 128
12353  3998 0D           .db 13
12354  3999 C0           .db 192
12355  399A 0D           .db 13
12356  399B 40           .db 64
12357  399C 0D           .db 13
12358  399D C0           .db 192
12359  399E 0D           .db 13
12360  399F 80           .db 128
12361  39A0 0A           .db 10
12362  39A1 00           .db 0
12363  39A2 0D           .db 13
12364  39A3 80           .db 128
12365  39A4 0D           .db 13
12366  39A5 80           .db 128
12367  39A6 0A           .db 10
12368  39A7 00           .db 0
12369  39A8 0A           .db 10
12370  39A9 00           .db 0
12371  39AA 0D           .db 13
12372  39AB C0           .db 192
12373  39AC 0D           .db 13
12374  39AD 30           .db 48
12375  39AE 0D           .db 13
12376  39AF DC           .db 220
12377  39B0 0D           .db 13
12378  39B1 5E           .db 94
12379  39B2 0D           .db 13
12380  39B3 5F           .db 95
12381  39B4 0D           .db 13
12382  39B5 3F           .db 63
12383  39B6 0D           .db 13
12384  39B7 7F           .db 127
12385  39B8 0D           .db 13
12386  39B9 BF           .db 191
12387  39BA 0D           .db 13
12388  39BB DF           .db 223
12389  39BC 0D           .db 13
12390  39BD DF           .db 223
12391  39BE 0D           .db 13
12392  39BF DF           .db 223
12393  39C0 0D           .db 13
12394  39C1 3F           .db 63
12395  39C2 0D           .db 13
12396  39C3 EE           .db 238
12397  39C4 0D           .db 13
12398  39C5 1C           .db 28
12399  39C6 0D           .db 13
12400  39C7 F1           .db 241
12401  39C8 0D           .db 13
12402  39C9 07           .db 7
12403  39CA 0D           .db 13
12404  39CB FF           .db 255
12405  39CC 0D           .db 13
12406  39CD FF           .db 255
12407  39CE 0D           .db 13
12408  39CF FF           .db 255
12409  39D0 0D           .db 13
12410  39D1 FF           .db 255
12411  39D2 0D           .db 13
12412  39D3 0F           .db 15
12413  39D4 0D           .db 13
12414  39D5 F1           .db 241
12415  39D6 0D           .db 13
12416  39D7 FE           .db 254
12417  39D8 0D           .db 13
12418  39D9 FC           .db 252
12419  39DA 0D           .db 13
12420  39DB F9           .db 249
12421  39DC 0D           .db 13
12422  39DD C2           .db 194
12423  39DE 0D           .db 13
12424  39DF 55           .db 85
12425  39E0 0D           .db 13
12426  39E1 4A           .db 74
12427  39E2 0D           .db 13
12428  39E3 54           .db 84
12429  39E4 0D           .db 13
12430  39E5 49           .db 73
12431  39E6 0D           .db 13
12432  39E7 63           .db 99
12433  39E8 0D           .db 13
12434  39E9 7F           .db 127
12435  39EA 0D           .db 13
12436  39EB FF           .db 255
12437  39EC 0D           .db 13
12438  39ED FF           .db 255
12439  39EE 0D           .db 13
12440  39EF 7F           .db 127
12441  39F0 0A           .db 10
12442  39F1 00           .db 0
12443  39F2 0F           .db 15
12444  39F3 01           .db 1
12445  39F4 0F           .db 15
12446  39F5 3F           .db 63
12447  39F6 0A           .db 10
12448  39F7 00           .db 0
12449  39F8 0A           .db 10
12450  39F9 00           .db 0
12451  39FA 0A           .db 10
12452  39FB 00           .db 0
12453  39FC 0A           .db 10
12454  39FD 00           .db 0
12455  39FE 0A           .db 10
12456  39FF 00           .db 0
12457  3A00 0A           .db 10
12458  3A01 00           .db 0
12459  3A02 0A           .db 10
12460  3A03 00           .db 0
12461  3A04 0A           .db 10
12462  3A05 00           .db 0
12463  3A06 0A           .db 10
12464  3A07 00           .db 0
12465  3A08 0A           .db 10
12466  3A09 00           .db 0
12467  3A0A 0A           .db 10
12468  3A0B 00           .db 0
12469  3A0C 0A           .db 10
12470  3A0D 00           .db 0
12471  3A0E 0A           .db 10
12472  3A0F 00           .db 0
12473  3A10 0A           .db 10
12474  3A11 00           .db 0
12475  3A12 0A           .db 10
12476  3A13 00           .db 0
12477  3A14 0A           .db 10
12478  3A15 00           .db 0
12479  3A16 0A           .db 10
12480  3A17 00           .db 0
12481  3A18 0D           .db 13
12482  3A19 80           .db 128
12483  3A1A 0D           .db 13
12484  3A1B C0           .db 192
12485  3A1C 0D           .db 13
12486  3A1D E0           .db 224
12487  3A1E 0D           .db 13
12488  3A1F E0           .db 224
12489  3A20 0D           .db 13
12490  3A21 E0           .db 224
12491  3A22 0D           .db 13
12492  3A23 D0           .db 208
12493  3A24 0D           .db 13
12494  3A25 90           .db 144
12495  3A26 0D           .db 13
12496  3A27 38           .db 56
12497  3A28 0D           .db 13
12498  3A29 F8           .db 248
12499  3A2A 0D           .db 13
12500  3A2B FC           .db 252
12501  3A2C 0D           .db 13
12502  3A2D FC           .db 252
12503  3A2E 0D           .db 13
12504  3A2F FC           .db 252
12505  3A30 0D           .db 13
12506  3A31 FE           .db 254
12507  3A32 0D           .db 13
12508  3A33 FE           .db 254
12509  3A34 0D           .db 13
12510  3A35 FE           .db 254
12511  3A36 0D           .db 13
12512  3A37 FE           .db 254
12513  3A38 0D           .db 13
12514  3A39 FE           .db 254
12515  3A3A 0D           .db 13
12516  3A3B 7E           .db 126
12517  3A3C 0D           .db 13
12518  3A3D 3E           .db 62
12519  3A3E 0D           .db 13
12520  3A3F 0F           .db 15
12521  3A40 0D           .db 13
12522  3A41 A7           .db 167
12523  3A42 0D           .db 13
12524  3A43 53           .db 83
12525  3A44 0D           .db 13
12526  3A45 AB           .db 171
12527  3A46 0D           .db 13
12528  3A47 13           .db 19
12529  3A48 0D           .db 13
12530  3A49 CB           .db 203
12531  3A4A 0D           .db 13
12532  3A4B 23           .db 35
12533  3A4C 0D           .db 13
12534  3A4D A9           .db 169
12535  3A4E 0D           .db 13
12536  3A4F E4           .db 228
12537  3A50 0D           .db 13
12538  3A51 E0           .db 224
12539  3A52 0D           .db 13
12540  3A53 C0           .db 192
12541  3A54 0F           .db 15
12542  3A55 38           .db 56
12543  3A56 0F           .db 15
12544  3A57 F8           .db 248
12545  3A58 0F           .db 15
12546  3A59 D8           .db 216
12547  3A5A             
12548  3A5A             imgPlayerWin:
12549  3A5A 0C           .db 12
12550  3A5B 02           .db 2
12551  3A5C 0C           .db 12
12552  3A5D 07           .db 7
12553  3A5E 0C           .db 12
12554  3A5F 02           .db 2
12555  3A60 0C           .db 12
12556  3A61 02           .db 2
12557  3A62 0E           .db 14
12558  3A63 75           .db 117
12559  3A64 0E           .db 14
12560  3A65 FA           .db 250
12561  3A66 0E           .db 14
12562  3A67 FA           .db 250
12563  3A68 0E           .db 14
12564  3A69 DA           .db 218
12565  3A6A 0E           .db 14
12566  3A6B AA           .db 170
12567  3A6C 0E           .db 14
12568  3A6D AA           .db 170
12569  3A6E 0E           .db 14
12570  3A6F DA           .db 218
12571  3A70 0E           .db 14
12572  3A71 7A           .db 122
12573  3A72 0E           .db 14
12574  3A73 3A           .db 58
12575  3A74 0A           .db 10
12576  3A75 00           .db 0
12577  3A76 0E           .db 14
12578  3A77 3F           .db 63
12579  3A78 0E           .db 14
12580  3A79 1F           .db 31
12581  3A7A 0A           .db 10
12582  3A7B 00           .db 0
12583  3A7C 0A           .db 10
12584  3A7D 00           .db 0
12585  3A7E 0A           .db 10
12586  3A7F 00           .db 0
12587  3A80 0A           .db 10
12588  3A81 00           .db 0
12589  3A82 0E           .db 14
12590  3A83 70           .db 112
12591  3A84 0E           .db 14
12592  3A85 F8           .db 248
12593  3A86 0E           .db 14
12594  3A87 F8           .db 248
12595  3A88 0E           .db 14
12596  3A89 D8           .db 216
12597  3A8A 0E           .db 14
12598  3A8B A8           .db 168
12599  3A8C 0E           .db 14
12600  3A8D A8           .db 168
12601  3A8E 0E           .db 14
12602  3A8F D8           .db 216
12603  3A90 0E           .db 14
12604  3A91 F0           .db 240
12605  3A92 0E           .db 14
12606  3A93 E0           .db 224
12607  3A94 0A           .db 10
12608  3A95 00           .db 0
12609  3A96 0E           .db 14
12610  3A97 E0           .db 224
12611  3A98 0E           .db 14
12612  3A99 C0           .db 192
12613  3A9A             
12614  3A9A             imgKingLose:
12615  3A9A 0A           .db 10
12616  3A9B 00           .db 0
12617  3A9C 0A           .db 10
12618  3A9D 00           .db 0
12619  3A9E 0A           .db 10
12620  3A9F 00           .db 0
12621  3AA0 0A           .db 10
12622  3AA1 00           .db 0
12623  3AA2 0A           .db 10
12624  3AA3 00           .db 0
12625  3AA4 0A           .db 10
12626  3AA5 00           .db 0
12627  3AA6 0A           .db 10
12628  3AA7 00           .db 0
12629  3AA8 0A           .db 10
12630  3AA9 00           .db 0
12631  3AAA 0A           .db 10
12632  3AAB 00           .db 0
12633  3AAC 0A           .db 10
12634  3AAD 00           .db 0
12635  3AAE 0A           .db 10
12636  3AAF 00           .db 0
12637  3AB0 0A           .db 10
12638  3AB1 00           .db 0
12639  3AB2 0A           .db 10
12640  3AB3 00           .db 0
12641  3AB4 0A           .db 10
12642  3AB5 00           .db 0
12643  3AB6 0A           .db 10
12644  3AB7 00           .db 0
12645  3AB8 0A           .db 10
12646  3AB9 00           .db 0
12647  3ABA 0A           .db 10
12648  3ABB 00           .db 0
12649  3ABC 0A           .db 10
12650  3ABD 00           .db 0
12651  3ABE 0A           .db 10
12652  3ABF 00           .db 0
12653  3AC0 0A           .db 10
12654  3AC1 00           .db 0
12655  3AC2 0A           .db 10
12656  3AC3 00           .db 0
12657  3AC4 0A           .db 10
12658  3AC5 00           .db 0
12659  3AC6 0A           .db 10
12660  3AC7 00           .db 0
12661  3AC8 0A           .db 10
12662  3AC9 00           .db 0
12663  3ACA 0A           .db 10
12664  3ACB 00           .db 0
12665  3ACC 0A           .db 10
12666  3ACD 00           .db 0
12667  3ACE 0A           .db 10
12668  3ACF 00           .db 0
12669  3AD0 0A           .db 10
12670  3AD1 00           .db 0
12671  3AD2 0A           .db 10
12672  3AD3 00           .db 0
12673  3AD4 0A           .db 10
12674  3AD5 00           .db 0
12675  3AD6 0A           .db 10
12676  3AD7 00           .db 0
12677  3AD8 0A           .db 10
12678  3AD9 00           .db 0
12679  3ADA 0A           .db 10
12680  3ADB 00           .db 0
12681  3ADC 0A           .db 10
12682  3ADD 00           .db 0
12683  3ADE 0A           .db 10
12684  3ADF 00           .db 0
12685  3AE0 0A           .db 10
12686  3AE1 00           .db 0
12687  3AE2 0A           .db 10
12688  3AE3 00           .db 0
12689  3AE4 0A           .db 10
12690  3AE5 00           .db 0
12691  3AE6 0A           .db 10
12692  3AE7 00           .db 0
12693  3AE8 0A           .db 10
12694  3AE9 00           .db 0
12695  3AEA 0A           .db 10
12696  3AEB 00           .db 0
12697  3AEC 0A           .db 10
12698  3AED 00           .db 0
12699  3AEE 0A           .db 10
12700  3AEF 00           .db 0
12701  3AF0 0C           .db 12
12702  3AF1 01           .db 1
12703  3AF2 0C           .db 12
12704  3AF3 01           .db 1
12705  3AF4 0C           .db 12
12706  3AF5 01           .db 1
12707  3AF6 0C           .db 12
12708  3AF7 01           .db 1
12709  3AF8 0C           .db 12
12710  3AF9 03           .db 3
12711  3AFA 0C           .db 12
12712  3AFB 03           .db 3
12713  3AFC 0C           .db 12
12714  3AFD 03           .db 3
12715  3AFE 0C           .db 12
12716  3AFF 03           .db 3
12717  3B00 0C           .db 12
12718  3B01 03           .db 3
12719  3B02 0C           .db 12
12720  3B03 07           .db 7
12721  3B04 0C           .db 12
12722  3B05 07           .db 7
12723  3B06 0C           .db 12
12724  3B07 07           .db 7
12725  3B08 0C           .db 12
12726  3B09 07           .db 7
12727  3B0A 0C           .db 12
12728  3B0B 07           .db 7
12729  3B0C 0C           .db 12
12730  3B0D 07           .db 7
12731  3B0E 0C           .db 12
12732  3B0F 07           .db 7
12733  3B10 0C           .db 12
12734  3B11 06           .db 6
12735  3B12 0C           .db 12
12736  3B13 06           .db 6
12737  3B14 0C           .db 12
12738  3B15 04           .db 4
12739  3B16 0A           .db 10
12740  3B17 00           .db 0
12741  3B18 0A           .db 10
12742  3B19 00           .db 0
12743  3B1A 0A           .db 10
12744  3B1B 00           .db 0
12745  3B1C 0A           .db 10
12746  3B1D 00           .db 0
12747  3B1E 0A           .db 10
12748  3B1F 00           .db 0
12749  3B20 0A           .db 10
12750  3B21 00           .db 0
12751  3B22 0A           .db 10
12752  3B23 00           .db 0
12753  3B24 0A           .db 10
12754  3B25 00           .db 0
12755  3B26 0A           .db 10
12756  3B27 00           .db 0
12757  3B28 0A           .db 10
12758  3B29 00           .db 0
12759  3B2A 0A           .db 10
12760  3B2B 00           .db 0
12761  3B2C 0A           .db 10
12762  3B2D 00           .db 0
12763  3B2E 0A           .db 10
12764  3B2F 00           .db 0
12765  3B30 0A           .db 10
12766  3B31 00           .db 0
12767  3B32 0A           .db 10
12768  3B33 00           .db 0
12769  3B34 0A           .db 10
12770  3B35 00           .db 0
12771  3B36 0A           .db 10
12772  3B37 00           .db 0
12773  3B38 0A           .db 10
12774  3B39 00           .db 0
12775  3B3A 0A           .db 10
12776  3B3B 00           .db 0
12777  3B3C 0A           .db 10
12778  3B3D 00           .db 0
12779  3B3E 0A           .db 10
12780  3B3F 00           .db 0
12781  3B40 0A           .db 10
12782  3B41 00           .db 0
12783  3B42 0A           .db 10
12784  3B43 00           .db 0
12785  3B44 0A           .db 10
12786  3B45 00           .db 0
12787  3B46 0A           .db 10
12788  3B47 00           .db 0
12789  3B48 0A           .db 10
12790  3B49 00           .db 0
12791  3B4A 0A           .db 10
12792  3B4B 00           .db 0
12793  3B4C 0A           .db 10
12794  3B4D 00           .db 0
12795  3B4E 0A           .db 10
12796  3B4F 00           .db 0
12797  3B50 0A           .db 10
12798  3B51 00           .db 0
12799  3B52 0A           .db 10
12800  3B53 00           .db 0
12801  3B54 0C           .db 12
12802  3B55 01           .db 1
12803  3B56 0C           .db 12
12804  3B57 07           .db 7
12805  3B58 0C           .db 12
12806  3B59 0F           .db 15
12807  3B5A 0C           .db 12
12808  3B5B 1F           .db 31
12809  3B5C 0C           .db 12
12810  3B5D 3F           .db 63
12811  3B5E 0C           .db 12
12812  3B5F 3F           .db 63
12813  3B60 0C           .db 12
12814  3B61 7F           .db 127
12815  3B62 0C           .db 12
12816  3B63 7F           .db 127
12817  3B64 0C           .db 12
12818  3B65 7F           .db 127
12819  3B66 0C           .db 12
12820  3B67 BF           .db 191
12821  3B68 0C           .db 12
12822  3B69 CF           .db 207
12823  3B6A 0C           .db 12
12824  3B6B F3           .db 243
12825  3B6C 0C           .db 12
12826  3B6D FD           .db 253
12827  3B6E 0C           .db 12
12828  3B6F FE           .db 254
12829  3B70 0C           .db 12
12830  3B71 FF           .db 255
12831  3B72 0C           .db 12
12832  3B73 C3           .db 195
12833  3B74 0C           .db 12
12834  3B75 BD           .db 189
12835  3B76 0C           .db 12
12836  3B77 BD           .db 189
12837  3B78 0C           .db 12
12838  3B79 BE           .db 190
12839  3B7A 0C           .db 12
12840  3B7B BE           .db 190
12841  3B7C 0C           .db 12
12842  3B7D BF           .db 191
12843  3B7E 0C           .db 12
12844  3B7F DF           .db 223
12845  3B80 0C           .db 12
12846  3B81 EF           .db 239
12847  3B82 0C           .db 12
12848  3B83 F0           .db 240
12849  3B84 0C           .db 12
12850  3B85 E3           .db 227
12851  3B86 0C           .db 12
12852  3B87 C3           .db 195
12853  3B88 0C           .db 12
12854  3B89 81           .db 129
12855  3B8A 0A           .db 10
12856  3B8B 00           .db 0
12857  3B8C 0F           .db 15
12858  3B8D 60           .db 96
12859  3B8E 0F           .db 15
12860  3B8F FC           .db 252
12861  3B90 0F           .db 15
12862  3B91 DF           .db 223
12863  3B92 0A           .db 10
12864  3B93 00           .db 0
12865  3B94 0A           .db 10
12866  3B95 00           .db 0
12867  3B96 0A           .db 10
12868  3B97 00           .db 0
12869  3B98 0A           .db 10
12870  3B99 00           .db 0
12871  3B9A 0A           .db 10
12872  3B9B 00           .db 0
12873  3B9C 0A           .db 10
12874  3B9D 00           .db 0
12875  3B9E 0A           .db 10
12876  3B9F 00           .db 0
12877  3BA0 0A           .db 10
12878  3BA1 00           .db 0
12879  3BA2 0A           .db 10
12880  3BA3 00           .db 0
12881  3BA4 0A           .db 10
12882  3BA5 00           .db 0
12883  3BA6 0A           .db 10
12884  3BA7 00           .db 0
12885  3BA8 0A           .db 10
12886  3BA9 00           .db 0
12887  3BAA 0A           .db 10
12888  3BAB 00           .db 0
12889  3BAC 0A           .db 10
12890  3BAD 00           .db 0
12891  3BAE 0A           .db 10
12892  3BAF 00           .db 0
12893  3BB0 0A           .db 10
12894  3BB1 00           .db 0
12895  3BB2 0A           .db 10
12896  3BB3 00           .db 0
12897  3BB4 0C           .db 12
12898  3BB5 01           .db 1
12899  3BB6 0A           .db 10
12900  3BB7 00           .db 0
12901  3BB8 0A           .db 10
12902  3BB9 00           .db 0
12903  3BBA 0A           .db 10
12904  3BBB 00           .db 0
12905  3BBC 0A           .db 10
12906  3BBD 00           .db 0
12907  3BBE 0A           .db 10
12908  3BBF 00           .db 0
12909  3BC0 0C           .db 12
12910  3BC1 03           .db 3
12911  3BC2 0C           .db 12
12912  3BC3 04           .db 4
12913  3BC4 0C           .db 12
12914  3BC5 07           .db 7
12915  3BC6 0C           .db 12
12916  3BC7 09           .db 9
12917  3BC8 0C           .db 12
12918  3BC9 08           .db 8
12919  3BCA 0C           .db 12
12920  3BCB 07           .db 7
12921  3BCC 0C           .db 12
12922  3BCD 1F           .db 31
12923  3BCE 0C           .db 12
12924  3BCF 62           .db 98
12925  3BD0 0C           .db 12
12926  3BD1 DD           .db 221
12927  3BD2 0C           .db 12
12928  3BD3 D2           .db 210
12929  3BD4 0C           .db 12
12930  3BD5 D2           .db 210
12931  3BD6 0C           .db 12
12932  3BD7 E2           .db 226
12933  3BD8 0C           .db 12
12934  3BD9 F7           .db 247
12935  3BDA 0C           .db 12
12936  3BDB EF           .db 239
12937  3BDC 0C           .db 12
12938  3BDD DF           .db 223
12939  3BDE 0C           .db 12
12940  3BDF DF           .db 223
12941  3BE0 0C           .db 12
12942  3BE1 DF           .db 223
12943  3BE2 0C           .db 12
12944  3BE3 E0           .db 224
12945  3BE4 0C           .db 12
12946  3BE5 FF           .db 255
12947  3BE6 0C           .db 12
12948  3BE7 F0           .db 240
12949  3BE8 0C           .db 12
12950  3BE9 EF           .db 239
12951  3BEA 0C           .db 12
12952  3BEB 7F           .db 127
12953  3BEC 0C           .db 12
12954  3BED 80           .db 128
12955  3BEE 0C           .db 12
12956  3BEF FF           .db 255
12957  3BF0 0C           .db 12
12958  3BF1 FF           .db 255
12959  3BF2 0C           .db 12
12960  3BF3 FF           .db 255
12961  3BF4 0C           .db 12
12962  3BF5 FC           .db 252
12963  3BF6 0C           .db 12
12964  3BF7 83           .db 131
12965  3BF8 0C           .db 12
12966  3BF9 7F           .db 127
12967  3BFA 0C           .db 12
12968  3BFB 7F           .db 127
12969  3BFC 0C           .db 12
12970  3BFD BF           .db 191
12971  3BFE 0C           .db 12
12972  3BFF 3F           .db 63
12973  3C00 0C           .db 12
12974  3C01 DF           .db 223
12975  3C02 0C           .db 12
12976  3C03 DF           .db 223
12977  3C04 0C           .db 12
12978  3C05 DF           .db 223
12979  3C06 0C           .db 12
12980  3C07 0F           .db 15
12981  3C08 0A           .db 10
12982  3C09 00           .db 0
12983  3C0A 0A           .db 10
12984  3C0B 00           .db 0
12985  3C0C 0F           .db 15
12986  3C0D E0           .db 224
12987  3C0E 0A           .db 10
12988  3C0F 00           .db 0
12989  3C10 0A           .db 10
12990  3C11 00           .db 0
12991  3C12 0A           .db 10
12992  3C13 00           .db 0
12993  3C14 0A           .db 10
12994  3C15 00           .db 0
12995  3C16 0A           .db 10
12996  3C17 00           .db 0
12997  3C18 0A           .db 10
12998  3C19 00           .db 0
12999  3C1A 0A           .db 10
13000  3C1B 00           .db 0
13001  3C1C 0A           .db 10
13002  3C1D 00           .db 0
13003  3C1E 0A           .db 10
13004  3C1F 00           .db 0
13005  3C20 0A           .db 10
13006  3C21 00           .db 0
13007  3C22 0A           .db 10
13008  3C23 00           .db 0
13009  3C24 0A           .db 10
13010  3C25 00           .db 0
13011  3C26 0A           .db 10
13012  3C27 00           .db 0
13013  3C28 0A           .db 10
13014  3C29 00           .db 0
13015  3C2A 0A           .db 10
13016  3C2B 00           .db 0
13017  3C2C 0A           .db 10
13018  3C2D 00           .db 0
13019  3C2E 0C           .db 12
13020  3C2F 80           .db 128
13021  3C30 0C           .db 12
13022  3C31 C0           .db 192
13023  3C32 0C           .db 12
13024  3C33 80           .db 128
13025  3C34 0C           .db 12
13026  3C35 80           .db 128
13027  3C36 0C           .db 12
13028  3C37 C0           .db 192
13029  3C38 0C           .db 12
13030  3C39 40           .db 64
13031  3C3A 0C           .db 12
13032  3C3B C0           .db 192
13033  3C3C 0C           .db 12
13034  3C3D 80           .db 128
13035  3C3E 0A           .db 10
13036  3C3F 00           .db 0
13037  3C40 0C           .db 12
13038  3C41 80           .db 128
13039  3C42 0C           .db 12
13040  3C43 80           .db 128
13041  3C44 0A           .db 10
13042  3C45 00           .db 0
13043  3C46 0A           .db 10
13044  3C47 00           .db 0
13045  3C48 0C           .db 12
13046  3C49 E0           .db 224
13047  3C4A 0C           .db 12
13048  3C4B 38           .db 56
13049  3C4C 0C           .db 12
13050  3C4D DE           .db 222
13051  3C4E 0C           .db 12
13052  3C4F 5F           .db 95
13053  3C50 0C           .db 12
13054  3C51 5F           .db 95
13055  3C52 0C           .db 12
13056  3C53 3F           .db 63
13057  3C54 0C           .db 12
13058  3C55 7F           .db 127
13059  3C56 0C           .db 12
13060  3C57 BF           .db 191
13061  3C58 0C           .db 12
13062  3C59 DF           .db 223
13063  3C5A 0C           .db 12
13064  3C5B DF           .db 223
13065  3C5C 0C           .db 12
13066  3C5D DF           .db 223
13067  3C5E 0C           .db 12
13068  3C5F 3F           .db 63
13069  3C60 0C           .db 12
13070  3C61 FF           .db 255
13071  3C62 0C           .db 12
13072  3C63 7F           .db 127
13073  3C64 0C           .db 12
13074  3C65 BE           .db 190
13075  3C66 0C           .db 12
13076  3C67 FD           .db 253
13077  3C68 0C           .db 12
13078  3C69 03           .db 3
13079  3C6A 0C           .db 12
13080  3C6B FA           .db 250
13081  3C6C 0C           .db 12
13082  3C6D F9           .db 249
13083  3C6E 0C           .db 12
13084  3C6F E1           .db 225
13085  3C70 0C           .db 12
13086  3C71 19           .db 25
13087  3C72 0C           .db 12
13088  3C73 FB           .db 251
13089  3C74 0C           .db 12
13090  3C75 FB           .db 251
13091  3C76 0C           .db 12
13092  3C77 FB           .db 251
13093  3C78 0C           .db 12
13094  3C79 F7           .db 247
13095  3C7A 0C           .db 12
13096  3C7B E0           .db 224
13097  3C7C 0C           .db 12
13098  3C7D EE           .db 238
13099  3C7E 0C           .db 12
13100  3C7F DF           .db 223
13101  3C80 0C           .db 12
13102  3C81 DE           .db 222
13103  3C82 0C           .db 12
13104  3C83 80           .db 128
13105  3C84 0A           .db 10
13106  3C85 00           .db 0
13107  3C86 0F           .db 15
13108  3C87 01           .db 1
13109  3C88 0F           .db 15
13110  3C89 3F           .db 63
13111  3C8A 0A           .db 10
13112  3C8B 00           .db 0
13113  3C8C 0A           .db 10
13114  3C8D 00           .db 0
13115  3C8E 0A           .db 10
13116  3C8F 00           .db 0
13117  3C90 0A           .db 10
13118  3C91 00           .db 0
13119  3C92 0A           .db 10
13120  3C93 00           .db 0
13121  3C94 0A           .db 10
13122  3C95 00           .db 0
13123  3C96 0A           .db 10
13124  3C97 00           .db 0
13125  3C98 0A           .db 10
13126  3C99 00           .db 0
13127  3C9A 0A           .db 10
13128  3C9B 00           .db 0
13129  3C9C 0A           .db 10
13130  3C9D 00           .db 0
13131  3C9E 0A           .db 10
13132  3C9F 00           .db 0
13133  3CA0 0A           .db 10
13134  3CA1 00           .db 0
13135  3CA2 0A           .db 10
13136  3CA3 00           .db 0
13137  3CA4 0A           .db 10
13138  3CA5 00           .db 0
13139  3CA6 0A           .db 10
13140  3CA7 00           .db 0
13141  3CA8 0A           .db 10
13142  3CA9 00           .db 0
13143  3CAA 0A           .db 10
13144  3CAB 00           .db 0
13145  3CAC 0A           .db 10
13146  3CAD 00           .db 0
13147  3CAE 0A           .db 10
13148  3CAF 00           .db 0
13149  3CB0 0A           .db 10
13150  3CB1 00           .db 0
13151  3CB2 0A           .db 10
13152  3CB3 00           .db 0
13153  3CB4 0A           .db 10
13154  3CB5 00           .db 0
13155  3CB6 0A           .db 10
13156  3CB7 00           .db 0
13157  3CB8 0A           .db 10
13158  3CB9 00           .db 0
13159  3CBA 0A           .db 10
13160  3CBB 00           .db 0
13161  3CBC 0A           .db 10
13162  3CBD 00           .db 0
13163  3CBE 0A           .db 10
13164  3CBF 00           .db 0
13165  3CC0 0A           .db 10
13166  3CC1 00           .db 0
13167  3CC2 0A           .db 10
13168  3CC3 00           .db 0
13169  3CC4 0A           .db 10
13170  3CC5 00           .db 0
13171  3CC6 0A           .db 10
13172  3CC7 00           .db 0
13173  3CC8 0A           .db 10
13174  3CC9 00           .db 0
13175  3CCA 0A           .db 10
13176  3CCB 00           .db 0
13177  3CCC 0C           .db 12
13178  3CCD 80           .db 128
13179  3CCE 0C           .db 12
13180  3CCF C0           .db 192
13181  3CD0 0C           .db 12
13182  3CD1 E0           .db 224
13183  3CD2 0C           .db 12
13184  3CD3 F0           .db 240
13185  3CD4 0C           .db 12
13186  3CD5 F8           .db 248
13187  3CD6 0C           .db 12
13188  3CD7 FE           .db 254
13189  3CD8 0C           .db 12
13190  3CD9 FF           .db 255
13191  3CDA 0C           .db 12
13192  3CDB FF           .db 255
13193  3CDC 0C           .db 12
13194  3CDD FF           .db 255
13195  3CDE 0C           .db 12
13196  3CDF FC           .db 252
13197  3CE0 0C           .db 12
13198  3CE1 FB           .db 251
13199  3CE2 0C           .db 12
13200  3CE3 77           .db 119
13201  3CE4 0C           .db 12
13202  3CE5 AF           .db 175
13203  3CE6 0C           .db 12
13204  3CE7 0F           .db 15
13205  3CE8 0C           .db 12
13206  3CE9 EC           .db 236
13207  3CEA 0C           .db 12
13208  3CEB E0           .db 224
13209  3CEC 0C           .db 12
13210  3CED E8           .db 232
13211  3CEE 0C           .db 12
13212  3CEF E0           .db 224
13213  3CF0 0C           .db 12
13214  3CF1 C8           .db 200
13215  3CF2 0C           .db 12
13216  3CF3 D0           .db 208
13217  3CF4 0C           .db 12
13218  3CF5 A8           .db 168
13219  3CF6 0C           .db 12
13220  3CF7 10           .db 16
13221  3CF8 0C           .db 12
13222  3CF9 08           .db 8
13223  3CFA 0F           .db 15
13224  3CFB C0           .db 192
13225  3CFC 0F           .db 15
13226  3CFD 30           .db 48
13227  3CFE 0F           .db 15
13228  3CFF 08           .db 8
13229  3D00 0F           .db 15
13230  3D01 38           .db 56
13231  3D02 0F           .db 15
13232  3D03 F8           .db 248
13233  3D04 0F           .db 15
13234  3D05 D8           .db 216
13235  3D06 0A           .db 10
13236  3D07 00           .db 0
13237  3D08 0A           .db 10
13238  3D09 00           .db 0
13239  3D0A 0A           .db 10
13240  3D0B 00           .db 0
13241  3D0C 0A           .db 10
13242  3D0D 00           .db 0
13243  3D0E 0A           .db 10
13244  3D0F 00           .db 0
13245  3D10 0A           .db 10
13246  3D11 00           .db 0
13247  3D12 0A           .db 10
13248  3D13 00           .db 0
13249  3D14 0A           .db 10
13250  3D15 00           .db 0
13251  3D16 0A           .db 10
13252  3D17 00           .db 0
13253  3D18 0A           .db 10
13254  3D19 00           .db 0
13255  3D1A 0A           .db 10
13256  3D1B 00           .db 0
13257  3D1C 0A           .db 10
13258  3D1D 00           .db 0
13259  3D1E 0A           .db 10
13260  3D1F 00           .db 0
13261  3D20 0A           .db 10
13262  3D21 00           .db 0
13263  3D22 0A           .db 10
13264  3D23 00           .db 0
13265  3D24 0A           .db 10
13266  3D25 00           .db 0
13267  3D26 0A           .db 10
13268  3D27 00           .db 0
13269  3D28 0A           .db 10
13270  3D29 00           .db 0
13271  3D2A 0A           .db 10
13272  3D2B 00           .db 0
13273  3D2C 0A           .db 10
13274  3D2D 00           .db 0
13275  3D2E 0A           .db 10
13276  3D2F 00           .db 0
13277  3D30 0A           .db 10
13278  3D31 00           .db 0
13279  3D32 0A           .db 10
13280  3D33 00           .db 0
13281  3D34 0A           .db 10
13282  3D35 00           .db 0
13283  3D36 0A           .db 10
13284  3D37 00           .db 0
13285  3D38 0A           .db 10
13286  3D39 00           .db 0
13287  3D3A 0A           .db 10
13288  3D3B 00           .db 0
13289  3D3C 0A           .db 10
13290  3D3D 00           .db 0
13291  3D3E 0A           .db 10
13292  3D3F 00           .db 0
13293  3D40 0A           .db 10
13294  3D41 00           .db 0
13295  3D42 0A           .db 10
13296  3D43 00           .db 0
13297  3D44 0A           .db 10
13298  3D45 00           .db 0
13299  3D46 0A           .db 10
13300  3D47 00           .db 0
13301  3D48 0A           .db 10
13302  3D49 00           .db 0
13303  3D4A 0A           .db 10
13304  3D4B 00           .db 0
13305  3D4C 0A           .db 10
13306  3D4D 00           .db 0
13307  3D4E 0A           .db 10
13308  3D4F 00           .db 0
13309  3D50 0A           .db 10
13310  3D51 00           .db 0
13311  3D52 0A           .db 10
13312  3D53 00           .db 0
13313  3D54 0A           .db 10
13314  3D55 00           .db 0
13315  3D56 0C           .db 12
13316  3D57 C0           .db 192
13317  3D58 0C           .db 12
13318  3D59 F0           .db 240
13319  3D5A 0C           .db 12
13320  3D5B F8           .db 248
13321  3D5C 0C           .db 12
13322  3D5D F8           .db 248
13323  3D5E 0C           .db 12
13324  3D5F E0           .db 224
13325  3D60 0C           .db 12
13326  3D61 80           .db 128
13327  3D62 0A           .db 10
13328  3D63 00           .db 0
13329  3D64 0A           .db 10
13330  3D65 00           .db 0
13331  3D66 0A           .db 10
13332  3D67 00           .db 0
13333  3D68 0A           .db 10
13334  3D69 00           .db 0
13335  3D6A 0A           .db 10
13336  3D6B 00           .db 0
13337  3D6C 0A           .db 10
13338  3D6D 00           .db 0
13339  3D6E 0A           .db 10
13340  3D6F 00           .db 0
13341  3D70 0A           .db 10
13342  3D71 00           .db 0
13343  3D72 0A           .db 10
13344  3D73 00           .db 0
13345  3D74 0A           .db 10
13346  3D75 00           .db 0
13347  3D76 0A           .db 10
13348  3D77 00           .db 0
13349  3D78 0A           .db 10
13350  3D79 00           .db 0
13351  3D7A 0A           .db 10
13352  3D7B 00           .db 0
13353  3D7C 0A           .db 10
13354  3D7D 00           .db 0
13355  3D7E 0A           .db 10
13356  3D7F 00           .db 0
13357  3D80 0A           .db 10
13358  3D81 00           .db 0
13359  3D82             
13360  3D82             imgCursor:
13361  3D82 0E           .db 14
13362  3D83 FF           .db 255
13363  3D84 7E           .db 126
13364  3D85 C0           .db 192
13365  3D86 0E           .db 14
13366  3D87 FF           .db 255
13367  3D88 E7           .db 231
13368  3D89 FC           .db 252
13369  3D8A 7E           .db 126
13370  3D8B C0           .db 192
13371  3D8C 0E           .db 14
13372  3D8D FF           .db 255
13373  3D8E E7           .db 231
13374  3D8F FC           .db 252
13375  3D90 0E           .db 14
13376  3D91 FF           .db 255
13377  3D92             
13378  3D92             op_div16_mod:
13379  3D92              .ds 2
13380  3D94             rand_seed:
13381  3D94 FA           .db 250
13382  3D95             
13383  3D95             op_div_mod:
13384  3D95              .ds 1
13385  3D96             memset_1:
13386  3D96              .ds 2
13387  3D98             memset_2:
13388  3D98              .ds 1
13389  3D99             memset_3:
13390  3D99              .ds 2
13391  3D9B             memcpy_1:
13392  3D9B              .ds 2
13393  3D9D             memcpy_2:
13394  3D9D              .ds 2
13395  3D9F             memcpy_3:
13396  3D9F              .ds 2
13397  3DA1             strlen_1:
13398  3DA1              .ds 2
13399  3DA3             string9:
13400  3DA3 20 20 20 20  .db 32,32,32,32,32,32,32,32,32,32,32,32,32,0
13400  3DA7 20 20 20 20 
13400  3DAB 20 20 20 20 
13400  3DAF 20 00 
13401  3DB1             string8:
13402  3DB1 42 32 4D 00  .db 66,50,77,0
13403  3DB5             string1:
13404  3DB5 45 4C 54 41  .db 69,76,84,65,82,79,0
13404  3DB9 52 4F 00 
13405  3DBC             string2:
13406  3DBC 45 52 52 34  .db 69,82,82,52,48,52,0
13406  3DC0 30 34 00 
13407  3DC3             string4:
13408  3DC3 4D 49 43 4B  .db 77,73,67,75,0
13408  3DC7 00 
13409  3DC8             string5:
13410  3DC8 53 43 4C 20  .db 83,67,76,32,77,67,0
13410  3DCC 4D 43 00 
13411  3DCF             string6:
13412  3DCF 53 56 4F 46  .db 83,86,79,70,83,75,0
13412  3DD3 53 4B 00 
13413  3DD6             string3:
13414  3DD6 53 59 53 43  .db 83,89,83,67,65,84,0
13414  3DDA 41 54 00 
13415  3DDD             string7:
13416  3DDD 54 49 54 55  .db 84,73,84,85,83,0
13416  3DE1 53 00 
13417  3DE3             string0:
13418  3DE3 56 49 4E 58  .db 86,73,78,88,82,85,0
13418  3DE7 52 55 00 
13419  3DEA             string10:
13420  3DEA 82 9B 00     .db 130,155,0
13421  3DED               .end
tasm: Number of errors = 0
