0001 0000                      		.i8080
0003 0000                      		drawFiles:
0004 0000 CD 4A 1A             		  call hideFileCursor
0006 0003 AF                   		  xra a
0007 0004 CD AB 1D             		  call drawColumn
0009 0007 3E 01                		  mvi a, 1
0010 0009 C3 AB 1D             		  jmp drawColumn
0011 000C                      		swapPanels:
0012 000C 21 19 27             		  lxi h, panelA
0013 000F 22 78 2D             		  shld memswap_1
0014 0012 21 23 28             		  lxi h, panelB
0015 0015 22 7A 2D             		  shld memswap_2
0016 0018 21 0A 01             		  lxi h, 266
0017 001B CD C8 20             		  call memswap
0019 001E C3 40 1A             		  jmp drawSwapPanels
0020 0021                      		getSel:
0021 0021 2A 1D 28             		  lhld (panelA)+(260)
0022 0024 EB                   		  xchg
0023 0025 2A 1C 28             		  lhld (panelA)+(259)
0024 0028 26 00                		  mvi h, 0
0025 002A 19                   		  dad d
0026 002B E5                   		  push h
0027 002C 16 16                		  mvi d, 22
0028 002E 3A 1B 28             		  lda (panelA)+(258)
0029 0031 CD EA 20             		  call op_mul
0031 0034 D1                   		  pop d
0032 0035 19                   		  dad d
0033 0036 22 43 2A             		  shld getSel_n
0035 0039 EB                   		  xchg
0036 003A 2A 1F 28             		  lhld (panelA)+(262)
0037 003D CD FE 20             		  call op_cmp16
0038 0040 DA 56 00             		  jc l0
0039 0043 CA 56 00             		  jz l0
0041 0046 2A 43 2A             		  lhld getSel_n
0043 0049 54                   		  mov d, h
0044 004A 5D                   		  mov e, l
0045 004B 29                   		  dad h
0046 004C 29                   		  dad h
0047 004D 19                   		  dad d
0048 004E 29                   		  dad h
0049 004F 29                   		  dad h
0051 0050 EB                   		  xchg
0052 0051 2A 19 27             		  lhld panelA
0053 0054 19                   		  dad d
0054 0055 C9                   		  ret
0055 0056                      		l0:
0057 0056 21 00 00             		  lxi h, 0
0058 0059 22 1D 28             		  shld (panelA)+(260)
0060 005C AF                   		  xra a
0061 005D 32 1C 28             		  sta (panelA)+(259)
0063 0060 32 1B 28             		  sta (panelA)+(258)
0065 0063 2A 1F 28             		  lhld (panelA)+(262)
0066 0066 7D                   		  mov a, l
0067 0067 B4                   		  ora h
0068 0068 CA 6F 00             		  jz l1
0070 006B 2A 19 27             		  lhld panelA
0071 006E C9                   		  ret
0072 006F                      		l1:
0074 006F 21 2F 2A             		  lxi h, parentDir
0075 0072 C9                   		  ret
0077 0073                      		getSelNoBack:
0078 0073 CD 21 00             		  call getSel
0079 0076 22 45 2A             		  shld getSelNoBack_f
0081 0079 7E                   		  mov a, m
0082 007A FE 2E                		  cpi 46
0083 007C C2 85 00             		  jnz l2
0085 007F 21 00 00             		  lxi h, 0
0086 0082 22 45 2A             		  shld getSelNoBack_f
0087 0085                      		l2:
0089 0085 C9                   		  ret
0091 0086                      		drawFileInfo:
0092 0086 CD 21 00             		  call getSel
0093 0089 22 47 2A             		  shld drawFileInfo_f
0095 008C 11 0B 00             		  lxi d, 11
0096 008F 19                   		  dad d
0097 0090 7E                   		  mov a, m
0098 0091 E6 10                		  ani 16
0100 0093 CA 9C 00             		  jz l3
0102 0096 CD 81 1E             		  call drawFileInfoDir
0103 0099 C3 BD 00             		  jmp l4
0104 009C                      		l3:
0106 009C 21 49 2A             		  lxi h, drawFileInfo_buf
0107 009F 22 7E 2D             		  shld i2s32_1
0109 00A2 2A 47 2A             		  lhld drawFileInfo_f
0110 00A5 11 0C 00             		  lxi d, 12
0111 00A8 19                   		  dad d
0112 00A9 22 80 2D             		  shld i2s32_2
0113 00AC 21 0A 00             		  lxi h, 10
0114 00AF 22 82 2D             		  shld i2s32_3
0115 00B2 3E 20                		  mvi a, 32
0116 00B4 CD 04 21             		  call i2s32
0118 00B7 21 49 2A             		  lxi h, drawFileInfo_buf
0119 00BA CD 69 1E             		  call drawFileInfo1
0120 00BD                      		l4:
0122 00BD 2A 47 2A             		  lhld drawFileInfo_f
0123 00C0 11 12 00             		  lxi d, 18
0124 00C3 19                   		  dad d
0126 00C4 5E                   		  mov e, m
0127 00C5 23                   		  inx h
0128 00C6 56                   		  mov d, m
0129 00C7 EB                   		  xchg
0130 00C8 7D                   		  mov a, l
0131 00C9 B4                   		  ora h
0132 00CA C2 E4 00             		  jnz l5
0134 00CD 2A 47 2A             		  lhld drawFileInfo_f
0135 00D0 11 10 00             		  lxi d, 16
0136 00D3 19                   		  dad d
0138 00D4 5E                   		  mov e, m
0139 00D5 23                   		  inx h
0140 00D6 56                   		  mov d, m
0141 00D7 EB                   		  xchg
0142 00D8 7D                   		  mov a, l
0143 00D9 B4                   		  ora h
0144 00DA C2 E4 00             		  jnz l5
0146 00DD AF                   		  xra a
0147 00DE 32 49 2A             		  sta (drawFileInfo_buf)+(0)
0148 00E1 C3 BE 01             		  jmp l6
0149 00E4                      		l5:
0151 00E4 21 49 2A             		  lxi h, drawFileInfo_buf
0152 00E7 22 89 2D             		  shld i2s_1
0154 00EA 2A 47 2A             		  lhld drawFileInfo_f
0155 00ED 11 12 00             		  lxi d, 18
0156 00F0 19                   		  dad d
0158 00F1 5E                   		  mov e, m
0159 00F2 23                   		  inx h
0160 00F3 56                   		  mov d, m
0161 00F4 EB                   		  xchg
0162 00F5 7D                   		  mov a, l
0163 00F6 E6 1F                		  ani 31
0164 00F8 6F                   		  mov l, a
0165 00F9 26 00                		  mvi h, 0
0166 00FB 22 8B 2D             		  shld i2s_2
0167 00FE 2E 02                		  mvi l, 2
0168 0100 22 8D 2D             		  shld i2s_3
0169 0103 3E 20                		  mvi a, 32
0170 0105 CD 7A 21             		  call i2s
0172 0108 3E 2D                		  mvi a, 45
0173 010A 32 4B 2A             		  sta (drawFileInfo_buf)+(2)
0175 010D 21 4C 2A             		  lxi h, (drawFileInfo_buf)+(3)
0176 0110 22 89 2D             		  shld i2s_1
0178 0113 2A 47 2A             		  lhld drawFileInfo_f
0179 0116 11 12 00             		  lxi d, 18
0180 0119 19                   		  dad d
0182 011A 5E                   		  mov e, m
0183 011B 23                   		  inx h
0184 011C 56                   		  mov d, m
0185 011D EB                   		  xchg
0186 011E 11 05 00             		  lxi d, 5
0187 0121 CD DC 21             		  call op_shr16
0189 0124 7D                   		  mov a, l
0190 0125 E6 0F                		  ani 15
0191 0127 6F                   		  mov l, a
0192 0128 26 00                		  mvi h, 0
0193 012A 22 8B 2D             		  shld i2s_2
0194 012D 2E 02                		  mvi l, 2
0195 012F 22 8D 2D             		  shld i2s_3
0196 0132 3E 30                		  mvi a, 48
0197 0134 CD 7A 21             		  call i2s
0199 0137 3E 2D                		  mvi a, 45
0200 0139 32 4E 2A             		  sta (drawFileInfo_buf)+(5)
0202 013C 21 4F 2A             		  lxi h, (drawFileInfo_buf)+(6)
0203 013F 22 89 2D             		  shld i2s_1
0205 0142 2A 47 2A             		  lhld drawFileInfo_f
0206 0145 11 12 00             		  lxi d, 18
0207 0148 19                   		  dad d
0209 0149 5E                   		  mov e, m
0210 014A 23                   		  inx h
0211 014B 56                   		  mov d, m
0212 014C EB                   		  xchg
0213 014D 11 09 00             		  lxi d, 9
0214 0150 CD DC 21             		  call op_shr16
0216 0153 11 BC 07             		  lxi d, 1980
0217 0156 19                   		  dad d
0218 0157 22 8B 2D             		  shld i2s_2
0219 015A 21 04 00             		  lxi h, 4
0220 015D 22 8D 2D             		  shld i2s_3
0221 0160 3E 30                		  mvi a, 48
0222 0162 CD 7A 21             		  call i2s
0224 0165 3E 20                		  mvi a, 32
0225 0167 32 53 2A             		  sta (drawFileInfo_buf)+(10)
0227 016A 21 54 2A             		  lxi h, (drawFileInfo_buf)+(11)
0228 016D 22 89 2D             		  shld i2s_1
0230 0170 2A 47 2A             		  lhld drawFileInfo_f
0231 0173 11 10 00             		  lxi d, 16
0232 0176 19                   		  dad d
0234 0177 5E                   		  mov e, m
0235 0178 23                   		  inx h
0236 0179 56                   		  mov d, m
0237 017A EB                   		  xchg
0238 017B 11 0B 00             		  lxi d, 11
0239 017E CD DC 21             		  call op_shr16
0240 0181 22 8B 2D             		  shld i2s_2
0241 0184 21 02 00             		  lxi h, 2
0242 0187 22 8D 2D             		  shld i2s_3
0243 018A 3E 30                		  mvi a, 48
0244 018C CD 7A 21             		  call i2s
0246 018F 3E 3A                		  mvi a, 58
0247 0191 32 56 2A             		  sta (drawFileInfo_buf)+(13)
0249 0194 21 57 2A             		  lxi h, (drawFileInfo_buf)+(14)
0250 0197 22 89 2D             		  shld i2s_1
0252 019A 2A 47 2A             		  lhld drawFileInfo_f
0253 019D 11 10 00             		  lxi d, 16
0254 01A0 19                   		  dad d
0256 01A1 5E                   		  mov e, m
0257 01A2 23                   		  inx h
0258 01A3 56                   		  mov d, m
0259 01A4 EB                   		  xchg
0260 01A5 11 05 00             		  lxi d, 5
0261 01A8 CD DC 21             		  call op_shr16
0263 01AB 7D                   		  mov a, l
0264 01AC E6 3F                		  ani 63
0265 01AE 6F                   		  mov l, a
0266 01AF 26 00                		  mvi h, 0
0267 01B1 22 8B 2D             		  shld i2s_2
0268 01B4 2E 02                		  mvi l, 2
0269 01B6 22 8D 2D             		  shld i2s_3
0270 01B9 3E 30                		  mvi a, 48
0271 01BB CD 7A 21             		  call i2s
0272 01BE                      		l6:
0274 01BE 21 49 2A             		  lxi h, drawFileInfo_buf
0275 01C1 C3 87 1E             		  jmp drawFileInfo2
0276 01C4                      		showFileCursorAndDrawFileInfo:
0277 01C4 CD 62 1A             		  call showFileCursor
0279 01C7 C3 86 00             		  jmp drawFileInfo
0280 01CA                      		drawFilesCount:
0281 01CA 21 00 00             		  lxi h, 0
0282 01CD 22 5B 2A             		  shld (drawFilesCount_total)+(0)
0284 01D0 22 5D 2A             		  shld (drawFilesCount_total)+(2)
0286 01D3 22 61 2A             		  shld drawFilesCount_filesCnt
0288 01D6 2A 19 27             		  lhld panelA
0289 01D9 22 63 2A             		  shld drawFilesCount_p
0290 01DC 2A 1F 28             		  lhld (panelA)+(262)
0291 01DF 22 5F 2A             		  shld drawFilesCount_i
0292 01E2                      		l7:
0294 01E2 7D                   		  mov a, l
0295 01E3 B4                   		  ora h
0296 01E4 CA 1F 02             		  jz l8
0298 01E7 2A 63 2A             		  lhld drawFilesCount_p
0299 01EA 11 0B 00             		  lxi d, 11
0300 01ED 19                   		  dad d
0301 01EE 7E                   		  mov a, m
0302 01EF E6 10                		  ani 16
0303 01F1 C2 FB 01             		  jnz l10
0305 01F4 2A 61 2A             		  lhld drawFilesCount_filesCnt
0306 01F7 23                   		  inx h
0307 01F8 22 61 2A             		  shld drawFilesCount_filesCnt
0308 01FB                      		l10:
0310 01FB 21 5B 2A             		  lxi h, drawFilesCount_total
0311 01FE 22 90 2D             		  shld add32_32_1
0313 0201 2A 63 2A             		  lhld drawFilesCount_p
0314 0204 11 0C 00             		  lxi d, 12
0315 0207 19                   		  dad d
0316 0208 CD EA 21             		  call add32_32
0317 020B                      		l9:
0318 020B 2A 63 2A             		  lhld drawFilesCount_p
0319 020E 11 14 00             		  lxi d, 20
0320 0211 19                   		  dad d
0321 0212 22 63 2A             		  shld drawFilesCount_p
0322 0215 2A 5F 2A             		  lhld drawFilesCount_i
0323 0218 2B                   		  dcx h
0324 0219 22 5F 2A             		  shld drawFilesCount_i
0325 021C C3 E2 01             		  jmp l7
0326 021F                      		l8:
0328 021F 21 5B 2A             		  lxi h, drawFilesCount_total
0329 0222 22 3B 2D             		  shld drawFilesCountInt_1
0330 0225 2A 61 2A             		  lhld drawFilesCount_filesCnt
0331 0228 C3 4D 1B             		  jmp drawFilesCountInt
0332 022B                      		drawFiles2:
0333 022B CD 00 00             		  call drawFiles
0335 022E CD CA 01             		  call drawFilesCount
0337 0231 CD 0C 00             		  call swapPanels
0339 0234 CD 00 00             		  call drawFiles
0341 0237 CD CA 01             		  call drawFilesCount
0343 023A CD 86 00             		  call drawFileInfo
0345 023D CD 0C 00             		  call swapPanels
0347 0240 C3 C4 01             		  jmp showFileCursorAndDrawFileInfo
0348 0243                      		drawScreen:
0349 0243 AF                   		  xra a
0350 0244 32 2D 29             		  sta (cmdline)+(0)
0352 0247 CD 50 1C             		  call drawScreenInt
0354 024A CD 9F 1E             		  call drawCmdLineWithPath
0356 024D C3 2B 02             		  jmp drawFiles2
0357 0250                      		processInput:
0358 0250 C5                   		  push b
0359 0251 32 65 2A             		  sta processInput_1
0361 0254 21 2D 29             		  lxi h, cmdline
0362 0257 CD 05 22             		  call strlen
0363 025A 44                   		  mov b, h
0364 025B 4D                   		  mov c, l
0366 025C 3A 65 2A             		  lda processInput_1
0367 025F FE 7F                		  cpi 127
0368 0261 C2 74 02             		  jnz l11
0370 0264 7D                   		  mov a, l
0371 0265 B4                   		  ora h
0372 0266 C2 6B 02             		  jnz l12
0374 0269 C1                   		  pop b
0375 026A C9                   		  ret
0376 026B                      		l12:
0378 026B 0B                   		  dcx b
0380 026C 21 2D 29             		  lxi h, cmdline
0381 026F 09                   		  dad b
0382 0270 36 00                		  mvi m, 0
0384 0272 C1                   		  pop b
0385 0273 C9                   		  ret
0386 0274                      		l11:
0388 0274 3A 65 2A             		  lda processInput_1
0389 0277 FE 20                		  cpi 32
0390 0279 DA 96 02             		  jc l13
0392 027C 21 01 FF             		  lxi h, 65281
0393 027F 09                   		  dad b
0394 0280 7D                   		  mov a, l
0395 0281 B4                   		  ora h
0396 0282 C2 87 02             		  jnz l14
0398 0285 C1                   		  pop b
0399 0286 C9                   		  ret
0400 0287                      		l14:
0402 0287 21 2D 29             		  lxi h, cmdline
0403 028A 09                   		  dad b
0404 028B 3A 65 2A             		  lda processInput_1
0405 028E 77                   		  mov m, a
0407 028F 03                   		  inx b
0409 0290 21 2D 29             		  lxi h, cmdline
0410 0293 09                   		  dad b
0411 0294 36 00                		  mvi m, 0
0412 0296                      		l13:
0413 0296 C1                   		  pop b
0414 0297 C9                   		  ret
0416 0298                      		drawError:
0417 0298 32 68 2A             		  sta drawError_2
0419 029B B7                   		  ora a
0420 029C C2 A0 02             		  jnz l15
0422 029F C9                   		  ret
0423 02A0                      		l15:
0425 02A0 21 69 2E             		  lxi h, string0
0426 02A3 CD 0E 1F             		  call drawWindow
0428 02A6 CD 6A 1F             		  call drawAnyKeyButton
0430 02A9 AF                   		  xra a
0431 02AA 32 62 2D             		  sta drawWindowText_1
0432 02AD 32 63 2D             		  sta drawWindowText_2
0433 02B0 2A 66 2A             		  lhld drawError_1
0434 02B3 CD 8A 1F             		  call drawWindowText
0436 02B6 3A 68 2A             		  lda drawError_2
0437 02B9 FE 01                		  cpi 1
0438 02BB CA EE 02             		  jz l17
0439 02BE FE 02                		  cpi 2
0440 02C0 CA F7 02             		  jz l18
0441 02C3 FE 07                		  cpi 7
0442 02C5 CA 00 03             		  jz l19
0443 02C8 FE 03                		  cpi 3
0444 02CA CA 09 03             		  jz l20
0445 02CD FE 04                		  cpi 4
0446 02CF CA 12 03             		  jz l21
0447 02D2 FE 05                		  cpi 5
0448 02D4 CA 1B 03             		  jz l22
0449 02D7 FE 06                		  cpi 6
0450 02D9 CA 24 03             		  jz l23
0451 02DC FE 08                		  cpi 8
0452 02DE CA 2D 03             		  jz l24
0453 02E1 FE 80                		  cpi 128
0454 02E3 CA 36 03             		  jz l25
0455 02E6 FE 0B                		  cpi 11
0456 02E8 CA 3F 03             		  jz l26
0457 02EB C3 48 03             		  jmp l27
0458 02EE                      		l17:
0460 02EE 21 FA 2F             		  lxi h, string1
0461 02F1 22 66 2A             		  shld drawError_1
0463 02F4 C3 66 03             		  jmp l16
0464 02F7                      		l18:
0466 02F7 21 22 30             		  lxi h, string2
0467 02FA 22 66 2A             		  shld drawError_1
0469 02FD C3 66 03             		  jmp l16
0470 0300                      		l19:
0472 0300 21 7B 30             		  lxi h, string3
0473 0303 22 66 2A             		  shld drawError_1
0475 0306 C3 66 03             		  jmp l16
0476 0309                      		l20:
0478 0309 21 B7 2F             		  lxi h, string4
0479 030C 22 66 2A             		  shld drawError_1
0481 030F C3 66 03             		  jmp l16
0482 0312                      		l21:
0484 0312 21 C6 30             		  lxi h, string5
0485 0315 22 66 2A             		  shld drawError_1
0487 0318 C3 66 03             		  jmp l16
0488 031B                      		l22:
0490 031B 21 E2 2F             		  lxi h, string6
0491 031E 22 66 2A             		  shld drawError_1
0493 0321 C3 66 03             		  jmp l16
0494 0324                      		l23:
0496 0324 21 99 2F             		  lxi h, string7
0497 0327 22 66 2A             		  shld drawError_1
0499 032A C3 66 03             		  jmp l16
0500 032D                      		l24:
0502 032D 21 A7 2F             		  lxi h, string8
0503 0330 22 66 2A             		  shld drawError_1
0505 0333 C3 66 03             		  jmp l16
0506 0336                      		l25:
0508 0336 21 8A 30             		  lxi h, string9
0509 0339 22 66 2A             		  shld drawError_1
0511 033C C3 66 03             		  jmp l16
0512 033F                      		l26:
0514 033F 21 AD 30             		  lxi h, string10
0515 0342 22 66 2A             		  shld drawError_1
0517 0345 C3 66 03             		  jmp l16
0518 0348                      		l27:
0520 0348 21 69 2A             		  lxi h, drawError_buf
0521 034B 22 89 2D             		  shld i2s_1
0522 034E 2A 68 2A             		  lhld drawError_2
0523 0351 26 00                		  mvi h, 0
0524 0353 22 8B 2D             		  shld i2s_2
0525 0356 2E 03                		  mvi l, 3
0526 0358 22 8D 2D             		  shld i2s_3
0527 035B 3E 30                		  mvi a, 48
0528 035D CD 7A 21             		  call i2s
0530 0360 21 69 2A             		  lxi h, drawError_buf
0531 0363 22 66 2A             		  shld drawError_1
0533 0366                      		l16:
0535 0366 AF                   		  xra a
0536 0367 32 62 2D             		  sta drawWindowText_1
0537 036A 3E 02                		  mvi a, 2
0538 036C 32 63 2D             		  sta drawWindowText_2
0539 036F 2A 66 2A             		  lhld drawError_1
0540 0372 CD 8A 1F             		  call drawWindowText
0542 0375 C3 C0 20             		  jmp getch1
0543 0378                      		inputBox:
0544 0378 C5                   		  push b
0545 0379 22 6D 2A             		  shld inputBox_1
0547 037C 0E 01                		  mvi c, 1
0549 037E CD 0E 1F             		  call drawWindow
0551 0381 3E 03                		  mvi a, 3
0552 0383 32 62 2D             		  sta drawWindowText_1
0553 0386 3E 01                		  mvi a, 1
0554 0388 32 63 2D             		  sta drawWindowText_2
0555 038B 21 D9 2F             		  lxi h, string11
0556 038E CD 8A 1F             		  call drawWindowText
0558 0391 3E 06                		  mvi a, 6
0559 0393 32 62 2D             		  sta drawWindowText_1
0560 0396 3E 04                		  mvi a, 4
0561 0398 32 63 2D             		  sta drawWindowText_2
0562 039B 21 6E 2F             		  lxi h, string12
0563 039E CD 8A 1F             		  call drawWindowText
0565 03A1                      		l28:
0567 03A1 3E 03                		  mvi a, 3
0568 03A3 32 75 2D             		  sta drawWindowInput_1
0569 03A6 3D                   		  dcr a
0570 03A7 32 76 2D             		  sta drawWindowInput_2
0571 03AA 3E 20                		  mvi a, 32
0572 03AC CD A7 20             		  call drawWindowInput
0574 03AF CD C0 20             		  call getch1
0575 03B2 47                   		  mov b, a
0577 03B3 3E 18                		  mvi a, 24
0578 03B5 B8                   		  cmp b
0579 03B6 C2 BB 03             		  jnz l30
0581 03B9 0E 00                		  mvi c, 0
0582 03BB                      		l30:
0584 03BB 3E 08                		  mvi a, 8
0585 03BD B8                   		  cmp b
0586 03BE C2 C3 03             		  jnz l31
0588 03C1 0E 00                		  mvi c, 0
0589 03C3                      		l31:
0591 03C3 3E 0D                		  mvi a, 13
0592 03C5 B8                   		  cmp b
0593 03C6 C2 D0 03             		  jnz l32
0595 03C9 CD 38 1A             		  call hideTextCursor
0597 03CC 3E 01                		  mvi a, 1
0598 03CE C1                   		  pop b
0599 03CF C9                   		  ret
0600 03D0                      		l32:
0602 03D0 3E 1B                		  mvi a, 27
0603 03D2 B8                   		  cmp b
0604 03D3 C2 DC 03             		  jnz l33
0606 03D6 CD 38 1A             		  call hideTextCursor
0608 03D9 AF                   		  xra a
0609 03DA C1                   		  pop b
0610 03DB C9                   		  ret
0611 03DC                      		l33:
0613 03DC 79                   		  mov a, c
0614 03DD B7                   		  ora a
0615 03DE CA E7 03             		  jz l34
0617 03E1 0E 00                		  mvi c, 0
0618 03E3 AF                   		  xra a
0619 03E4 32 2D 29             		  sta (cmdline)+(0)
0620 03E7                      		l34:
0622 03E7 78                   		  mov a, b
0623 03E8 CD 50 02             		  call processInput
0624 03EB C3 A1 03             		  jmp l28
0625 03EE                      		l29:
0626 03EE C1                   		  pop b
0627 03EF C9                   		  ret
0629 03F0                      		confirm:
0630 03F0 22 71 2A             		  shld confirm_2
0632 03F3 2A 6F 2A             		  lhld confirm_1
0633 03F6 CD 0E 1F             		  call drawWindow
0635 03F9 3E 03                		  mvi a, 3
0636 03FB 32 62 2D             		  sta drawWindowText_1
0637 03FE 3E 01                		  mvi a, 1
0638 0400 32 63 2D             		  sta drawWindowText_2
0639 0403 2A 71 2A             		  lhld confirm_2
0640 0406 CD 8A 1F             		  call drawWindowText
0642 0409 3E 06                		  mvi a, 6
0643 040B 32 62 2D             		  sta drawWindowText_1
0644 040E 3E 04                		  mvi a, 4
0645 0410 32 63 2D             		  sta drawWindowText_2
0646 0413 21 6E 2F             		  lxi h, string12
0647 0416 CD 8A 1F             		  call drawWindowText
0649 0419                      		l35:
0651 0419 CD C0 20             		  call getch1
0652 041C FE 0D                		  cpi 13
0653 041E CA 29 04             		  jz l38
0654 0421 FE 1B                		  cpi 27
0655 0423 CA 2C 04             		  jz l39
0656 0426 C3 2E 04             		  jmp l37
0657 0429                      		l38:
0659 0429 3E 01                		  mvi a, 1
0660 042B C9                   		  ret
0661 042C                      		l39:
0663 042C AF                   		  xra a
0664 042D C9                   		  ret
0665 042E                      		l37:
0666 042E C3 19 04             		  jmp l35
0667 0431                      		l36:
0668 0431 C9                   		  ret
0670 0432                      		unpackName:
0671 0432 C5                   		  push b
0672 0433 22 75 2A             		  shld unpackName_2
0674 0436 06 00                		  mvi b, 0
0675 0438                      		l40:
0676 0438 3E 0B                		  mvi a, 11
0677 043A B8                   		  cmp b
0678 043B CA 6D 04             		  jz l41
0680 043E 3E 08                		  mvi a, 8
0681 0440 B8                   		  cmp b
0682 0441 C2 4D 04             		  jnz l43
0684 0444 2A 73 2A             		  lhld unpackName_1
0685 0447 36 2E                		  mvi m, 46
0686 0449 23                   		  inx h
0687 044A 22 73 2A             		  shld unpackName_1
0688 044D                      		l43:
0690 044D 2A 75 2A             		  lhld unpackName_2
0691 0450 7E                   		  mov a, m
0692 0451 FE 20                		  cpi 32
0693 0453 CA 62 04             		  jz l44
0695 0456 7E                   		  mov a, m
0696 0457 2A 73 2A             		  lhld unpackName_1
0697 045A 77                   		  mov m, a
0698 045B 2A 73 2A             		  lhld unpackName_1
0699 045E 23                   		  inx h
0700 045F 22 73 2A             		  shld unpackName_1
0701 0462                      		l44:
0702 0462                      		l42:
0703 0462 04                   		  inr b
0704 0463 2A 75 2A             		  lhld unpackName_2
0705 0466 23                   		  inx h
0706 0467 22 75 2A             		  shld unpackName_2
0707 046A C3 38 04             		  jmp l40
0708 046D                      		l41:
0710 046D 2A 73 2A             		  lhld unpackName_1
0711 0470 2B                   		  dcx h
0712 0471 7E                   		  mov a, m
0713 0472 FE 2E                		  cpi 46
0714 0474 C2 7E 04             		  jnz l45
0716 0477 2A 73 2A             		  lhld unpackName_1
0717 047A 2B                   		  dcx h
0718 047B 22 73 2A             		  shld unpackName_1
0719 047E                      		l45:
0721 047E 2A 73 2A             		  lhld unpackName_1
0722 0481 36 00                		  mvi m, 0
0723 0483 C1                   		  pop b
0724 0484 C9                   		  ret
0726 0485                      		catPathAndUnpack:
0727 0485 22 79 2A             		  shld catPathAndUnpack_2
0729 0488 2A 77 2A             		  lhld catPathAndUnpack_1
0730 048B CD 05 22             		  call strlen
0731 048E 22 7B 2A             		  shld catPathAndUnpack_len
0733 0491 7D                   		  mov a, l
0734 0492 B4                   		  ora h
0735 0493 CA B6 04             		  jz l46
0737 0496 11 0E FF             		  lxi d, 65294
0738 0499 19                   		  dad d
0739 049A D2 A0 04             		  jnc l47
0741 049D 3E 01                		  mvi a, 1
0742 049F C9                   		  ret
0743 04A0                      		l47:
0745 04A0 2A 77 2A             		  lhld catPathAndUnpack_1
0746 04A3 EB                   		  xchg
0747 04A4 2A 7B 2A             		  lhld catPathAndUnpack_len
0748 04A7 19                   		  dad d
0749 04A8 36 2F                		  mvi m, 47
0751 04AA 2A 7B 2A             		  lhld catPathAndUnpack_len
0752 04AD 23                   		  inx h
0754 04AE EB                   		  xchg
0755 04AF 2A 77 2A             		  lhld catPathAndUnpack_1
0756 04B2 19                   		  dad d
0757 04B3 22 77 2A             		  shld catPathAndUnpack_1
0758 04B6                      		l46:
0760 04B6 2A 77 2A             		  lhld catPathAndUnpack_1
0761 04B9 22 73 2A             		  shld unpackName_1
0762 04BC 2A 79 2A             		  lhld catPathAndUnpack_2
0763 04BF CD 32 04             		  call unpackName
0765 04C2 AF                   		  xra a
0766 04C3 C9                   		  ret
0768 04C4                      		getFirstSelected:
0769 04C4 22 95 2A             		  shld getFirstSelected_1
0771 04C7 2A 1F 28             		  lhld (panelA)+(262)
0772 04CA 22 7D 2A             		  shld nextSelectedCnt
0774 04CD 2A 19 27             		  lhld panelA
0775 04D0 22 7F 2A             		  shld nextSelectedFile
0777 04D3 2A 95 2A             		  lhld getFirstSelected_1
0778 04D6 CD 10 05             		  call getNextSelected
0779 04D9 32 97 2A             		  sta getFirstSelected_type
0781 04DC B7                   		  ora a
0782 04DD CA E4 04             		  jz l48
0784 04E0 3A 97 2A             		  lda getFirstSelected_type
0785 04E3 C9                   		  ret
0786 04E4                      		l48:
0788 04E4 CD 73 00             		  call getSelNoBack
0789 04E7 22 7F 2A             		  shld nextSelectedFile
0791 04EA 7D                   		  mov a, l
0792 04EB B4                   		  ora h
0793 04EC C2 F1 04             		  jnz l49
0795 04EF AF                   		  xra a
0796 04F0 C9                   		  ret
0797 04F1                      		l49:
0799 04F1 2A 95 2A             		  lhld getFirstSelected_1
0800 04F4 22 73 2A             		  shld unpackName_1
0801 04F7 2A 7F 2A             		  lhld nextSelectedFile
0802 04FA CD 32 04             		  call unpackName
0804 04FD 2A 7F 2A             		  lhld nextSelectedFile
0805 0500 11 0B 00             		  lxi d, 11
0806 0503 19                   		  dad d
0807 0504 7E                   		  mov a, m
0808 0505 E6 10                		  ani 16
0810 0507 CA 0D 05             		  jz l50
0812 050A 3E 02                		  mvi a, 2
0813 050C C9                   		  ret
0814 050D                      		l50:
0816 050D 3E 01                		  mvi a, 1
0817 050F C9                   		  ret
0819 0510                      		getNextSelected:
0820 0510 22 98 2A             		  shld getNextSelected_1
0822 0513                      		l51:
0824 0513 2A 7D 2A             		  lhld nextSelectedCnt
0825 0516 7D                   		  mov a, l
0826 0517 B4                   		  ora h
0827 0518 C2 1D 05             		  jnz l54
0829 051B AF                   		  xra a
0830 051C C9                   		  ret
0831 051D                      		l54:
0833 051D 2A 7F 2A             		  lhld nextSelectedFile
0834 0520 11 0B 00             		  lxi d, 11
0835 0523 19                   		  dad d
0836 0524 7E                   		  mov a, m
0837 0525 E6 80                		  ani 128
0839 0527 C2 3E 05             		  jnz l52
0840 052A 2A 7F 2A             		  lhld nextSelectedFile
0841 052D 11 14 00             		  lxi d, 20
0842 0530 19                   		  dad d
0843 0531 22 7F 2A             		  shld nextSelectedFile
0844 0534 2A 7D 2A             		  lhld nextSelectedCnt
0845 0537 2B                   		  dcx h
0846 0538 22 7D 2A             		  shld nextSelectedCnt
0847 053B                      		l53:
0848 053B C3 13 05             		  jmp l51
0849 053E                      		l52:
0851 053E 2A 7F 2A             		  lhld nextSelectedFile
0852 0541 11 0B 00             		  lxi d, 11
0853 0544 19                   		  dad d
0854 0545 7E                   		  mov a, m
0855 0546 E6 7F                		  ani 127
0856 0548 77                   		  mov m, a
0858 0549 2A 98 2A             		  lhld getNextSelected_1
0859 054C 22 73 2A             		  shld unpackName_1
0860 054F 2A 7F 2A             		  lhld nextSelectedFile
0861 0552 CD 32 04             		  call unpackName
0863 0555 2A 7F 2A             		  lhld nextSelectedFile
0864 0558 11 14 00             		  lxi d, 20
0865 055B 19                   		  dad d
0866 055C 22 7F 2A             		  shld nextSelectedFile
0867 055F 2A 7D 2A             		  lhld nextSelectedCnt
0868 0562 2B                   		  dcx h
0869 0563 22 7D 2A             		  shld nextSelectedCnt
0871 0566 2A 7F 2A             		  lhld nextSelectedFile
0872 0569 11 EC FF             		  lxi d, 65516
0873 056C 19                   		  dad d
0875 056D 11 0B 00             		  lxi d, 11
0876 0570 19                   		  dad d
0877 0571 7E                   		  mov a, m
0878 0572 E6 10                		  ani 16
0880 0574 CA 7A 05             		  jz l56
0882 0577 3E 02                		  mvi a, 2
0883 0579 C9                   		  ret
0884 057A                      		l56:
0886 057A 3E 01                		  mvi a, 1
0887 057C C9                   		  ret
0889 057D                      		cmpFileInfo:
0890 057D C5                   		  push b
0891 057E 22 9C 2A             		  shld cmpFileInfo_2
0893 0581 2A 9A 2A             		  lhld cmpFileInfo_1
0894 0584 11 0B 00             		  lxi d, 11
0895 0587 19                   		  dad d
0896 0588 7E                   		  mov a, m
0897 0589 E6 10                		  ani 16
0898 058B 47                   		  mov b, a
0900 058C 2A 9C 2A             		  lhld cmpFileInfo_2
0901 058F 11 0B 00             		  lxi d, 11
0902 0592 19                   		  dad d
0903 0593 7E                   		  mov a, m
0904 0594 E6 10                		  ani 16
0905 0596 4F                   		  mov c, a
0907 0597 79                   		  mov a, c
0908 0598 B8                   		  cmp b
0909 0599 DA A3 05             		  jc l57
0910 059C CA A3 05             		  jz l57
0912 059F 3E 01                		  mvi a, 1
0913 05A1 C1                   		  pop b
0914 05A2 C9                   		  ret
0915 05A3                      		l57:
0917 05A3 79                   		  mov a, c
0918 05A4 B8                   		  cmp b
0919 05A5 D2 AB 05             		  jnc l58
0921 05A8 AF                   		  xra a
0922 05A9 C1                   		  pop b
0923 05AA C9                   		  ret
0924 05AB                      		l58:
0926 05AB 2A 9A 2A             		  lhld cmpFileInfo_1
0927 05AE 22 96 2D             		  shld memcmp_1
0928 05B1 2A 9C 2A             		  lhld cmpFileInfo_2
0929 05B4 22 98 2D             		  shld memcmp_2
0930 05B7 21 0B 00             		  lxi h, 11
0931 05BA CD 14 22             		  call memcmp
0932 05BD FE 01                		  cpi 1
0933 05BF C2 C6 05             		  jnz l59
0935 05C2 3E 01                		  mvi a, 1
0936 05C4 C1                   		  pop b
0937 05C5 C9                   		  ret
0938 05C6                      		l59:
0940 05C6 AF                   		  xra a
0941 05C7 C1                   		  pop b
0942 05C8 C9                   		  ret
0944 05C9                      		sort:
0945 05C9 22 A0 2A             		  shld sort_2
0947 05CC 21 A8 2A             		  lxi h, sort_st_
0948 05CF 22 28 2B             		  shld sort_st
0950 05D2 AF                   		  xra a
0951 05D3 32 2A 2B             		  sta sort_stc
0953 05D6                      		l60:
0955 05D6 2A 9E 2A             		  lhld sort_1
0956 05D9 22 A2 2A             		  shld sort_i
0958 05DC 2A A0 2A             		  lhld sort_2
0959 05DF 22 A4 2A             		  shld sort_j
0961 05E2 2A 9E 2A             		  lhld sort_1
0962 05E5 EB                   		  xchg
0963 05E6 2A A0 2A             		  lhld sort_2
0964 05E9 7D                   		  mov a, l
0965 05EA 93                   		  sub e
0966 05EB 6F                   		  mov l, a
0967 05EC 7C                   		  mov a, h
0968 05ED 9A                   		  sbb d
0969 05EE 67                   		  mov h, a
0970 05EF 11 14 00             		  lxi d, 20
0971 05F2 CD 39 22             		  call op_div16
0972 05F5 11 02 00             		  lxi d, 2
0973 05F8 CD 39 22             		  call op_div16
0975 05FB 54                   		  mov d, h
0976 05FC 5D                   		  mov e, l
0977 05FD 29                   		  dad h
0978 05FE 29                   		  dad h
0979 05FF 19                   		  dad d
0980 0600 29                   		  dad h
0981 0601 29                   		  dad h
0983 0602 EB                   		  xchg
0984 0603 2A 9E 2A             		  lhld sort_1
0985 0606 19                   		  dad d
0986 0607 22 A6 2A             		  shld sort_x
0988 060A                      		l62:
0990 060A                      		l64:
0991 060A 2A A6 2A             		  lhld sort_x
0992 060D 22 9A 2A             		  shld cmpFileInfo_1
0993 0610 2A A2 2A             		  lhld sort_i
0994 0613 CD 7D 05             		  call cmpFileInfo
0995 0616 B7                   		  ora a
0996 0617 CA 29 06             		  jz l65
0998 061A 2A A2 2A             		  lhld sort_i
0999 061D E5                   		  push h
1000 061E 11 14 00             		  lxi d, 20
1001 0621 19                   		  dad d
1002 0622 22 A2 2A             		  shld sort_i
1003 0625 E1                   		  pop h
1004 0626 C3 0A 06             		  jmp l64
1005 0629                      		l65:
1007 0629                      		l66:
1008 0629 2A A4 2A             		  lhld sort_j
1009 062C 22 9A 2A             		  shld cmpFileInfo_1
1010 062F 2A A6 2A             		  lhld sort_x
1011 0632 CD 7D 05             		  call cmpFileInfo
1012 0635 B7                   		  ora a
1013 0636 CA 48 06             		  jz l67
1015 0639 2A A4 2A             		  lhld sort_j
1016 063C E5                   		  push h
1017 063D 11 EC FF             		  lxi d, 65516
1018 0640 19                   		  dad d
1019 0641 22 A4 2A             		  shld sort_j
1020 0644 E1                   		  pop h
1021 0645 C3 29 06             		  jmp l66
1022 0648                      		l67:
1024 0648 2A A2 2A             		  lhld sort_i
1025 064B EB                   		  xchg
1026 064C 2A A4 2A             		  lhld sort_j
1027 064F CD FE 20             		  call op_cmp16
1028 0652 DA A8 06             		  jc l68
1030 0655 2A A2 2A             		  lhld sort_i
1031 0658 22 78 2D             		  shld memswap_1
1032 065B 2A A4 2A             		  lhld sort_j
1033 065E 22 7A 2D             		  shld memswap_2
1034 0661 21 14 00             		  lxi h, 20
1035 0664 CD C8 20             		  call memswap
1037 0667 2A A6 2A             		  lhld sort_x
1038 066A EB                   		  xchg
1039 066B 2A A2 2A             		  lhld sort_i
1040 066E CD FE 20             		  call op_cmp16
1041 0671 C2 7D 06             		  jnz l69
1043 0674 2A A4 2A             		  lhld sort_j
1044 0677 22 A6 2A             		  shld sort_x
1045 067A C3 90 06             		  jmp l70
1046 067D                      		l69:
1048 067D 2A A6 2A             		  lhld sort_x
1049 0680 EB                   		  xchg
1050 0681 2A A4 2A             		  lhld sort_j
1051 0684 CD FE 20             		  call op_cmp16
1052 0687 C2 90 06             		  jnz l71
1054 068A 2A A2 2A             		  lhld sort_i
1055 068D 22 A6 2A             		  shld sort_x
1056 0690                      		l71:
1057 0690                      		l70:
1059 0690 2A A2 2A             		  lhld sort_i
1060 0693 E5                   		  push h
1061 0694 11 14 00             		  lxi d, 20
1062 0697 19                   		  dad d
1063 0698 22 A2 2A             		  shld sort_i
1064 069B E1                   		  pop h
1066 069C 2A A4 2A             		  lhld sort_j
1067 069F E5                   		  push h
1068 06A0 11 EC FF             		  lxi d, 65516
1069 06A3 19                   		  dad d
1070 06A4 22 A4 2A             		  shld sort_j
1071 06A7 E1                   		  pop h
1072 06A8                      		l68:
1074 06A8 2A A4 2A             		  lhld sort_j
1075 06AB EB                   		  xchg
1076 06AC 2A A2 2A             		  lhld sort_i
1077 06AF CD FE 20             		  call op_cmp16
1078 06B2 D2 B8 06             		  jnc l63
1079 06B5 C3 0A 06             		  jmp l62
1080 06B8                      		l63:
1082 06B8 2A A2 2A             		  lhld sort_i
1083 06BB EB                   		  xchg
1084 06BC 2A A0 2A             		  lhld sort_2
1085 06BF CD FE 20             		  call op_cmp16
1086 06C2 DA 11 07             		  jc l73
1087 06C5 CA 11 07             		  jz l73
1089 06C8 2A 9E 2A             		  lhld sort_1
1090 06CB EB                   		  xchg
1091 06CC 2A A4 2A             		  lhld sort_j
1092 06CF CD FE 20             		  call op_cmp16
1093 06D2 DA 08 07             		  jc l74
1094 06D5 CA 08 07             		  jz l74
1096 06D8 3A 2A 2B             		  lda sort_stc
1097 06DB FE 20                		  cpi 32
1098 06DD CA 08 07             		  jz l75
1100 06E0 2A 9E 2A             		  lhld sort_1
1101 06E3 EB                   		  xchg
1102 06E4 2A 28 2B             		  lhld sort_st
1103 06E7 73                   		  mov m, e
1104 06E8 23                   		  inx h
1105 06E9 72                   		  mov m, d
1106 06EA 2A 28 2B             		  lhld sort_st
1107 06ED 23                   		  inx h
1108 06EE 23                   		  inx h
1109 06EF 22 28 2B             		  shld sort_st
1110 06F2 2A A4 2A             		  lhld sort_j
1111 06F5 EB                   		  xchg
1112 06F6 2A 28 2B             		  lhld sort_st
1113 06F9 73                   		  mov m, e
1114 06FA 23                   		  inx h
1115 06FB 72                   		  mov m, d
1116 06FC 2A 28 2B             		  lhld sort_st
1117 06FF 23                   		  inx h
1118 0700 23                   		  inx h
1119 0701 22 28 2B             		  shld sort_st
1120 0704 21 2A 2B             		  lxi h, sort_stc
1121 0707 34                   		  inr m
1122 0708                      		l75:
1123 0708                      		l74:
1125 0708 2A A2 2A             		  lhld sort_i
1126 070B 22 9E 2A             		  shld sort_1
1128 070E C3 D6 05             		  jmp l60
1129 0711                      		l73:
1131 0711 2A 9E 2A             		  lhld sort_1
1132 0714 EB                   		  xchg
1133 0715 2A A4 2A             		  lhld sort_j
1134 0718 CD FE 20             		  call op_cmp16
1135 071B DA 2A 07             		  jc l76
1136 071E CA 2A 07             		  jz l76
1138 0721 2A A4 2A             		  lhld sort_j
1139 0724 22 A0 2A             		  shld sort_2
1141 0727 C3 D6 05             		  jmp l60
1142 072A                      		l76:
1144 072A 3A 2A 2B             		  lda sort_stc
1145 072D B7                   		  ora a
1146 072E CA 56 07             		  jz l61
1147 0731 21 2A 2B             		  lxi h, sort_stc
1148 0734 35                   		  dcr m
1149 0735 2A 28 2B             		  lhld sort_st
1150 0738 2B                   		  dcx h
1151 0739 2B                   		  dcx h
1152 073A 22 28 2B             		  shld sort_st
1153 073D 5E                   		  mov e, m
1154 073E 23                   		  inx h
1155 073F 56                   		  mov d, m
1156 0740 EB                   		  xchg
1157 0741 22 A0 2A             		  shld sort_2
1158 0744 2A 28 2B             		  lhld sort_st
1159 0747 2B                   		  dcx h
1160 0748 2B                   		  dcx h
1161 0749 22 28 2B             		  shld sort_st
1162 074C 5E                   		  mov e, m
1163 074D 23                   		  inx h
1164 074E 56                   		  mov d, m
1165 074F EB                   		  xchg
1166 0750 22 9E 2A             		  shld sort_1
1167 0753 C3 D6 05             		  jmp l60
1168 0756                      		l61:
1169 0756 C9                   		  ret
1171 0757                      		packName:
1172 0757 C5                   		  push b
1173 0758 22 2D 2B             		  shld packName_2
1175 075B 2A 2B 2B             		  lhld packName_1
1176 075E 22 9E 2D             		  shld memset_1
1177 0761 3E 20                		  mvi a, 32
1178 0763 32 A0 2D             		  sta memset_2
1179 0766 21 0B 00             		  lxi h, 11
1180 0769 CD 74 22             		  call memset
1182 076C 3E 08                		  mvi a, 8
1183 076E 32 2F 2B             		  sta packName_i
1185 0771 0E 2E                		  mvi c, 46
1187 0773                      		l78:
1189 0773 2A 2D 2B             		  lhld packName_2
1190 0776 46                   		  mov b, m
1192 0777 AF                   		  xra a
1193 0778 B8                   		  cmp b
1194 0779 C2 7E 07             		  jnz l81
1196 077C C1                   		  pop b
1197 077D C9                   		  ret
1198 077E                      		l81:
1200 077E 23                   		  inx h
1201 077F 22 2D 2B             		  shld packName_2
1203 0782 79                   		  mov a, c
1204 0783 B8                   		  cmp b
1205 0784 C2 9D 07             		  jnz l82
1207 0787 2A 2F 2B             		  lhld packName_i
1208 078A 26 00                		  mvi h, 0
1209 078C EB                   		  xchg
1210 078D 2A 2B 2B             		  lhld packName_1
1211 0790 19                   		  dad d
1212 0791 22 2B 2B             		  shld packName_1
1214 0794 3E 03                		  mvi a, 3
1215 0796 32 2F 2B             		  sta packName_i
1217 0799 4A                   		  mov c, d
1219 079A C3 B3 07             		  jmp l80
1220 079D                      		l82:
1222 079D 3A 2F 2B             		  lda packName_i
1223 07A0 B7                   		  ora a
1224 07A1 CA B3 07             		  jz l83
1226 07A4 2A 2B 2B             		  lhld packName_1
1227 07A7 70                   		  mov m, b
1229 07A8 2A 2B 2B             		  lhld packName_1
1230 07AB 23                   		  inx h
1231 07AC 22 2B 2B             		  shld packName_1
1233 07AF 21 2F 2B             		  lxi h, packName_i
1234 07B2 35                   		  dcr m
1235 07B3                      		l83:
1236 07B3                      		l80:
1237 07B3 C3 73 07             		  jmp l78
1238 07B6                      		l79:
1239 07B6 C1                   		  pop b
1240 07B7 C9                   		  ret
1242 07B8                      		getFiles:
1243 07B8 CD 38 1A             		  call hideTextCursor
1245 07BB 21 00 00             		  lxi h, 0
1246 07BE 22 1F 28             		  shld (panelA)+(262)
1248 07C1 22 1D 28             		  shld (panelA)+(260)
1250 07C4 AF                   		  xra a
1251 07C5 32 1B 28             		  sta (panelA)+(258)
1253 07C8 32 1C 28             		  sta (panelA)+(259)
1255 07CB 2A 19 27             		  lhld panelA
1256 07CE 22 30 2B             		  shld getFiles_f
1258 07D1 3A 1B 27             		  lda ((panelA)+(2))+(0)
1259 07D4 B7                   		  ora a
1260 07D5 CA F8 07             		  jz l84
1262 07D8 22 A3 2D             		  shld memcpy_1
1263 07DB 21 2F 2A             		  lxi h, parentDir
1264 07DE 22 A5 2D             		  shld memcpy_2
1265 07E1 21 14 00             		  lxi h, 20
1266 07E4 CD 8E 22             		  call memcpy
1268 07E7 2A 30 2B             		  lhld getFiles_f
1269 07EA 11 14 00             		  lxi d, 20
1270 07ED 19                   		  dad d
1271 07EE 22 30 2B             		  shld getFiles_f
1273 07F1 2A 1F 28             		  lhld (panelA)+(262)
1274 07F4 23                   		  inx h
1275 07F5 22 1F 28             		  shld (panelA)+(262)
1276 07F8                      		l84:
1278 07F8 2A 30 2B             		  lhld getFiles_f
1279 07FB 22 32 2B             		  shld getFiles_st
1281 07FE                      		l85:
1283 07FE 21 1B 27             		  lxi h, (panelA)+(2)
1284 0801 22 A9 2D             		  shld fs_findfirst_1
1285 0804 2A 30 2B             		  lhld getFiles_f
1286 0807 22 AB 2D             		  shld fs_findfirst_2
1288 080A 2A 1F 28             		  lhld (panelA)+(262)
1289 080D EB                   		  xchg
1290 080E 2A 2D 2A             		  lhld maxFiles
1291 0811 7D                   		  mov a, l
1292 0812 93                   		  sub e
1293 0813 6F                   		  mov l, a
1294 0814 7C                   		  mov a, h
1295 0815 9A                   		  sbb d
1296 0816 67                   		  mov h, a
1297 0817 CD B2 22             		  call fs_findfirst
1298 081A 32 36 2B             		  sta getFiles_i
1300 081D FE 0A                		  cpi 10
1301 081F C2 26 08             		  jnz l88
1303 0822 AF                   		  xra a
1304 0823 32 36 2B             		  sta getFiles_i
1305 0826                      		l88:
1307 0826 B7                   		  ora a
1308 0827 CA 39 08             		  jz l86
1309 082A 3A 1B 27             		  lda ((panelA)+(2))+(0)
1310 082D B7                   		  ora a
1311 082E C2 32 08             		  jnz l90
1313 0831 C9                   		  ret
1314 0832                      		l90:
1316 0832 AF                   		  xra a
1317 0833 32 1B 27             		  sta ((panelA)+(2))+(0)
1318 0836                      		l87:
1319 0836 C3 FE 07             		  jmp l85
1320 0839                      		l86:
1322 0839 2A D8 2D             		  lhld fs_low
1324 083C 54                   		  mov d, h
1325 083D 5D                   		  mov e, l
1326 083E 29                   		  dad h
1327 083F 29                   		  dad h
1328 0840 19                   		  dad d
1329 0841 29                   		  dad h
1330 0842 29                   		  dad h
1332 0843 EB                   		  xchg
1333 0844 2A 30 2B             		  lhld getFiles_f
1334 0847 19                   		  dad d
1335 0848 22 30 2B             		  shld getFiles_f
1337 084B 2A D8 2D             		  lhld fs_low
1338 084E EB                   		  xchg
1339 084F 2A 1F 28             		  lhld (panelA)+(262)
1340 0852 19                   		  dad d
1341 0853 22 1F 28             		  shld (panelA)+(262)
1343 0856 22 37 2B             		  shld getFiles_j
1344 0859 2A 19 27             		  lhld panelA
1345 085C 22 30 2B             		  shld getFiles_f
1346 085F                      		l91:
1348 085F 2A 37 2B             		  lhld getFiles_j
1349 0862 7D                   		  mov a, l
1350 0863 B4                   		  ora h
1351 0864 CA BC 08             		  jz l92
1353 0867 2A 30 2B             		  lhld getFiles_f
1354 086A 11 0B 00             		  lxi d, 11
1355 086D 19                   		  dad d
1356 086E 7E                   		  mov a, m
1357 086F E6 7F                		  ani 127
1358 0871 77                   		  mov m, a
1360 0872 2A 30 2B             		  lhld getFiles_f
1361 0875 22 34 2B             		  shld getFiles_n
1363 0878 3E 0C                		  mvi a, 12
1364 087A 32 36 2B             		  sta getFiles_i
1365 087D                      		l94:
1367 087D 3A 36 2B             		  lda getFiles_i
1368 0880 B7                   		  ora a
1369 0881 CA A8 08             		  jz l95
1371 0884 7E                   		  mov a, m
1372 0885 FE 61                		  cpi 97
1373 0887 DA 9A 08             		  jc l97
1374 088A 7E                   		  mov a, m
1375 088B FE 7A                		  cpi 122
1376 088D CA 93 08             		  jz l98
1377 0890 D2 9A 08             		  jnc l97
1378 0893                      		l98:
1380 0893 2A 34 2B             		  lhld getFiles_n
1381 0896 7E                   		  mov a, m
1382 0897 D6 20                		  sui 32
1383 0899 77                   		  mov m, a
1384 089A                      		l97:
1385 089A                      		l96:
1386 089A 21 36 2B             		  lxi h, getFiles_i
1387 089D 35                   		  dcr m
1388 089E 2A 34 2B             		  lhld getFiles_n
1389 08A1 23                   		  inx h
1390 08A2 22 34 2B             		  shld getFiles_n
1391 08A5 C3 7D 08             		  jmp l94
1392 08A8                      		l95:
1393 08A8                      		l93:
1394 08A8 2A 37 2B             		  lhld getFiles_j
1395 08AB 2B                   		  dcx h
1396 08AC 22 37 2B             		  shld getFiles_j
1397 08AF 2A 30 2B             		  lhld getFiles_f
1398 08B2 11 14 00             		  lxi d, 20
1399 08B5 19                   		  dad d
1400 08B6 22 30 2B             		  shld getFiles_f
1401 08B9 C3 5F 08             		  jmp l91
1402 08BC                      		l92:
1404 08BC 2A 1F 28             		  lhld (panelA)+(262)
1405 08BF 2B                   		  dcx h
1406 08C0 2B                   		  dcx h
1407 08C1 CA C7 08             		  jz l100
1408 08C4 D2 E0 08             		  jnc l99
1409 08C7                      		l100:
1411 08C7 2A 32 2B             		  lhld getFiles_st
1412 08CA 22 9E 2A             		  shld sort_1
1414 08CD 2A 1F 28             		  lhld (panelA)+(262)
1415 08D0 2B                   		  dcx h
1417 08D1 54                   		  mov d, h
1418 08D2 5D                   		  mov e, l
1419 08D3 29                   		  dad h
1420 08D4 29                   		  dad h
1421 08D5 19                   		  dad d
1422 08D6 29                   		  dad h
1423 08D7 29                   		  dad h
1425 08D8 EB                   		  xchg
1426 08D9 2A 19 27             		  lhld panelA
1427 08DC 19                   		  dad d
1428 08DD CD C9 05             		  call sort
1429 08E0                      		l99:
1430 08E0 C9                   		  ret
1432 08E1                      		selectFile:
1433 08E1 C5                   		  push b
1434 08E2 22 4D 2B             		  shld selectFile_1
1436 08E5 01 00 00             		  lxi b, 0
1437 08E8 2A 19 27             		  lhld panelA
1438 08EB 22 4F 2B             		  shld selectFile_f
1439 08EE                      		l101:
1440 08EE 2A 1F 28             		  lhld (panelA)+(262)
1441 08F1 50                   		  mov d, b
1442 08F2 59                   		  mov e, c
1443 08F3 CD FE 20             		  call op_cmp16
1444 08F6 DA 5A 09             		  jc l102
1445 08F9 CA 5A 09             		  jz l102
1447 08FC 2A 4F 2B             		  lhld selectFile_f
1448 08FF 22 96 2D             		  shld memcmp_1
1449 0902 2A 4D 2B             		  lhld selectFile_1
1450 0905 22 98 2D             		  shld memcmp_2
1451 0908 21 0B 00             		  lxi h, 11
1452 090B CD 14 22             		  call memcmp
1453 090E B7                   		  ora a
1454 090F C2 4C 09             		  jnz l104
1456 0912 21 D4 FF             		  lxi h, 65492
1457 0915 09                   		  dad b
1458 0916 D2 37 09             		  jnc l105
1460 0919 21 EA FF             		  lxi h, 65514
1461 091C 09                   		  dad b
1462 091D 11 16 00             		  lxi d, 22
1463 0920 E5                   		  push h
1464 0921 60                   		  mov h, b
1465 0922 69                   		  mov l, c
1466 0923 CD D9 22             		  call op_mod16
1468 0926 EB                   		  xchg
1469 0927 E1                   		  pop h
1470 0928 7D                   		  mov a, l
1471 0929 93                   		  sub e
1472 092A 6F                   		  mov l, a
1473 092B 7C                   		  mov a, h
1474 092C 9A                   		  sbb d
1475 092D 67                   		  mov h, a
1476 092E 22 1D 28             		  shld (panelA)+(260)
1478 0931 79                   		  mov a, c
1479 0932 95                   		  sub l
1480 0933 4F                   		  mov c, a
1481 0934 7C                   		  mov a, h
1482 0935 9C                   		  sbb h
1483 0936 47                   		  mov b, a
1484 0937                      		l105:
1486 0937 11 16 00             		  lxi d, 22
1487 093A 60                   		  mov h, b
1488 093B 69                   		  mov l, c
1489 093C CD 39 22             		  call op_div16
1490 093F 7D                   		  mov a, l
1491 0940 32 1B 28             		  sta (panelA)+(258)
1493 0943 3A 9C 2D             		  lda op_div16_mod
1494 0946 32 1C 28             		  sta (panelA)+(259)
1496 0949 C3 5A 09             		  jmp l102
1497 094C                      		l104:
1498 094C                      		l103:
1499 094C 03                   		  inx b
1500 094D 2A 4F 2B             		  lhld selectFile_f
1501 0950 11 14 00             		  lxi d, 20
1502 0953 19                   		  dad d
1503 0954 22 4F 2B             		  shld selectFile_f
1504 0957 C3 EE 08             		  jmp l101
1505 095A                      		l102:
1506 095A C1                   		  pop b
1507 095B C9                   		  ret
1509 095C                      		reloadFiles:
1510 095C 22 51 2B             		  shld reloadFiles_1
1512 095F 3E 01                		  mvi a, 1
1513 0961 CD 9C 1C             		  call drawPanelTitle
1515 0964 CD 9F 1E             		  call drawCmdLineWithPath
1517 0967 CD B8 07             		  call getFiles
1519 096A 3E 01                		  mvi a, 1
1520 096C CD 9C 1C             		  call drawPanelTitle
1522 096F CD 9F 1E             		  call drawCmdLineWithPath
1524 0972 2A 51 2B             		  lhld reloadFiles_1
1525 0975 7D                   		  mov a, l
1526 0976 B4                   		  ora h
1527 0977 CA 7D 09             		  jz l106
1529 097A CD E1 08             		  call selectFile
1530 097D                      		l106:
1532 097D CD CA 01             		  call drawFilesCount
1534 0980 CD 00 00             		  call drawFiles
1536 0983 CD C4 01             		  call showFileCursorAndDrawFileInfo
1538 0986 C3 D3 1F             		  jmp drawCmdLine
1539 0989                      		absolutePath:
1540 0989 22 53 2B             		  shld absolutePath_1
1542 098C 7E                   		  mov a, m
1543 098D FE 2F                		  cpi 47
1544 098F C2 9F 09             		  jnz l107
1546 0992 22 AF 2D             		  shld strcpy_1
1548 0995 2A 53 2B             		  lhld absolutePath_1
1549 0998 23                   		  inx h
1550 0999 CD E0 22             		  call strcpy
1552 099C 3E 01                		  mvi a, 1
1553 099E C9                   		  ret
1554 099F                      		l107:
1556 099F 21 1B 27             		  lxi h, (panelA)+(2)
1557 09A2 CD 05 22             		  call strlen
1558 09A5 22 55 2B             		  shld absolutePath_l
1560 09A8 7D                   		  mov a, l
1561 09A9 B4                   		  ora h
1562 09AA CA B4 09             		  jz l108
1564 09AD 54                   		  mov d, h
1565 09AE 5D                   		  mov e, l
1566 09AF 23                   		  inx h
1567 09B0 22 55 2B             		  shld absolutePath_l
1568 09B3 EB                   		  xchg
1569 09B4                      		l108:
1571 09B4 2A 53 2B             		  lhld absolutePath_1
1572 09B7 CD 05 22             		  call strlen
1574 09BA EB                   		  xchg
1575 09BB 2A 55 2B             		  lhld absolutePath_l
1576 09BE 19                   		  dad d
1578 09BF 11 01 FF             		  lxi d, 65281
1579 09C2 19                   		  dad d
1580 09C3 D2 C8 09             		  jnc l109
1582 09C6 AF                   		  xra a
1583 09C7 C9                   		  ret
1584 09C8                      		l109:
1586 09C8 2A 53 2B             		  lhld absolutePath_1
1587 09CB EB                   		  xchg
1588 09CC 2A 55 2B             		  lhld absolutePath_l
1589 09CF 19                   		  dad d
1590 09D0 22 B3 2D             		  shld memcpy_back_1
1591 09D3 2A 53 2B             		  lhld absolutePath_1
1592 09D6 22 B5 2D             		  shld memcpy_back_2
1593 09D9 2A 53 2B             		  lhld absolutePath_1
1594 09DC CD 05 22             		  call strlen
1596 09DF 23                   		  inx h
1597 09E0 CD F1 22             		  call memcpy_back
1599 09E3 2A 53 2B             		  lhld absolutePath_1
1600 09E6 22 A3 2D             		  shld memcpy_1
1601 09E9 21 1B 27             		  lxi h, (panelA)+(2)
1602 09EC 22 A5 2D             		  shld memcpy_2
1603 09EF 2A 55 2B             		  lhld absolutePath_l
1604 09F2 CD 8E 22             		  call memcpy
1606 09F5 2A 55 2B             		  lhld absolutePath_l
1607 09F8 7D                   		  mov a, l
1608 09F9 B4                   		  ora h
1609 09FA CA 05 0A             		  jz l110
1611 09FD 2B                   		  dcx h
1613 09FE EB                   		  xchg
1614 09FF 2A 53 2B             		  lhld absolutePath_1
1615 0A02 19                   		  dad d
1616 0A03 36 2F                		  mvi m, 47
1617 0A05                      		l110:
1619 0A05 3E 01                		  mvi a, 1
1620 0A07 C9                   		  ret
1622 0A08                      		getName:
1623 0A08 22 57 2B             		  shld getName_1
1625 0A0B 22 59 2B             		  shld getName_p
1626 0A0E                      		l111:
1628 0A0E 2A 59 2B             		  lhld getName_p
1629 0A11 AF                   		  xra a
1630 0A12 B6                   		  ora m
1631 0A13 CA 2D 0A             		  jz l112
1633 0A16 7E                   		  mov a, m
1634 0A17 FE 2F                		  cpi 47
1635 0A19 C2 20 0A             		  jnz l114
1637 0A1C 23                   		  inx h
1638 0A1D 22 57 2B             		  shld getName_1
1639 0A20                      		l114:
1640 0A20                      		l113:
1641 0A20 2A 59 2B             		  lhld getName_p
1642 0A23 54                   		  mov d, h
1643 0A24 5D                   		  mov e, l
1644 0A25 23                   		  inx h
1645 0A26 22 59 2B             		  shld getName_p
1646 0A29 EB                   		  xchg
1647 0A2A C3 0E 0A             		  jmp l111
1648 0A2D                      		l112:
1650 0A2D 2A 57 2B             		  lhld getName_1
1651 0A30 C9                   		  ret
1653 0A31                      		dropPathInt:
1654 0A31 22 5D 2B             		  shld dropPathInt_2
1656 0A34 2A 5B 2B             		  lhld dropPathInt_1
1657 0A37 CD 08 0A             		  call getName
1658 0A3A 22 5F 2B             		  shld dropPathInt_p
1660 0A3D 2A 5D 2B             		  lhld dropPathInt_2
1661 0A40 7D                   		  mov a, l
1662 0A41 B4                   		  ora h
1663 0A42 CA 4E 0A             		  jz l115
1665 0A45 22 2B 2B             		  shld packName_1
1666 0A48 2A 5F 2B             		  lhld dropPathInt_p
1667 0A4B CD 57 07             		  call packName
1668 0A4E                      		l115:
1670 0A4E 2A 5F 2B             		  lhld dropPathInt_p
1671 0A51 EB                   		  xchg
1672 0A52 2A 5B 2B             		  lhld dropPathInt_1
1673 0A55 CD FE 20             		  call op_cmp16
1674 0A58 CA 62 0A             		  jz l116
1676 0A5B 2A 5F 2B             		  lhld dropPathInt_p
1677 0A5E 2B                   		  dcx h
1678 0A5F 22 5F 2B             		  shld dropPathInt_p
1679 0A62                      		l116:
1681 0A62 2A 5F 2B             		  lhld dropPathInt_p
1682 0A65 36 00                		  mvi m, 0
1683 0A67 C9                   		  ret
1685 0A68                      		dropPath:
1686 0A68 21 1B 27             		  lxi h, (panelA)+(2)
1687 0A6B 22 5B 2B             		  shld dropPathInt_1
1688 0A6E 21 61 2B             		  lxi h, dropPath_buf
1689 0A71 CD 31 0A             		  call dropPathInt
1691 0A74 21 61 2B             		  lxi h, dropPath_buf
1692 0A77 C3 5C 09             		  jmp reloadFiles
1693 0A7A                      		cursor_left:
1694 0A7A 3A 1B 28             		  lda (panelA)+(258)
1695 0A7D B7                   		  ora a
1696 0A7E CA 88 0A             		  jz l117
1698 0A81 21 1B 28             		  lxi h, (panelA)+(258)
1699 0A84 35                   		  dcr m
1700 0A85 C3 C5 0A             		  jmp l118
1701 0A88                      		l117:
1703 0A88 2A 1D 28             		  lhld (panelA)+(260)
1704 0A8B 7D                   		  mov a, l
1705 0A8C B4                   		  ora h
1706 0A8D CA BA 0A             		  jz l119
1708 0A90 11 EA FF             		  lxi d, 65514
1709 0A93 19                   		  dad d
1710 0A94 DA A6 0A             		  jc l120
1711 0A97 CA A6 0A             		  jz l120
1713 0A9A 21 00 00             		  lxi h, 0
1714 0A9D 22 1D 28             		  shld (panelA)+(260)
1716 0AA0 CD 00 00             		  call drawFiles
1717 0AA3 C3 B7 0A             		  jmp l121
1718 0AA6                      		l120:
1720 0AA6 2A 1D 28             		  lhld (panelA)+(260)
1721 0AA9 7D                   		  mov a, l
1722 0AAA D6 16                		  sui 22
1723 0AAC 6F                   		  mov l, a
1724 0AAD 7C                   		  mov a, h
1725 0AAE DE 00                		  sbi 0
1726 0AB0 67                   		  mov h, a
1727 0AB1 22 1D 28             		  shld (panelA)+(260)
1729 0AB4 CD 00 00             		  call drawFiles
1730 0AB7                      		l121:
1731 0AB7 C3 C5 0A             		  jmp l122
1732 0ABA                      		l119:
1734 0ABA 3A 1C 28             		  lda (panelA)+(259)
1735 0ABD B7                   		  ora a
1736 0ABE CA C5 0A             		  jz l123
1738 0AC1 AF                   		  xra a
1739 0AC2 32 1C 28             		  sta (panelA)+(259)
1740 0AC5                      		l123:
1741 0AC5                      		l122:
1742 0AC5                      		l118:
1744 0AC5 C3 C4 01             		  jmp showFileCursorAndDrawFileInfo
1745 0AC8                      		cursor_right:
1746 0AC8 2A 1D 28             		  lhld (panelA)+(260)
1747 0ACB EB                   		  xchg
1748 0ACC 2A 1C 28             		  lhld (panelA)+(259)
1749 0ACF 26 00                		  mvi h, 0
1750 0AD1 19                   		  dad d
1751 0AD2 E5                   		  push h
1752 0AD3 16 16                		  mvi d, 22
1753 0AD5 3A 1B 28             		  lda (panelA)+(258)
1754 0AD8 CD EA 20             		  call op_mul
1756 0ADB D1                   		  pop d
1757 0ADC 19                   		  dad d
1758 0ADD 22 6C 2B             		  shld cursor_right_w
1760 0AE0 11 16 00             		  lxi d, 22
1761 0AE3 19                   		  dad d
1762 0AE4 EB                   		  xchg
1763 0AE5 2A 1F 28             		  lhld (panelA)+(262)
1764 0AE8 CD FE 20             		  call op_cmp16
1765 0AEB CA F1 0A             		  jz l125
1766 0AEE D2 4B 0B             		  jnc l124
1767 0AF1                      		l125:
1769 0AF1 2A 6C 2B             		  lhld cursor_right_w
1770 0AF4 23                   		  inx h
1771 0AF5 EB                   		  xchg
1772 0AF6 2A 1F 28             		  lhld (panelA)+(262)
1773 0AF9 CD FE 20             		  call op_cmp16
1774 0AFC CA 02 0B             		  jz l127
1775 0AFF D2 03 0B             		  jnc l126
1776 0B02                      		l127:
1778 0B02 C9                   		  ret
1779 0B03                      		l126:
1781 0B03 16 16                		  mvi d, 22
1782 0B05 3A 1B 28             		  lda (panelA)+(258)
1783 0B08 CD EA 20             		  call op_mul
1785 0B0B EB                   		  xchg
1786 0B0C 2A 1D 28             		  lhld (panelA)+(260)
1787 0B0F 19                   		  dad d
1789 0B10 23                   		  inx h
1791 0B11 EB                   		  xchg
1792 0B12 2A 1F 28             		  lhld (panelA)+(262)
1793 0B15 7D                   		  mov a, l
1794 0B16 93                   		  sub e
1795 0B17 6F                   		  mov l, a
1796 0B18 7C                   		  mov a, h
1797 0B19 9A                   		  sbb d
1798 0B1A 67                   		  mov h, a
1799 0B1B 7D                   		  mov a, l
1800 0B1C 32 1C 28             		  sta (panelA)+(259)
1802 0B1F FE 15                		  cpi 21
1803 0B21 DA 48 0B             		  jc l128
1804 0B24 CA 48 0B             		  jz l128
1806 0B27 D6 16                		  sui 22
1807 0B29 32 1C 28             		  sta (panelA)+(259)
1809 0B2C 3A 1B 28             		  lda (panelA)+(258)
1810 0B2F FE 01                		  cpi 1
1811 0B31 C2 44 0B             		  jnz l129
1813 0B34 11 16 00             		  lxi d, 22
1814 0B37 2A 1D 28             		  lhld (panelA)+(260)
1815 0B3A 19                   		  dad d
1816 0B3B 22 1D 28             		  shld (panelA)+(260)
1818 0B3E CD 00 00             		  call drawFiles
1819 0B41 C3 48 0B             		  jmp l130
1820 0B44                      		l129:
1822 0B44 21 1B 28             		  lxi h, (panelA)+(258)
1823 0B47 34                   		  inr m
1824 0B48                      		l130:
1825 0B48                      		l128:
1826 0B48 C3 67 0B             		  jmp l131
1827 0B4B                      		l124:
1829 0B4B 3A 1B 28             		  lda (panelA)+(258)
1830 0B4E FE 01                		  cpi 1
1831 0B50 C2 63 0B             		  jnz l132
1833 0B53 11 16 00             		  lxi d, 22
1834 0B56 2A 1D 28             		  lhld (panelA)+(260)
1835 0B59 19                   		  dad d
1836 0B5A 22 1D 28             		  shld (panelA)+(260)
1838 0B5D CD 00 00             		  call drawFiles
1839 0B60 C3 67 0B             		  jmp l133
1840 0B63                      		l132:
1842 0B63 21 1B 28             		  lxi h, (panelA)+(258)
1843 0B66 34                   		  inr m
1844 0B67                      		l133:
1845 0B67                      		l131:
1847 0B67 C3 C4 01             		  jmp showFileCursorAndDrawFileInfo
1848 0B6A                      		cursor_up:
1849 0B6A 3A 1C 28             		  lda (panelA)+(259)
1850 0B6D B7                   		  ora a
1851 0B6E CA 78 0B             		  jz l134
1853 0B71 21 1C 28             		  lxi h, (panelA)+(259)
1854 0B74 35                   		  dcr m
1855 0B75 C3 9A 0B             		  jmp l135
1856 0B78                      		l134:
1858 0B78 3A 1B 28             		  lda (panelA)+(258)
1859 0B7B B7                   		  ora a
1860 0B7C CA 8B 0B             		  jz l136
1862 0B7F 21 1B 28             		  lxi h, (panelA)+(258)
1863 0B82 35                   		  dcr m
1865 0B83 3E 15                		  mvi a, 21
1866 0B85 32 1C 28             		  sta (panelA)+(259)
1867 0B88 C3 9A 0B             		  jmp l137
1868 0B8B                      		l136:
1870 0B8B 2A 1D 28             		  lhld (panelA)+(260)
1871 0B8E 7D                   		  mov a, l
1872 0B8F B4                   		  ora h
1873 0B90 CA 9A 0B             		  jz l138
1875 0B93 2B                   		  dcx h
1876 0B94 22 1D 28             		  shld (panelA)+(260)
1878 0B97 CD 00 00             		  call drawFiles
1879 0B9A                      		l138:
1880 0B9A                      		l137:
1881 0B9A                      		l135:
1883 0B9A C3 C4 01             		  jmp showFileCursorAndDrawFileInfo
1884 0B9D                      		cursor_down:
1885 0B9D 16 16                		  mvi d, 22
1886 0B9F 3A 1B 28             		  lda (panelA)+(258)
1887 0BA2 CD EA 20             		  call op_mul
1889 0BA5 EB                   		  xchg
1890 0BA6 2A 1D 28             		  lhld (panelA)+(260)
1891 0BA9 19                   		  dad d
1893 0BAA EB                   		  xchg
1894 0BAB 2A 1C 28             		  lhld (panelA)+(259)
1895 0BAE 26 00                		  mvi h, 0
1896 0BB0 19                   		  dad d
1898 0BB1 23                   		  inx h
1899 0BB2 EB                   		  xchg
1900 0BB3 2A 1F 28             		  lhld (panelA)+(262)
1901 0BB6 CD FE 20             		  call op_cmp16
1902 0BB9 CA BF 0B             		  jz l140
1903 0BBC D2 C0 0B             		  jnc l139
1904 0BBF                      		l140:
1906 0BBF C9                   		  ret
1907 0BC0                      		l139:
1909 0BC0 3A 1C 28             		  lda (panelA)+(259)
1910 0BC3 FE 15                		  cpi 21
1911 0BC5 D2 CF 0B             		  jnc l141
1913 0BC8 21 1C 28             		  lxi h, (panelA)+(259)
1914 0BCB 34                   		  inr m
1915 0BCC C3 EB 0B             		  jmp l142
1916 0BCF                      		l141:
1918 0BCF 3A 1B 28             		  lda (panelA)+(258)
1919 0BD2 B7                   		  ora a
1920 0BD3 C2 E1 0B             		  jnz l143
1922 0BD6 AF                   		  xra a
1923 0BD7 32 1C 28             		  sta (panelA)+(259)
1925 0BDA 21 1B 28             		  lxi h, (panelA)+(258)
1926 0BDD 34                   		  inr m
1927 0BDE C3 EB 0B             		  jmp l144
1928 0BE1                      		l143:
1930 0BE1 2A 1D 28             		  lhld (panelA)+(260)
1931 0BE4 23                   		  inx h
1932 0BE5 22 1D 28             		  shld (panelA)+(260)
1934 0BE8 CD 00 00             		  call drawFiles
1935 0BEB                      		l144:
1936 0BEB                      		l142:
1938 0BEB C3 C4 01             		  jmp showFileCursorAndDrawFileInfo
1939 0BEE                      		cmd_tab:
1940 0BEE CD 4A 1A             		  call hideFileCursor
1942 0BF1 AF                   		  xra a
1943 0BF2 CD 9C 1C             		  call drawPanelTitle
1945 0BF5 CD 0C 00             		  call swapPanels
1947 0BF8 CD 62 1A             		  call showFileCursor
1949 0BFB 3E 01                		  mvi a, 1
1950 0BFD CD 9C 1C             		  call drawPanelTitle
1952 0C00 C3 9F 1E             		  jmp drawCmdLineWithPath
1953 0C03                      		runCmdLine:
1954 0C03 C5                   		  push b
1956 0C04 21 2D 29             		  lxi h, cmdline
1957 0C07 CD 89 09             		  call absolutePath
1959 0C0A B7                   		  ora a
1960 0C0B C2 10 0C             		  jnz l145
1962 0C0E C1                   		  pop b
1963 0C0F C9                   		  ret
1964 0C10                      		l145:
1966 0C10 21 2D 29             		  lxi h, cmdline
1967 0C13 22 B9 2D             		  shld strchr_1
1968 0C16 3E 20                		  mvi a, 32
1969 0C18 CD 17 23             		  call strchr
1970 0C1B 44                   		  mov b, h
1971 0C1C 4D                   		  mov c, l
1973 0C1D 7D                   		  mov a, l
1974 0C1E B4                   		  ora h
1975 0C1F CA 28 0C             		  jz l146
1977 0C22 AF                   		  xra a
1978 0C23 02                   		  stax b
1980 0C24 03                   		  inx b
1981 0C25 C3 2B 0C             		  jmp l147
1982 0C28                      		l146:
1984 0C28 01 2F 2E             		  lxi b, string13
1985 0C2B                      		l147:
1987 0C2B 21 2D 29             		  lxi h, cmdline
1988 0C2E 22 71 2B             		  shld run_1
1989 0C31 60                   		  mov h, b
1990 0C32 69                   		  mov l, c
1991 0C33 CD 46 0D             		  call run
1992 0C36 C1                   		  pop b
1993 0C37 C9                   		  ret
1995 0C38                      		dupFiles:
1996 0C38 32 6E 2B             		  sta dupFiles_1
1998 0C3B CD 0C 00             		  call swapPanels
2000 0C3E 21 1B 27             		  lxi h, (panelA)+(2)
2001 0C41 22 BC 2D             		  shld strcmp_1
2002 0C44 21 25 28             		  lxi h, (panelB)+(2)
2003 0C47 CD 29 23             		  call strcmp
2004 0C4A B7                   		  ora a
2005 0C4B C2 6F 0C             		  jnz l148
2007 0C4E 2A 19 27             		  lhld panelA
2008 0C51 22 A3 2D             		  shld memcpy_1
2009 0C54 2A 23 28             		  lhld panelB
2010 0C57 22 A5 2D             		  shld memcpy_2
2011 0C5A 2A 2D 2A             		  lhld maxFiles
2012 0C5D 11 14 00             		  lxi d, 20
2013 0C60 CD 6D 23             		  call op_mul16
2014 0C63 CD 8E 22             		  call memcpy
2016 0C66 2A 29 29             		  lhld (panelB)+(262)
2017 0C69 22 1F 28             		  shld (panelA)+(262)
2018 0C6C C3 76 0C             		  jmp l149
2019 0C6F                      		l148:
2021 0C6F 3A 6E 2B             		  lda dupFiles_1
2022 0C72 B7                   		  ora a
2023 0C73 C4 B8 07             		  cnz getFiles
2024 0C76                      		l149:
2026 0C76 CD 21 00             		  call getSel
2028 0C79 C3 0C 00             		  jmp swapPanels
2029 0C7C                      		loadState:
2030 0C7C 2A D5 2D             		  lhld fs_selfName
2031 0C7F CD 05 22             		  call strlen
2032 0C82 22 6F 2B             		  shld loadState_i
2034 0C85 11 FB FF             		  lxi d, 65531
2035 0C88 19                   		  dad d
2036 0C89 DA 8D 0C             		  jc l151
2038 0C8C C9                   		  ret
2039 0C8D                      		l151:
2041 0C8D 2A 6F 2B             		  lhld loadState_i
2042 0C90 7D                   		  mov a, l
2043 0C91 D6 03                		  sui 3
2044 0C93 6F                   		  mov l, a
2045 0C94 7C                   		  mov a, h
2046 0C95 DE 00                		  sbi 0
2047 0C97 67                   		  mov h, a
2048 0C98 22 6F 2B             		  shld loadState_i
2050 0C9B 2A D5 2D             		  lhld fs_selfName
2051 0C9E EB                   		  xchg
2052 0C9F 2A 6F 2B             		  lhld loadState_i
2053 0CA2 19                   		  dad d
2054 0CA3 22 BC 2D             		  shld strcmp_1
2055 0CA6 21 F8 2E             		  lxi h, string14
2056 0CA9 CD 29 23             		  call strcmp
2057 0CAC B7                   		  ora a
2058 0CAD CA B1 0C             		  jz l152
2060 0CB0 C9                   		  ret
2061 0CB1                      		l152:
2063 0CB1 2A D5 2D             		  lhld fs_selfName
2064 0CB4 EB                   		  xchg
2065 0CB5 2A 6F 2B             		  lhld loadState_i
2066 0CB8 19                   		  dad d
2067 0CB9 22 AF 2D             		  shld strcpy_1
2068 0CBC 21 F4 2E             		  lxi h, string15
2069 0CBF CD E0 22             		  call strcpy
2071 0CC2 2A D5 2D             		  lhld fs_selfName
2072 0CC5 CD 91 23             		  call fs_open
2074 0CC8 B7                   		  ora a
2075 0CC9 CA CD 0C             		  jz l153
2077 0CCC C9                   		  ret
2078 0CCD                      		l153:
2080 0CCD 21 2D 29             		  lxi h, cmdline
2081 0CD0 22 C4 2D             		  shld fs_read_1
2082 0CD3 21 0C 00             		  lxi h, 12
2083 0CD6 CD 9C 23             		  call fs_read
2085 0CD9 3A 38 29             		  lda (cmdline)+(11)
2086 0CDC B7                   		  ora a
2087 0CDD C4 0C 00             		  cnz swapPanels
2088 0CE0 21 1B 27             		  lxi h, (panelA)+(2)
2089 0CE3 22 C4 2D             		  shld fs_read_1
2090 0CE6 21 00 01             		  lxi h, 256
2091 0CE9 CD 9C 23             		  call fs_read
2093 0CEC AF                   		  xra a
2094 0CED 32 1A 28             		  sta ((panelA)+(2))+(255)
2096 0CF0 21 25 28             		  lxi h, (panelB)+(2)
2097 0CF3 22 C4 2D             		  shld fs_read_1
2098 0CF6 21 00 01             		  lxi h, 256
2099 0CF9 CD 9C 23             		  call fs_read
2101 0CFC AF                   		  xra a
2102 0CFD 32 24 29             		  sta ((panelB)+(2))+(255)
2103 0D00 C9                   		  ret
2105 0D01                      		saveState:
2106 0D01 2A D5 2D             		  lhld fs_selfName
2107 0D04 CD AF 23             		  call fs_create
2109 0D07 B7                   		  ora a
2110 0D08 CA 16 0D             		  jz l155
2111 0D0B 2A D5 2D             		  lhld fs_selfName
2112 0D0E CD 91 23             		  call fs_open
2114 0D11 B7                   		  ora a
2115 0D12 CA 16 0D             		  jz l155
2117 0D15 C9                   		  ret
2118 0D16                      		l155:
2120 0D16 CD 21 00             		  call getSel
2121 0D19 22 CA 2D             		  shld fs_write_1
2122 0D1C 21 0B 00             		  lxi h, 11
2123 0D1F CD BB 23             		  call fs_write
2125 0D22 21 27 2D             		  lxi h, activePanel
2126 0D25 22 CA 2D             		  shld fs_write_1
2127 0D28 21 01 00             		  lxi h, 1
2128 0D2B CD BB 23             		  call fs_write
2130 0D2E 21 1B 27             		  lxi h, (panelA)+(2)
2131 0D31 22 CA 2D             		  shld fs_write_1
2132 0D34 21 00 01             		  lxi h, 256
2133 0D37 CD BB 23             		  call fs_write
2135 0D3A 21 25 28             		  lxi h, (panelB)+(2)
2136 0D3D 22 CA 2D             		  shld fs_write_1
2137 0D40 21 00 01             		  lxi h, 256
2138 0D43 C3 BB 23             		  jmp fs_write
2139 0D46                      		run:
2140 0D46 22 73 2B             		  shld run_2
2142 0D49 CD 01 0D             		  call saveState
2144 0D4C 2A 71 2B             		  lhld run_1
2145 0D4F 22 66 2A             		  shld drawError_1
2146 0D52 2A 71 2B             		  lhld run_1
2147 0D55 22 CE 2D             		  shld fs_exec_1
2148 0D58 2A 73 2B             		  lhld run_2
2149 0D5B CD CE 23             		  call fs_exec
2150 0D5E CD 98 02             		  call drawError
2152 0D61 C3 43 02             		  jmp drawScreen
2153 0D64                      		cmd_editview:
2154 0D64 22 75 2B             		  shld cmd_editview_1
2156 0D67 CD 21 00             		  call getSel
2157 0D6A 22 77 2B             		  shld cmd_editview_f
2159 0D6D 11 0B 00             		  lxi d, 11
2160 0D70 19                   		  dad d
2161 0D71 7E                   		  mov a, m
2162 0D72 E6 10                		  ani 16
2164 0D74 CA 78 0D             		  jz l156
2166 0D77 C9                   		  ret
2167 0D78                      		l156:
2169 0D78 21 2D 29             		  lxi h, cmdline
2170 0D7B 22 73 2A             		  shld unpackName_1
2171 0D7E 2A 77 2B             		  lhld cmd_editview_f
2172 0D81 CD 32 04             		  call unpackName
2174 0D84 21 2D 29             		  lxi h, cmdline
2175 0D87 CD 89 09             		  call absolutePath
2177 0D8A B7                   		  ora a
2178 0D8B C2 91 0D             		  jnz l157
2180 0D8E C3 43 02             		  jmp drawScreen
2182 0D91                      		l157:
2184 0D91 2A 75 2B             		  lhld cmd_editview_1
2185 0D94 22 71 2B             		  shld run_1
2186 0D97 21 2D 29             		  lxi h, cmdline
2187 0D9A C3 46 0D             		  jmp run
2188 0D9D                      		cmd_enter:
2189 0D9D 3A 2D 29             		  lda (cmdline)+(0)
2190 0DA0 B7                   		  ora a
2191 0DA1 CA A7 0D             		  jz l158
2193 0DA4 C3 03 0C             		  jmp runCmdLine
2195 0DA7                      		l158:
2197 0DA7 CD 73 00             		  call getSelNoBack
2198 0DAA 22 7C 2B             		  shld cmd_enter_f
2200 0DAD 7D                   		  mov a, l
2201 0DAE B4                   		  ora h
2202 0DAF C2 B5 0D             		  jnz l159
2204 0DB2 C3 68 0A             		  jmp dropPath
2206 0DB5                      		l159:
2208 0DB5 21 2D 29             		  lxi h, cmdline
2209 0DB8 22 73 2A             		  shld unpackName_1
2210 0DBB 2A 7C 2B             		  lhld cmd_enter_f
2211 0DBE CD 32 04             		  call unpackName
2213 0DC1 21 2D 29             		  lxi h, cmdline
2214 0DC4 CD 89 09             		  call absolutePath
2216 0DC7 B7                   		  ora a
2217 0DC8 C2 CE 0D             		  jnz l160
2219 0DCB C3 43 02             		  jmp drawScreen
2221 0DCE                      		l160:
2223 0DCE 2A 7C 2B             		  lhld cmd_enter_f
2224 0DD1 11 0B 00             		  lxi d, 11
2225 0DD4 19                   		  dad d
2226 0DD5 7E                   		  mov a, m
2227 0DD6 E6 10                		  ani 16
2228 0DD8 CA F1 0D             		  jz l161
2230 0DDB 21 1B 27             		  lxi h, (panelA)+(2)
2231 0DDE 22 AF 2D             		  shld strcpy_1
2232 0DE1 21 2D 29             		  lxi h, cmdline
2233 0DE4 CD E0 22             		  call strcpy
2235 0DE7 AF                   		  xra a
2236 0DE8 32 2D 29             		  sta (cmdline)+(0)
2238 0DEB 21 00 00             		  lxi h, 0
2239 0DEE C3 5C 09             		  jmp reloadFiles
2241 0DF1                      		l161:
2243 0DF1 21 2D 29             		  lxi h, cmdline
2244 0DF4 22 71 2B             		  shld run_1
2245 0DF7 21 2F 2E             		  lxi h, string13
2246 0DFA C3 46 0D             		  jmp run
2247 0DFD                      		cmd_esc:
2248 0DFD 3A 2D 29             		  lda (cmdline)+(0)
2249 0E00 B7                   		  ora a
2250 0E01 CA 0B 0E             		  jz l162
2252 0E04 AF                   		  xra a
2253 0E05 32 2D 29             		  sta (cmdline)+(0)
2255 0E08 C3 D3 1F             		  jmp drawCmdLine
2257 0E0B                      		l162:
2259 0E0B C3 68 0A             		  jmp dropPath
2260 0E0E                      		cmd_inverseOne:
2261 0E0E CD 73 00             		  call getSelNoBack
2262 0E11 22 82 2B             		  shld cmd_inverseOne_f
2264 0E14 7D                   		  mov a, l
2265 0E15 B4                   		  ora h
2266 0E16 C2 1A 0E             		  jnz l163
2268 0E19 C9                   		  ret
2269 0E1A                      		l163:
2271 0E1A 11 0B 00             		  lxi d, 11
2272 0E1D 19                   		  dad d
2273 0E1E 7E                   		  mov a, m
2274 0E1F EE 80                		  xri 128
2275 0E21 77                   		  mov m, a
2277 0E22 3A 1B 28             		  lda (panelA)+(258)
2278 0E25 32 54 2D             		  sta drawFile_1
2279 0E28 3A 1C 28             		  lda (panelA)+(259)
2280 0E2B 32 55 2D             		  sta drawFile_2
2281 0E2E 2A 82 2B             		  lhld cmd_inverseOne_f
2282 0E31 CD 3F 1E             		  call drawFile
2284 0E34 C3 9D 0B             		  jmp cursor_down
2285 0E37                      		cmd_inverseAll:
2286 0E37 2A 19 27             		  lhld panelA
2287 0E3A 22 84 2B             		  shld cmd_inverseAll_f
2288 0E3D 2A 1F 28             		  lhld (panelA)+(262)
2289 0E40 22 86 2B             		  shld cmd_inverseAll_i
2290 0E43                      		l164:
2292 0E43 2A 86 2B             		  lhld cmd_inverseAll_i
2293 0E46 7D                   		  mov a, l
2294 0E47 B4                   		  ora h
2295 0E48 CA 85 0E             		  jz l165
2297 0E4B 2A 84 2B             		  lhld cmd_inverseAll_f
2298 0E4E 11 0B 00             		  lxi d, 11
2299 0E51 19                   		  dad d
2300 0E52 7E                   		  mov a, m
2301 0E53 E6 10                		  ani 16
2303 0E55 CA 66 0E             		  jz l167
2305 0E58 2A 84 2B             		  lhld cmd_inverseAll_f
2306 0E5B 11 0B 00             		  lxi d, 11
2307 0E5E 19                   		  dad d
2308 0E5F 7E                   		  mov a, m
2309 0E60 E6 7F                		  ani 127
2310 0E62 77                   		  mov m, a
2311 0E63 C3 71 0E             		  jmp l168
2312 0E66                      		l167:
2314 0E66 2A 84 2B             		  lhld cmd_inverseAll_f
2315 0E69 11 0B 00             		  lxi d, 11
2316 0E6C 19                   		  dad d
2317 0E6D 7E                   		  mov a, m
2318 0E6E EE 80                		  xri 128
2319 0E70 77                   		  mov m, a
2320 0E71                      		l168:
2321 0E71                      		l166:
2322 0E71 2A 86 2B             		  lhld cmd_inverseAll_i
2323 0E74 2B                   		  dcx h
2324 0E75 22 86 2B             		  shld cmd_inverseAll_i
2325 0E78 2A 84 2B             		  lhld cmd_inverseAll_f
2326 0E7B 11 14 00             		  lxi d, 20
2327 0E7E 19                   		  dad d
2328 0E7F 22 84 2B             		  shld cmd_inverseAll_f
2329 0E82 C3 43 0E             		  jmp l164
2330 0E85                      		l165:
2332 0E85 CD 00 00             		  call drawFiles
2334 0E88 C3 62 1A             		  jmp showFileCursor
2335 0E8B                      		main:
2336 0E8B C5                   		  push b
2338 0E8C CD DC 23             		  call fs_init
2340 0E8F CD F8 19             		  call drawInit
2342 0E92 21 00 34             		  lxi h, 13312
2343 0E95 22 19 27             		  shld panelA
2345 0E98 2A 2D 2A             		  lhld maxFiles
2347 0E9B 54                   		  mov d, h
2348 0E9C 5D                   		  mov e, l
2349 0E9D 29                   		  dad h
2350 0E9E 29                   		  dad h
2351 0E9F 19                   		  dad d
2352 0EA0 29                   		  dad h
2353 0EA1 29                   		  dad h
2355 0EA2 11 00 34             		  lxi d, 13312
2356 0EA5 19                   		  dad d
2357 0EA6 22 23 28             		  shld panelB
2359 0EA9 AF                   		  xra a
2360 0EAA 32 1B 27             		  sta ((panelA)+(2))+(0)
2362 0EAD 32 25 28             		  sta ((panelB)+(2))+(0)
2364 0EB0 32 2D 29             		  sta (cmdline)+(0)
2366 0EB3 CD 50 1C             		  call drawScreenInt
2368 0EB6 CD 9F 1E             		  call drawCmdLineWithPath
2370 0EB9 CD 7C 0C             		  call loadState
2372 0EBC CD B8 07             		  call getFiles
2374 0EBF 3E 01                		  mvi a, 1
2375 0EC1 CD 38 0C             		  call dupFiles
2377 0EC4 21 2D 29             		  lxi h, cmdline
2378 0EC7 CD E1 08             		  call selectFile
2380 0ECA AF                   		  xra a
2381 0ECB 32 2D 29             		  sta (cmdline)+(0)
2383 0ECE 3C                   		  inr a
2384 0ECF CD 9C 1C             		  call drawPanelTitle
2386 0ED2 CD 0C 00             		  call swapPanels
2388 0ED5 AF                   		  xra a
2389 0ED6 CD 9C 1C             		  call drawPanelTitle
2391 0ED9 CD 0C 00             		  call swapPanels
2393 0EDC CD 2B 02             		  call drawFiles2
2395 0EDF CD 9F 1E             		  call drawCmdLineWithPath
2397 0EE2                      		l169:
2399 0EE2 CD C0 20             		  call getch1
2400 0EE5 47                   		  mov b, a
2402 0EE6 78                   		  mov a, b
2403 0EE7 B7                   		  ora a
2404 0EE8 CA 20 0F             		  jz l172
2405 0EEB FE 01                		  cpi 1
2406 0EED CA 26 0F             		  jz l173
2407 0EF0 FE 02                		  cpi 2
2408 0EF2 CA 2D 0F             		  jz l174
2409 0EF5 FE 03                		  cpi 3
2410 0EF7 CA 36 0F             		  jz l175
2411 0EFA FE 0D                		  cpi 13
2412 0EFC CA 3F 0F             		  jz l176
2413 0EFF FE 1B                		  cpi 27
2414 0F01 CA 45 0F             		  jz l177
2415 0F04 FE 08                		  cpi 8
2416 0F06 CA 4B 0F             		  jz l178
2417 0F09 FE 18                		  cpi 24
2418 0F0B CA 51 0F             		  jz l179
2419 0F0E FE 1A                		  cpi 26
2420 0F10 CA 57 0F             		  jz l180
2421 0F13 FE 19                		  cpi 25
2422 0F15 CA 5D 0F             		  jz l181
2423 0F18 FE 09                		  cpi 9
2424 0F1A CA 63 0F             		  jz l182
2425 0F1D C3 69 0F             		  jmp l171
2426 0F20                      		l172:
2428 0F20 CD 23 17             		  call cmd_freespace
2430 0F23 C3 E2 0E             		  jmp l169
2431 0F26                      		l173:
2433 0F26 AF                   		  xra a
2434 0F27 CD 84 16             		  call cmd_new
2436 0F2A C3 E2 0E             		  jmp l169
2437 0F2D                      		l174:
2439 0F2D 21 0C 27             		  lxi h, viewerApp
2440 0F30 CD 64 0D             		  call cmd_editview
2442 0F33 C3 E2 0E             		  jmp l169
2443 0F36                      		l175:
2445 0F36 21 FF 26             		  lxi h, editorApp
2446 0F39 CD 64 0D             		  call cmd_editview
2448 0F3C C3 E2 0E             		  jmp l169
2449 0F3F                      		l176:
2451 0F3F CD 9D 0D             		  call cmd_enter
2453 0F42 C3 E2 0E             		  jmp l169
2454 0F45                      		l177:
2456 0F45 CD FD 0D             		  call cmd_esc
2458 0F48 C3 E2 0E             		  jmp l169
2459 0F4B                      		l178:
2461 0F4B CD 7A 0A             		  call cursor_left
2463 0F4E C3 E2 0E             		  jmp l169
2464 0F51                      		l179:
2466 0F51 CD C8 0A             		  call cursor_right
2468 0F54 C3 E2 0E             		  jmp l169
2469 0F57                      		l180:
2471 0F57 CD 9D 0B             		  call cursor_down
2473 0F5A C3 E2 0E             		  jmp l169
2474 0F5D                      		l181:
2476 0F5D CD 6A 0B             		  call cursor_up
2478 0F60 C3 E2 0E             		  jmp l169
2479 0F63                      		l182:
2481 0F63 CD EE 0B             		  call cmd_tab
2483 0F66 C3 E2 0E             		  jmp l169
2484 0F69                      		l171:
2486 0F69 3A 2D 29             		  lda (cmdline)+(0)
2487 0F6C B7                   		  ora a
2488 0F6D C2 2E 10             		  jnz l183
2490 0F70 78                   		  mov a, b
2491 0F71 FE 31                		  cpi 49
2492 0F73 CA BA 0F             		  jz l185
2493 0F76 FE 32                		  cpi 50
2494 0F78 CA C0 0F             		  jz l186
2495 0F7B FE 33                		  cpi 51
2496 0F7D CA C7 0F             		  jz l187
2497 0F80 FE 34                		  cpi 52
2498 0F82 CA D0 0F             		  jz l188
2499 0F85 FE 25                		  cpi 37
2500 0F87 CA D9 0F             		  jz l189
2501 0F8A FE 35                		  cpi 53
2502 0F8C CA E4 0F             		  jz l190
2503 0F8F FE 26                		  cpi 38
2504 0F91 CA F0 0F             		  jz l191
2505 0F94 FE 36                		  cpi 54
2506 0F96 CA FB 0F             		  jz l192
2507 0F99 FE 37                		  cpi 55
2508 0F9B CA 05 10             		  jz l193
2509 0F9E FE 38                		  cpi 56
2510 0FA0 CA 0D 10             		  jz l194
2511 0FA3 FE 1F                		  cpi 31
2512 0FA5 CA 13 10             		  jz l195
2513 0FA8 FE 3A                		  cpi 58
2514 0FAA CA 19 10             		  jz l196
2515 0FAD FE 3B                		  cpi 59
2516 0FAF CA 1F 10             		  jz l197
2517 0FB2 FE 2D                		  cpi 45
2518 0FB4 CA 27 10             		  jz l198
2519 0FB7 C3 2E 10             		  jmp l184
2520 0FBA                      		l185:
2522 0FBA CD 23 17             		  call cmd_freespace
2524 0FBD C3 E2 0E             		  jmp l169
2525 0FC0                      		l186:
2527 0FC0 AF                   		  xra a
2528 0FC1 CD 84 16             		  call cmd_new
2530 0FC4 C3 E2 0E             		  jmp l169
2531 0FC7                      		l187:
2533 0FC7 21 0C 27             		  lxi h, viewerApp
2534 0FCA CD 64 0D             		  call cmd_editview
2536 0FCD C3 E2 0E             		  jmp l169
2537 0FD0                      		l188:
2539 0FD0 21 FF 26             		  lxi h, editorApp
2540 0FD3 CD 64 0D             		  call cmd_editview
2542 0FD6 C3 E2 0E             		  jmp l169
2543 0FD9                      		l189:
2545 0FD9 3E 01                		  mvi a, 1
2546 0FDB 32 ED 2C             		  sta cmd_copymove_1
2547 0FDE CD D4 15             		  call cmd_copymove
2549 0FE1 C3 E2 0E             		  jmp l169
2550 0FE4                      		l190:
2552 0FE4 3E 01                		  mvi a, 1
2553 0FE6 32 ED 2C             		  sta cmd_copymove_1
2554 0FE9 AF                   		  xra a
2555 0FEA CD D4 15             		  call cmd_copymove
2557 0FED C3 E2 0E             		  jmp l169
2558 0FF0                      		l191:
2560 0FF0 AF                   		  xra a
2561 0FF1 32 ED 2C             		  sta cmd_copymove_1
2562 0FF4 3C                   		  inr a
2563 0FF5 CD D4 15             		  call cmd_copymove
2565 0FF8 C3 E2 0E             		  jmp l169
2566 0FFB                      		l192:
2568 0FFB AF                   		  xra a
2569 0FFC 32 ED 2C             		  sta cmd_copymove_1
2570 0FFF CD D4 15             		  call cmd_copymove
2572 1002 C3 E2 0E             		  jmp l169
2573 1005                      		l193:
2575 1005 3E 01                		  mvi a, 1
2576 1007 CD 84 16             		  call cmd_new
2578 100A C3 E2 0E             		  jmp l169
2579 100D                      		l194:
2581 100D CD 75 18             		  call cmd_delete
2583 1010 C3 E2 0E             		  jmp l169
2584 1013                      		l195:
2586 1013 CD 0E 0E             		  call cmd_inverseOne
2588 1016 C3 E2 0E             		  jmp l169
2589 1019                      		l196:
2591 1019 CD 37 0E             		  call cmd_inverseAll
2593 101C C3 E2 0E             		  jmp l169
2594 101F                      		l197:
2596 101F 3E 01                		  mvi a, 1
2597 1021 CD 5D 19             		  call cmd_sel
2599 1024 C3 E2 0E             		  jmp l169
2600 1027                      		l198:
2602 1027 AF                   		  xra a
2603 1028 CD 5D 19             		  call cmd_sel
2605 102B C3 E2 0E             		  jmp l169
2606 102E                      		l184:
2607 102E                      		l183:
2609 102E 78                   		  mov a, b
2610 102F CD 50 02             		  call processInput
2612 1032 CD D3 1F             		  call drawCmdLine
2613 1035 C3 E2 0E             		  jmp l169
2614 1038                      		l170:
2615 1038 C1                   		  pop b
2616 1039 C9                   		  ret
2618 103A                      		cmd_copyFile:
2619 103A 22 8A 2B             		  shld cmd_copyFile_2
2621 103D AF                   		  xra a
2622 103E 32 9D 2B             		  sta cmd_copyFile_progress_i
2624 1041 2A 88 2B             		  lhld cmd_copyFile_1
2625 1044 CD 91 23             		  call fs_open
2626 1047 32 9C 2B             		  sta cmd_copyFile_e
2628 104A B7                   		  ora a
2629 104B CA 52 10             		  jz l199
2631 104E 3A 9C 2B             		  lda cmd_copyFile_e
2632 1051 C9                   		  ret
2633 1052                      		l199:
2635 1052 CD ED 23             		  call fs_getsize
2636 1055 32 9C 2B             		  sta cmd_copyFile_e
2638 1058 B7                   		  ora a
2639 1059 CA 60 10             		  jz l200
2641 105C 3A 9C 2B             		  lda cmd_copyFile_e
2642 105F C9                   		  ret
2643 1060                      		l200:
2645 1060 21 A6 2B             		  lxi h, cmd_copyFile_progress_step
2646 1063 22 DD 2D             		  shld set32_1
2647 1066 21 D8 2D             		  lxi h, fs_low
2648 1069 CD FC 23             		  call set32
2650 106C 21 A6 2B             		  lxi h, cmd_copyFile_progress_step
2651 106F 22 E1 2D             		  shld div32_16_1
2652 1072 21 28 00             		  lxi h, 40
2653 1075 CD 12 24             		  call div32_16
2655 1078 21 3D 2E             		  lxi h, string16
2656 107B CD 0E 1F             		  call drawWindow
2658 107E AF                   		  xra a
2659 107F 32 62 2D             		  sta drawWindowText_1
2660 1082 32 63 2D             		  sta drawWindowText_2
2661 1085 21 DE 2F             		  lxi h, string17
2662 1088 CD 8A 1F             		  call drawWindowText
2664 108B 3E 04                		  mvi a, 4
2665 108D 32 62 2D             		  sta drawWindowText_1
2666 1090 AF                   		  xra a
2667 1091 32 63 2D             		  sta drawWindowText_2
2668 1094 2A 88 2B             		  lhld cmd_copyFile_1
2669 1097 CD 8A 1F             		  call drawWindowText
2671 109A AF                   		  xra a
2672 109B 32 62 2D             		  sta drawWindowText_1
2673 109E 3C                   		  inr a
2674 109F 32 63 2D             		  sta drawWindowText_2
2675 10A2 21 07 31             		  lxi h, string18
2676 10A5 CD 8A 1F             		  call drawWindowText
2678 10A8 3E 04                		  mvi a, 4
2679 10AA 32 62 2D             		  sta drawWindowText_1
2680 10AD 3E 01                		  mvi a, 1
2681 10AF 32 63 2D             		  sta drawWindowText_2
2682 10B2 2A 8A 2B             		  lhld cmd_copyFile_2
2683 10B5 CD 8A 1F             		  call drawWindowText
2685 10B8 AF                   		  xra a
2686 10B9 32 62 2D             		  sta drawWindowText_1
2687 10BC 3E 02                		  mvi a, 2
2688 10BE 32 63 2D             		  sta drawWindowText_2
2689 10C1 21 D5 30             		  lxi h, string19
2690 10C4 CD 8A 1F             		  call drawWindowText
2692 10C7 AF                   		  xra a
2693 10C8 32 66 2D             		  sta drawWindowProgress_1
2694 10CB 3E 03                		  mvi a, 3
2695 10CD 32 67 2D             		  sta drawWindowProgress_2
2696 10D0 3E 28                		  mvi a, 40
2697 10D2 32 68 2D             		  sta drawWindowProgress_3
2698 10D5 3E 23                		  mvi a, 35
2699 10D7 CD AC 1F             		  call drawWindowProgress
2701 10DA 21 8C 2B             		  lxi h, cmd_copyFile_buf
2702 10DD 22 7E 2D             		  shld i2s32_1
2703 10E0 21 D8 2D             		  lxi h, fs_low
2704 10E3 22 80 2D             		  shld i2s32_2
2705 10E6 21 0A 00             		  lxi h, 10
2706 10E9 22 82 2D             		  shld i2s32_3
2707 10EC 3E 20                		  mvi a, 32
2708 10EE CD 04 21             		  call i2s32
2710 10F1 3E 17                		  mvi a, 23
2711 10F3 32 62 2D             		  sta drawWindowText_1
2712 10F6 3E 02                		  mvi a, 2
2713 10F8 32 63 2D             		  sta drawWindowText_2
2714 10FB 21 8C 2B             		  lxi h, cmd_copyFile_buf
2715 10FE CD 8A 1F             		  call drawWindowText
2717 1101 CD 7A 1F             		  call drawEscButton
2719 1104 CD 70 24             		  call fs_swap
2720 1107 32 9C 2B             		  sta cmd_copyFile_e
2722 110A B7                   		  ora a
2723 110B CA 12 11             		  jz l201
2725 110E 3A 9C 2B             		  lda cmd_copyFile_e
2726 1111 C9                   		  ret
2727 1112                      		l201:
2729 1112 2A 8A 2B             		  lhld cmd_copyFile_2
2730 1115 CD AF 23             		  call fs_create
2731 1118 32 9C 2B             		  sta cmd_copyFile_e
2733 111B B7                   		  ora a
2734 111C CA 23 11             		  jz l202
2736 111F 3A 9C 2B             		  lda cmd_copyFile_e
2737 1122 C9                   		  ret
2738 1123                      		l202:
2740 1123 21 00 00             		  lxi h, 0
2741 1126 22 9E 2B             		  shld (cmd_copyFile_progress)+(0)
2743 1129 22 A0 2B             		  shld (cmd_copyFile_progress)+(2)
2745 112C 22 A2 2B             		  shld (cmd_copyFile_progress_x)+(0)
2747 112F 22 A4 2B             		  shld (cmd_copyFile_progress_x)+(2)
2749 1132                      		l203:
2751 1132 21 8C 2B             		  lxi h, cmd_copyFile_buf
2752 1135 22 7E 2D             		  shld i2s32_1
2753 1138 21 9E 2B             		  lxi h, cmd_copyFile_progress
2754 113B 22 80 2D             		  shld i2s32_2
2755 113E 21 0A 00             		  lxi h, 10
2756 1141 22 82 2D             		  shld i2s32_3
2757 1144 3E 20                		  mvi a, 32
2758 1146 CD 04 21             		  call i2s32
2760 1149 3E 0C                		  mvi a, 12
2761 114B 32 62 2D             		  sta drawWindowText_1
2762 114E 3E 02                		  mvi a, 2
2763 1150 32 63 2D             		  sta drawWindowText_2
2764 1153 21 8C 2B             		  lxi h, cmd_copyFile_buf
2765 1156 CD 8A 1F             		  call drawWindowText
2767 1159 CD 70 24             		  call fs_swap
2768 115C 32 9C 2B             		  sta cmd_copyFile_e
2770 115F B7                   		  ora a
2771 1160 CA 67 11             		  jz l206
2773 1163 3A 9C 2B             		  lda cmd_copyFile_e
2774 1166 C9                   		  ret
2775 1167                      		l206:
2777 1167 2A 23 28             		  lhld panelB
2778 116A 22 C4 2D             		  shld fs_read_1
2779 116D 21 00 04             		  lxi h, 1024
2780 1170 CD 9C 23             		  call fs_read
2781 1173 32 9C 2B             		  sta cmd_copyFile_e
2783 1176 B7                   		  ora a
2784 1177 CA 7E 11             		  jz l207
2786 117A 3A 9C 2B             		  lda cmd_copyFile_e
2787 117D C9                   		  ret
2788 117E                      		l207:
2790 117E 2A D8 2D             		  lhld fs_low
2791 1181 7D                   		  mov a, l
2792 1182 B4                   		  ora h
2793 1183 C2 88 11             		  jnz l208
2795 1186 AF                   		  xra a
2796 1187 C9                   		  ret
2797 1188                      		l208:
2799 1188 CD 70 24             		  call fs_swap
2800 118B 32 9C 2B             		  sta cmd_copyFile_e
2802 118E B7                   		  ora a
2803 118F CA 96 11             		  jz l209
2805 1192 3A 9C 2B             		  lda cmd_copyFile_e
2806 1195 C9                   		  ret
2807 1196                      		l209:
2809 1196 2A 23 28             		  lhld panelB
2810 1199 22 CA 2D             		  shld fs_write_1
2811 119C 2A D8 2D             		  lhld fs_low
2812 119F CD BB 23             		  call fs_write
2813 11A2 32 9C 2B             		  sta cmd_copyFile_e
2815 11A5 B7                   		  ora a
2816 11A6 CA AD 11             		  jz l210
2818 11A9 3A 9C 2B             		  lda cmd_copyFile_e
2819 11AC C9                   		  ret
2820 11AD                      		l210:
2822 11AD 21 9E 2B             		  lxi h, cmd_copyFile_progress
2823 11B0 22 E7 2D             		  shld add32_16_1
2824 11B3 2A D8 2D             		  lhld fs_low
2825 11B6 CD 7C 24             		  call add32_16
2827 11B9 21 A2 2B             		  lxi h, cmd_copyFile_progress_x
2828 11BC 22 E7 2D             		  shld add32_16_1
2829 11BF 2A D8 2D             		  lhld fs_low
2830 11C2 CD 7C 24             		  call add32_16
2832 11C5                      		l211:
2833 11C5 3A 9D 2B             		  lda cmd_copyFile_progress_i
2834 11C8 FE 28                		  cpi 40
2835 11CA D2 02 12             		  jnc l212
2836 11CD 21 A2 2B             		  lxi h, cmd_copyFile_progress_x
2837 11D0 22 EB 2D             		  shld cmp32_32_1
2838 11D3 21 A6 2B             		  lxi h, cmd_copyFile_progress_step
2839 11D6 CD 97 24             		  call cmp32_32
2840 11D9 FE 01                		  cpi 1
2841 11DB CA 02 12             		  jz l212
2843 11DE 21 A2 2B             		  lxi h, cmd_copyFile_progress_x
2844 11E1 22 EF 2D             		  shld sub32_32_1
2845 11E4 21 A6 2B             		  lxi h, cmd_copyFile_progress_step
2846 11E7 CD C5 24             		  call sub32_32
2848 11EA 3A 9D 2B             		  lda cmd_copyFile_progress_i
2849 11ED 32 62 2D             		  sta drawWindowText_1
2850 11F0 3E 03                		  mvi a, 3
2851 11F2 32 63 2D             		  sta drawWindowText_2
2852 11F5 21 30 2E             		  lxi h, string20
2853 11F8 CD 8A 1F             		  call drawWindowText
2855 11FB 21 9D 2B             		  lxi h, cmd_copyFile_progress_i
2856 11FE 34                   		  inr m
2857 11FF C3 C5 11             		  jmp l211
2858 1202                      		l212:
2860 1202 CD C4 20             		  call bioskey1
2861 1205 FE 1B                		  cpi 27
2862 1207 C2 12 12             		  jnz l213
2864 120A 3E 80                		  mvi a, 128
2865 120C 32 9C 2B             		  sta cmd_copyFile_e
2867 120F C3 15 12             		  jmp l204
2868 1212                      		l213:
2869 1212                      		l205:
2870 1212 C3 32 11             		  jmp l203
2871 1215                      		l204:
2873 1215 2A 8A 2B             		  lhld cmd_copyFile_2
2874 1218 CD E2 24             		  call fs_delete
2876 121B 3A 9C 2B             		  lda cmd_copyFile_e
2877 121E C9                   		  ret
2879 121F                      		applyMask1:
2880 121F C5                   		  push b
2881 1220 32 AE 2B             		  sta applyMask1_3
2883 1223                      		l214:
2885 1223 2A AC 2B             		  lhld applyMask1_2
2886 1226 46                   		  mov b, m
2888 1227 3E 2A                		  mvi a, 42
2889 1229 B8                   		  cmp b
2890 122A C2 2F 12             		  jnz l217
2892 122D C1                   		  pop b
2893 122E C9                   		  ret
2894 122F                      		l217:
2896 122F 3E 3F                		  mvi a, 63
2897 1231 B8                   		  cmp b
2898 1232 CA 39 12             		  jz l218
2900 1235 2A AA 2B             		  lhld applyMask1_1
2901 1238 70                   		  mov m, b
2902 1239                      		l218:
2904 1239 21 AE 2B             		  lxi h, applyMask1_3
2905 123C 35                   		  dcr m
2907 123D 3A AE 2B             		  lda applyMask1_3
2908 1240 B7                   		  ora a
2909 1241 C2 46 12             		  jnz l219
2911 1244 C1                   		  pop b
2912 1245 C9                   		  ret
2913 1246                      		l219:
2915 1246 2A AC 2B             		  lhld applyMask1_2
2916 1249 23                   		  inx h
2917 124A 22 AC 2B             		  shld applyMask1_2
2918 124D 2A AA 2B             		  lhld applyMask1_1
2919 1250 23                   		  inx h
2920 1251 22 AA 2B             		  shld applyMask1_1
2921 1254                      		l216:
2922 1254 C3 23 12             		  jmp l214
2923 1257                      		l215:
2924 1257 C1                   		  pop b
2925 1258 C9                   		  ret
2927 1259                      		cmd_copyFolder:
2928 1259 22 B1 2B             		  shld cmd_copyFolder_2
2930 125C AF                   		  xra a
2931 125D 32 B6 2B             		  sta cmd_copyFolder_level
2933 1260 CD EE 24             		  call fs_mkdir
2934 1263 32 B3 2B             		  sta cmd_copyFolder_e
2936 1266 B7                   		  ora a
2937 1267 CA 6E 12             		  jz l220
2939 126A 3A B3 2B             		  lda cmd_copyFolder_e
2940 126D C9                   		  ret
2941 126E                      		l220:
2943 126E 21 00 00             		  lxi h, 0
2944 1271 22 B4 2B             		  shld cmd_copyFolder_i
2945 1274                      		l221:
2947 1274 EB                   		  xchg
2948 1275 2A 2D 2A             		  lhld maxFiles
2949 1278 CD FE 20             		  call op_cmp16
2950 127B C2 81 12             		  jnz l224
2952 127E 3E 0A                		  mvi a, 10
2953 1280 C9                   		  ret
2954 1281                      		l224:
2956 1281 2A AF 2B             		  lhld cmd_copyFolder_1
2957 1284 22 A9 2D             		  shld fs_findfirst_1
2958 1287 2A 23 28             		  lhld panelB
2959 128A 22 AB 2D             		  shld fs_findfirst_2
2961 128D 2A B4 2B             		  lhld cmd_copyFolder_i
2962 1290 23                   		  inx h
2963 1291 CD B2 22             		  call fs_findfirst
2964 1294 32 B3 2B             		  sta cmd_copyFolder_e
2966 1297 B7                   		  ora a
2967 1298 CA A4 12             		  jz l225
2968 129B 3A B3 2B             		  lda cmd_copyFolder_e
2969 129E FE 0A                		  cpi 10
2970 12A0 CA A4 12             		  jz l225
2972 12A3 C9                   		  ret
2973 12A4                      		l225:
2975 12A4 2A B4 2B             		  lhld cmd_copyFolder_i
2976 12A7 EB                   		  xchg
2977 12A8 2A D8 2D             		  lhld fs_low
2978 12AB CD FE 20             		  call op_cmp16
2979 12AE CA B4 12             		  jz l227
2980 12B1 D2 ED 12             		  jnc l226
2981 12B4                      		l227:
2983 12B4 3A B6 2B             		  lda cmd_copyFolder_level
2984 12B7 B7                   		  ora a
2985 12B8 C2 BD 12             		  jnz l228
2987 12BB AF                   		  xra a
2988 12BC C9                   		  ret
2989 12BD                      		l228:
2991 12BD 2A AF 2B             		  lhld cmd_copyFolder_1
2992 12C0 22 5B 2B             		  shld dropPathInt_1
2993 12C3 21 00 00             		  lxi h, 0
2994 12C6 CD 31 0A             		  call dropPathInt
2996 12C9 2A B1 2B             		  lhld cmd_copyFolder_2
2997 12CC 22 5B 2B             		  shld dropPathInt_1
2998 12CF 21 00 00             		  lxi h, 0
2999 12D2 CD 31 0A             		  call dropPathInt
3001 12D5 21 B6 2B             		  lxi h, cmd_copyFolder_level
3002 12D8 35                   		  dcr m
3004 12D9 2A B6 2B             		  lhld cmd_copyFolder_level
3005 12DC 26 00                		  mvi h, 0
3007 12DE 29                   		  dad h
3009 12DF 11 B7 2B             		  lxi d, cmd_copyFolder_stack
3010 12E2 19                   		  dad d
3011 12E3 5E                   		  mov e, m
3012 12E4 23                   		  inx h
3013 12E5 56                   		  mov d, m
3014 12E6 EB                   		  xchg
3015 12E7 22 B4 2B             		  shld cmd_copyFolder_i
3017 12EA C3 9F 13             		  jmp l223
3018 12ED                      		l226:
3020 12ED 2A B4 2B             		  lhld cmd_copyFolder_i
3022 12F0 54                   		  mov d, h
3023 12F1 5D                   		  mov e, l
3024 12F2 29                   		  dad h
3025 12F3 29                   		  dad h
3026 12F4 19                   		  dad d
3027 12F5 29                   		  dad h
3028 12F6 29                   		  dad h
3030 12F7 EB                   		  xchg
3031 12F8 2A 23 28             		  lhld panelB
3032 12FB 19                   		  dad d
3033 12FC 22 C7 2B             		  shld cmd_copyFolder_f
3035 12FF 2A AF 2B             		  lhld cmd_copyFolder_1
3036 1302 22 77 2A             		  shld catPathAndUnpack_1
3037 1305 2A C7 2B             		  lhld cmd_copyFolder_f
3038 1308 CD 85 04             		  call catPathAndUnpack
3040 130B B7                   		  ora a
3041 130C CA 12 13             		  jz l229
3043 130F 3E 0B                		  mvi a, 11
3044 1311 C9                   		  ret
3045 1312                      		l229:
3047 1312 2A B1 2B             		  lhld cmd_copyFolder_2
3048 1315 22 77 2A             		  shld catPathAndUnpack_1
3049 1318 2A C7 2B             		  lhld cmd_copyFolder_f
3050 131B CD 85 04             		  call catPathAndUnpack
3052 131E B7                   		  ora a
3053 131F CA 25 13             		  jz l230
3055 1322 3E 0B                		  mvi a, 11
3056 1324 C9                   		  ret
3057 1325                      		l230:
3059 1325 2A C7 2B             		  lhld cmd_copyFolder_f
3060 1328 11 0B 00             		  lxi d, 11
3061 132B 19                   		  dad d
3062 132C 7E                   		  mov a, m
3063 132D E6 10                		  ani 16
3065 132F CA 6D 13             		  jz l231
3067 1332 3A B6 2B             		  lda cmd_copyFolder_level
3068 1335 FE 07                		  cpi 7
3069 1337 C2 3C 13             		  jnz l232
3071 133A 7B                   		  mov a, e
3072 133B C9                   		  ret
3073 133C                      		l232:
3075 133C 2A B6 2B             		  lhld cmd_copyFolder_level
3076 133F 62                   		  mov h, d
3078 1340 29                   		  dad h
3080 1341 11 B7 2B             		  lxi d, cmd_copyFolder_stack
3081 1344 19                   		  dad d
3082 1345 E5                   		  push h
3083 1346 2A B4 2B             		  lhld cmd_copyFolder_i
3084 1349 D1                   		  pop d
3085 134A EB                   		  xchg
3086 134B 73                   		  mov m, e
3087 134C 23                   		  inx h
3088 134D 72                   		  mov m, d
3089 134E 2B                   		  dcx h
3091 134F 21 B6 2B             		  lxi h, cmd_copyFolder_level
3092 1352 34                   		  inr m
3094 1353 2A B1 2B             		  lhld cmd_copyFolder_2
3095 1356 CD EE 24             		  call fs_mkdir
3096 1359 32 B3 2B             		  sta cmd_copyFolder_e
3098 135C B7                   		  ora a
3099 135D CA 64 13             		  jz l233
3101 1360 3A B3 2B             		  lda cmd_copyFolder_e
3102 1363 C9                   		  ret
3103 1364                      		l233:
3105 1364 21 FF FF             		  lxi h, 65535
3106 1367 22 B4 2B             		  shld cmd_copyFolder_i
3108 136A C3 9F 13             		  jmp l223
3109 136D                      		l231:
3111 136D 2A AF 2B             		  lhld cmd_copyFolder_1
3112 1370 22 88 2B             		  shld cmd_copyFile_1
3113 1373 2A B1 2B             		  lhld cmd_copyFolder_2
3114 1376 CD 3A 10             		  call cmd_copyFile
3115 1379 32 B3 2B             		  sta cmd_copyFolder_e
3117 137C 2A AF 2B             		  lhld cmd_copyFolder_1
3118 137F 22 5B 2B             		  shld dropPathInt_1
3119 1382 21 00 00             		  lxi h, 0
3120 1385 CD 31 0A             		  call dropPathInt
3122 1388 2A B1 2B             		  lhld cmd_copyFolder_2
3123 138B 22 5B 2B             		  shld dropPathInt_1
3124 138E 21 00 00             		  lxi h, 0
3125 1391 CD 31 0A             		  call dropPathInt
3127 1394 3A B3 2B             		  lda cmd_copyFolder_e
3128 1397 B7                   		  ora a
3129 1398 CA 9F 13             		  jz l234
3131 139B 3A B3 2B             		  lda cmd_copyFolder_e
3132 139E C9                   		  ret
3133 139F                      		l234:
3134 139F                      		l223:
3135 139F 2A B4 2B             		  lhld cmd_copyFolder_i
3136 13A2 23                   		  inx h
3137 13A3 22 B4 2B             		  shld cmd_copyFolder_i
3138 13A6 C3 74 12             		  jmp l221
3139 13A9                      		l222:
3140 13A9 C9                   		  ret
3142 13AA                      		applyMask:
3143 13AA 22 CB 2B             		  shld applyMask_2
3145 13AD 2A C9 2B             		  lhld applyMask_1
3146 13B0 22 AA 2B             		  shld applyMask1_1
3147 13B3 2A CB 2B             		  lhld applyMask_2
3148 13B6 22 AC 2B             		  shld applyMask1_2
3149 13B9 3E 08                		  mvi a, 8
3150 13BB CD 1F 12             		  call applyMask1
3152 13BE 2A C9 2B             		  lhld applyMask_1
3153 13C1 11 08 00             		  lxi d, 8
3154 13C4 19                   		  dad d
3155 13C5 22 AA 2B             		  shld applyMask1_1
3157 13C8 2A CB 2B             		  lhld applyMask_2
3158 13CB 11 08 00             		  lxi d, 8
3159 13CE 19                   		  dad d
3160 13CF 22 AC 2B             		  shld applyMask1_2
3161 13D2 3E 03                		  mvi a, 3
3162 13D4 C3 1F 12             		  jmp applyMask1
3163 13D7                      		cmd_copymove1:
3164 13D7 32 CE 2B             		  sta cmd_copymove1_2
3166 13DA B7                   		  ora a
3167 13DB CA FA 13             		  jz l235
3169 13DE CD 73 00             		  call getSelNoBack
3170 13E1 22 D2 2B             		  shld cmd_copymove1_f
3172 13E4 7D                   		  mov a, l
3173 13E5 B4                   		  ora h
3174 13E6 C2 EB 13             		  jnz l236
3176 13E9 AF                   		  xra a
3177 13EA C9                   		  ret
3178 13EB                      		l236:
3180 13EB 21 2D 29             		  lxi h, cmdline
3181 13EE 22 73 2A             		  shld unpackName_1
3182 13F1 2A D2 2B             		  lhld cmd_copymove1_f
3183 13F4 CD 32 04             		  call unpackName
3184 13F7 C3 34 14             		  jmp l237
3185 13FA                      		l235:
3187 13FA 21 25 28             		  lxi h, (panelB)+(2)
3188 13FD CD 05 22             		  call strlen
3189 1400 22 EB 2C             		  shld cmd_copymove1_i
3191 1403 11 02 FF             		  lxi d, 65282
3192 1406 19                   		  dad d
3193 1407 D2 0D 14             		  jnc l238
3195 140A 3E 0B                		  mvi a, 11
3196 140C C9                   		  ret
3197 140D                      		l238:
3199 140D 3E 2F                		  mvi a, 47
3200 140F 32 2D 29             		  sta (cmdline)+(0)
3202 1412 21 2E 29             		  lxi h, (cmdline)+(1)
3203 1415 22 AF 2D             		  shld strcpy_1
3204 1418 21 25 28             		  lxi h, (panelB)+(2)
3205 141B CD E0 22             		  call strcpy
3207 141E 2A EB 2C             		  lhld cmd_copymove1_i
3208 1421 7D                   		  mov a, l
3209 1422 B4                   		  ora h
3210 1423 CA 34 14             		  jz l239
3212 1426 11 2D 29             		  lxi d, cmdline
3213 1429 19                   		  dad d
3215 142A 23                   		  inx h
3216 142B 22 AF 2D             		  shld strcpy_1
3217 142E 21 FC 2E             		  lxi h, string21
3218 1431 CD E0 22             		  call strcpy
3219 1434                      		l239:
3220 1434                      		l237:
3222 1434 3A CD 2B             		  lda cmd_copymove1_1
3223 1437 B7                   		  ora a
3224 1438 CA 41 14             		  jz l241
3225 143B 21 4B 2E             		  lxi h, string22
3226 143E C3 44 14             		  jmp l242
3227 1441                      		l241:
3228 1441 21 8F 2E             		  lxi h, string23
3229 1444                      		l242:
3230 1444 CD 78 03             		  call inputBox
3232 1447 B7                   		  ora a
3233 1448 C2 54 14             		  jnz l240
3234 144B 3A 2D 29             		  lda (cmdline)+(0)
3235 144E B7                   		  ora a
3236 144F CA 54 14             		  jz l240
3238 1452 AF                   		  xra a
3239 1453 C9                   		  ret
3240 1454                      		l240:
3242 1454 21 2D 29             		  lxi h, cmdline
3243 1457 CD 89 09             		  call absolutePath
3245 145A B7                   		  ora a
3246 145B C2 61 14             		  jnz l243
3248 145E 3E 0B                		  mvi a, 11
3249 1460 C9                   		  ret
3250 1461                      		l243:
3252 1461 AF                   		  xra a
3253 1462 32 D4 2C             		  sta (cmd_copymove1_mask)+(0)
3255 1465 21 2D 29             		  lxi h, cmdline
3256 1468 CD 08 0A             		  call getName
3257 146B 22 CF 2B             		  shld cmd_copymove1_name
3259 146E 7E                   		  mov a, m
3260 146F B7                   		  ora a
3261 1470 CA 8E 14             		  jz l244
3263 1473 21 D4 2C             		  lxi h, cmd_copymove1_mask
3264 1476 22 2B 2B             		  shld packName_1
3265 1479 2A CF 2B             		  lhld cmd_copymove1_name
3266 147C CD 57 07             		  call packName
3268 147F 21 2D 29             		  lxi h, cmdline
3269 1482 22 5B 2B             		  shld dropPathInt_1
3270 1485 21 00 00             		  lxi h, 0
3271 1488 CD 31 0A             		  call dropPathInt
3272 148B C3 A0 14             		  jmp l245
3273 148E                      		l244:
3275 148E 3A 2D 29             		  lda (cmdline)+(0)
3276 1491 B7                   		  ora a
3277 1492 CA A0 14             		  jz l246
3279 1495 2A CF 2B             		  lhld cmd_copymove1_name
3280 1498 7E                   		  mov a, m
3281 1499 B7                   		  ora a
3282 149A C2 A0 14             		  jnz l246
3284 149D 2B                   		  dcx h
3285 149E 36 00                		  mvi m, 0
3286 14A0                      		l246:
3287 14A0                      		l245:
3289 14A0 21 D4 2B             		  lxi h, cmd_copymove1_sourceFile
3290 14A3 CD C4 04             		  call getFirstSelected
3291 14A6 32 EA 2C             		  sta cmd_copymove1_type
3293 14A9 B7                   		  ora a
3294 14AA C2 AF 14             		  jnz l247
3296 14AD AF                   		  xra a
3297 14AE C9                   		  ret
3298 14AF                      		l247:
3300 14AF                      		l248:
3302 14AF 21 D4 2B             		  lxi h, cmd_copymove1_sourceFile
3303 14B2 CD 89 09             		  call absolutePath
3305 14B5 B7                   		  ora a
3306 14B6 C2 C1 14             		  jnz l251
3308 14B9 3E 0B                		  mvi a, 11
3309 14BB 32 D1 2B             		  sta cmd_copymove1_e
3311 14BE C3 C8 15             		  jmp l249
3312 14C1                      		l251:
3314 14C1 21 DF 2C             		  lxi h, cmd_copymove1_forMask
3315 14C4 22 2B 2B             		  shld packName_1
3316 14C7 21 D4 2B             		  lxi h, cmd_copymove1_sourceFile
3317 14CA CD 08 0A             		  call getName
3318 14CD CD 57 07             		  call packName
3320 14D0 3A D4 2C             		  lda (cmd_copymove1_mask)+(0)
3321 14D3 B7                   		  ora a
3322 14D4 CA E3 14             		  jz l252
3324 14D7 21 DF 2C             		  lxi h, cmd_copymove1_forMask
3325 14DA 22 C9 2B             		  shld applyMask_1
3326 14DD 21 D4 2C             		  lxi h, cmd_copymove1_mask
3327 14E0 CD AA 13             		  call applyMask
3328 14E3                      		l252:
3330 14E3 21 2D 29             		  lxi h, cmdline
3331 14E6 22 77 2A             		  shld catPathAndUnpack_1
3332 14E9 21 DF 2C             		  lxi h, cmd_copymove1_forMask
3333 14EC CD 85 04             		  call catPathAndUnpack
3335 14EF B7                   		  ora a
3336 14F0 CA F6 14             		  jz l253
3338 14F3 3E 0B                		  mvi a, 11
3339 14F5 C9                   		  ret
3340 14F6                      		l253:
3342 14F6 21 D4 2B             		  lxi h, cmd_copymove1_sourceFile
3343 14F9 22 BC 2D             		  shld strcmp_1
3344 14FC 21 2D 29             		  lxi h, cmdline
3345 14FF CD 29 23             		  call strcmp
3346 1502 B7                   		  ora a
3347 1503 CA A5 15             		  jz l254
3349 1506 3A CD 2B             		  lda cmd_copymove1_1
3350 1509 B7                   		  ora a
3351 150A CA 39 15             		  jz l255
3353 150D 3A EA 2C             		  lda cmd_copymove1_type
3354 1510 FE 02                		  cpi 2
3355 1512 C2 27 15             		  jnz l256
3357 1515 21 D4 2B             		  lxi h, cmd_copymove1_sourceFile
3358 1518 22 AF 2B             		  shld cmd_copyFolder_1
3359 151B 21 2D 29             		  lxi h, cmdline
3360 151E CD 59 12             		  call cmd_copyFolder
3361 1521 32 D1 2B             		  sta cmd_copymove1_e
3362 1524 C3 36 15             		  jmp l257
3363 1527                      		l256:
3365 1527 21 D4 2B             		  lxi h, cmd_copymove1_sourceFile
3366 152A 22 88 2B             		  shld cmd_copyFile_1
3367 152D 21 2D 29             		  lxi h, cmdline
3368 1530 CD 3A 10             		  call cmd_copyFile
3369 1533 32 D1 2B             		  sta cmd_copymove1_e
3370 1536                      		l257:
3371 1536 C3 9E 15             		  jmp l258
3372 1539                      		l255:
3374 1539 21 72 2E             		  lxi h, string24
3375 153C CD 0E 1F             		  call drawWindow
3377 153F AF                   		  xra a
3378 1540 32 62 2D             		  sta drawWindowText_1
3379 1543 3C                   		  inr a
3380 1544 32 63 2D             		  sta drawWindowText_2
3381 1547 21 DE 2F             		  lxi h, string17
3382 154A CD 8A 1F             		  call drawWindowText
3384 154D 3E 04                		  mvi a, 4
3385 154F 32 62 2D             		  sta drawWindowText_1
3386 1552 3E 01                		  mvi a, 1
3387 1554 32 63 2D             		  sta drawWindowText_2
3388 1557 21 D4 2B             		  lxi h, cmd_copymove1_sourceFile
3389 155A CD 8A 1F             		  call drawWindowText
3391 155D AF                   		  xra a
3392 155E 32 62 2D             		  sta drawWindowText_1
3393 1561 3E 02                		  mvi a, 2
3394 1563 32 63 2D             		  sta drawWindowText_2
3395 1566 21 07 31             		  lxi h, string18
3396 1569 CD 8A 1F             		  call drawWindowText
3398 156C 3E 04                		  mvi a, 4
3399 156E 32 62 2D             		  sta drawWindowText_1
3400 1571 3E 02                		  mvi a, 2
3401 1573 32 63 2D             		  sta drawWindowText_2
3402 1576 21 2D 29             		  lxi h, cmdline
3403 1579 CD 8A 1F             		  call drawWindowText
3405 157C CD 6A 1F             		  call drawAnyKeyButton
3407 157F CD C4 20             		  call bioskey1
3408 1582 FE 1B                		  cpi 27
3409 1584 C2 8F 15             		  jnz l259
3411 1587 3E 80                		  mvi a, 128
3412 1589 32 D1 2B             		  sta cmd_copymove1_e
3414 158C C3 C8 15             		  jmp l249
3415 158F                      		l259:
3417 158F 21 D4 2B             		  lxi h, cmd_copymove1_sourceFile
3418 1592 22 F7 2D             		  shld fs_move_1
3419 1595 21 2D 29             		  lxi h, cmdline
3420 1598 CD FA 24             		  call fs_move
3421 159B 32 D1 2B             		  sta cmd_copymove1_e
3422 159E                      		l258:
3424 159E 3A D1 2B             		  lda cmd_copymove1_e
3425 15A1 B7                   		  ora a
3426 15A2 C2 C8 15             		  jnz l249
3427 15A5                      		l254:
3429 15A5 21 2D 29             		  lxi h, cmdline
3430 15A8 22 5B 2B             		  shld dropPathInt_1
3431 15AB 21 00 00             		  lxi h, 0
3432 15AE CD 31 0A             		  call dropPathInt
3434 15B1 21 D4 2B             		  lxi h, cmd_copymove1_sourceFile
3435 15B4 CD 10 05             		  call getNextSelected
3436 15B7 32 EA 2C             		  sta cmd_copymove1_type
3438 15BA B7                   		  ora a
3439 15BB C2 C5 15             		  jnz l261
3441 15BE AF                   		  xra a
3442 15BF 32 D1 2B             		  sta cmd_copymove1_e
3444 15C2 C3 C8 15             		  jmp l249
3445 15C5                      		l261:
3446 15C5                      		l250:
3447 15C5 C3 AF 14             		  jmp l248
3448 15C8                      		l249:
3450 15C8 CD B8 07             		  call getFiles
3452 15CB 3E 01                		  mvi a, 1
3453 15CD CD 38 0C             		  call dupFiles
3455 15D0 3A D1 2B             		  lda cmd_copymove1_e
3456 15D3 C9                   		  ret
3458 15D4                      		cmd_copymove:
3459 15D4 32 EE 2C             		  sta cmd_copymove_2
3461 15D7 3A ED 2C             		  lda cmd_copymove_1
3462 15DA B7                   		  ora a
3463 15DB CA E4 15             		  jz l262
3464 15DE 21 0F 30             		  lxi h, string25
3465 15E1 C3 E7 15             		  jmp l263
3466 15E4                      		l262:
3467 15E4 21 34 30             		  lxi h, string26
3468 15E7                      		l263:
3469 15E7 22 66 2A             		  shld drawError_1
3470 15EA 3A ED 2C             		  lda cmd_copymove_1
3471 15ED 32 CD 2B             		  sta cmd_copymove1_1
3472 15F0 3A EE 2C             		  lda cmd_copymove_2
3473 15F3 CD D7 13             		  call cmd_copymove1
3474 15F6 CD 98 02             		  call drawError
3476 15F9 C3 43 02             		  jmp drawScreen
3477 15FC                      		cmd_new1:
3478 15FC 32 EF 2C             		  sta cmd_new1_1
3480 15FF AF                   		  xra a
3481 1600 32 2D 29             		  sta (cmdline)+(0)
3483 1603 3A EF 2C             		  lda cmd_new1_1
3484 1606 B7                   		  ora a
3485 1607 CA 10 16             		  jz l265
3486 160A 21 CB 2E             		  lxi h, string27
3487 160D C3 13 16             		  jmp l266
3488 1610                      		l265:
3489 1610 21 BC 2E             		  lxi h, string28
3490 1613                      		l266:
3491 1613 CD 78 03             		  call inputBox
3493 1616 B7                   		  ora a
3494 1617 C2 23 16             		  jnz l264
3495 161A 3A 2D 29             		  lda (cmdline)+(0)
3496 161D B7                   		  ora a
3497 161E CA 23 16             		  jz l264
3499 1621 AF                   		  xra a
3500 1622 C9                   		  ret
3501 1623                      		l264:
3503 1623 21 2D 29             		  lxi h, cmdline
3504 1626 CD 89 09             		  call absolutePath
3506 1629 B7                   		  ora a
3507 162A C2 30 16             		  jnz l267
3509 162D 3E 0B                		  mvi a, 11
3510 162F C9                   		  ret
3511 1630                      		l267:
3513 1630 3A EF 2C             		  lda cmd_new1_1
3514 1633 B7                   		  ora a
3515 1634 C2 6C 16             		  jnz l268
3517 1637 21 2D 29             		  lxi h, cmdline
3518 163A CD 05 22             		  call strlen
3520 163D 11 01 FF             		  lxi d, 65281
3521 1640 19                   		  dad d
3522 1641 D2 47 16             		  jnc l269
3524 1644 3E 0B                		  mvi a, 11
3525 1646 C9                   		  ret
3526 1647                      		l269:
3528 1647 21 2E 29             		  lxi h, (cmdline)+(1)
3529 164A 22 B3 2D             		  shld memcpy_back_1
3530 164D 21 2D 29             		  lxi h, cmdline
3531 1650 22 B5 2D             		  shld memcpy_back_2
3532 1653 21 FF 00             		  lxi h, 255
3533 1656 CD F1 22             		  call memcpy_back
3535 1659 3E 2A                		  mvi a, 42
3536 165B 32 2D 29             		  sta (cmdline)+(0)
3538 165E 21 FF 26             		  lxi h, editorApp
3539 1661 22 71 2B             		  shld run_1
3540 1664 21 2D 29             		  lxi h, cmdline
3541 1667 CD 46 0D             		  call run
3543 166A AF                   		  xra a
3544 166B C9                   		  ret
3545 166C                      		l268:
3547 166C 21 2D 29             		  lxi h, cmdline
3548 166F CD EE 24             		  call fs_mkdir
3549 1672 32 EF 2C             		  sta cmd_new1_1
3551 1675 B7                   		  ora a
3552 1676 C2 80 16             		  jnz l270
3554 1679 CD B8 07             		  call getFiles
3556 167C AF                   		  xra a
3557 167D CD 38 0C             		  call dupFiles
3558 1680                      		l270:
3560 1680 3A EF 2C             		  lda cmd_new1_1
3561 1683 C9                   		  ret
3563 1684                      		cmd_new:
3564 1684 32 F0 2C             		  sta cmd_new_1
3566 1687 21 47 30             		  lxi h, string29
3567 168A 22 66 2A             		  shld drawError_1
3568 168D CD FC 15             		  call cmd_new1
3569 1690 CD 98 02             		  call drawError
3571 1693 C3 43 02             		  jmp drawScreen
3572 1696                      		cmd_freespace_1:
3573 1696 22 F2 2C             		  shld cmd_freespace_1_2
3575 1699 21 F4 2C             		  lxi h, cmd_freespace_1_buf
3576 169C 22 7E 2D             		  shld i2s32_1
3577 169F 21 D8 2D             		  lxi h, fs_low
3578 16A2 22 80 2D             		  shld i2s32_2
3579 16A5 21 0A 00             		  lxi h, 10
3580 16A8 22 82 2D             		  shld i2s32_3
3581 16AB 3E 20                		  mvi a, 32
3582 16AD CD 04 21             		  call i2s32
3584 16B0 21 FE 2C             		  lxi h, (cmd_freespace_1_buf)+(10)
3585 16B3 22 B3 2D             		  shld memcpy_back_1
3586 16B6 21 FB 2C             		  lxi h, (cmd_freespace_1_buf)+(7)
3587 16B9 22 B5 2D             		  shld memcpy_back_2
3588 16BC 21 03 00             		  lxi h, 3
3589 16BF CD F1 22             		  call memcpy_back
3591 16C2 3E 20                		  mvi a, 32
3592 16C4 32 FD 2C             		  sta (cmd_freespace_1_buf)+(9)
3594 16C7 21 FA 2C             		  lxi h, (cmd_freespace_1_buf)+(6)
3595 16CA 22 B3 2D             		  shld memcpy_back_1
3596 16CD 21 F8 2C             		  lxi h, (cmd_freespace_1_buf)+(4)
3597 16D0 22 B5 2D             		  shld memcpy_back_2
3598 16D3 21 03 00             		  lxi h, 3
3599 16D6 CD F1 22             		  call memcpy_back
3601 16D9 3E 20                		  mvi a, 32
3602 16DB 32 F9 2C             		  sta (cmd_freespace_1_buf)+(5)
3604 16DE 21 F6 2C             		  lxi h, (cmd_freespace_1_buf)+(2)
3605 16E1 22 B3 2D             		  shld memcpy_back_1
3606 16E4 21 F5 2C             		  lxi h, (cmd_freespace_1_buf)+(1)
3607 16E7 22 B5 2D             		  shld memcpy_back_2
3608 16EA 21 03 00             		  lxi h, 3
3609 16ED CD F1 22             		  call memcpy_back
3611 16F0 3E 20                		  mvi a, 32
3612 16F2 32 F5 2C             		  sta (cmd_freespace_1_buf)+(1)
3614 16F5 21 01 2D             		  lxi h, (cmd_freespace_1_buf)+(13)
3615 16F8 22 AF 2D             		  shld strcpy_1
3616 16FB 21 58 2E             		  lxi h, string30
3617 16FE CD E0 22             		  call strcpy
3619 1701 3E 06                		  mvi a, 6
3620 1703 32 62 2D             		  sta drawWindowText_1
3621 1706 3A F1 2C             		  lda cmd_freespace_1_1
3622 1709 32 63 2D             		  sta drawWindowText_2
3623 170C 2A F2 2C             		  lhld cmd_freespace_1_2
3624 170F CD 8A 1F             		  call drawWindowText
3626 1712 3E 10                		  mvi a, 16
3627 1714 32 62 2D             		  sta drawWindowText_1
3628 1717 3A F1 2C             		  lda cmd_freespace_1_1
3629 171A 32 63 2D             		  sta drawWindowText_2
3630 171D 21 F4 2C             		  lxi h, cmd_freespace_1_buf
3631 1720 C3 8A 1F             		  jmp drawWindowText
3632 1723                      		cmd_freespace:
3633 1723 21 5C 2E             		  lxi h, string31
3634 1726 CD 0E 1F             		  call drawWindow
3636 1729 3E 06                		  mvi a, 6
3637 172B 32 62 2D             		  sta drawWindowText_1
3638 172E 3E 02                		  mvi a, 2
3639 1730 32 63 2D             		  sta drawWindowText_2
3640 1733 21 A1 30             		  lxi h, string32
3641 1736 CD 8A 1F             		  call drawWindowText
3643 1739 CD 09 25             		  call fs_getfree
3644 173C 32 05 2D             		  sta cmd_freespace_e
3646 173F B7                   		  ora a
3647 1740 CA 52 17             		  jz l271
3649 1743 21 6D 30             		  lxi h, string33
3650 1746 22 66 2A             		  shld drawError_1
3651 1749 3A 05 2D             		  lda cmd_freespace_e
3652 174C CD 98 02             		  call drawError
3653 174F C3 75 17             		  jmp l272
3654 1752                      		l271:
3656 1752 3E 02                		  mvi a, 2
3657 1754 32 F1 2C             		  sta cmd_freespace_1_1
3658 1757 21 FC 30             		  lxi h, string34
3659 175A CD 96 16             		  call cmd_freespace_1
3661 175D CD 18 25             		  call fs_gettotal
3663 1760 B7                   		  ora a
3664 1761 C2 6F 17             		  jnz l273
3666 1764 3E 01                		  mvi a, 1
3667 1766 32 F1 2C             		  sta cmd_freespace_1_1
3668 1769 21 0A 31             		  lxi h, string35
3669 176C CD 96 16             		  call cmd_freespace_1
3670 176F                      		l273:
3672 176F CD 6A 1F             		  call drawAnyKeyButton
3674 1772 CD C0 20             		  call getch1
3675 1775                      		l272:
3677 1775 C3 43 02             		  jmp drawScreen
3678 1778                      		cmd_deleteFile:
3679 1778 21 DB 2E             		  lxi h, string36
3680 177B CD 0E 1F             		  call drawWindow
3682 177E AF                   		  xra a
3683 177F 32 62 2D             		  sta drawWindowText_1
3684 1782 3C                   		  inr a
3685 1783 32 63 2D             		  sta drawWindowText_2
3686 1786 21 2D 29             		  lxi h, cmdline
3687 1789 CD 8A 1F             		  call drawWindowText
3689 178C CD 7A 1F             		  call drawEscButton
3691 178F CD C4 20             		  call bioskey1
3692 1792 FE 1B                		  cpi 27
3693 1794 C2 9A 17             		  jnz l274
3695 1797 3E 80                		  mvi a, 128
3696 1799 C9                   		  ret
3697 179A                      		l274:
3699 179A 21 2D 29             		  lxi h, cmdline
3700 179D C3 E2 24             		  jmp fs_delete
3701 17A0 C9                   		  ret
3703 17A1                      		cmd_deleteFolder:
3704 17A1 AF                   		  xra a
3705 17A2 32 06 2D             		  sta cmd_deleteFolder_level
3707 17A5                      		l275:
3709 17A5 21 2D 29             		  lxi h, cmdline
3710 17A8 22 A9 2D             		  shld fs_findfirst_1
3711 17AB 2A 23 28             		  lhld panelB
3712 17AE 22 AB 2D             		  shld fs_findfirst_2
3713 17B1 2A 2D 2A             		  lhld maxFiles
3714 17B4 CD B2 22             		  call fs_findfirst
3715 17B7 32 07 2D             		  sta cmd_deleteFolder_e
3717 17BA B7                   		  ora a
3718 17BB CA C7 17             		  jz l277
3719 17BE 3A 07 2D             		  lda cmd_deleteFolder_e
3720 17C1 FE 0A                		  cpi 10
3721 17C3 CA C7 17             		  jz l277
3723 17C6 C9                   		  ret
3724 17C7                      		l277:
3726 17C7 2A D8 2D             		  lhld fs_low
3727 17CA 22 29 29             		  shld (panelB)+(262)
3729 17CD AF                   		  xra a
3730 17CE 32 07 2D             		  sta cmd_deleteFolder_e
3732 17D1 2A 23 28             		  lhld panelB
3733 17D4 22 08 2D             		  shld cmd_deleteFolder_p
3734 17D7 2A 29 29             		  lhld (panelB)+(262)
3735 17DA 22 0A 2D             		  shld cmd_deleteFolder_i
3736 17DD                      		l278:
3738 17DD 2A 0A 2D             		  lhld cmd_deleteFolder_i
3739 17E0 7D                   		  mov a, l
3740 17E1 B4                   		  ora h
3741 17E2 CA 2E 18             		  jz l279
3743 17E5 21 2D 29             		  lxi h, cmdline
3744 17E8 22 77 2A             		  shld catPathAndUnpack_1
3745 17EB 2A 08 2D             		  lhld cmd_deleteFolder_p
3746 17EE CD 85 04             		  call catPathAndUnpack
3748 17F1 B7                   		  ora a
3749 17F2 CA F8 17             		  jz l281
3751 17F5 3E 0B                		  mvi a, 11
3752 17F7 C9                   		  ret
3753 17F8                      		l281:
3755 17F8 CD 78 17             		  call cmd_deleteFile
3756 17FB 32 07 2D             		  sta cmd_deleteFolder_e
3758 17FE FE 07                		  cpi 7
3759 1800 CA 2E 18             		  jz l279
3760 1803 21 2D 29             		  lxi h, cmdline
3761 1806 22 5B 2B             		  shld dropPathInt_1
3762 1809 21 00 00             		  lxi h, 0
3763 180C CD 31 0A             		  call dropPathInt
3765 180F 3A 07 2D             		  lda cmd_deleteFolder_e
3766 1812 B7                   		  ora a
3767 1813 CA 1A 18             		  jz l283
3769 1816 3A 07 2D             		  lda cmd_deleteFolder_e
3770 1819 C9                   		  ret
3771 181A                      		l283:
3772 181A                      		l280:
3773 181A 2A 0A 2D             		  lhld cmd_deleteFolder_i
3774 181D 2B                   		  dcx h
3775 181E 22 0A 2D             		  shld cmd_deleteFolder_i
3776 1821 2A 08 2D             		  lhld cmd_deleteFolder_p
3777 1824 11 14 00             		  lxi d, 20
3778 1827 19                   		  dad d
3779 1828 22 08 2D             		  shld cmd_deleteFolder_p
3780 182B C3 DD 17             		  jmp l278
3781 182E                      		l279:
3783 182E 3A 07 2D             		  lda cmd_deleteFolder_e
3784 1831 FE 07                		  cpi 7
3785 1833 C2 3D 18             		  jnz l284
3787 1836 21 06 2D             		  lxi h, cmd_deleteFolder_level
3788 1839 34                   		  inr m
3790 183A C3 A5 17             		  jmp l275
3791 183D                      		l284:
3793 183D 2A 29 29             		  lhld (panelB)+(262)
3794 1840 EB                   		  xchg
3795 1841 2A 2D 2A             		  lhld maxFiles
3796 1844 CD FE 20             		  call op_cmp16
3797 1847 CA A5 17             		  jz l275
3798 184A CD 78 17             		  call cmd_deleteFile
3799 184D 32 07 2D             		  sta cmd_deleteFolder_e
3801 1850 B7                   		  ora a
3802 1851 CA 58 18             		  jz l286
3804 1854 3A 07 2D             		  lda cmd_deleteFolder_e
3805 1857 C9                   		  ret
3806 1858                      		l286:
3808 1858 3A 06 2D             		  lda cmd_deleteFolder_level
3809 185B B7                   		  ora a
3810 185C C2 61 18             		  jnz l287
3812 185F AF                   		  xra a
3813 1860 C9                   		  ret
3814 1861                      		l287:
3816 1861 21 06 2D             		  lxi h, cmd_deleteFolder_level
3817 1864 35                   		  dcr m
3819 1865 21 2D 29             		  lxi h, cmdline
3820 1868 22 5B 2B             		  shld dropPathInt_1
3821 186B 21 00 00             		  lxi h, 0
3822 186E CD 31 0A             		  call dropPathInt
3823 1871 C3 A5 17             		  jmp l275
3824 1874                      		l276:
3825 1874 C9                   		  ret
3827 1875                      		cmd_delete:
3828 1875 21 E6 2E             		  lxi h, string37
3829 1878 22 6F 2A             		  shld confirm_1
3830 187B 21 11 31             		  lxi h, string38
3831 187E CD F0 03             		  call confirm
3833 1881 B7                   		  ora a
3834 1882 CA E1 18             		  jz l288
3836 1885 AF                   		  xra a
3837 1886 32 0D 2D             		  sta cmd_delete_needRefresh2
3839 1889 21 2D 29             		  lxi h, cmdline
3840 188C CD C4 04             		  call getFirstSelected
3842 188F B7                   		  ora a
3843 1890 CA E1 18             		  jz l289
3845 1893                      		l290:
3847 1893 21 2D 29             		  lxi h, cmdline
3848 1896 CD 89 09             		  call absolutePath
3850 1899 B7                   		  ora a
3851 189A C2 A5 18             		  jnz l293
3853 189D 3E 0B                		  mvi a, 11
3854 189F 32 0C 2D             		  sta cmd_delete_e
3856 18A2 C3 CC 18             		  jmp l291
3857 18A5                      		l293:
3859 18A5 CD 78 17             		  call cmd_deleteFile
3860 18A8 32 0C 2D             		  sta cmd_delete_e
3862 18AB FE 07                		  cpi 7
3863 18AD C2 BB 18             		  jnz l294
3865 18B0 3E 01                		  mvi a, 1
3866 18B2 32 0D 2D             		  sta cmd_delete_needRefresh2
3868 18B5 CD A1 17             		  call cmd_deleteFolder
3869 18B8 32 0C 2D             		  sta cmd_delete_e
3870 18BB                      		l294:
3872 18BB B7                   		  ora a
3873 18BC C2 CC 18             		  jnz l291
3874 18BF 21 2D 29             		  lxi h, cmdline
3875 18C2 CD 10 05             		  call getNextSelected
3877 18C5 B7                   		  ora a
3878 18C6 CA CC 18             		  jz l291
3879 18C9                      		l292:
3880 18C9 C3 93 18             		  jmp l290
3881 18CC                      		l291:
3883 18CC 21 5D 30             		  lxi h, string39
3884 18CF 22 66 2A             		  shld drawError_1
3885 18D2 3A 0C 2D             		  lda cmd_delete_e
3886 18D5 CD 98 02             		  call drawError
3888 18D8 CD B8 07             		  call getFiles
3890 18DB 3A 0D 2D             		  lda cmd_delete_needRefresh2
3891 18DE CD 38 0C             		  call dupFiles
3892 18E1                      		l289:
3893 18E1                      		l288:
3895 18E1 C3 43 02             		  jmp drawScreen
3896 18E4                      		compareMask1:
3897 18E4 C5                   		  push b
3898 18E5 32 12 2D             		  sta compareMask1_3
3900 18E8                      		l297:
3902 18E8 2A 10 2D             		  lhld compareMask1_2
3903 18EB 46                   		  mov b, m
3905 18EC 3E 2A                		  mvi a, 42
3906 18EE B8                   		  cmp b
3907 18EF C2 F6 18             		  jnz l300
3909 18F2 3E 01                		  mvi a, 1
3910 18F4 C1                   		  pop b
3911 18F5 C9                   		  ret
3912 18F6                      		l300:
3914 18F6 3E 3F                		  mvi a, 63
3915 18F8 B8                   		  cmp b
3916 18F9 CA 07 19             		  jz l301
3917 18FC 2A 0E 2D             		  lhld compareMask1_1
3918 18FF 7E                   		  mov a, m
3919 1900 B8                   		  cmp b
3920 1901 CA 07 19             		  jz l301
3922 1904 AF                   		  xra a
3923 1905 C1                   		  pop b
3924 1906 C9                   		  ret
3925 1907                      		l301:
3927 1907 21 12 2D             		  lxi h, compareMask1_3
3928 190A 35                   		  dcr m
3930 190B 3A 12 2D             		  lda compareMask1_3
3931 190E B7                   		  ora a
3932 190F C2 16 19             		  jnz l302
3934 1912 3E 01                		  mvi a, 1
3935 1914 C1                   		  pop b
3936 1915 C9                   		  ret
3937 1916                      		l302:
3939 1916 2A 10 2D             		  lhld compareMask1_2
3940 1919 23                   		  inx h
3941 191A 22 10 2D             		  shld compareMask1_2
3942 191D 2A 0E 2D             		  lhld compareMask1_1
3943 1920 23                   		  inx h
3944 1921 22 0E 2D             		  shld compareMask1_1
3945 1924                      		l299:
3946 1924 C3 E8 18             		  jmp l297
3947 1927                      		l298:
3948 1927 C1                   		  pop b
3949 1928 C9                   		  ret
3951 1929                      		compareMask:
3952 1929 22 15 2D             		  shld compareMask_2
3954 192C 2A 13 2D             		  lhld compareMask_1
3955 192F 22 0E 2D             		  shld compareMask1_1
3956 1932 2A 15 2D             		  lhld compareMask_2
3957 1935 22 10 2D             		  shld compareMask1_2
3958 1938 3E 08                		  mvi a, 8
3959 193A CD E4 18             		  call compareMask1
3961 193D B7                   		  ora a
3962 193E C2 43 19             		  jnz l303
3964 1941 AF                   		  xra a
3965 1942 C9                   		  ret
3966 1943                      		l303:
3968 1943 2A 13 2D             		  lhld compareMask_1
3969 1946 11 08 00             		  lxi d, 8
3970 1949 19                   		  dad d
3971 194A 22 0E 2D             		  shld compareMask1_1
3973 194D 2A 15 2D             		  lhld compareMask_2
3974 1950 11 08 00             		  lxi d, 8
3975 1953 19                   		  dad d
3976 1954 22 10 2D             		  shld compareMask1_2
3977 1957 3E 03                		  mvi a, 3
3978 1959 C3 E4 18             		  jmp compareMask1
3979 195C C9                   		  ret
3981 195D                      		cmd_sel:
3982 195D 32 17 2D             		  sta cmd_sel_1
3984 1960 21 2D 29             		  lxi h, cmdline
3985 1963 22 AF 2D             		  shld strcpy_1
3986 1966 21 F0 2E             		  lxi h, string40
3987 1969 CD E0 22             		  call strcpy
3989 196C 21 AB 2E             		  lxi h, string41
3990 196F CD 78 03             		  call inputBox
3992 1972 B7                   		  ora a
3993 1973 CA F5 19             		  jz l304
3995 1976 21 1C 2D             		  lxi h, cmd_sel_buf
3996 1979 22 2B 2B             		  shld packName_1
3997 197C 21 2D 29             		  lxi h, cmdline
3998 197F CD 57 07             		  call packName
4000 1982 2A 1F 28             		  lhld (panelA)+(262)
4001 1985 22 1A 2D             		  shld cmd_sel_i
4002 1988 2A 19 27             		  lhld panelA
4003 198B 22 18 2D             		  shld cmd_sel_f
4004 198E                      		l305:
4006 198E 2A 1A 2D             		  lhld cmd_sel_i
4007 1991 7D                   		  mov a, l
4008 1992 B4                   		  ora h
4009 1993 CA F5 19             		  jz l306
4011 1996 2A 18 2D             		  lhld cmd_sel_f
4012 1999 11 0B 00             		  lxi d, 11
4013 199C 19                   		  dad d
4014 199D 7E                   		  mov a, m
4015 199E E6 10                		  ani 16
4017 19A0 CA B1 19             		  jz l308
4019 19A3 2A 18 2D             		  lhld cmd_sel_f
4020 19A6 11 0B 00             		  lxi d, 11
4021 19A9 19                   		  dad d
4022 19AA 7E                   		  mov a, m
4023 19AB E6 7F                		  ani 127
4024 19AD 77                   		  mov m, a
4025 19AE C3 E1 19             		  jmp l309
4026 19B1                      		l308:
4028 19B1 2A 18 2D             		  lhld cmd_sel_f
4029 19B4 22 13 2D             		  shld compareMask_1
4030 19B7 21 1C 2D             		  lxi h, cmd_sel_buf
4031 19BA CD 29 19             		  call compareMask
4033 19BD B7                   		  ora a
4034 19BE CA E1 19             		  jz l310
4036 19C1 3A 17 2D             		  lda cmd_sel_1
4037 19C4 B7                   		  ora a
4038 19C5 CA D6 19             		  jz l311
4040 19C8 2A 18 2D             		  lhld cmd_sel_f
4041 19CB 11 0B 00             		  lxi d, 11
4042 19CE 19                   		  dad d
4043 19CF 7E                   		  mov a, m
4044 19D0 F6 80                		  ori 128
4045 19D2 77                   		  mov m, a
4046 19D3 C3 E1 19             		  jmp l312
4047 19D6                      		l311:
4049 19D6 2A 18 2D             		  lhld cmd_sel_f
4050 19D9 11 0B 00             		  lxi d, 11
4051 19DC 19                   		  dad d
4052 19DD 7E                   		  mov a, m
4053 19DE E6 7F                		  ani 127
4054 19E0 77                   		  mov m, a
4055 19E1                      		l312:
4056 19E1                      		l310:
4057 19E1                      		l309:
4058 19E1                      		l307:
4059 19E1 2A 1A 2D             		  lhld cmd_sel_i
4060 19E4 2B                   		  dcx h
4061 19E5 22 1A 2D             		  shld cmd_sel_i
4062 19E8 2A 18 2D             		  lhld cmd_sel_f
4063 19EB 11 14 00             		  lxi d, 20
4064 19EE 19                   		  dad d
4065 19EF 22 18 2D             		  shld cmd_sel_f
4066 19F2 C3 8E 19             		  jmp l305
4067 19F5                      		l306:
4068 19F5                      		l304:
4070 19F5 C3 43 02             		  jmp drawScreen
4071 19F8                      		drawInit:
4072 19F8 CD 27 25             		  call radio86rkScreen2a
4074 19FB CD 30 F8             		  call 63536
4076 19FE 11 00 CC             		  lxi d, 52224
4077 1A01 19                   		  dad d
4078 1A02 22 2D 2A             		  shld maxFiles
4080 1A05 11 28 00             		  lxi d, 40
4081 1A08 CD 39 22             		  call op_div16
4082 1A0B 22 2D 2A             		  shld maxFiles
4084 1A0E AF                   		  xra a
4085 1A0F 32 27 2D             		  sta activePanel
4087 1A12 21 00 00             		  lxi h, 0
4088 1A15 22 28 2D             		  shld fileCursorAddr
4089 1A18 C9                   		  ret
4091 1A19                      		showTextCursor:
4092 1A19 32 2C 2D             		  sta showTextCursor_2
4094 1A1C 3A 2B 2D             		  lda showTextCursor_1
4095 1A1F 3C                   		  inr a
4096 1A20 CA 2B 1A             		  jz l313
4097 1A23 3A 2B 2D             		  lda showTextCursor_1
4098 1A26 C6 08                		  adi 8
4099 1A28 C3 2D 1A             		  jmp l314
4100 1A2B                      		l313:
4101 1A2B 3E FF                		  mvi a, 255
4102 1A2D                      		l314:
4103 1A2D 32 FC 2D             		  sta directCursor_1
4104 1A30 3A 2C 2D             		  lda showTextCursor_2
4105 1A33 C6 03                		  adi 3
4106 1A35 C3 BD 25             		  jmp directCursor
4107 1A38                      		hideTextCursor:
4108 1A38 3E FF                		  mvi a, 255
4109 1A3A 32 2B 2D             		  sta showTextCursor_1
4110 1A3D C3 19 1A             		  jmp showTextCursor
4111 1A40                      		drawSwapPanels:
4112 1A40 21 27 2D             		  lxi h, activePanel
4113 1A43 3E 20                		  mvi a, 32
4114 1A45 96                   		  sub m
4115 1A46 32 27 2D             		  sta activePanel
4116 1A49 C9                   		  ret
4118 1A4A                      		hideFileCursor:
4119 1A4A 2A 28 2D             		  lhld fileCursorAddr
4120 1A4D 7D                   		  mov a, l
4121 1A4E B4                   		  ora h
4122 1A4F C2 53 1A             		  jnz l315
4124 1A52 C9                   		  ret
4125 1A53                      		l315:
4127 1A53 36 20                		  mvi m, 32
4129 1A55 11 0D 00             		  lxi d, 13
4130 1A58 19                   		  dad d
4131 1A59 36 20                		  mvi m, 32
4133 1A5B 21 00 00             		  lxi h, 0
4134 1A5E 22 28 2D             		  shld fileCursorAddr
4135 1A61 C9                   		  ret
4137 1A62                      		showFileCursor:
4138 1A62 CD 4A 1A             		  call hideFileCursor
4140 1A65 16 0F                		  mvi d, 15
4141 1A67 3A 1B 28             		  lda (panelA)+(258)
4142 1A6A CD EA 20             		  call op_mul
4144 1A6D 23                   		  inx h
4145 1A6E 23                   		  inx h
4147 1A6F EB                   		  xchg
4148 1A70 2A 27 2D             		  lhld activePanel
4149 1A73 26 00                		  mvi h, 0
4150 1A75 19                   		  dad d
4151 1A76 7D                   		  mov a, l
4152 1A77 32 FE 2D             		  sta charAddr_1
4153 1A7A 3A 1C 28             		  lda (panelA)+(259)
4154 1A7D C6 02                		  adi 2
4155 1A7F CD D2 25             		  call charAddr
4156 1A82 22 28 2D             		  shld fileCursorAddr
4158 1A85 36 5B                		  mvi m, 91
4160 1A87 11 0D 00             		  lxi d, 13
4161 1A8A 19                   		  dad d
4162 1A8B 36 5D                		  mvi m, 93
4163 1A8D C9                   		  ret
4165 1A8E                      		vLine:
4166 1A8E 32 30 2D             		  sta vLine_3
4168 1A91 C5                   		    push b
4169 1A92 57                   		    mov d, a
4170 1A93 3A 06 2E             		    lda radio86rkVideoBpl
4171 1A96 4F                   		    mov c, a
4172 1A97 06 00                		    mvi b, 0
4173 1A99 3A 2F 2D             		    lda vLine_2
4174 1A9C 5F                   		    mov e, a
4175 1A9D 2A 2D 2D             		    lhld vLine_1
4176 1AA0                      		vLine_l0:
4177 1AA0 72                   		    mov m, d
4178 1AA1 09                   		    dad b
4179 1AA2 1D                   		    dcr e 
4180 1AA3 C2 A0 1A             		    jnz vLine_l0
4181 1AA6 C1                   		    pop b
4183 1AA7 C9                   		  ret
4185 1AA8                      		drawRect:
4186 1AA8 32 34 2D             		  sta drawRect_3
4188 1AAB 2A 31 2D             		  lhld drawRect_1
4189 1AAE 36 04                		  mvi m, 4
4191 1AB0 23                   		  inx h
4192 1AB1 22 9E 2D             		  shld memset_1
4193 1AB4 3E 1C                		  mvi a, 28
4194 1AB6 32 A0 2D             		  sta memset_2
4195 1AB9 2A 33 2D             		  lhld drawRect_2
4196 1ABC 26 00                		  mvi h, 0
4197 1ABE CD 74 22             		  call memset
4199 1AC1 2A 31 2D             		  lhld drawRect_1
4200 1AC4 EB                   		  xchg
4201 1AC5 2A 33 2D             		  lhld drawRect_2
4202 1AC8 26 00                		  mvi h, 0
4203 1ACA 19                   		  dad d
4204 1ACB 36 10                		  mvi m, 16
4206 1ACD 11 4B 00             		  lxi d, 75
4207 1AD0 2A 31 2D             		  lhld drawRect_1
4208 1AD3 19                   		  dad d
4209 1AD4 22 31 2D             		  shld drawRect_1
4211 1AD7 3A 34 2D             		  lda drawRect_3
4212 1ADA 32 35 2D             		  sta drawRect_i
4213 1ADD                      		l316:
4215 1ADD 3A 35 2D             		  lda drawRect_i
4216 1AE0 B7                   		  ora a
4217 1AE1 CA 03 1B             		  jz l317
4219 1AE4 2A 31 2D             		  lhld drawRect_1
4220 1AE7 36 06                		  mvi m, 6
4222 1AE9 EB                   		  xchg
4223 1AEA 2A 33 2D             		  lhld drawRect_2
4224 1AED 26 00                		  mvi h, 0
4225 1AEF 19                   		  dad d
4226 1AF0 36 11                		  mvi m, 17
4228 1AF2 11 4B 00             		  lxi d, 75
4229 1AF5 2A 31 2D             		  lhld drawRect_1
4230 1AF8 19                   		  dad d
4231 1AF9 22 31 2D             		  shld drawRect_1
4232 1AFC                      		l318:
4233 1AFC 21 35 2D             		  lxi h, drawRect_i
4234 1AFF 35                   		  dcr m
4235 1B00 C3 DD 1A             		  jmp l316
4236 1B03                      		l317:
4238 1B03 2A 31 2D             		  lhld drawRect_1
4239 1B06 36 02                		  mvi m, 2
4241 1B08 23                   		  inx h
4242 1B09 22 9E 2D             		  shld memset_1
4243 1B0C 3E 1C                		  mvi a, 28
4244 1B0E 32 A0 2D             		  sta memset_2
4245 1B11 2A 33 2D             		  lhld drawRect_2
4246 1B14 26 00                		  mvi h, 0
4247 1B16 CD 74 22             		  call memset
4249 1B19 2A 31 2D             		  lhld drawRect_1
4250 1B1C EB                   		  xchg
4251 1B1D 2A 33 2D             		  lhld drawRect_2
4252 1B20 26 00                		  mvi h, 0
4253 1B22 19                   		  dad d
4254 1B23 36 01                		  mvi m, 1
4255 1B25 C9                   		  ret
4257 1B26                      		fillRect:
4258 1B26 32 3A 2D             		  sta fillRect_4
4260 1B29 C5                   		    push b
4261 1B2A 3A 06 2E             		    lda radio86rkVideoBpl
4262 1B2D 4F                   		    mov c, a
4263 1B2E 06 00                		    mvi b, 0
4264 1B30 2A 36 2D             		    lhld fillRect_1
4265 1B33 3A 39 2D             		    lda fillRect_3
4266 1B36 57                   		    mov d, a
4267 1B37 3A 3A 2D             		    lda fillRect_4
4268 1B3A 5F                   		    mov e, a
4269 1B3B                      		fillRect_l1:  
4270 1B3B 3A 38 2D             		    lda fillRect_2
4271 1B3E E5                   		    push h
4272 1B3F                      		fillRect_l0:
4273 1B3F 73                   		    mov m, e
4274 1B40 23                   		    inx h
4275 1B41 3D                   		    dcr a
4276 1B42 C2 3F 1B             		    jnz fillRect_l0
4277 1B45 E1                   		    pop h
4278 1B46 09                   		    dad b    
4279 1B47 15                   		    dcr d
4280 1B48 C2 3B 1B             		    jnz fillRect_l1
4281 1B4B C1                   		    pop b
4283 1B4C C9                   		  ret
4285 1B4D                      		drawFilesCountInt:
4286 1B4D 22 3D 2D             		  shld drawFilesCountInt_2
4288 1B50 3A 27 2D             		  lda activePanel
4289 1B53 C6 02                		  adi 2
4290 1B55 32 FE 2D             		  sta charAddr_1
4291 1B58 3E 1A                		  mvi a, 26
4292 1B5A CD D2 25             		  call charAddr
4293 1B5D 22 40 2D             		  shld drawFilesCountInt_a
4295 1B60 22 7E 2D             		  shld i2s32_1
4296 1B63 2A 3B 2D             		  lhld drawFilesCountInt_1
4297 1B66 22 80 2D             		  shld i2s32_2
4298 1B69 21 0A 00             		  lxi h, 10
4299 1B6C 22 82 2D             		  shld i2s32_3
4300 1B6F 3E 20                		  mvi a, 32
4301 1B71 CD 04 21             		  call i2s32
4303 1B74 2A 40 2D             		  lhld drawFilesCountInt_a
4304 1B77 11 0B 00             		  lxi d, 11
4305 1B7A 19                   		  dad d
4306 1B7B 22 00 2E             		  shld print2_1
4307 1B7E 21 8E 2F             		  lxi h, string42
4308 1B81 CD E9 25             		  call print2
4310 1B84 2A 3D 2D             		  lhld drawFilesCountInt_2
4311 1B87 11 17 FC             		  lxi d, 64535
4312 1B8A 19                   		  dad d
4313 1B8B DA A9 1B             		  jc l319
4315 1B8E 2A 40 2D             		  lhld drawFilesCountInt_a
4316 1B91 11 12 00             		  lxi d, 18
4317 1B94 19                   		  dad d
4318 1B95 22 89 2D             		  shld i2s_1
4319 1B98 2A 3D 2D             		  lhld drawFilesCountInt_2
4320 1B9B 22 8B 2D             		  shld i2s_2
4321 1B9E 21 03 00             		  lxi h, 3
4322 1BA1 22 8D 2D             		  shld i2s_3
4323 1BA4 3E 20                		  mvi a, 32
4324 1BA6 CD 7A 21             		  call i2s
4325 1BA9                      		l319:
4327 1BA9 11 64 00             		  lxi d, 100
4328 1BAC 2A 3D 2D             		  lhld drawFilesCountInt_2
4329 1BAF CD D9 22             		  call op_mod16
4330 1BB2 7D                   		  mov a, l
4331 1BB3 32 3F 2D             		  sta drawFilesCountInt_v
4333 1BB6 2A 40 2D             		  lhld drawFilesCountInt_a
4334 1BB9 11 16 00             		  lxi d, 22
4335 1BBC 19                   		  dad d
4336 1BBD 22 00 2E             		  shld print2_1
4337 1BC0 FE 0A                		  cpi 10
4338 1BC2 DA CF 1B             		  jc l320
4339 1BC5 FE 14                		  cpi 20
4340 1BC7 D2 CF 1B             		  jnc l320
4341 1BCA 3E 01                		  mvi a, 1
4342 1BCC C3 D0 1B             		  jmp l321
4343 1BCF                      		l320:
4344 1BCF AF                   		  xra a
4345 1BD0                      		l321:
4347 1BD0 B7                   		  ora a
4348 1BD1 C2 E6 1B             		  jnz l322
4349 1BD4 16 0A                		  mvi d, 10
4350 1BD6 3A 3F 2D             		  lda drawFilesCountInt_v
4351 1BD9 CD FC 25             		  call op_mod
4352 1BDC FE 01                		  cpi 1
4353 1BDE C2 E6 1B             		  jnz l322
4354 1BE1 3E 01                		  mvi a, 1
4355 1BE3 C3 E7 1B             		  jmp l323
4356 1BE6                      		l322:
4357 1BE6 AF                   		  xra a
4358 1BE7                      		l323:
4359 1BE7 B7                   		  ora a
4360 1BE8 CA F1 1B             		  jz l324
4361 1BEB 21 CE 2F             		  lxi h, string43
4362 1BEE C3 F4 1B             		  jmp l325
4363 1BF1                      		l324:
4364 1BF1 21 C6 2F             		  lxi h, string44
4365 1BF4                      		l325:
4366 1BF4 C3 E9 25             		  jmp print2
4367 1BF7                      		drawPanel:
4368 1BF7 22 42 2D             		  shld drawPanel_1
4370 1BFA 22 31 2D             		  shld drawRect_1
4371 1BFD 3E 1E                		  mvi a, 30
4372 1BFF 32 33 2D             		  sta drawRect_2
4373 1C02 3E 1A                		  mvi a, 26
4374 1C04 CD A8 1A             		  call drawRect
4376 1C07 2A 42 2D             		  lhld drawPanel_1
4377 1C0A 11 09 07             		  lxi d, 1801
4378 1C0D 19                   		  dad d
4379 1C0E 22 9E 2D             		  shld memset_1
4380 1C11 3E 1C                		  mvi a, 28
4381 1C13 32 A0 2D             		  sta memset_2
4382 1C16 21 1D 00             		  lxi h, 29
4383 1C19 CD 74 22             		  call memset
4385 1C1C 2A 42 2D             		  lhld drawPanel_1
4386 1C1F 11 5A 00             		  lxi d, 90
4387 1C22 19                   		  dad d
4388 1C23 22 2D 2D             		  shld vLine_1
4389 1C26 3E 17                		  mvi a, 23
4390 1C28 32 2F 2D             		  sta vLine_2
4391 1C2B 3E 1B                		  mvi a, 27
4392 1C2D CD 8E 1A             		  call vLine
4394 1C30 2A 42 2D             		  lhld drawPanel_1
4395 1C33 11 51 00             		  lxi d, 81
4396 1C36 19                   		  dad d
4397 1C37 22 00 2E             		  shld print2_1
4398 1C3A 21 D5 2F             		  lxi h, string45
4399 1C3D CD E9 25             		  call print2
4401 1C40 2A 42 2D             		  lhld drawPanel_1
4402 1C43 11 60 00             		  lxi d, 96
4403 1C46 19                   		  dad d
4404 1C47 22 00 2E             		  shld print2_1
4405 1C4A 21 D5 2F             		  lxi h, string45
4406 1C4D C3 E9 25             		  jmp print2
4407 1C50                      		drawScreenInt:
4408 1C50 2A 04 2E             		  lhld radio86rkVideoMem
4409 1C53 22 36 2D             		  shld fillRect_1
4410 1C56 3E 40                		  mvi a, 64
4411 1C58 32 38 2D             		  sta fillRect_2
4412 1C5B 3E 1E                		  mvi a, 30
4413 1C5D 32 39 2D             		  sta fillRect_3
4414 1C60 3E 20                		  mvi a, 32
4415 1C62 CD 26 1B             		  call fillRect
4417 1C65 3E 01                		  mvi a, 1
4418 1C67 32 07 2E             		  sta print_1
4419 1C6A 3E 1D                		  mvi a, 29
4420 1C6C 32 08 2E             		  sta print_2
4421 1C6F 21 11 2F             		  lxi h, string46
4422 1C72 CD 19 26             		  call print
4424 1C75 2A 04 2E             		  lhld radio86rkVideoMem
4425 1C78 23                   		  inx h
4426 1C79 CD F7 1B             		  call drawPanel
4428 1C7C 2A 04 2E             		  lhld radio86rkVideoMem
4429 1C7F 11 21 00             		  lxi d, 33
4430 1C82 19                   		  dad d
4431 1C83 CD F7 1B             		  call drawPanel
4433 1C86 3E 01                		  mvi a, 1
4434 1C88 CD 9C 1C             		  call drawPanelTitle
4436 1C8B CD 0C 00             		  call swapPanels
4438 1C8E AF                   		  xra a
4439 1C8F CD 9C 1C             		  call drawPanelTitle
4441 1C92 CD 0C 00             		  call swapPanels
4443 1C95 21 00 00             		  lxi h, 0
4444 1C98 22 28 2D             		  shld fileCursorAddr
4445 1C9B C9                   		  ret
4447 1C9C                      		drawPanelTitle:
4448 1C9C 32 44 2D             		  sta drawPanelTitle_1
4450 1C9F 3A 27 2D             		  lda activePanel
4451 1CA2 C6 02                		  adi 2
4452 1CA4 32 FE 2D             		  sta charAddr_1
4453 1CA7 AF                   		  xra a
4454 1CA8 CD D2 25             		  call charAddr
4455 1CAB 22 9E 2D             		  shld memset_1
4456 1CAE 3E 1C                		  mvi a, 28
4457 1CB0 32 A0 2D             		  sta memset_2
4458 1CB3 21 1D 00             		  lxi h, 29
4459 1CB6 CD 74 22             		  call memset
4461 1CB9 21 1B 27             		  lxi h, (panelA)+(2)
4462 1CBC 22 45 2D             		  shld drawPanelTitle_p
4464 1CBF 7E                   		  mov a, m
4465 1CC0 B7                   		  ora a
4466 1CC1 C2 CA 1C             		  jnz l326
4468 1CC4 21 FC 2E             		  lxi h, string21
4469 1CC7 22 45 2D             		  shld drawPanelTitle_p
4470 1CCA                      		l326:
4472 1CCA CD 05 22             		  call strlen
4473 1CCD 22 47 2D             		  shld drawPanelTitle_l
4475 1CD0 11 E5 FF             		  lxi d, 65509
4476 1CD3 19                   		  dad d
4477 1CD4 D2 EC 1C             		  jnc l327
4479 1CD7 2A 47 2D             		  lhld drawPanelTitle_l
4480 1CDA 11 E5 FF             		  lxi d, 65509
4481 1CDD 19                   		  dad d
4483 1CDE EB                   		  xchg
4484 1CDF 2A 45 2D             		  lhld drawPanelTitle_p
4485 1CE2 19                   		  dad d
4486 1CE3 22 45 2D             		  shld drawPanelTitle_p
4487 1CE6 21 1B 00             		  lxi h, 27
4488 1CE9 22 47 2D             		  shld drawPanelTitle_l
4489 1CEC                      		l327:
4491 1CEC 2A 47 2D             		  lhld drawPanelTitle_l
4492 1CEF 3E 1E                		  mvi a, 30
4493 1CF1 95                   		  sub l
4494 1CF2 6F                   		  mov l, a
4495 1CF3 3E 00                		  mvi a, 0
4496 1CF5 9C                   		  sbb h
4497 1CF6 67                   		  mov h, a
4498 1CF7 11 02 00             		  lxi d, 2
4499 1CFA CD 39 22             		  call op_div16
4501 1CFD 23                   		  inx h
4502 1CFE 23                   		  inx h
4504 1CFF EB                   		  xchg
4505 1D00 2A 27 2D             		  lhld activePanel
4506 1D03 26 00                		  mvi h, 0
4507 1D05 19                   		  dad d
4508 1D06 7D                   		  mov a, l
4509 1D07 32 49 2D             		  sta drawPanelTitle_x
4511 1D0A 32 0B 2E             		  sta printn_1
4512 1D0D AF                   		  xra a
4513 1D0E 32 0C 2E             		  sta printn_2
4514 1D11 3A 47 2D             		  lda drawPanelTitle_l
4515 1D14 32 0D 2E             		  sta printn_3
4516 1D17 2A 45 2D             		  lhld drawPanelTitle_p
4517 1D1A CD 31 26             		  call printn
4519 1D1D 3A 44 2D             		  lda drawPanelTitle_1
4520 1D20 B7                   		  ora a
4521 1D21 C2 25 1D             		  jnz l328
4523 1D24 C9                   		  ret
4524 1D25                      		l328:
4526 1D25 3A 49 2D             		  lda drawPanelTitle_x
4527 1D28 3D                   		  dcr a
4528 1D29 32 07 2E             		  sta print_1
4529 1D2C AF                   		  xra a
4530 1D2D 32 08 2E             		  sta print_2
4531 1D30 21 51 2F             		  lxi h, string47
4532 1D33 CD 19 26             		  call print
4534 1D36 2A 49 2D             		  lhld drawPanelTitle_x
4535 1D39 26 00                		  mvi h, 0
4536 1D3B EB                   		  xchg
4537 1D3C 2A 47 2D             		  lhld drawPanelTitle_l
4538 1D3F 19                   		  dad d
4539 1D40 7D                   		  mov a, l
4540 1D41 32 07 2E             		  sta print_1
4541 1D44 AF                   		  xra a
4542 1D45 32 08 2E             		  sta print_2
4543 1D48 21 8C 2F             		  lxi h, string48
4544 1D4B C3 19 26             		  jmp print
4545 1D4E                      		drawFile2:
4546 1D4E 22 4C 2D             		  shld drawFile2_2
4548 1D51 2A 4A 2D             		  lhld drawFile2_1
4549 1D54 22 10 2E             		  shld print2n_1
4550 1D57 3E 08                		  mvi a, 8
4551 1D59 32 12 2E             		  sta print2n_2
4552 1D5C 2A 4C 2D             		  lhld drawFile2_2
4553 1D5F CD 4F 26             		  call print2n
4555 1D62 2A 4A 2D             		  lhld drawFile2_1
4556 1D65 11 08 00             		  lxi d, 8
4557 1D68 19                   		  dad d
4559 1D69 E5                   		  push h
4560 1D6A 2A 4C 2D             		  lhld drawFile2_2
4561 1D6D 11 0B 00             		  lxi d, 11
4562 1D70 19                   		  dad d
4563 1D71 7E                   		  mov a, m
4564 1D72 E6 80                		  ani 128
4565 1D74 CA 7C 1D             		  jz l329
4566 1D77 3E 2A                		  mvi a, 42
4567 1D79 C3 90 1D             		  jmp l330
4568 1D7C                      		l329:
4570 1D7C 2A 4C 2D             		  lhld drawFile2_2
4571 1D7F 11 0B 00             		  lxi d, 11
4572 1D82 19                   		  dad d
4573 1D83 7E                   		  mov a, m
4574 1D84 E6 06                		  ani 6
4575 1D86 CA 8E 1D             		  jz l331
4576 1D89 3E 7F                		  mvi a, 127
4577 1D8B C3 90 1D             		  jmp l332
4578 1D8E                      		l331:
4579 1D8E 3E 20                		  mvi a, 32
4580 1D90                      		l332:
4581 1D90                      		l330:
4582 1D90 E1                   		  pop h
4583 1D91 77                   		  mov m, a
4585 1D92 2A 4A 2D             		  lhld drawFile2_1
4586 1D95 11 09 00             		  lxi d, 9
4587 1D98 19                   		  dad d
4588 1D99 22 10 2E             		  shld print2n_1
4589 1D9C 3E 03                		  mvi a, 3
4590 1D9E 32 12 2E             		  sta print2n_2
4592 1DA1 2A 4C 2D             		  lhld drawFile2_2
4593 1DA4 11 08 00             		  lxi d, 8
4594 1DA7 19                   		  dad d
4595 1DA8 C3 4F 26             		  jmp print2n
4596 1DAB                      		drawColumn:
4597 1DAB C5                   		  push b
4598 1DAC 32 4E 2D             		  sta drawColumn_1
4600 1DAF 16 16                		  mvi d, 22
4601 1DB1 CD EA 20             		  call op_mul
4603 1DB4 EB                   		  xchg
4604 1DB5 2A 1D 28             		  lhld (panelA)+(260)
4605 1DB8 19                   		  dad d
4606 1DB9 44                   		  mov b, h
4607 1DBA 4D                   		  mov c, l
4609 1DBB 54                   		  mov d, h
4610 1DBC 5D                   		  mov e, l
4611 1DBD 29                   		  dad h
4612 1DBE 29                   		  dad h
4613 1DBF 19                   		  dad d
4614 1DC0 29                   		  dad h
4615 1DC1 29                   		  dad h
4617 1DC2 EB                   		  xchg
4618 1DC3 2A 19 27             		  lhld panelA
4619 1DC6 19                   		  dad d
4620 1DC7 22 52 2D             		  shld drawColumn_f
4622 1DCA 16 0F                		  mvi d, 15
4623 1DCC 3A 4E 2D             		  lda drawColumn_1
4624 1DCF CD EA 20             		  call op_mul
4626 1DD2 23                   		  inx h
4627 1DD3 23                   		  inx h
4628 1DD4 23                   		  inx h
4630 1DD5 EB                   		  xchg
4631 1DD6 2A 27 2D             		  lhld activePanel
4632 1DD9 26 00                		  mvi h, 0
4633 1DDB 19                   		  dad d
4634 1DDC 7D                   		  mov a, l
4635 1DDD 32 FE 2D             		  sta charAddr_1
4636 1DE0 3E 02                		  mvi a, 2
4637 1DE2 CD D2 25             		  call charAddr
4638 1DE5 22 4F 2D             		  shld drawColumn_a
4640 1DE8 3E 16                		  mvi a, 22
4641 1DEA 32 51 2D             		  sta drawColumn_y
4642 1DED                      		l333:
4644 1DED 3A 51 2D             		  lda drawColumn_y
4645 1DF0 B7                   		  ora a
4646 1DF1 CA 3D 1E             		  jz l334
4648 1DF4 2A 1F 28             		  lhld (panelA)+(262)
4649 1DF7 50                   		  mov d, b
4650 1DF8 59                   		  mov e, c
4651 1DF9 CD FE 20             		  call op_cmp16
4652 1DFC CA 02 1E             		  jz l337
4653 1DFF D2 15 1E             		  jnc l336
4654 1E02                      		l337:
4656 1E02 2A 4F 2D             		  lhld drawColumn_a
4657 1E05 22 15 2E             		  shld print2cn_1
4658 1E08 3E 0C                		  mvi a, 12
4659 1E0A 32 17 2E             		  sta print2cn_2
4660 1E0D 3E 20                		  mvi a, 32
4661 1E0F CD 6B 26             		  call print2cn
4663 1E12 C3 2C 1E             		  jmp l335
4664 1E15                      		l336:
4666 1E15 2A 4F 2D             		  lhld drawColumn_a
4667 1E18 22 4A 2D             		  shld drawFile2_1
4668 1E1B 2A 52 2D             		  lhld drawColumn_f
4669 1E1E CD 4E 1D             		  call drawFile2
4671 1E21 2A 52 2D             		  lhld drawColumn_f
4672 1E24 11 14 00             		  lxi d, 20
4673 1E27 19                   		  dad d
4674 1E28 22 52 2D             		  shld drawColumn_f
4676 1E2B 03                   		  inx b
4677 1E2C                      		l335:
4678 1E2C 21 51 2D             		  lxi h, drawColumn_y
4679 1E2F 35                   		  dcr m
4681 1E30 11 4B 00             		  lxi d, 75
4682 1E33 2A 4F 2D             		  lhld drawColumn_a
4683 1E36 19                   		  dad d
4684 1E37 22 4F 2D             		  shld drawColumn_a
4685 1E3A C3 ED 1D             		  jmp l333
4686 1E3D                      		l334:
4687 1E3D C1                   		  pop b
4688 1E3E C9                   		  ret
4690 1E3F                      		drawFile:
4691 1E3F 22 56 2D             		  shld drawFile_3
4693 1E42 16 0F                		  mvi d, 15
4694 1E44 3A 54 2D             		  lda drawFile_1
4695 1E47 CD EA 20             		  call op_mul
4697 1E4A 23                   		  inx h
4698 1E4B 23                   		  inx h
4699 1E4C 23                   		  inx h
4701 1E4D EB                   		  xchg
4702 1E4E 2A 27 2D             		  lhld activePanel
4703 1E51 26 00                		  mvi h, 0
4704 1E53 19                   		  dad d
4705 1E54 7D                   		  mov a, l
4706 1E55 32 FE 2D             		  sta charAddr_1
4707 1E58 3A 55 2D             		  lda drawFile_2
4708 1E5B C6 02                		  adi 2
4709 1E5D CD D2 25             		  call charAddr
4710 1E60 22 4A 2D             		  shld drawFile2_1
4711 1E63 2A 56 2D             		  lhld drawFile_3
4712 1E66 C3 4E 1D             		  jmp drawFile2
4713 1E69                      		drawFileInfo1:
4714 1E69 22 58 2D             		  shld drawFileInfo1_1
4716 1E6C 3A 27 2D             		  lda activePanel
4717 1E6F C6 03                		  adi 3
4718 1E71 32 19 2E             		  sta printm_1
4719 1E74 3E 19                		  mvi a, 25
4720 1E76 32 1A 2E             		  sta printm_2
4721 1E79 3E 0A                		  mvi a, 10
4722 1E7B 32 1B 2E             		  sta printm_3
4723 1E7E C3 7E 26             		  jmp printm
4724 1E81                      		drawFileInfoDir:
4725 1E81 21 32 2E             		  lxi h, string49
4726 1E84 C3 69 1E             		  jmp drawFileInfo1
4727 1E87                      		drawFileInfo2:
4728 1E87 22 5A 2D             		  shld drawFileInfo2_1
4730 1E8A 3A 27 2D             		  lda activePanel
4731 1E8D C6 0E                		  adi 14
4732 1E8F 32 19 2E             		  sta printm_1
4733 1E92 3E 19                		  mvi a, 25
4734 1E94 32 1A 2E             		  sta printm_2
4735 1E97 3E 10                		  mvi a, 16
4736 1E99 32 1B 2E             		  sta printm_3
4737 1E9C C3 7E 26             		  jmp printm
4738 1E9F                      		drawCmdLineWithPath:
4739 1E9F C5                   		  push b
4741 1EA0 3E 01                		  mvi a, 1
4742 1EA2 32 07 2E             		  sta print_1
4743 1EA5 3E 1C                		  mvi a, 28
4744 1EA7 32 08 2E             		  sta print_2
4745 1EAA 21 FC 2E             		  lxi h, string21
4746 1EAD CD 19 26             		  call print
4748 1EB0 21 1B 27             		  lxi h, (panelA)+(2)
4749 1EB3 CD 05 22             		  call strlen
4750 1EB6 22 5C 2D             		  shld drawCmdLineWithPath_l
4752 1EB9 11 E2 FF             		  lxi d, 65506
4753 1EBC 19                   		  dad d
4754 1EBD D2 D2 1E             		  jnc l338
4756 1EC0 2A 5C 2D             		  lhld drawCmdLineWithPath_l
4757 1EC3 11 E2 FF             		  lxi d, 65506
4758 1EC6 19                   		  dad d
4759 1EC7 44                   		  mov b, h
4760 1EC8 4D                   		  mov c, l
4761 1EC9 21 1E 00             		  lxi h, 30
4762 1ECC 22 5C 2D             		  shld drawCmdLineWithPath_l
4763 1ECF C3 D5 1E             		  jmp l339
4764 1ED2                      		l338:
4766 1ED2 01 00 00             		  lxi b, 0
4767 1ED5                      		l339:
4769 1ED5 3E 02                		  mvi a, 2
4770 1ED7 32 0B 2E             		  sta printn_1
4771 1EDA 3E 1C                		  mvi a, 28
4772 1EDC 32 0C 2E             		  sta printn_2
4773 1EDF 3A 5C 2D             		  lda drawCmdLineWithPath_l
4774 1EE2 32 0D 2E             		  sta printn_3
4776 1EE5 21 1B 27             		  lxi h, (panelA)+(2)
4777 1EE8 09                   		  dad b
4778 1EE9 CD 31 26             		  call printn
4780 1EEC 2A 5C 2D             		  lhld drawCmdLineWithPath_l
4781 1EEF 23                   		  inx h
4782 1EF0 23                   		  inx h
4783 1EF1 7D                   		  mov a, l
4784 1EF2 32 07 2E             		  sta print_1
4785 1EF5 3E 1C                		  mvi a, 28
4786 1EF7 32 08 2E             		  sta print_2
4787 1EFA 21 0F 2F             		  lxi h, string50
4788 1EFD CD 19 26             		  call print
4790 1F00 2A 5C 2D             		  lhld drawCmdLineWithPath_l
4791 1F03 23                   		  inx h
4792 1F04 23                   		  inx h
4793 1F05 23                   		  inx h
4794 1F06 22 21 28             		  shld (panelA)+(264)
4796 1F09 CD D3 1F             		  call drawCmdLine
4797 1F0C C1                   		  pop b
4798 1F0D C9                   		  ret
4800 1F0E                      		drawWindow:
4801 1F0E C5                   		  push b
4802 1F0F 22 60 2D             		  shld drawWindow_1
4804 1F12 CD 38 1A             		  call hideTextCursor
4806 1F15 3E 08                		  mvi a, 8
4807 1F17 32 FE 2D             		  sta charAddr_1
4808 1F1A CD D2 25             		  call charAddr
4809 1F1D 22 36 2D             		  shld fillRect_1
4810 1F20 3E 31                		  mvi a, 49
4811 1F22 32 38 2D             		  sta fillRect_2
4812 1F25 3E 0B                		  mvi a, 11
4813 1F27 32 39 2D             		  sta fillRect_3
4814 1F2A 3E 20                		  mvi a, 32
4815 1F2C CD 26 1B             		  call fillRect
4817 1F2F 3E 09                		  mvi a, 9
4818 1F31 32 FE 2D             		  sta charAddr_1
4819 1F34 CD D2 25             		  call charAddr
4820 1F37 22 31 2D             		  shld drawRect_1
4821 1F3A 3E 2E                		  mvi a, 46
4822 1F3C 32 33 2D             		  sta drawRect_2
4823 1F3F 3E 07                		  mvi a, 7
4824 1F41 CD A8 1A             		  call drawRect
4826 1F44 2A 60 2D             		  lhld drawWindow_1
4827 1F47 CD 05 22             		  call strlen
4829 1F4A 3E 40                		  mvi a, 64
4830 1F4C 95                   		  sub l
4831 1F4D 6F                   		  mov l, a
4832 1F4E 3E 00                		  mvi a, 0
4833 1F50 9C                   		  sbb h
4834 1F51 67                   		  mov h, a
4836 1F52 7C                   		  mov a, h
4837 1F53 BF                   		  cmp a
4838 1F54 1F                   		  rar
4839 1F55 67                   		  mov h, a
4840 1F56 7D                   		  mov a, l
4841 1F57 1F                   		  rar
4842 1F58 6F                   		  mov l, a
4843 1F59 7D                   		  mov a, l
4844 1F5A 32 07 2E             		  sta print_1
4845 1F5D 3E 09                		  mvi a, 9
4846 1F5F 32 08 2E             		  sta print_2
4847 1F62 2A 60 2D             		  lhld drawWindow_1
4848 1F65 CD 19 26             		  call print
4849 1F68 C1                   		  pop b
4850 1F69 C9                   		  ret
4852 1F6A                      		drawAnyKeyButton:
4853 1F6A 3E 1B                		  mvi a, 27
4854 1F6C 32 07 2E             		  sta print_1
4855 1F6F 3E 0F                		  mvi a, 15
4856 1F71 32 08 2E             		  sta print_2
4857 1F74 21 53 2F             		  lxi h, string51
4858 1F77 C3 19 26             		  jmp print
4859 1F7A                      		drawEscButton:
4860 1F7A 3E 19                		  mvi a, 25
4861 1F7C 32 07 2E             		  sta print_1
4862 1F7F 3E 0F                		  mvi a, 15
4863 1F81 32 08 2E             		  sta print_2
4864 1F84 21 5F 2F             		  lxi h, string52
4865 1F87 C3 19 26             		  jmp print
4866 1F8A                      		drawWindowText:
4867 1F8A 22 64 2D             		  shld drawWindowText_3
4869 1F8D 3A 62 2D             		  lda drawWindowText_1
4870 1F90 C6 0D                		  adi 13
4871 1F92 32 0B 2E             		  sta printn_1
4872 1F95 3A 63 2D             		  lda drawWindowText_2
4873 1F98 C6 0B                		  adi 11
4874 1F9A 32 0C 2E             		  sta printn_2
4876 1F9D 21 62 2D             		  lxi h, drawWindowText_1
4877 1FA0 3E 28                		  mvi a, 40
4878 1FA2 96                   		  sub m
4879 1FA3 32 0D 2E             		  sta printn_3
4880 1FA6 2A 64 2D             		  lhld drawWindowText_3
4881 1FA9 C3 31 26             		  jmp printn
4882 1FAC                      		drawWindowProgress:
4883 1FAC 32 69 2D             		  sta drawWindowProgress_4
4885 1FAF 3A 68 2D             		  lda drawWindowProgress_3
4886 1FB2 B7                   		  ora a
4887 1FB3 C2 B7 1F             		  jnz l340
4889 1FB6 C9                   		  ret
4890 1FB7                      		l340:
4892 1FB7 3A 66 2D             		  lda drawWindowProgress_1
4893 1FBA C6 0D                		  adi 13
4894 1FBC 32 1E 2E             		  sta printcn_1
4895 1FBF 3A 67 2D             		  lda drawWindowProgress_2
4896 1FC2 C6 0B                		  adi 11
4897 1FC4 32 1F 2E             		  sta printcn_2
4898 1FC7 3A 68 2D             		  lda drawWindowProgress_3
4899 1FCA 32 20 2E             		  sta printcn_3
4900 1FCD 3A 69 2D             		  lda drawWindowProgress_4
4901 1FD0 C3 9C 26             		  jmp printcn
4902 1FD3                      		drawCmdLine:
4903 1FD3 3A 21 28             		  lda (panelA)+(264)
4904 1FD6 32 6A 2D             		  sta drawInput_1
4905 1FD9 3E 1C                		  mvi a, 28
4906 1FDB 32 6B 2D             		  sta drawInput_2
4908 1FDE 2A 21 28             		  lhld (panelA)+(264)
4909 1FE1 3E 3E                		  mvi a, 62
4910 1FE3 95                   		  sub l
4911 1FE4 6F                   		  mov l, a
4912 1FE5 3E 00                		  mvi a, 0
4913 1FE7 9C                   		  sbb h
4914 1FE8 67                   		  mov h, a
4915 1FE9 7D                   		  mov a, l
4916 1FEA C3 ED 1F             		  jmp drawInput
4917 1FED                      		drawInput:
4918 1FED C5                   		  push b
4919 1FEE 32 6C 2D             		  sta drawInput_3
4921 1FF1 21 2D 29             		  lxi h, cmdline
4922 1FF4 CD 05 22             		  call strlen
4923 1FF7 22 73 2D             		  shld drawInput_cmdline_pos
4925 1FFA 21 6C 2D             		  lxi h, drawInput_3
4926 1FFD 35                   		  dcr m
4928 1FFE 2A 73 2D             		  lhld drawInput_cmdline_pos
4929 2001 EB                   		  xchg
4930 2002 2A 6C 2D             		  lhld drawInput_3
4931 2005 26 00                		  mvi h, 0
4932 2007 CD FE 20             		  call op_cmp16
4933 200A DA 19 20             		  jc l341
4934 200D CA 19 20             		  jz l341
4936 2010 21 00 00             		  lxi h, 0
4937 2013 22 71 2D             		  shld drawInput_cmdline_offset
4938 2016 C3 2B 20             		  jmp l342
4939 2019                      		l341:
4941 2019 2A 6C 2D             		  lhld drawInput_3
4942 201C 26 00                		  mvi h, 0
4943 201E EB                   		  xchg
4944 201F 2A 73 2D             		  lhld drawInput_cmdline_pos
4945 2022 7D                   		  mov a, l
4946 2023 93                   		  sub e
4947 2024 6F                   		  mov l, a
4948 2025 7C                   		  mov a, h
4949 2026 9A                   		  sbb d
4950 2027 67                   		  mov h, a
4951 2028 22 71 2D             		  shld drawInput_cmdline_offset
4952 202B                      		l342:
4954 202B 2A 71 2D             		  lhld drawInput_cmdline_offset
4955 202E EB                   		  xchg
4956 202F 2A 73 2D             		  lhld drawInput_cmdline_pos
4957 2032 7D                   		  mov a, l
4958 2033 93                   		  sub e
4959 2034 6F                   		  mov l, a
4960 2035 7C                   		  mov a, h
4961 2036 9A                   		  sbb d
4962 2037 67                   		  mov h, a
4963 2038 22 6D 2D             		  shld drawInput_c1
4965 203B 2A 73 2D             		  lhld drawInput_cmdline_pos
4966 203E 11 2D 29             		  lxi d, cmdline
4967 2041 19                   		  dad d
4968 2042 36 00                		  mvi m, 0
4970 2044 2A 6D 2D             		  lhld drawInput_c1
4971 2047 23                   		  inx h
4972 2048 22 6D 2D             		  shld drawInput_c1
4974 204B EB                   		  xchg
4975 204C 2A 6C 2D             		  lhld drawInput_3
4976 204F 26 00                		  mvi h, 0
4977 2051 CD FE 20             		  call op_cmp16
4978 2054 D2 5F 20             		  jnc l343
4980 2057 2A 6C 2D             		  lhld drawInput_3
4981 205A 26 00                		  mvi h, 0
4982 205C 22 6D 2D             		  shld drawInput_c1
4983 205F                      		l343:
4985 205F 2A 6D 2D             		  lhld drawInput_c1
4986 2062 23                   		  inx h
4987 2063 22 6D 2D             		  shld drawInput_c1
4989 2066 21 6C 2D             		  lxi h, drawInput_3
4990 2069 34                   		  inr m
4992 206A 3A 6A 2D             		  lda drawInput_1
4993 206D 32 19 2E             		  sta printm_1
4994 2070 3A 6B 2D             		  lda drawInput_2
4995 2073 32 1A 2E             		  sta printm_2
4996 2076 3A 6C 2D             		  lda drawInput_3
4997 2079 32 1B 2E             		  sta printm_3
4999 207C 2A 71 2D             		  lhld drawInput_cmdline_offset
5000 207F 11 2D 29             		  lxi d, cmdline
5001 2082 19                   		  dad d
5002 2083 CD 7E 26             		  call printm
5004 2086 2A 6A 2D             		  lhld drawInput_1
5005 2089 26 00                		  mvi h, 0
5006 208B EB                   		  xchg
5007 208C 2A 73 2D             		  lhld drawInput_cmdline_pos
5008 208F 19                   		  dad d
5010 2090 EB                   		  xchg
5011 2091 2A 71 2D             		  lhld drawInput_cmdline_offset
5012 2094 EB                   		  xchg
5013 2095 7D                   		  mov a, l
5014 2096 93                   		  sub e
5015 2097 6F                   		  mov l, a
5016 2098 7C                   		  mov a, h
5017 2099 9A                   		  sbb d
5018 209A 67                   		  mov h, a
5019 209B 7D                   		  mov a, l
5020 209C 32 2B 2D             		  sta showTextCursor_1
5021 209F 3A 6B 2D             		  lda drawInput_2
5022 20A2 CD 19 1A             		  call showTextCursor
5023 20A5 C1                   		  pop b
5024 20A6 C9                   		  ret
5026 20A7                      		drawWindowInput:
5027 20A7 32 77 2D             		  sta drawWindowInput_3
5029 20AA 3A 75 2D             		  lda drawWindowInput_1
5030 20AD C6 0D                		  adi 13
5031 20AF 32 6A 2D             		  sta drawInput_1
5032 20B2 3A 76 2D             		  lda drawWindowInput_2
5033 20B5 C6 0B                		  adi 11
5034 20B7 32 6B 2D             		  sta drawInput_2
5035 20BA 3A 77 2D             		  lda drawWindowInput_3
5036 20BD C3 ED 1F             		  jmp drawInput
5037 20C0                      		getch1:
5038 20C0 C3 03 F8             		  jmp 63491
5039 20C3 C9                   		  ret
5041 20C4                      		bioskey1:
5042 20C4 C3 1B F8             		  jmp 63515
5043 20C7 C9                   		  ret
5045 20C8                      		memswap:
5046 20C8 22 7C 2D             		  shld memswap_3
5048 20CB C5                   		    push b
5050 20CC EB                   		    xchg
5052 20CD 2A 7A 2D             		    lhld memswap_2
5053 20D0 4D                   		    mov c, l
5054 20D1 44                   		    mov b, h
5056 20D2 2A 78 2D             		    lhld memswap_1
5057 20D5                      		memswap_l1:
5059 20D5 7A                   		    mov a, d
5060 20D6 B3                   		    ora e
5061 20D7 CA E8 20             		    jz memswap_l2
5063 20DA 0A                   		    ldax b
5064 20DB 32 E1 20             		    sta memswap_v1
5065 20DE 7E                   		    mov a, m
5066 20DF 02                   		    stax b
5067 20E0 36                   		    .db 36h ; mvi m, 0
5068 20E1                      		memswap_v1:
5069 20E1 00                   		    .db 0    
5071 20E2 23                   		    inx h
5072 20E3 03                   		    inx b
5073 20E4 1B                   		    dcx d
5075 20E5 C3 D5 20             		    jmp memswap_l1
5076 20E8                      		memswap_l2:
5077 20E8 C1                   		    pop b
5079 20E9 C9                   		  ret
5081 20EA                      		op_mul:
5082 20EA C5                   		  push b
5083 20EB 21 00 00             		  lxi h, 0
5084 20EE 5A                   		  mov e, d  ; de=d
5085 20EF 55                   		  mov d, l  
5086 20F0 0E 08                		  mvi c, 8
5087 20F2                      		op_mul1:
5088 20F2 29                   		  dad h
5089 20F3 87                   		  add a
5090 20F4 D2 F8 20             		  jnc op_mul2
5091 20F7 19                   		    dad d
5092 20F8                      		op_mul2:
5093 20F8 0D                   		  dcr c
5094 20F9 C2 F2 20             		  jnz op_mul1
5095 20FC                      		pop_bc_ret:
5096 20FC C1                   		  pop b
5098 20FD C9                   		  ret
5100 20FE                      		op_cmp16:
5101 20FE 7C                   		    mov a, h
5102 20FF BA                   		    cmp d
5103 2100 C0                   		    rnz
5104 2101 7D                   		    mov a, l
5105 2102 BB                   		    cmp e
5107 2103 C9                   		  ret
5109 2104                      		i2s32:
5110 2104 32 84 2D             		  sta i2s32_4
5112 2107 21 85 2D             		  lxi h, i2s32_v
5113 210A 22 DD 2D             		  shld set32_1
5114 210D 2A 80 2D             		  lhld i2s32_2
5115 2110 CD FC 23             		  call set32
5117 2113 2A 82 2D             		  lhld i2s32_3
5118 2116 EB                   		  xchg
5119 2117 2A 7E 2D             		  lhld i2s32_1
5120 211A 19                   		  dad d
5121 211B 22 7E 2D             		  shld i2s32_1
5123 211E 36 00                		  mvi m, 0
5125 2120                      		l344:
5127 2120 21 85 2D             		  lxi h, i2s32_v
5128 2123 22 E1 2D             		  shld div32_16_1
5129 2126 21 0A 00             		  lxi h, 10
5130 2129 CD 12 24             		  call div32_16
5132 212C 2A 7E 2D             		  lhld i2s32_1
5133 212F 2B                   		  dcx h
5134 2130 22 7E 2D             		  shld i2s32_1
5136 2133 2A 9C 2D             		  lhld op_div16_mod
5137 2136 11 FE 2E             		  lxi d, string53
5138 2139 19                   		  dad d
5139 213A 7E                   		  mov a, m
5140 213B 2A 7E 2D             		  lhld i2s32_1
5141 213E 77                   		  mov m, a
5143 213F 2A 82 2D             		  lhld i2s32_3
5144 2142 2B                   		  dcx h
5145 2143 22 82 2D             		  shld i2s32_3
5147 2146 7D                   		  mov a, l
5148 2147 B4                   		  ora h
5149 2148 C2 4C 21             		  jnz l346
5151 214B C9                   		  ret
5152 214C                      		l346:
5154 214C 2A 85 2D             		  lhld (i2s32_v)+(0)
5155 214F 7D                   		  mov a, l
5156 2150 B4                   		  ora h
5157 2151 C2 5C 21             		  jnz l347
5159 2154 2A 87 2D             		  lhld (i2s32_v)+(2)
5160 2157 7D                   		  mov a, l
5161 2158 B4                   		  ora h
5162 2159 CA 5F 21             		  jz l345
5163 215C                      		l347:
5164 215C C3 20 21             		  jmp l344
5165 215F                      		l345:
5167 215F                      		l348:
5169 215F 2A 7E 2D             		  lhld i2s32_1
5170 2162 2B                   		  dcx h
5171 2163 22 7E 2D             		  shld i2s32_1
5173 2166 3A 84 2D             		  lda i2s32_4
5174 2169 77                   		  mov m, a
5176 216A 2A 82 2D             		  lhld i2s32_3
5177 216D 2B                   		  dcx h
5178 216E 22 82 2D             		  shld i2s32_3
5180 2171 7D                   		  mov a, l
5181 2172 B4                   		  ora h
5182 2173 CA 79 21             		  jz l349
5183 2176 C3 5F 21             		  jmp l348
5184 2179                      		l349:
5185 2179 C9                   		  ret
5187 217A                      		i2s:
5188 217A 32 8F 2D             		  sta i2s_4
5190 217D 2A 8D 2D             		  lhld i2s_3
5191 2180 EB                   		  xchg
5192 2181 2A 89 2D             		  lhld i2s_1
5193 2184 19                   		  dad d
5194 2185 22 89 2D             		  shld i2s_1
5196 2188 36 00                		  mvi m, 0
5198 218A                      		l351:
5200 218A 11 0A 00             		  lxi d, 10
5201 218D 2A 8B 2D             		  lhld i2s_2
5202 2190 CD 39 22             		  call op_div16
5203 2193 22 8B 2D             		  shld i2s_2
5205 2196 2A 89 2D             		  lhld i2s_1
5206 2199 2B                   		  dcx h
5207 219A 22 89 2D             		  shld i2s_1
5209 219D 2A 9C 2D             		  lhld op_div16_mod
5210 21A0 11 FE 2E             		  lxi d, string53
5211 21A3 19                   		  dad d
5212 21A4 7E                   		  mov a, m
5213 21A5 2A 89 2D             		  lhld i2s_1
5214 21A8 77                   		  mov m, a
5216 21A9 2A 8D 2D             		  lhld i2s_3
5217 21AC 2B                   		  dcx h
5218 21AD 22 8D 2D             		  shld i2s_3
5220 21B0 7D                   		  mov a, l
5221 21B1 B4                   		  ora h
5222 21B2 C2 B6 21             		  jnz l353
5224 21B5 C9                   		  ret
5225 21B6                      		l353:
5227 21B6 2A 8B 2D             		  lhld i2s_2
5228 21B9 7D                   		  mov a, l
5229 21BA B4                   		  ora h
5230 21BB CA C1 21             		  jz l352
5231 21BE C3 8A 21             		  jmp l351
5232 21C1                      		l352:
5234 21C1                      		l355:
5236 21C1 2A 89 2D             		  lhld i2s_1
5237 21C4 2B                   		  dcx h
5238 21C5 22 89 2D             		  shld i2s_1
5240 21C8 3A 8F 2D             		  lda i2s_4
5241 21CB 77                   		  mov m, a
5243 21CC 2A 8D 2D             		  lhld i2s_3
5244 21CF 2B                   		  dcx h
5245 21D0 22 8D 2D             		  shld i2s_3
5247 21D3 7D                   		  mov a, l
5248 21D4 B4                   		  ora h
5249 21D5 CA DB 21             		  jz l356
5250 21D8 C3 C1 21             		  jmp l355
5251 21DB                      		l356:
5252 21DB C9                   		  ret
5254 21DC                      		op_shr16:
5255 21DC 1C                   		  inr e
5256 21DD                      		op_shr16_l:
5257 21DD 1D                   		  dcr e
5258 21DE C8                   		  rz
5259 21DF 97                   		  sub a
5260 21E0 B4                   		  ora h 
5261 21E1 1F                   		  rar
5262 21E2 67                   		  mov h, a
5263 21E3 7D                   		  mov a, l
5264 21E4 1F                   		  rar
5265 21E5 6F                   		  mov l, a
5266 21E6 C3 DD 21             		  jmp op_shr16_l
5268 21E9 C9                   		  ret
5270 21EA                      		add32_32:
5271 21EA 22 92 2D             		  shld add32_32_2
5275 21ED EB                   		    xchg
5276 21EE 2A 90 2D             		    lhld add32_32_1
5277 21F1 EB                   		    xchg
5279 21F2 1A                   		    ldax d
5280 21F3 86                   		    add  m
5281 21F4 12                   		    stax d
5282 21F5 23                   		    inx  h
5283 21F6 13                   		    inx  d
5284 21F7 1A                   		    ldax d
5285 21F8 8E                   		    adc  m
5286 21F9 12                   		    stax d
5287 21FA 23                   		    inx  h
5288 21FB 13                   		    inx  d
5289 21FC 1A                   		    ldax d
5290 21FD 8E                   		    adc  m
5291 21FE 12                   		    stax d
5292 21FF 23                   		    inx  h
5293 2200 13                   		    inx  d
5294 2201 1A                   		    ldax d
5295 2202 8E                   		    adc  m
5296 2203 12                   		    stax d
5298 2204 C9                   		  ret
5300 2205                      		strlen:
5301 2205 22 94 2D             		  shld strlen_1
5304 2208 11 FF FF             		    lxi d, -1
5305 220B                      		strlen_l1:
5306 220B AF                   		    xra a
5307 220C B6                   		    ora m
5308 220D 13                   		    inx d
5309 220E 23                   		    inx h
5310 220F C2 0B 22             		    jnz strlen_l1
5311 2212 EB                   		    xchg
5313 2213 C9                   		  ret
5315 2214                      		memcmp:
5316 2214 22 9A 2D             		  shld memcmp_3
5319 2217 7D                   		    mov a, l
5320 2218 B4                   		    ora h
5321 2219 C8                   		    rz
5322 221A C5                   		    push b
5324 221B EB                   		    xchg
5326 221C 2A 96 2D             		    lhld memcmp_1
5327 221F 44                   		    mov b, h
5328 2220 4D                   		    mov c, l
5330 2221 2A 98 2D             		    lhld memcmp_2
5332 2224                      		memcmp_l1:
5333 2224 0A                   		      ldax b
5334 2225 BE                   		      cmp m
5335 2226 C2 33 22             		      jnz memcmp_stop
5336 2229 23                   		      inx h
5337 222A 03                   		      inx b
5338 222B 1B                   		      dcx d
5339 222C 7A                   		      mov a, d
5340 222D B3                   		      ora e
5341 222E C2 24 22             		    jnz memcmp_l1
5342 2231 C1                   		    pop b
5344 2232 C9                   		    ret
5345 2233                      		memcmp_stop:
5346 2233 C1                   		    pop b
5347 2234 9F                   		    sbb a
5348 2235 D8                   		    rc
5349 2236 3C                   		    inr a
5350 2237 C9                   		    ret
5352 2238 C9                   		  ret
5354 2239                      		op_div16:
5355 2239 C5                   		        PUSH B
5356 223A EB                   		        XCHG
5357 223B CD 45 22             		        CALL _DIV0
5358 223E EB                   		        XCHG
5359 223F 22 9C 2D             		        SHLD op_div16_mod
5360 2242 EB                   		        XCHG
5361 2243 C1                   		        POP B
5362 2244 C9                   		        RET
5364 2245                      		_DIV0:
5365 2245 7C                   		_DIV:	MOV A,H
5366 2246 B5                   			ORA L
5367 2247 C8                   			RZ
5368 2248 01 00 00             			LXI B,0000
5369 224B C5                   			PUSH B
5370 224C 7B                   		_DIV1:	MOV A,E
5371 224D 95                   			SUB L
5372 224E 7A                   			MOV A,D
5373 224F 9C                   			SBB H
5374 2250 DA 58 22             			JC _DIV2
5375 2253 E5                   			PUSH H
5376 2254 29                   			DAD H
5377 2255 D2 4C 22             			JNC _DIV1
5378 2258 21 00 00             		_DIV2:	LXI H,0000
5379 225B C1                   		_DIV3:	POP B
5380 225C 78                   			MOV A,B
5381 225D B1                   			ORA C
5382 225E C8                   			RZ
5383 225F 29                   			DAD H
5384 2260 D5                   			PUSH D
5385 2261 7B                   			MOV A,E
5386 2262 91                   			SUB C
5387 2263 5F                   			MOV E,A
5388 2264 7A                   			MOV A,D
5389 2265 98                   			SBB B
5390 2266 57                   			MOV D,A
5391 2267 DA 6F 22             			JC _DIV4
5392 226A 23                   			INX H
5393 226B C1                   			POP B
5394 226C C3 5B 22             			JMP _DIV3
5395 226F D1                   		_DIV4:	POP D
5396 2270 C3 5B 22             			JMP _DIV3  
5398 2273 C9                   		  ret
5400 2274                      		memset:
5401 2274 22 A1 2D             		  shld memset_3
5403 2277 C5                   		    push b
5404 2278 3A A0 2D             		    lda memset_2
5405 227B EB                   		    xchg
5406 227C 2A 9E 2D             		    lhld memset_1
5407 227F EB                   		    xchg
5408 2280 01 FF FF             		    lxi b, -1    
5409 2283                      		memset_l1:
5410 2283 09                   		    dad b
5411 2284 D2 8C 22             		    jnc memset_l2
5412 2287 12                   		    stax d
5413 2288 13                   		    inx d
5414 2289 C3 83 22             		    jmp memset_l1
5415 228C                      		memset_l2:
5416 228C C1                   		    pop b
5418 228D C9                   		  ret
5420 228E                      		memcpy:
5421 228E 22 A7 2D             		  shld memcpy_3
5424 2291 7C                   		    mov a, h
5425 2292 B5                   		    ora l
5426 2293 C8                   		    rz
5428 2294 C5                   		    push b
5430 2295 EB                   		    xchg
5432 2296 2A A5 2D             		    lhld memcpy_2
5433 2299 4D                   		    mov c, l
5434 229A 44                   		    mov b, h
5436 229B 2A A3 2D             		    lhld memcpy_1
5438 229E 14                   		    inr d
5439 229F AF                   		    xra a
5440 22A0 B3                   		    ora e
5441 22A1 CA AC 22             		    jz memcpy_l2
5442 22A4                      		memcpy_l1:
5444 22A4 0A                   		    ldax b
5445 22A5 77                   		    mov m, a
5447 22A6 23                   		    inx h
5448 22A7 03                   		    inx b
5450 22A8 1D                   		    dcr e
5451 22A9 C2 A4 22             		    jnz memcpy_l1
5452 22AC                      		memcpy_l2:
5453 22AC 15                   		    dcr d
5454 22AD C2 A4 22             		    jnz memcpy_l1
5455 22B0 C1                   		    pop b
5457 22B1 C9                   		  ret
5459 22B2                      		fs_findfirst:
5460 22B2 22 AD 2D             		  shld fs_findfirst_3
5462 22B5 2A A9 2D             		  lhld fs_findfirst_1
5463 22B8 7E                   		  mov a, m
5464 22B9 FE 2F                		  cpi 47
5465 22BB C2 C5 22             		  jnz l358
5467 22BE 54                   		  mov d, h
5468 22BF 5D                   		  mov e, l
5469 22C0 23                   		  inx h
5470 22C1 22 A9 2D             		  shld fs_findfirst_1
5471 22C4 EB                   		  xchg
5472 22C5                      		l358:
5474 22C5 C5                   		    PUSH B
5476 22C6 EB                   		    XCHG
5477 22C7 2A AB 2D             		    LHLD fs_findfirst_2
5478 22CA 44                   		    MOV  B, H  
5479 22CB 4D                   		    MOV  C, L
5480 22CC 2A A9 2D             		    LHLD fs_findfirst_1 
5481 22CF 3E 01                		    MVI  A, 1
5482 22D1 CD E9 23             		    CALL fs_entry
5483 22D4 22 D8 2D             		    SHLD fs_low
5484 22D7 C1                   		    POP  B
5486 22D8 C9                   		  ret
5488 22D9                      		op_mod16:
5489 22D9 CD 39 22             		  call op_div16
5491 22DC 2A 9C 2D             		    lhld op_div16_mod;
5493 22DF C9                   		  ret
5495 22E0                      		strcpy:
5496 22E0 22 B1 2D             		  shld strcpy_2
5499 22E3 EB                   		    xchg
5501 22E4 2A AF 2D             		    lhld strcpy_1
5502 22E7                      		strcpy_l1:
5504 22E7 1A                   		    ldax d
5505 22E8 77                   		    mov m, a
5506 22E9 B7                   		    ora a
5507 22EA 23                   		    inx h
5508 22EB 13                   		    inx d
5509 22EC C2 E7 22             		    jnz strcpy_l1
5510 22EF 2B                   		    dcx h
5512 22F0 C9                   		  ret
5514 22F1                      		memcpy_back:
5515 22F1 22 B7 2D             		  shld memcpy_back_3
5518 22F4 7C                   		    mov a, h
5519 22F5 B5                   		    ora l
5520 22F6 C8                   		    rz
5522 22F7 C5                   		    push b
5524 22F8 EB                   		    xchg
5526 22F9 2A B5 2D             		    lhld memcpy_back_2
5527 22FC 19                   		    dad d
5528 22FD 4D                   		    mov c, l
5529 22FE 44                   		    mov b, h
5531 22FF 2A B3 2D             		    lhld memcpy_back_1
5532 2302 19                   		    dad d
5534 2303 14                   		    inr d
5535 2304 AF                   		    xra a
5536 2305 B3                   		    ora e
5537 2306 CA 11 23             		    jz memcpy_back_l2
5538 2309                      		memcpy_back_l1:
5540 2309 2B                   		    dcx h
5541 230A 0B                   		    dcx b
5543 230B 0A                   		    ldax b
5544 230C 77                   		    mov m, a
5546 230D 1D                   		    dcr e
5547 230E C2 09 23             		    jnz memcpy_back_l1
5548 2311                      		memcpy_back_l2:
5549 2311 15                   		    dcr d
5550 2312 C2 09 23             		    jnz memcpy_back_l1
5551 2315 C1                   		    pop b
5553 2316 C9                   		  ret
5555 2317                      		strchr:
5556 2317 32 BB 2D             		  sta strchr_2
5558 231A 57                   		    mov d, a
5559 231B 2A B9 2D             		    lhld strchr_1
5560 231E                      		strchr_l1:
5562 231E 7E                   		    mov a, m
5563 231F BA                   		    cmp d
5564 2320 C8                   		    rz
5565 2321 23                   		    inx h
5566 2322 B7                   		    ora a
5567 2323 C2 1E 23             		    jnz strchr_l1
5568 2326 67                   		    mov h, a
5569 2327 6F                   		    mov l, a
5571 2328 C9                   		  ret
5573 2329                      		strcmp:
5574 2329 22 BE 2D             		  shld strcmp_2
5576 232C                      		l359:
5578 232C 2A BC 2D             		  lhld strcmp_1
5579 232F 7E                   		  mov a, m
5580 2330 32 C0 2D             		  sta strcmp_a
5581 2333 2A BE 2D             		  lhld strcmp_2
5582 2336 7E                   		  mov a, m
5583 2337 32 C1 2D             		  sta strcmp_b
5585 233A 21 C1 2D             		  lxi h, strcmp_b
5586 233D 3A C0 2D             		  lda strcmp_a
5587 2340 BE                   		  cmp m
5588 2341 D2 47 23             		  jnc l361
5590 2344 3E FF                		  mvi a, 255
5591 2346 C9                   		  ret
5592 2347                      		l361:
5594 2347 21 C0 2D             		  lxi h, strcmp_a
5595 234A 3A C1 2D             		  lda strcmp_b
5596 234D BE                   		  cmp m
5597 234E D2 54 23             		  jnc l362
5599 2351 3E 01                		  mvi a, 1
5600 2353 C9                   		  ret
5601 2354                      		l362:
5603 2354 2A BC 2D             		  lhld strcmp_1
5604 2357 7E                   		  mov a, m
5605 2358 B7                   		  ora a
5606 2359 C2 5E 23             		  jnz l363
5608 235C AF                   		  xra a
5609 235D C9                   		  ret
5610 235E                      		l363:
5612 235E 23                   		  inx h
5613 235F 22 BC 2D             		  shld strcmp_1
5614 2362 2A BE 2D             		  lhld strcmp_2
5615 2365 23                   		  inx h
5616 2366 22 BE 2D             		  shld strcmp_2
5617 2369 C3 2C 23             		  jmp l359
5618 236C                      		l360:
5619 236C C9                   		  ret
5621 236D                      		op_mul16:
5622 236D C5                   		  push b
5623 236E 44                   		  mov b, h
5624 236F 4D                   		  mov c, l
5625 2370 21 00 00             		  lxi h, 0
5626 2373 3E 11                		  mvi a, 17
5627 2375                      		op_mul16_1:
5628 2375 3D                   		  dcr a
5629 2376 CA FC 20             		  jz pop_bc_ret
5630 2379 29                   		  dad h
5631 237A EB                   		  xchg
5632 237B D2 83 23             		  jnc op_mul16_2
5633 237E 29                   		  dad h
5634 237F 23                   		  inx h
5635 2380 C3 84 23             		  jmp op_mul16_3
5636 2383                      		op_mul16_2:
5637 2383 29                   		  dad h
5638 2384                      		op_mul16_3:
5639 2384 EB                   		  xchg
5640 2385 D2 75 23             		  jnc op_mul16_1
5641 2388 09                   		  dad b
5642 2389 D2 75 23             		  jnc op_mul16_1
5643 238C 13                   		  inx d
5644 238D C3 75 23             		  jmp op_mul16_1
5646 2390 C9                   		  ret
5648 2391                      		fs_open:
5649 2391 22 C2 2D             		  shld fs_open_1
5651 2394 22 22 2E             		  shld fs_open0_1
5652 2397 AF                   		  xra a
5653 2398 C3 BA 26             		  jmp fs_open0
5654 239B C9                   		  ret
5656 239C                      		fs_read:
5657 239C 22 C6 2D             		  shld fs_read_2
5659 239F C5                   		    PUSH B
5661 23A0 EB                   		    XCHG
5662 23A1 2A C4 2D             		    LHLD fs_read_1
5663 23A4 EB                   		    XCHG
5664 23A5 3E 04                		    MVI  A, 4
5665 23A7 CD E9 23             		    CALL fs_entry ; HL-, DE- / HL- , A- 
5666 23AA 22 D8 2D             		    SHLD fs_low
5667 23AD C1                   		    POP  B    
5669 23AE C9                   		  ret
5671 23AF                      		fs_create:
5672 23AF 22 C8 2D             		  shld fs_create_1
5674 23B2 22 22 2E             		  shld fs_open0_1
5675 23B5 3E 01                		  mvi a, 1
5676 23B7 C3 BA 26             		  jmp fs_open0
5677 23BA C9                   		  ret
5679 23BB                      		fs_write:
5680 23BB 22 CC 2D             		  shld fs_write_2
5682 23BE C5                   		    PUSH B
5684 23BF EB                   		    XCHG
5685 23C0 2A CA 2D             		    LHLD fs_write_1
5686 23C3 EB                   		    XCHG
5687 23C4 3A DC 2D             		    LDA  fs_addr
5688 23C7 3E 05                		    MVI  A, 5
5689 23C9 CD E9 23             		    CALL fs_entry ; HL-, DE- / A- 
5690 23CC C1                   		    POP  B    
5692 23CD C9                   		  ret
5694 23CE                      		fs_exec:
5695 23CE 22 D0 2D             		  shld fs_exec_2
5698 23D1 C5                   		    PUSH B
5699 23D2 EB                   		    XCHG
5700 23D3 2A CE 2D             		    LHLD fs_exec_1
5701 23D6 AF                   		    XRA  A
5702 23D7 CD E9 23             		    CALL fs_entry
5703 23DA C1                   		    POP  B
5705 23DB C9                   		  ret
5707 23DC                      		fs_init:
5708 23DC 22 D2 2D             		    SHLD fs_cmdLine
5709 23DF EB                   		    XCHG
5710 23E0 22 D5 2D             		    SHLD fs_selfName
5711 23E3 60                   		    MOV H, B
5712 23E4 69                   		    MOV L, C
5713 23E5 22 EA 23             		    SHLD fs_entry_n+1
5715 23E8 C9                   		  ret
5717 23E9                      		fs_entry:
5718 23E9                      		fs_entry_n:
5719 23E9 C3 00 00             		    JMP 0000h
5721 23EC C9                   		  ret
5723 23ED                      		fs_getsize:
5724 23ED 21 00 00             		  lxi h, 0
5725 23F0 22 25 2E             		  shld fs_seek_1
5726 23F3 22 27 2E             		  shld fs_seek_2
5727 23F6 3E 64                		  mvi a, 100
5728 23F8 C3 C9 26             		  jmp fs_seek
5729 23FB C9                   		  ret
5731 23FC                      		set32:
5732 23FC 22 DF 2D             		  shld set32_2
5734 23FF EB                   		    xchg ; de = set32_2
5735 2400 2A DD 2D             		    lhld set32_1
5736 2403 1A                   		    ldax d
5737 2404 77                   		    mov m, a
5738 2405 23                   		    inx h
5739 2406 13                   		    inx d
5740 2407 1A                   		    ldax d
5741 2408 77                   		    mov m, a
5742 2409 23                   		    inx h
5743 240A 13                   		    inx d
5744 240B 1A                   		    ldax d
5745 240C 77                   		    mov m, a
5746 240D 23                   		    inx h
5747 240E 13                   		    inx d
5748 240F 1A                   		    ldax d
5749 2410 77                   		    mov m, a
5751 2411 C9                   		  ret
5753 2412                      		div32_16:
5754 2412 22 E3 2D             		  shld div32_16_2
5756 2415 2A E1 2D             		  lhld div32_16_1
5757 2418 23                   		  inx h
5758 2419 23                   		  inx h
5760 241A E5                   		  push h
5761 241B 2A E1 2D             		  lhld div32_16_1
5762 241E 23                   		  inx h
5763 241F 23                   		  inx h
5764 2420 EB                   		  xchg
5765 2421 2A E3 2D             		  lhld div32_16_2
5766 2424 EB                   		  xchg
5767 2425 7E                   		  mov a, m
5768 2426 23                   		  inx h
5769 2427 66                   		  mov h, m
5770 2428 6F                   		  mov l, a
5771 2429 CD 39 22             		  call op_div16
5772 242C D1                   		  pop d
5773 242D EB                   		  xchg
5774 242E 73                   		  mov m, e
5775 242F 23                   		  inx h
5776 2430 72                   		  mov m, d
5777 2431 2B                   		  dcx h
5779 2432 3A 9C 2D             		  lda op_div16_mod
5780 2435 32 E6 2D             		  sta (div32_16_tmp)+(1)
5782 2438 2A E1 2D             		  lhld div32_16_1
5783 243B 23                   		  inx h
5784 243C 7E                   		  mov a, m
5785 243D 32 E5 2D             		  sta (div32_16_tmp)+(0)
5787 2440 2A E1 2D             		  lhld div32_16_1
5788 2443 23                   		  inx h
5789 2444 EB                   		  xchg
5790 2445 2A E3 2D             		  lhld div32_16_2
5791 2448 EB                   		  xchg
5792 2449 E5                   		  push h
5793 244A 2A E5 2D             		  lhld div32_16_tmp
5794 244D CD 39 22             		  call op_div16
5795 2450 7D                   		  mov a, l
5796 2451 E1                   		  pop h
5797 2452 77                   		  mov m, a
5799 2453 3A 9C 2D             		  lda op_div16_mod
5800 2456 32 E6 2D             		  sta (div32_16_tmp)+(1)
5802 2459 2A E1 2D             		  lhld div32_16_1
5803 245C 7E                   		  mov a, m
5804 245D 32 E5 2D             		  sta (div32_16_tmp)+(0)
5806 2460 EB                   		  xchg
5807 2461 2A E3 2D             		  lhld div32_16_2
5808 2464 EB                   		  xchg
5809 2465 E5                   		  push h
5810 2466 2A E5 2D             		  lhld div32_16_tmp
5811 2469 CD 39 22             		  call op_div16
5812 246C 7D                   		  mov a, l
5813 246D E1                   		  pop h
5814 246E 77                   		  mov m, a
5815 246F C9                   		  ret
5817 2470                      		fs_swap:
5818 2470 21 2F 2E             		  lxi h, string13
5819 2473 22 22 2E             		  shld fs_open0_1
5820 2476 3E 65                		  mvi a, 101
5821 2478 C3 BA 26             		  jmp fs_open0
5822 247B C9                   		  ret
5824 247C                      		add32_16:
5825 247C 22 E9 2D             		  shld add32_16_2
5828 247F 2A E7 2D             		    lhld add32_16_1
5829 2482 5E                   		    mov e, m
5830 2483 23                   		    inx h
5831 2484 56                   		    mov d, m
5834 2485 2A E9 2D             		    lhld add32_16_2
5835 2488 19                   		    dad d
5838 2489 EB                   		    xchg
5839 248A 2A E7 2D             		    lhld add32_16_1
5840 248D 73                   		    mov m, e
5841 248E 23                   		    inx h
5842 248F 72                   		    mov m, d     
5845 2490 D0                   		    rnc
5846 2491 23                   		    inx h
5847 2492 34                   		    inr m    
5850 2493 C0                   		    rnz
5851 2494 23                   		    inx h
5852 2495 34                   		    inr m
5854 2496 C9                   		  ret
5856 2497                      		cmp32_32:
5857 2497 22 ED 2D             		  shld cmp32_32_2
5859 249A 2A EB 2D             		    lhld cmp32_32_1
5860 249D 23                   		    inx h
5861 249E 23                   		    inx h
5862 249F 23                   		    inx h
5863 24A0 EB                   		    xchg
5865 24A1 2A ED 2D             		    lhld cmp32_32_2
5866 24A4 23                   		    inx h
5867 24A5 23                   		    inx h
5868 24A6 23                   		    inx h
5870 24A7 1A                   		    ldax d
5871 24A8 BE                   		    cmp m
5872 24A9 C2 BF 24             		    jnz cmp32_32_l0
5874 24AC 2B                   		    dcx h
5875 24AD 1B                   		    dcx d
5876 24AE 1A                   		    ldax d
5877 24AF BE                   		    cmp m
5878 24B0 C2 BF 24             		    jnz cmp32_32_l0
5880 24B3 2B                   		    dcx h
5881 24B4 1B                   		    dcx d
5882 24B5 1A                   		    ldax d
5883 24B6 BE                   		    cmp m
5884 24B7 C2 BF 24             		    jnz cmp32_32_l0
5886 24BA 2B                   		    dcx h
5887 24BB 1B                   		    dcx d
5888 24BC 1A                   		    ldax d
5889 24BD BE                   		    cmp m
5890 24BE C8                   		    rz
5892 24BF                      		cmp32_32_l0:   
5893 24BF 3F                   		    cmc
5894 24C0 9F                   		    sbb a
5895 24C1 F6 01                		    ori 1
5896 24C3 C9                   		    ret
5898 24C4 C9                   		  ret
5900 24C5                      		sub32_32:
5901 24C5 22 F1 2D             		  shld sub32_32_2
5903 24C8 2A EF 2D             		    lhld sub32_32_1
5904 24CB EB                   		    xchg
5905 24CC 2A F1 2D             		    lhld sub32_32_2
5907 24CF 1A                   		    ldax d
5908 24D0 96                   		    sub m
5909 24D1 12                   		    stax d
5911 24D2 23                   		    inx h
5912 24D3 13                   		    inx d
5913 24D4 1A                   		    ldax d
5914 24D5 9E                   		    sbb m
5915 24D6 12                   		    stax d
5917 24D7 23                   		    inx h
5918 24D8 13                   		    inx d
5919 24D9 1A                   		    ldax d
5920 24DA 9E                   		    sbb m
5921 24DB 12                   		    stax d
5923 24DC 23                   		    inx h
5924 24DD 13                   		    inx d
5925 24DE 1A                   		    ldax d
5926 24DF 9E                   		    sbb m
5927 24E0 12                   		    stax d
5929 24E1 C9                   		  ret
5931 24E2                      		fs_delete:
5932 24E2 22 F3 2D             		  shld fs_delete_1
5934 24E5 22 22 2E             		  shld fs_open0_1
5935 24E8 3E 64                		  mvi a, 100
5936 24EA C3 BA 26             		  jmp fs_open0
5937 24ED C9                   		  ret
5939 24EE                      		fs_mkdir:
5940 24EE 22 F5 2D             		  shld fs_mkdir_1
5942 24F1 22 22 2E             		  shld fs_open0_1
5943 24F4 3E 02                		  mvi a, 2
5944 24F6 C3 BA 26             		  jmp fs_open0
5945 24F9 C9                   		  ret
5947 24FA                      		fs_move:
5948 24FA 22 F9 2D             		  shld fs_move_2
5950 24FD C5                   		    PUSH B
5951 24FE EB                   		    XCHG
5952 24FF 2A F7 2D             		    LHLD fs_move_1
5953 2502 3E 06                		    MVI  A, 6
5954 2504 CD E9 23             		    CALL fs_entry ; HL-, DE- / A- 
5955 2507 C1                   		    POP  B
5957 2508 C9                   		  ret
5959 2509                      		fs_getfree:
5960 2509 21 00 00             		  lxi h, 0
5961 250C 22 25 2E             		  shld fs_seek_1
5962 250F 22 27 2E             		  shld fs_seek_2
5963 2512 3E 66                		  mvi a, 102
5964 2514 C3 C9 26             		  jmp fs_seek
5965 2517 C9                   		  ret
5967 2518                      		fs_gettotal:
5968 2518 21 00 00             		  lxi h, 0
5969 251B 22 25 2E             		  shld fs_seek_1
5970 251E 22 27 2E             		  shld fs_seek_2
5971 2521 3E 65                		  mvi a, 101
5972 2523 C3 C9 26             		  jmp fs_seek
5973 2526 C9                   		  ret
5975 2527                      		radio86rkScreen2a:
5976 2527 C5                   		  push b
5978 2528 21 D0 76             		  lxi h, 30416
5979 252B 22 9E 2D             		  shld memset_1
5980 252E AF                   		  xra a
5981 252F 32 A0 2D             		  sta memset_2
5982 2532 21 1D 09             		  lxi h, 2333
5983 2535 CD 74 22             		  call memset
5985 2538 01 CF 76             		  lxi b, 30415
5986 253B 3E 03                		  mvi a, 3
5987 253D 32 FB 2D             		  sta radio86rkScreen2a_i
5988 2540                      		l364:
5990 2540 3A FB 2D             		  lda radio86rkScreen2a_i
5991 2543 B7                   		  ora a
5992 2544 CA 53 25             		  jz l365
5994 2547 03                   		  inx b
5995 2548 03                   		  inx b
5996 2549 3E F1                		  mvi a, 241
5997 254B 02                   		  stax b
5998 254C                      		l366:
5999 254C 21 FB 2D             		  lxi h, radio86rkScreen2a_i
6000 254F 35                   		  dcr m
6001 2550 C3 40 25             		  jmp l364
6002 2553                      		l365:
6004 2553 3E 1F                		  mvi a, 31
6005 2555 32 FB 2D             		  sta radio86rkScreen2a_i
6006 2558                      		l368:
6008 2558 3A FB 2D             		  lda radio86rkScreen2a_i
6009 255B B7                   		  ora a
6010 255C CA 6F 25             		  jz l369
6012 255F 21 4B 00             		  lxi h, 75
6013 2562 09                   		  dad b
6014 2563 44                   		  mov b, h
6015 2564 4D                   		  mov c, l
6016 2565 3E F1                		  mvi a, 241
6017 2567 02                   		  stax b
6018 2568                      		l370:
6019 2568 21 FB 2D             		  lxi h, radio86rkScreen2a_i
6020 256B 35                   		  dcr m
6021 256C C3 58 25             		  jmp l368
6022 256F                      		l369:
6024 256F 21 EC 7F             		  lxi h, 32748
6025 2572 36 FF                		  mvi m, 255
6027 2574 21 DF 76             		  lxi h, 30431
6028 2577 22 04 2E             		  shld radio86rkVideoMem
6030 257A 3E 4B                		  mvi a, 75
6031 257C 32 06 2E             		  sta radio86rkVideoBpl
6033 257F 21 01 C0             		  lxi h, 49153
6034 2582 36 00                		  mvi m, 0
6036 2584 2D                   		  dcr l
6037 2585 36 4D                		  mvi m, 77
6039 2587 36 64                		  mvi m, 100
6041 2589 36 77                		  mvi m, 119
6043 258B 36 53                		  mvi m, 83
6045 258D 2C                   		  inr l
6046 258E 36 23                		  mvi m, 35
6048 2590                      		l377:
6049 2590 3A 01 C0             		  lda 49153
6050 2593 E6 20                		  ani 32
6051 2595 C2 9B 25             		  jnz l378
6052 2598 C3 90 25             		  jmp l377
6053 259B                      		l378:
6055 259B                      		l379:
6056 259B 3A 01 C0             		  lda 49153
6057 259E E6 20                		  ani 32
6058 25A0 C2 A6 25             		  jnz l380
6059 25A3 C3 9B 25             		  jmp l379
6060 25A6                      		l380:
6062 25A6 21 08 E0             		  lxi h, 57352
6063 25A9 36 80                		  mvi m, 128
6065 25AB 2E 04                		  mvi l, 4
6066 25AD 36 D0                		  mvi m, 208
6068 25AF 36 76                		  mvi m, 118
6070 25B1 2C                   		  inr l
6071 25B2 36 1C                		  mvi m, 28
6073 25B4 36 49                		  mvi m, 73
6075 25B6 2E 08                		  mvi l, 8
6076 25B8 36 A4                		  mvi m, 164
6078 25BA F3                   		 di 
6079 25BB C1                   		  pop b
6080 25BC C9                   		  ret
6082 25BD                      		directCursor:
6083 25BD 32 FD 2D             		  sta directCursor_2
6085 25C0 21 01 C0             		  lxi h, 49153
6086 25C3 36 80                		  mvi m, 128
6088 25C5 3A FC 2D             		  lda directCursor_1
6089 25C8 32 00 C0             		  sta 49152
6091 25CB 3A FD 2D             		  lda directCursor_2
6092 25CE 32 00 C0             		  sta 49152
6093 25D1 C9                   		  ret
6095 25D2                      		charAddr:
6096 25D2 32 FF 2D             		  sta charAddr_2
6098 25D5 21 06 2E             		  lxi h, radio86rkVideoBpl
6099 25D8 56                   		  mov d, m
6100 25D9 CD EA 20             		  call op_mul
6102 25DC EB                   		  xchg
6103 25DD 2A 04 2E             		  lhld radio86rkVideoMem
6104 25E0 19                   		  dad d
6106 25E1 EB                   		  xchg
6107 25E2 2A FE 2D             		  lhld charAddr_1
6108 25E5 26 00                		  mvi h, 0
6109 25E7 19                   		  dad d
6110 25E8 C9                   		  ret
6112 25E9                      		print2:
6113 25E9 22 02 2E             		  shld print2_2
6115 25EC EB                   		    xchg
6116 25ED 2A 00 2E             		    lhld print2_1
6117 25F0                      		print2_loop:
6118 25F0 1A                   		    ldax d
6119 25F1 B7                   		    ora  a
6120 25F2 C8                   		    rz
6121 25F3 E6 7F                		    ani  07Fh
6122 25F5 77                   		    mov  m, a
6123 25F6 23                   		    inx  h
6124 25F7 13                   		    inx  d
6125 25F8 C3 F0 25             		    jmp  print2_loop
6127 25FB C9                   		  ret
6129 25FC                      		op_mod:
6130 25FC C5                   		    PUSH B
6131 25FD 5F                   		    MOV E, A
6132 25FE 21 08 00             		    LXI H, 8
6133 2601 0E 00                		    MVI C, 0
6134 2603                      		op_mod_1:
6135 2603 7B                   		    MOV A,E
6136 2604 17                   		    RAL
6137 2605 5F                   		    MOV E,A
6138 2606 79                   		    MOV A,C
6139 2607 17                   		    RAL
6140 2608 92                   		    SUB D
6141 2609 D2 0D 26             		    JNC op_mod_2
6142 260C 82                   		    ADD D
6143 260D                      		op_mod_2:
6144 260D 4F                   		    MOV C,A ;   
6145 260E 3F                   		    CMC
6146 260F 7C                   		    MOV A,H
6147 2610 17                   		    RAL
6148 2611 67                   		    MOV H,A ;   
6149 2612 2D                   		    DCR L
6150 2613 C2 03 26             		    JNZ op_mod_1
6151 2616 79                   		    MOV A, C
6152 2617 C1                   		    POP B
6154 2618 C9                   		  ret
6156 2619                      		print:
6157 2619 22 09 2E             		  shld print_3
6159 261C 3A 07 2E             		  lda print_1
6160 261F 32 FE 2D             		  sta charAddr_1
6161 2622 3A 08 2E             		  lda print_2
6162 2625 CD D2 25             		  call charAddr
6163 2628 22 00 2E             		  shld print2_1
6164 262B 2A 09 2E             		  lhld print_3
6165 262E C3 E9 25             		  jmp print2
6166 2631                      		printn:
6167 2631 22 0E 2E             		  shld printn_4
6169 2634 3A 0B 2E             		  lda printn_1
6170 2637 32 FE 2D             		  sta charAddr_1
6171 263A 3A 0C 2E             		  lda printn_2
6172 263D CD D2 25             		  call charAddr
6173 2640 22 10 2E             		  shld print2n_1
6174 2643 3A 0D 2E             		  lda printn_3
6175 2646 32 12 2E             		  sta print2n_2
6176 2649 2A 0E 2E             		  lhld printn_4
6177 264C C3 4F 26             		  jmp print2n
6178 264F                      		print2n:
6179 264F 22 13 2E             		  shld print2n_3
6181 2652 C5                   		    push b
6182 2653 EB                   		    xchg
6183 2654 2A 10 2E             		    lhld print2n_1
6184 2657 3A 12 2E             		    lda print2n_2
6185 265A 47                   		    mov b, a
6186 265B                      		print2n_loop:
6187 265B 1A                   		    ldax d
6188 265C B7                   		    ora  a
6189 265D CA 69 26             		    jz   print2n_ret
6190 2660 E6 7F                		    ani  07Fh
6191 2662 77                   		    mov  m, a
6192 2663 23                   		    inx  h
6193 2664 13                   		    inx  d
6194 2665 05                   		    dcr b
6195 2666 C2 5B 26             		    jnz  print2n_loop 
6196 2669                      		print2n_ret:
6197 2669 C1                   		    pop b
6199 266A C9                   		  ret
6201 266B                      		print2cn:
6202 266B 32 18 2E             		  sta print2cn_3
6204 266E E6 7F                		    ani  07Fh
6205 2670 57                   		    mov  d, a
6206 2671 3A 17 2E             		    lda  print2cn_2    
6207 2674 2A 15 2E             		    lhld print2cn_1
6208 2677                      		print2cn_loop:
6209 2677 72                   		    mov  m, d
6210 2678 23                   		    inx  h
6211 2679 3D                   		    dcr  a
6212 267A C2 77 26             		    jnz  print2cn_loop
6214 267D C9                   		  ret
6216 267E                      		printm:
6217 267E 22 1C 2E             		  shld printm_4
6219 2681 3A 19 2E             		  lda printm_1
6220 2684 32 FE 2D             		  sta charAddr_1
6221 2687 3A 1A 2E             		  lda printm_2
6222 268A CD D2 25             		  call charAddr
6223 268D 22 2A 2E             		  shld print2m_1
6224 2690 3A 1B 2E             		  lda printm_3
6225 2693 32 2C 2E             		  sta print2m_2
6226 2696 2A 1C 2E             		  lhld printm_4
6227 2699 C3 E3 26             		  jmp print2m
6228 269C                      		printcn:
6229 269C 32 21 2E             		  sta printcn_4
6231 269F 3A 1E 2E             		  lda printcn_1
6232 26A2 32 FE 2D             		  sta charAddr_1
6233 26A5 3A 1F 2E             		  lda printcn_2
6234 26A8 CD D2 25             		  call charAddr
6235 26AB 22 15 2E             		  shld print2cn_1
6236 26AE 3A 20 2E             		  lda printcn_3
6237 26B1 32 17 2E             		  sta print2cn_2
6238 26B4 3A 21 2E             		  lda printcn_4
6239 26B7 C3 6B 26             		  jmp print2cn
6240 26BA                      		fs_open0:
6241 26BA 32 24 2E             		  sta fs_open0_2
6244 26BD C5                   		    PUSH B
6246 26BE 57                   		    MOV  D, A 
6247 26BF 2A 22 2E             		    LHLD fs_open0_1
6248 26C2 3E 02                		    MVI  A, 2
6249 26C4 CD E9 23             		    CALL fs_entry
6250 26C7 C1                   		    POP  B
6252 26C8 C9                   		  ret
6254 26C9                      		fs_seek:
6255 26C9 32 29 2E             		  sta fs_seek_3
6257 26CC C5                   		    PUSH B
6259 26CD 47                   		    MOV  B, A
6260 26CE 2A 27 2E             		    LHLD fs_seek_2
6261 26D1 EB                   		    XCHG
6262 26D2 2A 25 2E             		    LHLD fs_seek_1
6263 26D5 3E 03                		    MVI  A, 3
6264 26D7 CD E9 23             		    CALL fs_entry ; B-, DE:HL-  / A- , DE:HL-
6265 26DA 22 D8 2D             		    SHLD fs_low
6266 26DD EB                   		    XCHG
6267 26DE 22 DA 2D             		    SHLD fs_high
6268 26E1 C1                   		    POP  B
6270 26E2 C9                   		  ret
6272 26E3                      		print2m:
6273 26E3 22 2D 2E             		  shld print2m_3
6275 26E6 C5                   		    push b
6276 26E7 EB                   		    xchg
6277 26E8 2A 2A 2E             		    lhld print2m_1
6278 26EB 3A 2C 2E             		    lda print2m_2
6279 26EE 47                   		    mov b, a
6280 26EF                      		print2m_loop:
6281 26EF 1A                   		    ldax d
6282 26F0 B7                   		    ora  a
6283 26F1 CA F5 26             		    jz   print2m_ret
6284 26F4 13                   		    inx  d
6285 26F5                      		print2m_ret:
6286 26F5 E6 7F                		    ani  07Fh
6287 26F7 77                   		    mov  m, a
6288 26F8 23                   		    inx  h
6289 26F9 05                   		    dcr b
6290 26FA C2 EF 26             		    jnz  print2m_loop 
6291 26FD C1                   		    pop b
6293 26FE C9                   		  ret
6294 26FF                      		editorApp:
6295 26FF 42 4F 4F             		  .db 66,79,79,84,47,69,68,73,84,46,82,75
6296 270B 00                   		  .db 0
6298 270C                      		viewerApp:
6299 270C 42 4F 4F             		  .db 66,79,79,84,47,86,73,69,87,46,82,75
6300 2718 00                   		  .db 0
6302 2719                      		panelA:
6303 2719 00 00 00             		 .ds 266
6304 2823                      		panelB:
6305 2823 00 00 00             		 .ds 266
6306 292D                      		cmdline:
6307 292D 00 00 00             		 .ds 256
6308 2A2D                      		maxFiles:
6309 2A2D 00 00                		 .ds 2
6310 2A2F                      		parentDir:
6311 2A2F 2E                   		 .db 46
6312 2A30 2E                   		 .db 46
6313 2A31 20                   		 .db 32
6314 2A32 20                   		 .db 32
6315 2A33 20                   		 .db 32
6316 2A34 20                   		 .db 32
6317 2A35 20                   		 .db 32
6318 2A36 20                   		 .db 32
6319 2A37 20                   		 .db 32
6320 2A38 20                   		 .db 32
6321 2A39 20                   		 .db 32
6322 2A3A 10                   		 .db 16
6323 2A3B 00                   		 .db 0
6324 2A3C 00                   		 .db 0
6325 2A3D 00                   		 .db 0
6326 2A3E 00                   		 .db 0
6327 2A3F 00                   		 .db 0
6328 2A40 00                   		 .db 0
6329 2A41 00                   		 .db 0
6330 2A42 00                   		 .db 0
6332 2A43                      		getSel_n:
6333 2A43 00 00                		 .ds 2
6334 2A45                      		getSelNoBack_f:
6335 2A45 00 00                		 .ds 2
6336 2A47                      		drawFileInfo_f:
6337 2A47 00 00                		 .ds 2
6338 2A49                      		drawFileInfo_buf:
6339 2A49 00 00 00             		 .ds 18
6340 2A5B                      		drawFilesCount_total:
6341 2A5B 00 00 00             		 .ds 4
6342 2A5F                      		drawFilesCount_i:
6343 2A5F 00 00                		 .ds 2
6344 2A61                      		drawFilesCount_filesCnt:
6345 2A61 00 00                		 .ds 2
6346 2A63                      		drawFilesCount_p:
6347 2A63 00 00                		 .ds 2
6348 2A65                      		processInput_1:
6349 2A65 00                   		 .ds 1
6350 2A66                      		drawError_1:
6351 2A66 00 00                		 .ds 2
6352 2A68                      		drawError_2:
6353 2A68 00                   		 .ds 1
6354 2A69                      		drawError_buf:
6355 2A69 00 00 00             		 .ds 4
6356 2A6D                      		inputBox_1:
6357 2A6D 00 00                		 .ds 2
6358 2A6F                      		confirm_1:
6359 2A6F 00 00                		 .ds 2
6360 2A71                      		confirm_2:
6361 2A71 00 00                		 .ds 2
6362 2A73                      		unpackName_1:
6363 2A73 00 00                		 .ds 2
6364 2A75                      		unpackName_2:
6365 2A75 00 00                		 .ds 2
6366 2A77                      		catPathAndUnpack_1:
6367 2A77 00 00                		 .ds 2
6368 2A79                      		catPathAndUnpack_2:
6369 2A79 00 00                		 .ds 2
6370 2A7B                      		catPathAndUnpack_len:
6371 2A7B 00 00                		 .ds 2
6372 2A7D                      		nextSelectedCnt:
6373 2A7D 00 00                		 .ds 2
6374 2A7F                      		nextSelectedFile:
6375 2A7F 81 2A                		 .dw $+2
6376 2A81 00 00 00             		 .ds 20
6377 2A95                      		getFirstSelected_1:
6378 2A95 00 00                		 .ds 2
6379 2A97                      		getFirstSelected_type:
6380 2A97 00                   		 .ds 1
6381 2A98                      		getNextSelected_1:
6382 2A98 00 00                		 .ds 2
6383 2A9A                      		cmpFileInfo_1:
6384 2A9A 00 00                		 .ds 2
6385 2A9C                      		cmpFileInfo_2:
6386 2A9C 00 00                		 .ds 2
6387 2A9E                      		sort_1:
6388 2A9E 00 00                		 .ds 2
6389 2AA0                      		sort_2:
6390 2AA0 00 00                		 .ds 2
6391 2AA2                      		sort_i:
6392 2AA2 00 00                		 .ds 2
6393 2AA4                      		sort_j:
6394 2AA4 00 00                		 .ds 2
6395 2AA6                      		sort_x:
6396 2AA6 00 00                		 .ds 2
6397 2AA8                      		sort_st_:
6398 2AA8 00 00 00             		 .ds 128
6399 2B28                      		sort_st:
6400 2B28 00 00                		 .ds 2
6401 2B2A                      		sort_stc:
6402 2B2A 00                   		 .ds 1
6403 2B2B                      		packName_1:
6404 2B2B 00 00                		 .ds 2
6405 2B2D                      		packName_2:
6406 2B2D 00 00                		 .ds 2
6407 2B2F                      		packName_i:
6408 2B2F 00                   		 .ds 1
6409 2B30                      		getFiles_f:
6410 2B30 00 00                		 .ds 2
6411 2B32                      		getFiles_st:
6412 2B32 00 00                		 .ds 2
6413 2B34                      		getFiles_n:
6414 2B34 00 00                		 .ds 2
6415 2B36                      		getFiles_i:
6416 2B36 00                   		 .ds 1
6417 2B37                      		getFiles_j:
6418 2B37 00 00                		 .ds 2
6419 2B39                      		getFiles_dir:
6420 2B39 00 00 00             		 .ds 20
6421 2B4D                      		selectFile_1:
6422 2B4D 00 00                		 .ds 2
6423 2B4F                      		selectFile_f:
6424 2B4F 00 00                		 .ds 2
6425 2B51                      		reloadFiles_1:
6426 2B51 00 00                		 .ds 2
6427 2B53                      		absolutePath_1:
6428 2B53 00 00                		 .ds 2
6429 2B55                      		absolutePath_l:
6430 2B55 00 00                		 .ds 2
6431 2B57                      		getName_1:
6432 2B57 00 00                		 .ds 2
6433 2B59                      		getName_p:
6434 2B59 00 00                		 .ds 2
6435 2B5B                      		dropPathInt_1:
6436 2B5B 00 00                		 .ds 2
6437 2B5D                      		dropPathInt_2:
6438 2B5D 00 00                		 .ds 2
6439 2B5F                      		dropPathInt_p:
6440 2B5F 00 00                		 .ds 2
6441 2B61                      		dropPath_buf:
6442 2B61 00 00 00             		 .ds 11
6443 2B6C                      		cursor_right_w:
6444 2B6C 00 00                		 .ds 2
6445 2B6E                      		dupFiles_1:
6446 2B6E 00                   		 .ds 1
6447 2B6F                      		loadState_i:
6448 2B6F 00 00                		 .ds 2
6449 2B71                      		run_1:
6450 2B71 00 00                		 .ds 2
6451 2B73                      		run_2:
6452 2B73 00 00                		 .ds 2
6453 2B75                      		cmd_editview_1:
6454 2B75 00 00                		 .ds 2
6455 2B77                      		cmd_editview_f:
6456 2B77 00 00                		 .ds 2
6457 2B79                      		cmd_enter_d:
6458 2B79 00 00                		 .ds 2
6459 2B7B                      		cmd_enter_i:
6460 2B7B 00                   		 .ds 1
6461 2B7C                      		cmd_enter_f:
6462 2B7C 00 00                		 .ds 2
6463 2B7E                      		cmd_enter_l:
6464 2B7E 00 00                		 .ds 2
6465 2B80                      		cmd_enter_o:
6466 2B80 00 00                		 .ds 2
6467 2B82                      		cmd_inverseOne_f:
6468 2B82 00 00                		 .ds 2
6469 2B84                      		cmd_inverseAll_f:
6470 2B84 00 00                		 .ds 2
6471 2B86                      		cmd_inverseAll_i:
6472 2B86 00 00                		 .ds 2
6473 2B88                      		cmd_copyFile_1:
6474 2B88 00 00                		 .ds 2
6475 2B8A                      		cmd_copyFile_2:
6476 2B8A 00 00                		 .ds 2
6477 2B8C                      		cmd_copyFile_buf:
6478 2B8C 00 00 00             		 .ds 16
6479 2B9C                      		cmd_copyFile_e:
6480 2B9C 00                   		 .ds 1
6481 2B9D                      		cmd_copyFile_progress_i:
6482 2B9D 00                   		 .ds 1
6483 2B9E                      		cmd_copyFile_progress:
6484 2B9E 00 00 00             		 .ds 4
6485 2BA2                      		cmd_copyFile_progress_x:
6486 2BA2 00 00 00             		 .ds 4
6487 2BA6                      		cmd_copyFile_progress_step:
6488 2BA6 00 00 00             		 .ds 4
6489 2BAA                      		applyMask1_1:
6490 2BAA 00 00                		 .ds 2
6491 2BAC                      		applyMask1_2:
6492 2BAC 00 00                		 .ds 2
6493 2BAE                      		applyMask1_3:
6494 2BAE 00                   		 .ds 1
6495 2BAF                      		cmd_copyFolder_1:
6496 2BAF 00 00                		 .ds 2
6497 2BB1                      		cmd_copyFolder_2:
6498 2BB1 00 00                		 .ds 2
6499 2BB3                      		cmd_copyFolder_e:
6500 2BB3 00                   		 .ds 1
6501 2BB4                      		cmd_copyFolder_i:
6502 2BB4 00 00                		 .ds 2
6503 2BB6                      		cmd_copyFolder_level:
6504 2BB6 00                   		 .ds 1
6505 2BB7                      		cmd_copyFolder_stack:
6506 2BB7 00 00 00             		 .ds 16
6507 2BC7                      		cmd_copyFolder_f:
6508 2BC7 00 00                		 .ds 2
6509 2BC9                      		applyMask_1:
6510 2BC9 00 00                		 .ds 2
6511 2BCB                      		applyMask_2:
6512 2BCB 00 00                		 .ds 2
6513 2BCD                      		cmd_copymove1_1:
6514 2BCD 00                   		 .ds 1
6515 2BCE                      		cmd_copymove1_2:
6516 2BCE 00                   		 .ds 1
6517 2BCF                      		cmd_copymove1_name:
6518 2BCF 00 00                		 .ds 2
6519 2BD1                      		cmd_copymove1_e:
6520 2BD1 00                   		 .ds 1
6521 2BD2                      		cmd_copymove1_f:
6522 2BD2 00 00                		 .ds 2
6523 2BD4                      		cmd_copymove1_sourceFile:
6524 2BD4 00 00 00             		 .ds 256
6525 2CD4                      		cmd_copymove1_mask:
6526 2CD4 00 00 00             		 .ds 11
6527 2CDF                      		cmd_copymove1_forMask:
6528 2CDF 00 00 00             		 .ds 11
6529 2CEA                      		cmd_copymove1_type:
6530 2CEA 00                   		 .ds 1
6531 2CEB                      		cmd_copymove1_i:
6532 2CEB 00 00                		 .ds 2
6533 2CED                      		cmd_copymove_1:
6534 2CED 00                   		 .ds 1
6535 2CEE                      		cmd_copymove_2:
6536 2CEE 00                   		 .ds 1
6537 2CEF                      		cmd_new1_1:
6538 2CEF 00                   		 .ds 1
6539 2CF0                      		cmd_new_1:
6540 2CF0 00                   		 .ds 1
6541 2CF1                      		cmd_freespace_1_1:
6542 2CF1 00                   		 .ds 1
6543 2CF2                      		cmd_freespace_1_2:
6544 2CF2 00 00                		 .ds 2
6545 2CF4                      		cmd_freespace_1_buf:
6546 2CF4 00 00 00             		 .ds 17
6547 2D05                      		cmd_freespace_e:
6548 2D05 00                   		 .ds 1
6549 2D06                      		cmd_deleteFolder_level:
6550 2D06 00                   		 .ds 1
6551 2D07                      		cmd_deleteFolder_e:
6552 2D07 00                   		 .ds 1
6553 2D08                      		cmd_deleteFolder_p:
6554 2D08 00 00                		 .ds 2
6555 2D0A                      		cmd_deleteFolder_i:
6556 2D0A 00 00                		 .ds 2
6557 2D0C                      		cmd_delete_e:
6558 2D0C 00                   		 .ds 1
6559 2D0D                      		cmd_delete_needRefresh2:
6560 2D0D 00                   		 .ds 1
6561 2D0E                      		compareMask1_1:
6562 2D0E 00 00                		 .ds 2
6563 2D10                      		compareMask1_2:
6564 2D10 00 00                		 .ds 2
6565 2D12                      		compareMask1_3:
6566 2D12 00                   		 .ds 1
6567 2D13                      		compareMask_1:
6568 2D13 00 00                		 .ds 2
6569 2D15                      		compareMask_2:
6570 2D15 00 00                		 .ds 2
6571 2D17                      		cmd_sel_1:
6572 2D17 00                   		 .ds 1
6573 2D18                      		cmd_sel_f:
6574 2D18 00 00                		 .ds 2
6575 2D1A                      		cmd_sel_i:
6576 2D1A 00 00                		 .ds 2
6577 2D1C                      		cmd_sel_buf:
6578 2D1C 00 00 00             		 .ds 11
6579 2D27                      		activePanel:
6580 2D27 00                   		 .ds 1
6581 2D28                      		fileCursorAddr:
6582 2D28 2A 2D                		 .dw $+2
6583 2D2A 00                   		 .ds 1
6584 2D2B                      		showTextCursor_1:
6585 2D2B 00                   		 .ds 1
6586 2D2C                      		showTextCursor_2:
6587 2D2C 00                   		 .ds 1
6588 2D2D                      		vLine_1:
6589 2D2D 00 00                		 .ds 2
6590 2D2F                      		vLine_2:
6591 2D2F 00                   		 .ds 1
6592 2D30                      		vLine_3:
6593 2D30 00                   		 .ds 1
6594 2D31                      		drawRect_1:
6595 2D31 00 00                		 .ds 2
6596 2D33                      		drawRect_2:
6597 2D33 00                   		 .ds 1
6598 2D34                      		drawRect_3:
6599 2D34 00                   		 .ds 1
6600 2D35                      		drawRect_i:
6601 2D35 00                   		 .ds 1
6602 2D36                      		fillRect_1:
6603 2D36 00 00                		 .ds 2
6604 2D38                      		fillRect_2:
6605 2D38 00                   		 .ds 1
6606 2D39                      		fillRect_3:
6607 2D39 00                   		 .ds 1
6608 2D3A                      		fillRect_4:
6609 2D3A 00                   		 .ds 1
6610 2D3B                      		drawFilesCountInt_1:
6611 2D3B 00 00                		 .ds 2
6612 2D3D                      		drawFilesCountInt_2:
6613 2D3D 00 00                		 .ds 2
6614 2D3F                      		drawFilesCountInt_v:
6615 2D3F 00                   		 .ds 1
6616 2D40                      		drawFilesCountInt_a:
6617 2D40 00 00                		 .ds 2
6618 2D42                      		drawPanel_1:
6619 2D42 00 00                		 .ds 2
6620 2D44                      		drawPanelTitle_1:
6621 2D44 00                   		 .ds 1
6622 2D45                      		drawPanelTitle_p:
6623 2D45 00 00                		 .ds 2
6624 2D47                      		drawPanelTitle_l:
6625 2D47 00 00                		 .ds 2
6626 2D49                      		drawPanelTitle_x:
6627 2D49 00                   		 .ds 1
6628 2D4A                      		drawFile2_1:
6629 2D4A 00 00                		 .ds 2
6630 2D4C                      		drawFile2_2:
6631 2D4C 00 00                		 .ds 2
6632 2D4E                      		drawColumn_1:
6633 2D4E 00                   		 .ds 1
6634 2D4F                      		drawColumn_a:
6635 2D4F 00 00                		 .ds 2
6636 2D51                      		drawColumn_y:
6637 2D51 00                   		 .ds 1
6638 2D52                      		drawColumn_f:
6639 2D52 00 00                		 .ds 2
6640 2D54                      		drawFile_1:
6641 2D54 00                   		 .ds 1
6642 2D55                      		drawFile_2:
6643 2D55 00                   		 .ds 1
6644 2D56                      		drawFile_3:
6645 2D56 00 00                		 .ds 2
6646 2D58                      		drawFileInfo1_1:
6647 2D58 00 00                		 .ds 2
6648 2D5A                      		drawFileInfo2_1:
6649 2D5A 00 00                		 .ds 2
6650 2D5C                      		drawCmdLineWithPath_l:
6651 2D5C 00 00                		 .ds 2
6652 2D5E                      		drawCmdLineWithPath_old:
6653 2D5E 00 00                		 .ds 2
6654 2D60                      		drawWindow_1:
6655 2D60 00 00                		 .ds 2
6656 2D62                      		drawWindowText_1:
6657 2D62 00                   		 .ds 1
6658 2D63                      		drawWindowText_2:
6659 2D63 00                   		 .ds 1
6660 2D64                      		drawWindowText_3:
6661 2D64 00 00                		 .ds 2
6662 2D66                      		drawWindowProgress_1:
6663 2D66 00                   		 .ds 1
6664 2D67                      		drawWindowProgress_2:
6665 2D67 00                   		 .ds 1
6666 2D68                      		drawWindowProgress_3:
6667 2D68 00                   		 .ds 1
6668 2D69                      		drawWindowProgress_4:
6669 2D69 00                   		 .ds 1
6670 2D6A                      		drawInput_1:
6671 2D6A 00                   		 .ds 1
6672 2D6B                      		drawInput_2:
6673 2D6B 00                   		 .ds 1
6674 2D6C                      		drawInput_3:
6675 2D6C 00                   		 .ds 1
6676 2D6D                      		drawInput_c1:
6677 2D6D 00 00                		 .ds 2
6678 2D6F                      		drawInput_old:
6679 2D6F 00 00                		 .ds 2
6680 2D71                      		drawInput_cmdline_offset:
6681 2D71 00 00                		 .ds 2
6682 2D73                      		drawInput_cmdline_pos:
6683 2D73 00 00                		 .ds 2
6684 2D75                      		drawWindowInput_1:
6685 2D75 00                   		 .ds 1
6686 2D76                      		drawWindowInput_2:
6687 2D76 00                   		 .ds 1
6688 2D77                      		drawWindowInput_3:
6689 2D77 00                   		 .ds 1
6690 2D78                      		memswap_1:
6691 2D78 00 00                		 .ds 2
6692 2D7A                      		memswap_2:
6693 2D7A 00 00                		 .ds 2
6694 2D7C                      		memswap_3:
6695 2D7C 00 00                		 .ds 2
6696 2D7E                      		i2s32_1:
6697 2D7E 00 00                		 .ds 2
6698 2D80                      		i2s32_2:
6699 2D80 00 00                		 .ds 2
6700 2D82                      		i2s32_3:
6701 2D82 00 00                		 .ds 2
6702 2D84                      		i2s32_4:
6703 2D84 00                   		 .ds 1
6704 2D85                      		i2s32_v:
6705 2D85 00 00 00             		 .ds 4
6706 2D89                      		i2s_1:
6707 2D89 00 00                		 .ds 2
6708 2D8B                      		i2s_2:
6709 2D8B 00 00                		 .ds 2
6710 2D8D                      		i2s_3:
6711 2D8D 00 00                		 .ds 2
6712 2D8F                      		i2s_4:
6713 2D8F 00                   		 .ds 1
6714 2D90                      		add32_32_1:
6715 2D90 00 00                		 .ds 2
6716 2D92                      		add32_32_2:
6717 2D92 00 00                		 .ds 2
6718 2D94                      		strlen_1:
6719 2D94 00 00                		 .ds 2
6720 2D96                      		memcmp_1:
6721 2D96 00 00                		 .ds 2
6722 2D98                      		memcmp_2:
6723 2D98 00 00                		 .ds 2
6724 2D9A                      		memcmp_3:
6725 2D9A 00 00                		 .ds 2
6726 2D9C                      		op_div16_mod:
6727 2D9C 00 00                		 .ds 2
6728 2D9E                      		memset_1:
6729 2D9E 00 00                		 .ds 2
6730 2DA0                      		memset_2:
6731 2DA0 00                   		 .ds 1
6732 2DA1                      		memset_3:
6733 2DA1 00 00                		 .ds 2
6734 2DA3                      		memcpy_1:
6735 2DA3 00 00                		 .ds 2
6736 2DA5                      		memcpy_2:
6737 2DA5 00 00                		 .ds 2
6738 2DA7                      		memcpy_3:
6739 2DA7 00 00                		 .ds 2
6740 2DA9                      		fs_findfirst_1:
6741 2DA9 00 00                		 .ds 2
6742 2DAB                      		fs_findfirst_2:
6743 2DAB 00 00                		 .ds 2
6744 2DAD                      		fs_findfirst_3:
6745 2DAD 00 00                		 .ds 2
6746 2DAF                      		strcpy_1:
6747 2DAF 00 00                		 .ds 2
6748 2DB1                      		strcpy_2:
6749 2DB1 00 00                		 .ds 2
6750 2DB3                      		memcpy_back_1:
6751 2DB3 00 00                		 .ds 2
6752 2DB5                      		memcpy_back_2:
6753 2DB5 00 00                		 .ds 2
6754 2DB7                      		memcpy_back_3:
6755 2DB7 00 00                		 .ds 2
6756 2DB9                      		strchr_1:
6757 2DB9 00 00                		 .ds 2
6758 2DBB                      		strchr_2:
6759 2DBB 00                   		 .ds 1
6760 2DBC                      		strcmp_1:
6761 2DBC 00 00                		 .ds 2
6762 2DBE                      		strcmp_2:
6763 2DBE 00 00                		 .ds 2
6764 2DC0                      		strcmp_a:
6765 2DC0 00                   		 .ds 1
6766 2DC1                      		strcmp_b:
6767 2DC1 00                   		 .ds 1
6768 2DC2                      		fs_open_1:
6769 2DC2 00 00                		 .ds 2
6770 2DC4                      		fs_read_1:
6771 2DC4 00 00                		 .ds 2
6772 2DC6                      		fs_read_2:
6773 2DC6 00 00                		 .ds 2
6774 2DC8                      		fs_create_1:
6775 2DC8 00 00                		 .ds 2
6776 2DCA                      		fs_write_1:
6777 2DCA 00 00                		 .ds 2
6778 2DCC                      		fs_write_2:
6779 2DCC 00 00                		 .ds 2
6780 2DCE                      		fs_exec_1:
6781 2DCE 00 00                		 .ds 2
6782 2DD0                      		fs_exec_2:
6783 2DD0 00 00                		 .ds 2
6784 2DD2                      		fs_cmdLine:
6785 2DD2 D4 2D                		 .dw $+2
6786 2DD4 00                   		 .ds 1
6787 2DD5                      		fs_selfName:
6788 2DD5 D7 2D                		 .dw $+2
6789 2DD7 00                   		 .ds 1
6790 2DD8                      		fs_low:
6791 2DD8 00 00                		 .ds 2
6792 2DDA                      		fs_high:
6793 2DDA 00 00                		 .ds 2
6794 2DDC                      		fs_addr:
6795 2DDC 00                   		 .ds 1
6796 2DDD                      		set32_1:
6797 2DDD 00 00                		 .ds 2
6798 2DDF                      		set32_2:
6799 2DDF 00 00                		 .ds 2
6800 2DE1                      		div32_16_1:
6801 2DE1 00 00                		 .ds 2
6802 2DE3                      		div32_16_2:
6803 2DE3 00 00                		 .ds 2
6804 2DE5                      		div32_16_tmp:
6805 2DE5 00 00                		 .ds 2
6806 2DE7                      		add32_16_1:
6807 2DE7 00 00                		 .ds 2
6808 2DE9                      		add32_16_2:
6809 2DE9 00 00                		 .ds 2
6810 2DEB                      		cmp32_32_1:
6811 2DEB 00 00                		 .ds 2
6812 2DED                      		cmp32_32_2:
6813 2DED 00 00                		 .ds 2
6814 2DEF                      		sub32_32_1:
6815 2DEF 00 00                		 .ds 2
6816 2DF1                      		sub32_32_2:
6817 2DF1 00 00                		 .ds 2
6818 2DF3                      		fs_delete_1:
6819 2DF3 00 00                		 .ds 2
6820 2DF5                      		fs_mkdir_1:
6821 2DF5 00 00                		 .ds 2
6822 2DF7                      		fs_move_1:
6823 2DF7 00 00                		 .ds 2
6824 2DF9                      		fs_move_2:
6825 2DF9 00 00                		 .ds 2
6826 2DFB                      		radio86rkScreen2a_i:
6827 2DFB 00                   		 .ds 1
6828 2DFC                      		directCursor_1:
6829 2DFC 00                   		 .ds 1
6830 2DFD                      		directCursor_2:
6831 2DFD 00                   		 .ds 1
6832 2DFE                      		charAddr_1:
6833 2DFE 00                   		 .ds 1
6834 2DFF                      		charAddr_2:
6835 2DFF 00                   		 .ds 1
6836 2E00                      		print2_1:
6837 2E00 00 00                		 .ds 2
6838 2E02                      		print2_2:
6839 2E02 00 00                		 .ds 2
6840 2E04                      		radio86rkVideoMem:
6841 2E04 C2 36                		 .dw 14018
6843 2E06                      		radio86rkVideoBpl:
6844 2E06 4E                   		 .db 78
6846 2E07                      		print_1:
6847 2E07 00                   		 .ds 1
6848 2E08                      		print_2:
6849 2E08 00                   		 .ds 1
6850 2E09                      		print_3:
6851 2E09 00 00                		 .ds 2
6852 2E0B                      		printn_1:
6853 2E0B 00                   		 .ds 1
6854 2E0C                      		printn_2:
6855 2E0C 00                   		 .ds 1
6856 2E0D                      		printn_3:
6857 2E0D 00                   		 .ds 1
6858 2E0E                      		printn_4:
6859 2E0E 00 00                		 .ds 2
6860 2E10                      		print2n_1:
6861 2E10 00 00                		 .ds 2
6862 2E12                      		print2n_2:
6863 2E12 00                   		 .ds 1
6864 2E13                      		print2n_3:
6865 2E13 00 00                		 .ds 2
6866 2E15                      		print2cn_1:
6867 2E15 00 00                		 .ds 2
6868 2E17                      		print2cn_2:
6869 2E17 00                   		 .ds 1
6870 2E18                      		print2cn_3:
6871 2E18 00                   		 .ds 1
6872 2E19                      		printm_1:
6873 2E19 00                   		 .ds 1
6874 2E1A                      		printm_2:
6875 2E1A 00                   		 .ds 1
6876 2E1B                      		printm_3:
6877 2E1B 00                   		 .ds 1
6878 2E1C                      		printm_4:
6879 2E1C 00 00                		 .ds 2
6880 2E1E                      		printcn_1:
6881 2E1E 00                   		 .ds 1
6882 2E1F                      		printcn_2:
6883 2E1F 00                   		 .ds 1
6884 2E20                      		printcn_3:
6885 2E20 00                   		 .ds 1
6886 2E21                      		printcn_4:
6887 2E21 00                   		 .ds 1
6888 2E22                      		fs_open0_1:
6889 2E22 00 00                		 .ds 2
6890 2E24                      		fs_open0_2:
6891 2E24 00                   		 .ds 1
6892 2E25                      		fs_seek_1:
6893 2E25 00 00                		 .ds 2
6894 2E27                      		fs_seek_2:
6895 2E27 00 00                		 .ds 2
6896 2E29                      		fs_seek_3:
6897 2E29 00                   		 .ds 1
6898 2E2A                      		print2m_1:
6899 2E2A 00 00                		 .ds 2
6900 2E2C                      		print2m_2:
6901 2E2C 00                   		 .ds 1
6902 2E2D                      		print2m_3:
6903 2E2D 00 00                		 .ds 2
6904 2E2F                      		string13:
6905 2E2F 00                   		 .db 0
6906 2E30                      		string20:
6907 2E30 17 00                		 .db 23,0
6908 2E32                      		string49:
6909 2E32 20 20 20             		 .db 32,32,32,32,32,60,68,73,82,62,0
6910 2E3D                      		string16:
6911 2E3D 20 6B 6F             		 .db 32,107,111,112,105,114,111,119,97,110,105,101,32,0
6912 2E4B                      		string22:
6913 2E4B 20 6B 6F             		 .db 32,107,111,112,105,114,111,119,97,116,120,32,0
6914 2E58                      		string30:
6915 2E58 20 6D 62             		 .db 32,109,98,0
6916 2E5C                      		string31:
6917 2E5C 20 6E 61             		 .db 32,110,97,107,111,112,105,116,101,108,120,32,0
6918 2E69                      		string0:
6919 2E69 20 6F 7B             		 .db 32,111,123,105,98,107,97,32,0
6920 2E72                      		string24:
6921 2E72 20 70 65             		 .db 32,112,101,114,101,105,109,101,110,111,119,97,110,105,101,47,112,101,114,101,109,101,125,101,110,105,101,32,0
6922 2E8F                      		string23:
6923 2E8F 20 70 65             		 .db 32,112,101,114,101,105,109,101,110,111,119,97,116,120,47,112,101,114,101,109,101,115,116,105,116,120,32,0
6924 2EAB                      		string41:
6925 2EAB 20 70 6F             		 .db 32,112,111,109,101,116,105,116,120,32,102,97,106,108,121,32,0
6926 2EBC                      		string28:
6927 2EBC 20 73 6F             		 .db 32,115,111,122,100,97,116,120,32,102,97,106,108,32,0
6928 2ECB                      		string27:
6929 2ECB 20 73 6F             		 .db 32,115,111,122,100,97,116,120,32,112,97,112,107,117,32,0
6930 2EDB                      		string36:
6931 2EDB 20 75 64             		 .db 32,117,100,97,108,101,110,105,101,32,0
6932 2EE6                      		string37:
6933 2EE6 20 75 64             		 .db 32,117,100,97,108,105,116,120,32,0
6934 2EF0                      		string40:
6935 2EF0 2A 2E 2A             		 .db 42,46,42,0
6936 2EF4                      		string15:
6937 2EF4 2E 49 4E             		 .db 46,73,78,0
6938 2EF8                      		string14:
6939 2EF8 2E 52 4B             		 .db 46,82,75,0
6940 2EFC                      		string21:
6941 2EFC 2F 00                		 .db 47,0
6942 2EFE                      		string53:
6943 2EFE 30 31 32             		 .db 48,49,50,51,52,53,54,55,56,57,65,66,67,68,69,70,0
6944 2F0F                      		string50:
6945 2F0F 3E 00                		 .db 62,0
6946 2F11                      		string46:
6947 2F11 46 31 20             		 .db 70,49,32,70,82,69,69,32,70,50,32,78,69,87,32,32,70,51,32,86,73,69,87,32,32,70,52,32,69,68,73,84,32,70,53,32,67,79,80,89,32,70,54,32,82,69,78,32,32,70,55,32,68,73,82,32,32,70,56,32,68,69,76,0
6948 2F51                      		string47:
6949 2F51 5B 00                		 .db 91,0
6950 2F53                      		string51:
6951 2F53 5B 20 41             		 .db 91,32,65,78,89,32,75,69,89,32,93,0
6952 2F5F                      		string52:
6953 2F5F 5B 20 61             		 .db 91,32,97,114,50,32,45,32,115,116,111,112,32,93,0
6954 2F6E                      		string12:
6955 2F6E 5B 20 77             		 .db 91,32,119,107,32,45,32,111,107,32,93,32,32,91,32,97,114,50,32,45,32,111,116,109,101,110,97,32,93,0
6956 2F8C                      		string48:
6957 2F8C 5D 00                		 .db 93,0
6958 2F8E                      		string42:
6959 2F8E 62 61 6A             		 .db 98,97,106,116,32,119,32,32,32,32,0
6960 2F99                      		string7:
6961 2F99 64 69 73             		 .db 100,105,115,107,32,122,97,112,111,108,110,101,110,0
6962 2FA7                      		string8:
6963 2FA7 66 61 69             		 .db 102,97,105,108,32,115,117,125,101,115,116,119,117,101,116,0
6964 2FB7                      		string4:
6965 2FB7 66 61 6A             		 .db 102,97,106,108,32,110,101,32,111,116,107,114,121,116,0
6966 2FC6                      		string44:
6967 2FC6 66 61 6A             		 .db 102,97,106,108,97,104,32,0
6968 2FCE                      		string43:
6969 2FCE 66 61 6A             		 .db 102,97,106,108,101,32,0
6970 2FD5                      		string45:
6971 2FD5 69 6D 71             		 .db 105,109,113,0
6972 2FD9                      		string11:
6973 2FD9 69 6D 71             		 .db 105,109,113,58,0
6974 2FDE                      		string17:
6975 2FDE 69 7A 3A             		 .db 105,122,58,0
6976 2FE2                      		string6:
6977 2FE2 6D 61 6B             		 .db 109,97,107,115,105,109,117,109,32,102,97,106,108,111,119,32,119,32,112,97,112,107,101,0
6978 2FFA                      		string1:
6979 2FFA 6E 65 74             		 .db 110,101,116,32,102,97,106,108,111,119,111,106,32,115,105,115,116,101,109,121,0
6980 300F                      		string25:
6981 300F 6F 7B 69             		 .db 111,123,105,98,107,97,32,107,111,112,105,114,111,119,97,110,105,113,0
6982 3022                      		string2:
6983 3022 6F 7B 69             		 .db 111,123,105,98,107,97,32,110,97,107,111,112,105,116,101,108,113,0
6984 3034                      		string26:
6985 3034 6F 7B 69             		 .db 111,123,105,98,107,97,32,112,101,114,101,109,101,125,101,110,105,113,0
6986 3047                      		string29:
6987 3047 6F 7B 69             		 .db 111,123,105,98,107,97,32,115,111,122,100,97,110,105,113,32,112,97,112,107,105,0
6988 305D                      		string39:
6989 305D 6F 7B 69             		 .db 111,123,105,98,107,97,32,117,100,97,108,101,110,105,113,0
6990 306D                      		string33:
6991 306D 6F 7B 69             		 .db 111,123,105,98,107,97,32,126,116,101,110,105,113,0
6992 307B                      		string3:
6993 307B 70 61 70             		 .db 112,97,112,107,97,32,110,101,32,112,117,115,116,97,0
6994 308A                      		string9:
6995 308A 70 72 65             		 .db 112,114,101,114,119,97,110,111,32,112,111,108,120,122,111,119,97,116,101,108,101,109,0
6996 30A1                      		string32:
6997 30A1 70 72 6F             		 .db 112,114,111,119,101,114,107,97,46,46,46,0
6998 30AD                      		string10:
6999 30AD 70 75 74             		 .db 112,117,116,120,32,98,111,108,120,123,101,32,50,53,53,32,115,105,109,119,111,108,111,119,0
7000 30C6                      		string5:
7001 30C6 70 75 74             		 .db 112,117,116,120,32,110,101,32,110,97,106,100,101,110,0
7002 30D5                      		string19:
7003 30D5 73 6B 6F             		 .db 115,107,111,112,105,114,111,119,97,110,111,32,32,32,32,32,32,32,32,32,32,32,47,32,32,32,32,32,32,32,32,32,32,32,98,97,106,116,0
7004 30FC                      		string34:
7005 30FC 73 77 6F             		 .db 115,119,111,98,111,100,110,111,58,32,0
7006 3107                      		string18:
7007 3107 77 3A 00             		 .db 119,58,0
7008 310A                      		string35:
7009 310A 77 73 65             		 .db 119,115,101,103,111,58,0
7010 3111                      		string38:
7011 3111 77 79 20             		 .db 119,121,32,104,111,116,105,116,101,32,117,100,97,108,105,116,120,32,102,97,105,108,40,121,41,63,0
7012 312C                      		  .end
7013 312C 