0001   0000               .include "stdlib8080.inc"
0001+  0000             .org 0
0002+  0000 C3 E6 0A      jmp main
0003+  0003             
0002   0003             drawCell:
0003   0003 32 46 18      sta drawCell_2
0004   0006               ; 33 game[x][y];<g>
0005   0006 2A 45 18      lhld drawCell_1
0006   0009 26 00         mvi h, 0
0007   000B               ; Умножение HL на 2
0008   000B 29            dad h
0009   000C               ; Сложение
0010   000C 11 CE 16      lxi d, game
0011   000F 19            dad d
0012   0010               ; Сложение
0013   0010 5E            mov e, m
0014   0011 23            inx h
0015   0012 56            mov d, m
0016   0013 6F            mov l, a
0017   0014 26 00         mvi h, 0
0018   0016 19            dad d
0019   0017 7E            mov a, m
0020   0018 32 47 18      sta drawCell_g
0021   001B               ; 34 if(g==0) drawSprite(x, y, 0, emptySprite);
0022   001B B7            ora a
0023   001C C2 38 00      jnz l0
0024   001F               ; 34 drawSprite(x, y, 0, emptySprite);
0025   001F 3A 45 18      lda drawCell_1
0026   0022 32 BB 54      sta drawSprite_1
0027   0025 3A 46 18      lda drawCell_2
0028   0028 32 BC 54      sta drawSprite_2
0029   002B AF            xra a
0030   002C 32 BD 54      sta drawSprite_3
0031   002F 21 84 19      lxi h, emptySprite
0032   0032 CD CA 0E      call drawSprite
0033   0035 C3 50 00      jmp l1
0034   0038             l0:
0035   0038               ; 35 drawSprite(x, y, g, ballSprite);
0036   0038 3A 45 18      lda drawCell_1
0037   003B 32 BB 54      sta drawSprite_1
0038   003E 3A 46 18      lda drawCell_2
0039   0041 32 BC 54      sta drawSprite_2
0040   0044 3A 47 18      lda drawCell_g
0041   0047 32 BD 54      sta drawSprite_3
0042   004A 21 E4 18      lxi h, ballSprite
0043   004D CD CA 0E      call drawSprite
0044   0050             l1:
0045   0050 C9            ret
0046   0051               ; --- drawCursor -----------------------------------------------------------------
0047   0051             drawCursor:
0048   0051 2A 32 17      lhld cursorX
0049   0054 26 00         mvi h, 0
0050   0056               ; Умножение HL на 2
0051   0056 29            dad h
0052   0057               ; Сложение
0053   0057 11 CE 16      lxi d, game
0054   005A 19            dad d
0055   005B               ; Сложение
0056   005B 5E            mov e, m
0057   005C 23            inx h
0058   005D 56            mov d, m
0059   005E 2A 33 17      lhld cursorY
0060   0061 26 00         mvi h, 0
0061   0063 19            dad d
0062   0064 7E            mov a, m
0063   0065 32 48 18      sta drawCursor_g
0064   0068               ; 40 if(g==0) drawSprite(cursorX, cursorY, g, cursorSprite);
0065   0068 B7            ora a
0066   0069 C2 87 00      jnz l2
0067   006C               ; 40 drawSprite(cursorX, cursorY, g, cursorSprite);
0068   006C 3A 32 17      lda cursorX
0069   006F 32 BB 54      sta drawSprite_1
0070   0072 3A 33 17      lda cursorY
0071   0075 32 BC 54      sta drawSprite_2
0072   0078 3A 48 18      lda drawCursor_g
0073   007B 32 BD 54      sta drawSprite_3
0074   007E 21 D4 19      lxi h, cursorSprite
0075   0081 CD CA 0E      call drawSprite
0076   0084 C3 9F 00      jmp l3
0077   0087             l2:
0078   0087               ; 41 drawSprite(cursorX, cursorY, g, ballCursorSprite);
0079   0087 3A 32 17      lda cursorX
0080   008A 32 BB 54      sta drawSprite_1
0081   008D 3A 33 17      lda cursorY
0082   0090 32 BC 54      sta drawSprite_2
0083   0093 3A 48 18      lda drawCursor_g
0084   0096 32 BD 54      sta drawSprite_3
0085   0099 21 74 19      lxi h, ballCursorSprite
0086   009C CD CA 0E      call drawSprite
0087   009F             l3:
0088   009F C9            ret
0089   00A0               ; --- drawCells -----------------------------------------------------------------
0090   00A0             drawCells:
0091   00A0 AF            xra a
0092   00A1 32 4A 18      sta drawCells_y
0093   00A4             l4:
0094   00A4 3A 4A 18      lda drawCells_y
0095   00A7 FE 09         cpi 9
0096   00A9 D2 D1 00      jnc l5
0097   00AC               ; 47 for(x=0; x<9; x++)
0098   00AC AF            xra a
0099   00AD 32 49 18      sta drawCells_x
0100   00B0             l7:
0101   00B0 3A 49 18      lda drawCells_x
0102   00B3 FE 09         cpi 9
0103   00B5 D2 C9 00      jnc l8
0104   00B8               ; 48 drawCell(x,y);
0105   00B8 32 45 18      sta drawCell_1
0106   00BB 3A 4A 18      lda drawCells_y
0107   00BE CD 03 00      call drawCell
0108   00C1             l9:
0109   00C1 21 49 18      lxi h, drawCells_x
0110   00C4 7E            mov a, m
0111   00C5 34            inr m
0112   00C6 C3 B0 00      jmp l7
0113   00C9             l8:
0114   00C9             l6:
0115   00C9 21 4A 18      lxi h, drawCells_y
0116   00CC 7E            mov a, m
0117   00CD 34            inr m
0118   00CE C3 A4 00      jmp l4
0119   00D1             l5:
0120   00D1               ; 49 drawCursor();
0121   00D1 C3 51 00      jmp drawCursor
0122   00D4             clearCursor:
0123   00D4 3A 32 17      lda cursorX
0124   00D7 32 45 18      sta drawCell_1
0125   00DA 3A 33 17      lda cursorY
0126   00DD C3 03 00      jmp drawCell
0127   00E0             delay:
0128   00E0 C5            push b
0129   00E1               ; 58 for(x=0; x<700; x++);
0130   00E1 01 00 00      lxi b, 0
0131   00E4             l10:
0132   00E4               ; Сложение с BC
0133   00E4 21 43 FD      lxi h, 64835
0134   00E7 09            dad b
0135   00E8 DA F1 00      jc l11
0136   00EB             l12:
0137   00EB 60            mov h, b
0138   00EC 69            mov l, c
0139   00ED 03            inx b
0140   00EE C3 E4 00      jmp l10
0141   00F1             l11:
0142   00F1 C1            pop b
0143   00F2 C9            ret
0144   00F3               ; --- delayStep -----------------------------------------------------------------
0145   00F3             delayStep:
0146   00F3 C5            push b
0147   00F4               ; 63 for(x=0; x<2000; x++);
0148   00F4 01 00 00      lxi b, 0
0149   00F7             l13:
0150   00F7               ; Сложение с BC
0151   00F7 21 2F F8      lxi h, 63535
0152   00FA 09            dad b
0153   00FB DA 04 01      jc l14
0154   00FE             l15:
0155   00FE 60            mov h, b
0156   00FF 69            mov l, c
0157   0100 03            inx b
0158   0101 C3 F7 00      jmp l13
0159   0104             l14:
0160   0104 C1            pop b
0161   0105 C9            ret
0162   0106               ; --- clearLine -----------------------------------------------------------------
0163   0106             clearLine:
0164   0106 C5            push b
0165   0107 32 4F 18      sta clearLine_5
0166   010A               ; 72 c =  game[x0][y0];
0167   010A 2A 4B 18      lhld clearLine_1
0168   010D 26 00         mvi h, 0
0169   010F               ; Умножение HL на 2
0170   010F 29            dad h
0171   0110               ; Сложение
0172   0110 11 CE 16      lxi d, game
0173   0113 19            dad d
0174   0114               ; Сложение
0175   0114 5E            mov e, m
0176   0115 23            inx h
0177   0116 56            mov d, m
0178   0117 2A 4C 18      lhld clearLine_2
0179   011A 26 00         mvi h, 0
0180   011C 19            dad d
0181   011D 46            mov b, m
0182   011E               ; 74 for(o=0; o<4*16; o+=16) {
0183   011E AF            xra a
0184   011F 32 51 18      sta clearLine_o
0185   0122             l16:
0186   0122 FE 40         cpi 64
0187   0124 D2 7C 01      jnc l17
0188   0127               ; 75 for(x=x0, y=y0, i=n; i; --i, x=x+dx, y=y+dy)
0189   0127 3A 4B 18      lda clearLine_1
0190   012A 4F            mov c, a
0191   012B 3A 4C 18      lda clearLine_2
0192   012E 32 50 18      sta clearLine_y
0193   0131 3A 4F 18      lda clearLine_5
0194   0134 32 52 18      sta clearLine_i
0195   0137             l19:
0196   0137               ; convertToConfition
0197   0137 3A 52 18      lda clearLine_i
0198   013A B7            ora a
0199   013B CA 6E 01      jz l20
0200   013E               ; 76 drawSprite(x, y, c, killBallSprite+o);
0201   013E 79            mov a, c
0202   013F 32 BB 54      sta drawSprite_1
0203   0142 3A 50 18      lda clearLine_y
0204   0145 32 BC 54      sta drawSprite_2
0205   0148 78            mov a, b
0206   0149 32 BD 54      sta drawSprite_3
0207   014C               ; Сложение
0208   014C 2A 51 18      lhld clearLine_o
0209   014F 26 00         mvi h, 0
0210   0151 11 34 19      lxi d, killBallSprite
0211   0154 19            dad d
0212   0155 CD CA 0E      call drawSprite
0213   0158             l21:
0214   0158 21 52 18      lxi h, clearLine_i
0215   015B 35            dcr m
0216   015C 3A 4D 18      lda clearLine_3
0217   015F 81            add c
0218   0160 4F            mov c, a
0219   0161 21 4E 18      lxi h, clearLine_4
0220   0164 3A 50 18      lda clearLine_y
0221   0167 86            add m
0222   0168 32 50 18      sta clearLine_y
0223   016B C3 37 01      jmp l19
0224   016E             l20:
0225   016E               ; 77 delay();
0226   016E CD E0 00      call delay
0227   0171             l18:
0228   0171 3A 51 18      lda clearLine_o
0229   0174 C6 10         adi 16
0230   0176 32 51 18      sta clearLine_o
0231   0179 C3 22 01      jmp l16
0232   017C             l17:
0233   017C               ; 81 for(x=x0, y=y0, i=n; i; --i, x=x+dx, y=y+dy) {
0234   017C 3A 4B 18      lda clearLine_1
0235   017F 4F            mov c, a
0236   0180 3A 4C 18      lda clearLine_2
0237   0183 32 50 18      sta clearLine_y
0238   0186 3A 4F 18      lda clearLine_5
0239   0189 32 52 18      sta clearLine_i
0240   018C             l22:
0241   018C               ; convertToConfition
0242   018C 3A 52 18      lda clearLine_i
0243   018F B7            ora a
0244   0190 CA D0 01      jz l23
0245   0193               ; 82 game[x][y] = 0;
0246   0193 26 00         mvi h, 0
0247   0195 69            mov l, c
0248   0196               ; Умножение HL на 2
0249   0196 29            dad h
0250   0197               ; Сложение
0251   0197 11 CE 16      lxi d, game
0252   019A 19            dad d
0253   019B               ; Сложение
0254   019B 5E            mov e, m
0255   019C 23            inx h
0256   019D 56            mov d, m
0257   019E 2A 50 18      lhld clearLine_y
0258   01A1 26 00         mvi h, 0
0259   01A3 19            dad d
0260   01A4 36 00         mvi m, 0
0261   01A6               ; 83 drawSprite(x, y, 0, emptySprite);
0262   01A6 79            mov a, c
0263   01A7 32 BB 54      sta drawSprite_1
0264   01AA 3A 50 18      lda clearLine_y
0265   01AD 32 BC 54      sta drawSprite_2
0266   01B0 AF            xra a
0267   01B1 32 BD 54      sta drawSprite_3
0268   01B4 21 84 19      lxi h, emptySprite
0269   01B7 CD CA 0E      call drawSprite
0270   01BA             l24:
0271   01BA 21 52 18      lxi h, clearLine_i
0272   01BD 35            dcr m
0273   01BE 3A 4D 18      lda clearLine_3
0274   01C1 81            add c
0275   01C2 4F            mov c, a
0276   01C3 21 4E 18      lxi h, clearLine_4
0277   01C6 3A 50 18      lda clearLine_y
0278   01C9 86            add m
0279   01CA 32 50 18      sta clearLine_y
0280   01CD C3 8C 01      jmp l22
0281   01D0             l23:
0282   01D0 C1            pop b
0283   01D1 C9            ret
0284   01D2               ; --- check -----------------------------------------------------------------
0285   01D2             check:
0286   01D2 C5            push b
0287   01D3               ; 93 0;<total>
0288   01D3 AF            xra a
0289   01D4 32 57 18      sta check_total
0290   01D7               ; 96 for(y=0; y!=GAME_HEIGHT; ++y) {
0291   01D7 4F            mov c, a
0292   01D8             l25:
0293   01D8 3E 09         mvi a, 9
0294   01DA B9            cmp c
0295   01DB CA 5C 02      jz l26
0296   01DE               ; 97 for(p=&game[0][y], x=0; x<GAME_WIDTH;) {Сложение
0297   01DE 2A CE 16      lhld (game)+(0)
0298   01E1 59            mov e, c
0299   01E2 16 00         mvi d, 0
0300   01E4 19            dad d
0301   01E5 22 58 18      shld check_p
0302   01E8 42            mov b, d
0303   01E9             l28:
0304   01E9 3E 09         mvi a, 9
0305   01EB B8            cmp b
0306   01EC DA 58 02      jc l29
0307   01EF CA 58 02      jz l29
0308   01F2               ; 98 prevx = x;
0309   01F2 78            mov a, b
0310   01F3 32 53 18      sta check_prevx
0311   01F6               ; 99 c = *p;
0312   01F6 2A 58 18      lhld check_p
0313   01F9 7E            mov a, m
0314   01FA 32 55 18      sta check_c
0315   01FD               ; 100 ++x;
0316   01FD 04            inr b
0317   01FE               ; 101 p += GAME_WIDTH;Сложение
0318   01FE 11 09 00      lxi d, 9
0319   0201 19            dad d
0320   0202 22 58 18      shld check_p
0321   0205               ; 102 if(c==0) continue;
0322   0205 B7            ora a
0323   0206 CA 55 02      jz l30
0324   0209             l32:
0325   0209 7B            mov a, e
0326   020A B8            cmp b
0327   020B CA 24 02      jz l33
0328   020E 7E            mov a, m
0329   020F 21 55 18      lxi h, check_c
0330   0212 BE            cmp m
0331   0213 C2 24 02      jnz l33
0332   0216               ; 103 p+=GAME_WIDTH, ++x;Сложение
0333   0216 11 09 00      lxi d, 9
0334   0219 2A 58 18      lhld check_p
0335   021C 19            dad d
0336   021D 22 58 18      shld check_p
0337   0220 04            inr b
0338   0221 C3 09 02      jmp l32
0339   0224             l33:
0340   0224               ; 104 n = x - prevx;Арифметика 1/4
0341   0224 78            mov a, b
0342   0225 21 53 18      lxi h, check_prevx
0343   0228 96            sub m
0344   0229 32 56 18      sta check_n
0345   022C               ; 105 if(n<5) continue;
0346   022C FE 05         cpi 5
0347   022E DA 55 02      jc l30
0348   0231 7E            mov a, m
0349   0232 32 4B 18      sta clearLine_1
0350   0235 79            mov a, c
0351   0236 32 4C 18      sta clearLine_2
0352   0239 3E 01         mvi a, 1
0353   023B 32 4D 18      sta clearLine_3
0354   023E AF            xra a
0355   023F 32 4E 18      sta clearLine_4
0356   0242 3A 56 18      lda check_n
0357   0245 CD 06 01      call clearLine
0358   0248               ; 107 total += n;
0359   0248 21 56 18      lxi h, check_n
0360   024B 3A 57 18      lda check_total
0361   024E 86            add m
0362   024F 32 57 18      sta check_total
0363   0252               ; 108 break;
0364   0252 C3 58 02      jmp l29
0365   0255             l30:
0366   0255 C3 E9 01      jmp l28
0367   0258             l29:
0368   0258             l27:
0369   0258 0C            inr c
0370   0259 C3 D8 01      jmp l25
0371   025C             l26:
0372   025C               ; 111 for(x=0; x!=9; ++x) {
0373   025C 06 00         mvi b, 0
0374   025E             l35:
0375   025E 3E 09         mvi a, 9
0376   0260 B8            cmp b
0377   0261 CA E5 02      jz l36
0378   0264               ; 112 for(p=&game[x][0], y=0; y<5;) {
0379   0264 26 00         mvi h, 0
0380   0266 68            mov l, b
0381   0267               ; Умножение HL на 2
0382   0267 29            dad h
0383   0268               ; Сложение
0384   0268 11 CE 16      lxi d, game
0385   026B 19            dad d
0386   026C               ; Сложение с константой 0
0387   026C 5E            mov e, m
0388   026D 23            inx h
0389   026E 56            mov d, m
0390   026F EB            xchg
0391   0270 22 58 18      shld check_p
0392   0273 0E 00         mvi c, 0
0393   0275             l38:
0394   0275 3E 05         mvi a, 5
0395   0277 B9            cmp c
0396   0278 DA E1 02      jc l39
0397   027B CA E1 02      jz l39
0398   027E               ; 113 c = *p;  
0399   027E 2A 58 18      lhld check_p
0400   0281 7E            mov a, m
0401   0282 32 55 18      sta check_c
0402   0285               ; 114 prevy = y;
0403   0285 79            mov a, c
0404   0286 32 54 18      sta check_prevy
0405   0289               ; 115 ++y;
0406   0289 0C            inr c
0407   028A               ; 116 ++p;
0408   028A 23            inx h
0409   028B 22 58 18      shld check_p
0410   028E               ; 117 if(c==0) continue;
0411   028E 3A 55 18      lda check_c
0412   0291 B7            ora a
0413   0292 CA DE 02      jz l40
0414   0295             l42:
0415   0295 3E 09         mvi a, 9
0416   0297 B9            cmp c
0417   0298 CA AE 02      jz l43
0418   029B 7E            mov a, m
0419   029C 21 55 18      lxi h, check_c
0420   029F BE            cmp m
0421   02A0 C2 AE 02      jnz l43
0422   02A3               ; 118 ++p, ++y;
0423   02A3 2A 58 18      lhld check_p
0424   02A6 23            inx h
0425   02A7 22 58 18      shld check_p
0426   02AA 0C            inr c
0427   02AB C3 95 02      jmp l42
0428   02AE             l43:
0429   02AE               ; 119 n = y - prevy;Арифметика 2/4
0430   02AE 79            mov a, c
0431   02AF 21 54 18      lxi h, check_prevy
0432   02B2 96            sub m
0433   02B3 32 56 18      sta check_n
0434   02B6               ; 120 if(n<5) continue;      
0435   02B6 FE 05         cpi 5
0436   02B8 DA DE 02      jc l40
0437   02BB 78            mov a, b
0438   02BC 32 4B 18      sta clearLine_1
0439   02BF 7E            mov a, m
0440   02C0 32 4C 18      sta clearLine_2
0441   02C3 AF            xra a
0442   02C4 32 4D 18      sta clearLine_3
0443   02C7 3C            inr a
0444   02C8 32 4E 18      sta clearLine_4
0445   02CB 3A 56 18      lda check_n
0446   02CE CD 06 01      call clearLine
0447   02D1               ; 122 total += n;
0448   02D1 21 56 18      lxi h, check_n
0449   02D4 3A 57 18      lda check_total
0450   02D7 86            add m
0451   02D8 32 57 18      sta check_total
0452   02DB               ; 123 break;
0453   02DB C3 E1 02      jmp l39
0454   02DE             l40:
0455   02DE C3 75 02      jmp l38
0456   02E1             l39:
0457   02E1             l37:
0458   02E1 04            inr b
0459   02E2 C3 5E 02      jmp l35
0460   02E5             l36:
0461   02E5               ; 126 for(y=0; y!=6; ++y) {
0462   02E5 0E 00         mvi c, 0
0463   02E7             l45:
0464   02E7 3E 06         mvi a, 6
0465   02E9 B9            cmp c
0466   02EA CA 79 03      jz l46
0467   02ED               ; 127 for(x=0; x!=6; ++x) {
0468   02ED 06 00         mvi b, 0
0469   02EF             l48:
0470   02EF 3E 06         mvi a, 6
0471   02F1 B8            cmp b
0472   02F2 CA 75 03      jz l49
0473   02F5               ; 128 p = &game[x][y];
0474   02F5 26 00         mvi h, 0
0475   02F7 68            mov l, b
0476   02F8               ; Умножение HL на 2
0477   02F8 29            dad h
0478   02F9               ; Сложение
0479   02F9 11 CE 16      lxi d, game
0480   02FC 19            dad d
0481   02FD               ; Сложение
0482   02FD 5E            mov e, m
0483   02FE 23            inx h
0484   02FF 56            mov d, m
0485   0300 EB            xchg
0486   0301 59            mov e, c
0487   0302 16 00         mvi d, 0
0488   0304 19            dad d
0489   0305 22 58 18      shld check_p
0490   0308               ; 129 c = *p;  
0491   0308 7E            mov a, m
0492   0309 32 55 18      sta check_c
0493   030C               ; 130 if(c==0) continue;
0494   030C B7            ora a
0495   030D CA 71 03      jz l50
0496   0310 78            mov a, b
0497   0311 32 53 18      sta check_prevx
0498   0314               ; 132 prevy = y;
0499   0314 79            mov a, c
0500   0315 32 54 18      sta check_prevy
0501   0318               ; 133 while(1) {
0502   0318             l52:
0503   0318               ; 134 ++prevy;
0504   0318 21 54 18      lxi h, check_prevy
0505   031B 34            inr m
0506   031C               ; 135 ++prevx;
0507   031C 21 53 18      lxi h, check_prevx
0508   031F 34            inr m
0509   0320               ; 136 p += GAME_WIDTH+1;Сложение
0510   0320 11 0A 00      lxi d, 10
0511   0323 2A 58 18      lhld check_p
0512   0326 19            dad d
0513   0327 22 58 18      shld check_p
0514   032A               ; 137 if(prevx==9) break;
0515   032A 3A 53 18      lda check_prevx
0516   032D FE 09         cpi 9
0517   032F CA 45 03      jz l53
0518   0332 3A 54 18      lda check_prevy
0519   0335 FE 09         cpi 9
0520   0337 CA 45 03      jz l53
0521   033A 7E            mov a, m
0522   033B 21 55 18      lxi h, check_c
0523   033E BE            cmp m
0524   033F C2 45 03      jnz l53
0525   0342 C3 18 03      jmp l52
0526   0345             l53:
0527   0345               ; 141 n = prevy-y;Арифметика 4/2
0528   0345 3A 54 18      lda check_prevy
0529   0348 91            sub c
0530   0349 32 56 18      sta check_n
0531   034C               ; 142 if(n<5) continue;
0532   034C FE 05         cpi 5
0533   034E DA 71 03      jc l50
0534   0351 78            mov a, b
0535   0352 32 4B 18      sta clearLine_1
0536   0355 79            mov a, c
0537   0356 32 4C 18      sta clearLine_2
0538   0359 3E 01         mvi a, 1
0539   035B 32 4D 18      sta clearLine_3
0540   035E 32 4E 18      sta clearLine_4
0541   0361 3A 56 18      lda check_n
0542   0364 CD 06 01      call clearLine
0543   0367               ; 144 total += n;
0544   0367 21 56 18      lxi h, check_n
0545   036A 3A 57 18      lda check_total
0546   036D 86            add m
0547   036E 32 57 18      sta check_total
0548   0371             l50:
0549   0371 04            inr b
0550   0372 C3 EF 02      jmp l48
0551   0375             l49:
0552   0375             l47:
0553   0375 0C            inr c
0554   0376 C3 E7 02      jmp l45
0555   0379             l46:
0556   0379               ; 147 for(y=0; y!=6; ++y) {
0557   0379 0E 00         mvi c, 0
0558   037B             l58:
0559   037B 3E 06         mvi a, 6
0560   037D B9            cmp c
0561   037E CA 0F 04      jz l59
0562   0381               ; 148 for(x=4; x!=9; ++x) {
0563   0381 06 04         mvi b, 4
0564   0383             l61:
0565   0383 3E 09         mvi a, 9
0566   0385 B8            cmp b
0567   0386 CA 0B 04      jz l62
0568   0389               ; 149 p = &game[x][y];
0569   0389 26 00         mvi h, 0
0570   038B 68            mov l, b
0571   038C               ; Умножение HL на 2
0572   038C 29            dad h
0573   038D               ; Сложение
0574   038D 11 CE 16      lxi d, game
0575   0390 19            dad d
0576   0391               ; Сложение
0577   0391 5E            mov e, m
0578   0392 23            inx h
0579   0393 56            mov d, m
0580   0394 EB            xchg
0581   0395 59            mov e, c
0582   0396 16 00         mvi d, 0
0583   0398 19            dad d
0584   0399 22 58 18      shld check_p
0585   039C               ; 150 c = *p;  
0586   039C 7E            mov a, m
0587   039D 32 55 18      sta check_c
0588   03A0               ; 151 if(c==0) continue;
0589   03A0 B7            ora a
0590   03A1 CA 07 04      jz l63
0591   03A4 78            mov a, b
0592   03A5 32 53 18      sta check_prevx
0593   03A8               ; 153 prevy = y;
0594   03A8 79            mov a, c
0595   03A9 32 54 18      sta check_prevy
0596   03AC               ; 154 while(1) {
0597   03AC             l65:
0598   03AC               ; 155 ++prevy;
0599   03AC 21 54 18      lxi h, check_prevy
0600   03AF 34            inr m
0601   03B0               ; 156 --prevx;
0602   03B0 21 53 18      lxi h, check_prevx
0603   03B3 35            dcr m
0604   03B4               ; 157 p += 1-GAME_WIDTH;Сложение
0605   03B4 11 F8 FF      lxi d, 65528
0606   03B7 2A 58 18      lhld check_p
0607   03BA 19            dad d
0608   03BB 22 58 18      shld check_p
0609   03BE               ; 158 if(prevx==-1) break;
0610   03BE 3A 53 18      lda check_prevx
0611   03C1 FE FF         cpi -1
0612   03C3 CA D9 03      jz l66
0613   03C6 3A 54 18      lda check_prevy
0614   03C9 FE 09         cpi 9
0615   03CB CA D9 03      jz l66
0616   03CE 7E            mov a, m
0617   03CF 21 55 18      lxi h, check_c
0618   03D2 BE            cmp m
0619   03D3 C2 D9 03      jnz l66
0620   03D6 C3 AC 03      jmp l65
0621   03D9             l66:
0622   03D9               ; 162 n = prevy-y;Арифметика 4/2
0623   03D9 3A 54 18      lda check_prevy
0624   03DC 91            sub c
0625   03DD 32 56 18      sta check_n
0626   03E0               ; 163 if(n<5) continue;
0627   03E0 FE 05         cpi 5
0628   03E2 DA 07 04      jc l63
0629   03E5 78            mov a, b
0630   03E6 32 4B 18      sta clearLine_1
0631   03E9 79            mov a, c
0632   03EA 32 4C 18      sta clearLine_2
0633   03ED 3E FF         mvi a, 255
0634   03EF 32 4D 18      sta clearLine_3
0635   03F2 3E 01         mvi a, 1
0636   03F4 32 4E 18      sta clearLine_4
0637   03F7 3A 56 18      lda check_n
0638   03FA CD 06 01      call clearLine
0639   03FD               ; 165 total += n;
0640   03FD 21 56 18      lxi h, check_n
0641   0400 3A 57 18      lda check_total
0642   0403 86            add m
0643   0404 32 57 18      sta check_total
0644   0407             l63:
0645   0407 04            inr b
0646   0408 C3 83 03      jmp l61
0647   040B             l62:
0648   040B             l60:
0649   040B 0C            inr c
0650   040C C3 7B 03      jmp l58
0651   040F             l59:
0652   040F               ; 168 if(total==0) return 0;
0653   040F 3A 57 18      lda check_total
0654   0412 B7            ora a
0655   0413 C2 19 04      jnz l71
0656   0416               ; 168 return 0;
0657   0416 AF            xra a
0658   0417 C1            pop b
0659   0418 C9            ret
0660   0419             l71:
0661   0419               ; 171 score += total*2;
0662   0419 2A 57 18      lhld check_total
0663   041C 26 00         mvi h, 0
0664   041E               ; Умножение HL на 2
0665   041E 29            dad h
0666   041F               ; Сложение
0667   041F EB            xchg
0668   0420 2A 36 17      lhld score
0669   0423 19            dad d
0670   0424 22 36 17      shld score
0671   0427               ; 172 drawScore(score);
0672   0427 CD 3B 10      call drawScore
0673   042A               ; 173 return 1;
0674   042A 3E 01         mvi a, 1
0675   042C C1            pop b
0676   042D C9            ret
0677   042E               ; --- calcFreeCell -----------------------------------------------------------------
0678   042E             calcFreeCell:
0679   042E C5            push b
0680   042F               ; 182 for(c=0, p=&game[0][0], i=81; i; --i, ++p)
0681   042F AF            xra a
0682   0430 32 5A 18      sta calcFreeCell_c
0683   0433               ; Сложение с константой 0
0684   0433 2A CE 16      lhld (game)+(0)
0685   0436 44            mov b, h
0686   0437 4D            mov c, l
0687   0438 3E 51         mvi a, 81
0688   043A 32 5B 18      sta calcFreeCell_i
0689   043D             l72:
0690   043D               ; convertToConfition
0691   043D 3A 5B 18      lda calcFreeCell_i
0692   0440 B7            ora a
0693   0441 CA 55 04      jz l73
0694   0444               ; 183 if(*p==0)
0695   0444 0A            ldax b
0696   0445 B7            ora a
0697   0446 C2 4D 04      jnz l75
0698   0449               ; 184 c++;
0699   0449 21 5A 18      lxi h, calcFreeCell_c
0700   044C 34            inr m
0701   044D             l75:
0702   044D             l74:
0703   044D 21 5B 18      lxi h, calcFreeCell_i
0704   0450 35            dcr m
0705   0451 03            inx b
0706   0452 C3 3D 04      jmp l72
0707   0455             l73:
0708   0455               ; 185 return c;
0709   0455 3A 5A 18      lda calcFreeCell_c
0710   0458 C1            pop b
0711   0459 C9            ret
0712   045A               ; --- newBall -----------------------------------------------------------------
0713   045A             newBall:
0714   045A C5            push b
0715   045B 32 5C 18      sta newBall_1
0716   045E               ; 198 c = calcFreeCell();
0717   045E CD 2E 04      call calcFreeCell
0718   0461 32 5E 18      sta newBall_c
0719   0464               ; 199 if(c==0) { nx=-1; gameover=1; return; }
0720   0464 B7            ora a
0721   0465 C2 74 04      jnz l76
0722   0468               ; 199 nx=-1; gameover=1; return; }
0723   0468 3E FF         mvi a, 255
0724   046A 32 3E 17      sta nx
0725   046D               ; 199 gameover=1; return; }
0726   046D 3E 01         mvi a, 1
0727   046F 32 31 17      sta gameOver
0728   0472               ; 199 return; }
0729   0472 C1            pop b
0730   0473 C9            ret
0731   0474             l76:
0732   0474               ; 202 c = rand()%c;
0733   0474 CD 6C 15      call rand
0734   0477 21 5E 18      lxi h, newBall_c
0735   047A 56            mov d, m
0736   047B CD 78 15      call op_mod
0737   047E 32 5E 18      sta newBall_c
0738   0481               ; 205 for(p=&game[0][0], i=81; i; --i, ++p)Сложение с константой 0
0739   0481 2A CE 16      lhld (game)+(0)
0740   0484 44            mov b, h
0741   0485 4D            mov c, l
0742   0486 3E 51         mvi a, 81
0743   0488 32 5D 18      sta newBall_i
0744   048B             l77:
0745   048B               ; convertToConfition
0746   048B 3A 5D 18      lda newBall_i
0747   048E B7            ora a
0748   048F CA AA 04      jz l78
0749   0492               ; 206 if(*p==0) {
0750   0492 0A            ldax b
0751   0493 B7            ora a
0752   0494 C2 A2 04      jnz l80
0753   0497               ; 207 if(c==0) break;
0754   0497 3A 5E 18      lda newBall_c
0755   049A B7            ora a
0756   049B CA AA 04      jz l78
0757   049E 21 5E 18      lxi h, newBall_c
0758   04A1 35            dcr m
0759   04A2             l80:
0760   04A2             l79:
0761   04A2 21 5D 18      lxi h, newBall_i
0762   04A5 35            dcr m
0763   04A6 03            inx b
0764   04A7 C3 8B 04      jmp l77
0765   04AA             l78:
0766   04AA               ; 212 nx = (81-i)/9, ny = op_div_mod;Арифметика 3/4
0767   04AA 21 5D 18      lxi h, newBall_i
0768   04AD 3E 51         mvi a, 81
0769   04AF 96            sub m
0770   04B0 16 09         mvi d, 9
0771   04B2 CD 95 15      call op_div
0772   04B5 32 3E 17      sta nx
0773   04B8 3A 73 55      lda op_div_mod
0774   04BB 32 3F 17      sta ny
0775   04BE               ; 215 game[nx][ny] = color;
0776   04BE 2A 3E 17      lhld nx
0777   04C1 26 00         mvi h, 0
0778   04C3               ; Умножение HL на 2
0779   04C3 29            dad h
0780   04C4               ; Сложение
0781   04C4 11 CE 16      lxi d, game
0782   04C7 19            dad d
0783   04C8               ; Сложение
0784   04C8 5E            mov e, m
0785   04C9 23            inx h
0786   04CA 56            mov d, m
0787   04CB 6F            mov l, a
0788   04CC 26 00         mvi h, 0
0789   04CE 19            dad d
0790   04CF 3A 5C 18      lda newBall_1
0791   04D2 77            mov m, a
0792   04D3 C1            pop b
0793   04D4 C9            ret
0794   04D5               ; --- randNewBall -----------------------------------------------------------------
0795   04D5             randNewBall:
0796   04D5 CD 6C 15      call rand
0797   04D8 16 06         mvi d, 6
0798   04DA CD 78 15      call op_mod
0799   04DD 3C            inr a
0800   04DE 32 38 17      sta newBall1
0801   04E1               ; 223 newBall2 = rand()%6+1;
0802   04E1 CD 6C 15      call rand
0803   04E4 16 06         mvi d, 6
0804   04E6 CD 78 15      call op_mod
0805   04E9 3C            inr a
0806   04EA 32 39 17      sta newBall2
0807   04ED               ; 224 newBall3 = rand()%6+1;
0808   04ED CD 6C 15      call rand
0809   04F0 16 06         mvi d, 6
0810   04F2 CD 78 15      call op_mod
0811   04F5 3C            inr a
0812   04F6 32 3A 17      sta newBall3
0813   04F9 C9            ret
0814   04FA               ; --- redrawNewBalls1 -----------------------------------------------------------------
0815   04FA             redrawNewBalls1:
0816   04FA 3A 3D 17      lda showHelp
0817   04FD B7            ora a
0818   04FE CA 13 05      jz l82
0819   0501               ; 230 redrawNewBalls(newBall1, newBall2, newBall3);
0820   0501 3A 38 17      lda newBall1
0821   0504 32 EF 54      sta redrawNewBalls_1
0822   0507 3A 39 17      lda newBall2
0823   050A 32 F0 54      sta redrawNewBalls_2
0824   050D 3A 3A 17      lda newBall3
0825   0510 CD 73 11      call redrawNewBalls
0826   0513             l82:
0827   0513 C9            ret
0828   0514               ; --- gameStep -----------------------------------------------------------------
0829   0514             gameStep:
0830   0514 CD D2 01      call check
0831   0517               ; convertToConfition
0832   0517 B7            ora a
0833   0518 C2 E1 05      jnz l83
0834   051B               ; 243 newBall(newBall1); nx1=nx; ny1=ny;
0835   051B 3A 38 17      lda newBall1
0836   051E CD 5A 04      call newBall
0837   0521               ; 243 nx1=nx; ny1=ny;
0838   0521 3A 3E 17      lda nx
0839   0524 32 5F 18      sta gameStep_nx1
0840   0527               ; 243 ny1=ny;
0841   0527 3A 3F 17      lda ny
0842   052A 32 60 18      sta gameStep_ny1
0843   052D               ; 244 newBall(newBall2); nx2=nx; ny2=ny;
0844   052D 3A 39 17      lda newBall2
0845   0530 CD 5A 04      call newBall
0846   0533               ; 244 nx2=nx; ny2=ny;
0847   0533 3A 3E 17      lda nx
0848   0536 32 61 18      sta gameStep_nx2
0849   0539               ; 244 ny2=ny;
0850   0539 3A 3F 17      lda ny
0851   053C 32 62 18      sta gameStep_ny2
0852   053F               ; 245 newBall(newBall3);
0853   053F 3A 3A 17      lda newBall3
0854   0542 CD 5A 04      call newBall
0855   0545               ; 248 for(o=0; o<16*5; o+=16) {
0856   0545 AF            xra a
0857   0546 32 63 18      sta gameStep_o
0858   0549             l84:
0859   0549 FE 50         cpi 80
0860   054B D2 C5 05      jnc l85
0861   054E               ; 249 if(nx1!=-1) drawSprite(nx1, ny1, newBall1, newBallSprite + o);
0862   054E 3A 5F 18      lda gameStep_nx1
0863   0551 FE FF         cpi -1
0864   0553 CA 71 05      jz l87
0865   0556               ; 249 drawSprite(nx1, ny1, newBall1, newBallSprite + o);
0866   0556 32 BB 54      sta drawSprite_1
0867   0559 3A 60 18      lda gameStep_ny1
0868   055C 32 BC 54      sta drawSprite_2
0869   055F 3A 38 17      lda newBall1
0870   0562 32 BD 54      sta drawSprite_3
0871   0565               ; Сложение
0872   0565 2A 63 18      lhld gameStep_o
0873   0568 26 00         mvi h, 0
0874   056A 11 A4 18      lxi d, newBallSprite
0875   056D 19            dad d
0876   056E CD CA 0E      call drawSprite
0877   0571             l87:
0878   0571               ; 250 if(nx2!=-1) drawSprite(nx2, ny2, newBall2, newBallSprite + o);
0879   0571 3A 61 18      lda gameStep_nx2
0880   0574 FE FF         cpi -1
0881   0576 CA 94 05      jz l88
0882   0579               ; 250 drawSprite(nx2, ny2, newBall2, newBallSprite + o);
0883   0579 32 BB 54      sta drawSprite_1
0884   057C 3A 62 18      lda gameStep_ny2
0885   057F 32 BC 54      sta drawSprite_2
0886   0582 3A 39 17      lda newBall2
0887   0585 32 BD 54      sta drawSprite_3
0888   0588               ; Сложение
0889   0588 2A 63 18      lhld gameStep_o
0890   058B 26 00         mvi h, 0
0891   058D 11 A4 18      lxi d, newBallSprite
0892   0590 19            dad d
0893   0591 CD CA 0E      call drawSprite
0894   0594             l88:
0895   0594               ; 251 if(nx !=-1) drawSprite(nx,  ny,  newBall3, newBallSprite + o);
0896   0594 3A 3E 17      lda nx
0897   0597 FE FF         cpi -1
0898   0599 CA B7 05      jz l89
0899   059C               ; 251 drawSprite(nx,  ny,  newBall3, newBallSprite + o);
0900   059C 32 BB 54      sta drawSprite_1
0901   059F 3A 3F 17      lda ny
0902   05A2 32 BC 54      sta drawSprite_2
0903   05A5 3A 3A 17      lda newBall3
0904   05A8 32 BD 54      sta drawSprite_3
0905   05AB               ; Сложение
0906   05AB 2A 63 18      lhld gameStep_o
0907   05AE 26 00         mvi h, 0
0908   05B0 11 A4 18      lxi d, newBallSprite
0909   05B3 19            dad d
0910   05B4 CD CA 0E      call drawSprite
0911   05B7             l89:
0912   05B7               ; 252 delay();
0913   05B7 CD E0 00      call delay
0914   05BA             l86:
0915   05BA 3A 63 18      lda gameStep_o
0916   05BD C6 10         adi 16
0917   05BF 32 63 18      sta gameStep_o
0918   05C2 C3 49 05      jmp l84
0919   05C5             l85:
0920   05C5               ; 256 randNewBall();
0921   05C5 CD D5 04      call randNewBall
0922   05C8               ; 257 redrawNewBalls1();
0923   05C8 CD FA 04      call redrawNewBalls1
0924   05CB               ; 259 if(!gameOver) {    convertToConfition
0925   05CB 3A 31 17      lda gameOver
0926   05CE B7            ora a
0927   05CF C2 E1 05      jnz l90
0928   05D2               ; 261 check();
0929   05D2 CD D2 01      call check
0930   05D5               ; 264 if(calcFreeCell()==0) gameOver=1;
0931   05D5 CD 2E 04      call calcFreeCell
0932   05D8 B7            ora a
0933   05D9 C2 E1 05      jnz l91
0934   05DC               ; 264 gameOver=1;
0935   05DC 3E 01         mvi a, 1
0936   05DE 32 31 17      sta gameOver
0937   05E1             l91:
0938   05E1             l90:
0939   05E1             l83:
0940   05E1               ; 268 drawCursor(); 
0941   05E1 C3 51 00      jmp drawCursor
0942   05E4             path_find:
0943   05E4 C5            push b
0944   05E5               ; 286 path_c = game[selX][selY];  
0945   05E5 2A 34 17      lhld selX
0946   05E8 26 00         mvi h, 0
0947   05EA               ; Умножение HL на 2
0948   05EA 29            dad h
0949   05EB               ; Сложение
0950   05EB 11 CE 16      lxi d, game
0951   05EE 19            dad d
0952   05EF               ; Сложение
0953   05EF 5E            mov e, m
0954   05F0 23            inx h
0955   05F1 56            mov d, m
0956   05F2 2A 35 17      lhld selY
0957   05F5 26 00         mvi h, 0
0958   05F7 19            dad d
0959   05F8 7E            mov a, m
0960   05F9 32 64 18      sta path_c
0961   05FC               ; 287 game[selX][selY] = 255;
0962   05FC 2A 34 17      lhld selX
0963   05FF 26 00         mvi h, 0
0964   0601               ; Умножение HL на 2
0965   0601 29            dad h
0966   0602               ; Сложение
0967   0602 11 CE 16      lxi d, game
0968   0605 19            dad d
0969   0606               ; Сложение
0970   0606 5E            mov e, m
0971   0607 23            inx h
0972   0608 56            mov d, m
0973   0609 2A 35 17      lhld selY
0974   060C 26 00         mvi h, 0
0975   060E 19            dad d
0976   060F 36 FF         mvi m, 255
0977   0611               ; 288 game[cursorX][cursorY] = PATH_START_VAL;
0978   0611 2A 32 17      lhld cursorX
0979   0614 26 00         mvi h, 0
0980   0616               ; Умножение HL на 2
0981   0616 29            dad h
0982   0617               ; Сложение
0983   0617 11 CE 16      lxi d, game
0984   061A 19            dad d
0985   061B               ; Сложение
0986   061B 5E            mov e, m
0987   061C 23            inx h
0988   061D 56            mov d, m
0989   061E 2A 33 17      lhld cursorY
0990   0621 26 00         mvi h, 0
0991   0623 19            dad d
0992   0624 3E 0A         mvi a, 10
0993   0626 77            mov m, a
0994   0627               ; 291 for(path_n = PATH_START_VAL; path_n != PATH_START_VAL+GAME_WIDTH*GAME_HEIGHT; ++path_n)
0995   0627 32 68 18      sta path_n
0996   062A             l92:
0997   062A 3A 68 18      lda path_n
0998   062D FE 5B         cpi 91
0999   062F CA 27 07      jz l93
1000   0632               ; 292 for(p = &game[0][0], path_x=0; path_x != GAME_WIDTH; ++path_x)Сложение с константой 0
1001   0632 2A CE 16      lhld (game)+(0)
1002   0635 44            mov b, h
1003   0636 4D            mov c, l
1004   0637 AF            xra a
1005   0638 32 69 18      sta path_x
1006   063B             l95:
1007   063B 3A 69 18      lda path_x
1008   063E FE 09         cpi 9
1009   0640 CA 20 07      jz l96
1010   0643               ; 293 for(path_y=0; path_y != GAME_HEIGHT; ++path_y, ++p)
1011   0643 AF            xra a
1012   0644 32 6A 18      sta path_y
1013   0647             l98:
1014   0647 3A 6A 18      lda path_y
1015   064A FE 09         cpi 9
1016   064C CA 19 07      jz l99
1017   064F               ; 294 if(*p == path_n) {
1018   064F 21 68 18      lxi h, path_n
1019   0652 0A            ldax b
1020   0653 BE            cmp m
1021   0654 C2 11 07      jnz l101
1022   0657               ; 295 if(path_y != 0            ) { p-=1;           if(*p==255) { --path_y; path_p=p; return 1; } else if(*p==0) *p=path_n+1; p+=1;           }
1023   0657 3A 6A 18      lda path_y
1024   065A B7            ora a
1025   065B CA 80 06      jz l102
1026   065E               ; 295 p-=1;           if(*p==255) { --path_y; path_p=p; return 1; } else if(*p==0) *p=path_n+1; p+=1;           }Сложение BC с константой -1
1027   065E 0B            dcx b
1028   065F               ; 295 if(*p==255) { --path_y; path_p=p; return 1; } else if(*p==0) *p=path_n+1; p+=1;           }
1029   065F 0A            ldax b
1030   0660 FE FF         cpi 255
1031   0662 C2 75 06      jnz l103
1032   0665               ; 295 --path_y; path_p=p; return 1; } else if(*p==0) *p=path_n+1; p+=1;           }
1033   0665 21 6A 18      lxi h, path_y
1034   0668 35            dcr m
1035   0669               ; 295 path_p=p; return 1; } else if(*p==0) *p=path_n+1; p+=1;           }
1036   0669 60            mov h, b
1037   066A 69            mov l, c
1038   066B 22 65 18      shld path_p
1039   066E               ; 295 return 1; } else if(*p==0) *p=path_n+1; p+=1;           }
1040   066E 3E 01         mvi a, 1
1041   0670 C1            pop b
1042   0671 C9            ret
1043   0672 C3 7F 06      jmp l104
1044   0675             l103:
1045   0675               ; 295 if(*p==0) *p=path_n+1; p+=1;           }
1046   0675 0A            ldax b
1047   0676 B7            ora a
1048   0677 C2 7F 06      jnz l105
1049   067A               ; 295 *p=path_n+1; p+=1;           }
1050   067A 3A 68 18      lda path_n
1051   067D 3C            inr a
1052   067E 02            stax b
1053   067F             l105:
1054   067F             l104:
1055   067F               ; 295 p+=1;           }Сложение BC с константой 1
1056   067F 03            inx b
1057   0680             l102:
1058   0680               ; 296 if(path_y != GAME_HEIGHT-1) { p+=1;           if(*p==255) { ++path_y; path_p=p; return 1; } else if(*p==0) *p=path_n+1; p-=1;           }
1059   0680 3A 6A 18      lda path_y
1060   0683 FE 08         cpi 8
1061   0685 CA AA 06      jz l106
1062   0688               ; 296 p+=1;           if(*p==255) { ++path_y; path_p=p; return 1; } else if(*p==0) *p=path_n+1; p-=1;           }Сложение BC с константой 1
1063   0688 03            inx b
1064   0689               ; 296 if(*p==255) { ++path_y; path_p=p; return 1; } else if(*p==0) *p=path_n+1; p-=1;           }
1065   0689 0A            ldax b
1066   068A FE FF         cpi 255
1067   068C C2 9F 06      jnz l107
1068   068F               ; 296 ++path_y; path_p=p; return 1; } else if(*p==0) *p=path_n+1; p-=1;           }
1069   068F 21 6A 18      lxi h, path_y
1070   0692 34            inr m
1071   0693               ; 296 path_p=p; return 1; } else if(*p==0) *p=path_n+1; p-=1;           }
1072   0693 60            mov h, b
1073   0694 69            mov l, c
1074   0695 22 65 18      shld path_p
1075   0698               ; 296 return 1; } else if(*p==0) *p=path_n+1; p-=1;           }
1076   0698 3E 01         mvi a, 1
1077   069A C1            pop b
1078   069B C9            ret
1079   069C C3 A9 06      jmp l108
1080   069F             l107:
1081   069F               ; 296 if(*p==0) *p=path_n+1; p-=1;           }
1082   069F 0A            ldax b
1083   06A0 B7            ora a
1084   06A1 C2 A9 06      jnz l109
1085   06A4               ; 296 *p=path_n+1; p-=1;           }
1086   06A4 3A 68 18      lda path_n
1087   06A7 3C            inr a
1088   06A8 02            stax b
1089   06A9             l109:
1090   06A9             l108:
1091   06A9               ; 296 p-=1;           }Сложение BC с константой -1
1092   06A9 0B            dcx b
1093   06AA             l106:
1094   06AA               ; 297 if(path_x != 0            ) { p-=GAME_HEIGHT; if(*p==255) { --path_x; path_p=p; return 1; } else if(*p==0) *p=path_n+1; p+=GAME_HEIGHT; }
1095   06AA 3A 69 18      lda path_x
1096   06AD B7            ora a
1097   06AE CA DD 06      jz l110
1098   06B1               ; 297 p-=GAME_HEIGHT; if(*p==255) { --path_x; path_p=p; return 1; } else if(*p==0) *p=path_n+1; p+=GAME_HEIGHT; }Сложение с BC
1099   06B1 21 F7 FF      lxi h, 65527
1100   06B4 09            dad b
1101   06B5 44            mov b, h
1102   06B6 4D            mov c, l
1103   06B7               ; 297 if(*p==255) { --path_x; path_p=p; return 1; } else if(*p==0) *p=path_n+1; p+=GAME_HEIGHT; }
1104   06B7 0A            ldax b
1105   06B8 FE FF         cpi 255
1106   06BA C2 CD 06      jnz l111
1107   06BD               ; 297 --path_x; path_p=p; return 1; } else if(*p==0) *p=path_n+1; p+=GAME_HEIGHT; }
1108   06BD 21 69 18      lxi h, path_x
1109   06C0 35            dcr m
1110   06C1               ; 297 path_p=p; return 1; } else if(*p==0) *p=path_n+1; p+=GAME_HEIGHT; }
1111   06C1 60            mov h, b
1112   06C2 69            mov l, c
1113   06C3 22 65 18      shld path_p
1114   06C6               ; 297 return 1; } else if(*p==0) *p=path_n+1; p+=GAME_HEIGHT; }
1115   06C6 3E 01         mvi a, 1
1116   06C8 C1            pop b
1117   06C9 C9            ret
1118   06CA C3 D7 06      jmp l112
1119   06CD             l111:
1120   06CD               ; 297 if(*p==0) *p=path_n+1; p+=GAME_HEIGHT; }
1121   06CD 0A            ldax b
1122   06CE B7            ora a
1123   06CF C2 D7 06      jnz l113
1124   06D2               ; 297 *p=path_n+1; p+=GAME_HEIGHT; }
1125   06D2 3A 68 18      lda path_n
1126   06D5 3C            inr a
1127   06D6 02            stax b
1128   06D7             l113:
1129   06D7             l112:
1130   06D7               ; 297 p+=GAME_HEIGHT; }Сложение с BC
1131   06D7 21 09 00      lxi h, 9
1132   06DA 09            dad b
1133   06DB 44            mov b, h
1134   06DC 4D            mov c, l
1135   06DD             l110:
1136   06DD               ; 298 if(path_x != GAME_WIDTH -1) { p+=GAME_HEIGHT; if(*p==255) { ++path_x; path_p=p; return 1; } else if(*p==0) *p=path_n+1; p-=GAME_HEIGHT; }
1137   06DD 3A 69 18      lda path_x
1138   06E0 FE 08         cpi 8
1139   06E2 CA 11 07      jz l114
1140   06E5               ; 298 p+=GAME_HEIGHT; if(*p==255) { ++path_x; path_p=p; return 1; } else if(*p==0) *p=path_n+1; p-=GAME_HEIGHT; }Сложение с BC
1141   06E5 21 09 00      lxi h, 9
1142   06E8 09            dad b
1143   06E9 44            mov b, h
1144   06EA 4D            mov c, l
1145   06EB               ; 298 if(*p==255) { ++path_x; path_p=p; return 1; } else if(*p==0) *p=path_n+1; p-=GAME_HEIGHT; }
1146   06EB 0A            ldax b
1147   06EC FE FF         cpi 255
1148   06EE C2 01 07      jnz l115
1149   06F1               ; 298 ++path_x; path_p=p; return 1; } else if(*p==0) *p=path_n+1; p-=GAME_HEIGHT; }
1150   06F1 21 69 18      lxi h, path_x
1151   06F4 34            inr m
1152   06F5               ; 298 path_p=p; return 1; } else if(*p==0) *p=path_n+1; p-=GAME_HEIGHT; }
1153   06F5 60            mov h, b
1154   06F6 69            mov l, c
1155   06F7 22 65 18      shld path_p
1156   06FA               ; 298 return 1; } else if(*p==0) *p=path_n+1; p-=GAME_HEIGHT; }
1157   06FA 3E 01         mvi a, 1
1158   06FC C1            pop b
1159   06FD C9            ret
1160   06FE C3 0B 07      jmp l116
1161   0701             l115:
1162   0701               ; 298 if(*p==0) *p=path_n+1; p-=GAME_HEIGHT; }
1163   0701 0A            ldax b
1164   0702 B7            ora a
1165   0703 C2 0B 07      jnz l117
1166   0706               ; 298 *p=path_n+1; p-=GAME_HEIGHT; }
1167   0706 3A 68 18      lda path_n
1168   0709 3C            inr a
1169   070A 02            stax b
1170   070B             l117:
1171   070B             l116:
1172   070B               ; 298 p-=GAME_HEIGHT; }Сложение с BC
1173   070B 21 F7 FF      lxi h, 65527
1174   070E 09            dad b
1175   070F 44            mov b, h
1176   0710 4D            mov c, l
1177   0711             l114:
1178   0711             l101:
1179   0711             l100:
1180   0711 21 6A 18      lxi h, path_y
1181   0714 34            inr m
1182   0715 03            inx b
1183   0716 C3 47 06      jmp l98
1184   0719             l99:
1185   0719             l97:
1186   0719 21 69 18      lxi h, path_x
1187   071C 34            inr m
1188   071D C3 3B 06      jmp l95
1189   0720             l96:
1190   0720             l94:
1191   0720 21 68 18      lxi h, path_n
1192   0723 34            inr m
1193   0724 C3 2A 06      jmp l92
1194   0727             l93:
1195   0727               ; 302 path_end();
1196   0727 CD 1F 08      call path_end
1197   072A               ; 303 game[selX][selY] = path_c;
1198   072A 2A 34 17      lhld selX
1199   072D 26 00         mvi h, 0
1200   072F               ; Умножение HL на 2
1201   072F 29            dad h
1202   0730               ; Сложение
1203   0730 11 CE 16      lxi d, game
1204   0733 19            dad d
1205   0734               ; Сложение
1206   0734 5E            mov e, m
1207   0735 23            inx h
1208   0736 56            mov d, m
1209   0737 2A 35 17      lhld selY
1210   073A 26 00         mvi h, 0
1211   073C 19            dad d
1212   073D 3A 64 18      lda path_c
1213   0740 77            mov m, a
1214   0741               ; 304 return 0;
1215   0741 AF            xra a
1216   0742 C1            pop b
1217   0743 C9            ret
1218   0744               ; --- path_nextStep -----------------------------------------------------------------
1219   0744             path_nextStep:
1220   0744 C5            push b
1221   0745               ; 311 path_p;<p>
1222   0745 2A 65 18      lhld path_p
1223   0748 44            mov b, h
1224   0749 4D            mov c, l
1225   074A               ; 312 if(path_y != 0            ) { p -= 1;           if(*p == path_n) { --path_y; --path_n; path_p=p; return 1; } p+=1;           }
1226   074A 3A 6A 18      lda path_y
1227   074D B7            ora a
1228   074E CA 6C 07      jz l118
1229   0751               ; 312 p -= 1;           if(*p == path_n) { --path_y; --path_n; path_p=p; return 1; } p+=1;           }Сложение BC с константой -1
1230   0751 0B            dcx b
1231   0752               ; 312 if(*p == path_n) { --path_y; --path_n; path_p=p; return 1; } p+=1;           }
1232   0752 21 68 18      lxi h, path_n
1233   0755 0A            ldax b
1234   0756 BE            cmp m
1235   0757 C2 6B 07      jnz l119
1236   075A               ; 312 --path_y; --path_n; path_p=p; return 1; } p+=1;           }
1237   075A 21 6A 18      lxi h, path_y
1238   075D 35            dcr m
1239   075E               ; 312 --path_n; path_p=p; return 1; } p+=1;           }
1240   075E 21 68 18      lxi h, path_n
1241   0761 35            dcr m
1242   0762               ; 312 path_p=p; return 1; } p+=1;           }
1243   0762 60            mov h, b
1244   0763 69            mov l, c
1245   0764 22 65 18      shld path_p
1246   0767               ; 312 return 1; } p+=1;           }
1247   0767 3E 01         mvi a, 1
1248   0769 C1            pop b
1249   076A C9            ret
1250   076B             l119:
1251   076B               ; 312 p+=1;           }Сложение BC с константой 1
1252   076B 03            inx b
1253   076C             l118:
1254   076C               ; 313 if(path_y != GAME_HEIGHT-1) { p += 1;           if(*p == path_n) { ++path_y; --path_n; path_p=p; return 2; } p-=1;           }
1255   076C 3A 6A 18      lda path_y
1256   076F FE 08         cpi 8
1257   0771 CA 8F 07      jz l120
1258   0774               ; 313 p += 1;           if(*p == path_n) { ++path_y; --path_n; path_p=p; return 2; } p-=1;           }Сложение BC с константой 1
1259   0774 03            inx b
1260   0775               ; 313 if(*p == path_n) { ++path_y; --path_n; path_p=p; return 2; } p-=1;           }
1261   0775 21 68 18      lxi h, path_n
1262   0778 0A            ldax b
1263   0779 BE            cmp m
1264   077A C2 8E 07      jnz l121
1265   077D               ; 313 ++path_y; --path_n; path_p=p; return 2; } p-=1;           }
1266   077D 21 6A 18      lxi h, path_y
1267   0780 34            inr m
1268   0781               ; 313 --path_n; path_p=p; return 2; } p-=1;           }
1269   0781 21 68 18      lxi h, path_n
1270   0784 35            dcr m
1271   0785               ; 313 path_p=p; return 2; } p-=1;           }
1272   0785 60            mov h, b
1273   0786 69            mov l, c
1274   0787 22 65 18      shld path_p
1275   078A               ; 313 return 2; } p-=1;           }
1276   078A 3E 02         mvi a, 2
1277   078C C1            pop b
1278   078D C9            ret
1279   078E             l121:
1280   078E               ; 313 p-=1;           }Сложение BC с константой -1
1281   078E 0B            dcx b
1282   078F             l120:
1283   078F               ; 314 if(path_x != 0            ) { p -= GAME_HEIGHT; if(*p == path_n) { --path_x; --path_n; path_p=p; return 3; } p+=GAME_HEIGHT; }
1284   078F 3A 69 18      lda path_x
1285   0792 B7            ora a
1286   0793 CA BB 07      jz l122
1287   0796               ; 314 p -= GAME_HEIGHT; if(*p == path_n) { --path_x; --path_n; path_p=p; return 3; } p+=GAME_HEIGHT; }Сложение с BC
1288   0796 21 F7 FF      lxi h, 65527
1289   0799 09            dad b
1290   079A 44            mov b, h
1291   079B 4D            mov c, l
1292   079C               ; 314 if(*p == path_n) { --path_x; --path_n; path_p=p; return 3; } p+=GAME_HEIGHT; }
1293   079C 21 68 18      lxi h, path_n
1294   079F 0A            ldax b
1295   07A0 BE            cmp m
1296   07A1 C2 B5 07      jnz l123
1297   07A4               ; 314 --path_x; --path_n; path_p=p; return 3; } p+=GAME_HEIGHT; }
1298   07A4 21 69 18      lxi h, path_x
1299   07A7 35            dcr m
1300   07A8               ; 314 --path_n; path_p=p; return 3; } p+=GAME_HEIGHT; }
1301   07A8 21 68 18      lxi h, path_n
1302   07AB 35            dcr m
1303   07AC               ; 314 path_p=p; return 3; } p+=GAME_HEIGHT; }
1304   07AC 60            mov h, b
1305   07AD 69            mov l, c
1306   07AE 22 65 18      shld path_p
1307   07B1               ; 314 return 3; } p+=GAME_HEIGHT; }
1308   07B1 3E 03         mvi a, 3
1309   07B3 C1            pop b
1310   07B4 C9            ret
1311   07B5             l123:
1312   07B5               ; 314 p+=GAME_HEIGHT; }Сложение с BC
1313   07B5 21 09 00      lxi h, 9
1314   07B8 09            dad b
1315   07B9 44            mov b, h
1316   07BA 4D            mov c, l
1317   07BB             l122:
1318   07BB               ; 315 if(path_x != GAME_WIDTH -1) { p += GAME_HEIGHT; if(*p == path_n) { ++path_x; --path_n; path_p=p; return 4; } p-=GAME_HEIGHT; }
1319   07BB 3A 69 18      lda path_x
1320   07BE FE 08         cpi 8
1321   07C0 CA E8 07      jz l124
1322   07C3               ; 315 p += GAME_HEIGHT; if(*p == path_n) { ++path_x; --path_n; path_p=p; return 4; } p-=GAME_HEIGHT; }Сложение с BC
1323   07C3 21 09 00      lxi h, 9
1324   07C6 09            dad b
1325   07C7 44            mov b, h
1326   07C8 4D            mov c, l
1327   07C9               ; 315 if(*p == path_n) { ++path_x; --path_n; path_p=p; return 4; } p-=GAME_HEIGHT; }
1328   07C9 21 68 18      lxi h, path_n
1329   07CC 0A            ldax b
1330   07CD BE            cmp m
1331   07CE C2 E2 07      jnz l125
1332   07D1               ; 315 ++path_x; --path_n; path_p=p; return 4; } p-=GAME_HEIGHT; }
1333   07D1 21 69 18      lxi h, path_x
1334   07D4 34            inr m
1335   07D5               ; 315 --path_n; path_p=p; return 4; } p-=GAME_HEIGHT; }
1336   07D5 21 68 18      lxi h, path_n
1337   07D8 35            dcr m
1338   07D9               ; 315 path_p=p; return 4; } p-=GAME_HEIGHT; }
1339   07D9 60            mov h, b
1340   07DA 69            mov l, c
1341   07DB 22 65 18      shld path_p
1342   07DE               ; 315 return 4; } p-=GAME_HEIGHT; }
1343   07DE 3E 04         mvi a, 4
1344   07E0 C1            pop b
1345   07E1 C9            ret
1346   07E2             l125:
1347   07E2               ; 315 p-=GAME_HEIGHT; }Сложение с BC
1348   07E2 21 F7 FF      lxi h, 65527
1349   07E5 09            dad b
1350   07E6 44            mov b, h
1351   07E7 4D            mov c, l
1352   07E8             l124:
1353   07E8               ; 316 while(1);
1354   07E8             l126:
1355   07E8 C3 E8 07      jmp l126
1356   07EB             l127:
1357   07EB C1            pop b
1358   07EC C9            ret
1359   07ED               ; --- path_save -----------------------------------------------------------------
1360   07ED             path_save:
1361   07ED 2A 65 18      lhld path_p
1362   07F0 22 6B 18      shld path_p1
1363   07F3               ; 323 path_x1 = path_x; 
1364   07F3 3A 69 18      lda path_x
1365   07F6 32 6F 18      sta path_x1
1366   07F9               ; 324 path_y1 = path_y;
1367   07F9 3A 6A 18      lda path_y
1368   07FC 32 70 18      sta path_y1
1369   07FF               ; 325 path_n1 = path_n;
1370   07FF 3A 68 18      lda path_n
1371   0802 32 6E 18      sta path_n1
1372   0805 C9            ret
1373   0806               ; --- path_load -----------------------------------------------------------------
1374   0806             path_load:
1375   0806 2A 6B 18      lhld path_p1
1376   0809 22 65 18      shld path_p
1377   080C               ; 332 path_x = path_x1;
1378   080C 3A 6F 18      lda path_x1
1379   080F 32 69 18      sta path_x
1380   0812               ; 333 path_y = path_y1;
1381   0812 3A 70 18      lda path_y1
1382   0815 32 6A 18      sta path_y
1383   0818               ; 334 path_n = path_n1;
1384   0818 3A 6E 18      lda path_n1
1385   081B 32 68 18      sta path_n
1386   081E C9            ret
1387   081F               ; --- path_end -----------------------------------------------------------------
1388   081F             path_end:
1389   081F C5            push b
1390   0820               ; 342 for(p=&game[0][0]; p != &game[8][8]+1; ++p)Сложение с константой 0
1391   0820 2A CE 16      lhld (game)+(0)
1392   0823 44            mov b, h
1393   0824 4D            mov c, l
1394   0825             l128:
1395   0825               ; Сложение
1396   0825 2A DE 16      lhld (game)+(16)
1397   0828 11 08 00      lxi d, 8
1398   082B 19            dad d
1399   082C               ; Сложение с константой 1
1400   082C 23            inx h
1401   082D 50            mov d, b
1402   082E 59            mov e, c
1403   082F CD B6 15      call op_cmp16
1404   0832 CA 41 08      jz l129
1405   0835               ; 343 if(*p >= PATH_START_VAL)
1406   0835 0A            ldax b
1407   0836 FE 0A         cpi 10
1408   0838 DA 3D 08      jc l131
1409   083B               ; 344 *p=0;
1410   083B AF            xra a
1411   083C 02            stax b
1412   083D             l131:
1413   083D             l130:
1414   083D 03            inx b
1415   083E C3 25 08      jmp l128
1416   0841             l129:
1417   0841 C1            pop b
1418   0842 C9            ret
1419   0843               ; --- move -----------------------------------------------------------------
1420   0843             move:
1421   0843 CD E4 05      call path_find
1422   0846               ; convertToConfition
1423   0846 B7            ora a
1424   0847 C2 52 08      jnz l132
1425   084A               ; 353 if(playSound) soundBadMove();convertToConfition
1426   084A 3A 3C 17      lda playSound
1427   084D B7            ora a
1428   084E C4 2F 12      cnz soundBadMove
1429   0851 C9            ret
1430   0852             l132:
1431   0852               ; 357 if(showPath) {convertToConfition
1432   0852 3A 3B 17      lda showPath
1433   0855 B7            ora a
1434   0856 CA 32 09      jz l134
1435   0859               ; 359 path_save();
1436   0859 CD ED 07      call path_save
1437   085C               ; 360 while(1) {
1438   085C             l135:
1439   085C               ; 361 switch(path_nextStep()) {
1440   085C CD 44 07      call path_nextStep
1441   085F FE 01         cpi 1
1442   0861 CA 76 08      jz l138
1443   0864 FE 02         cpi 2
1444   0866 CA 90 08      jz l139
1445   0869 FE 03         cpi 3
1446   086B CA AA 08      jz l140
1447   086E FE 04         cpi 4
1448   0870 CA C4 08      jz l141
1449   0873 C3 DB 08      jmp l137
1450   0876             l138:
1451   0876               ; 362 drawSprite(path_x, path_y+1, 0, sprite_stepUp   ); break;
1452   0876 3A 69 18      lda path_x
1453   0879 32 BB 54      sta drawSprite_1
1454   087C 3A 6A 18      lda path_y
1455   087F 3C            inr a
1456   0880 32 BC 54      sta drawSprite_2
1457   0883 AF            xra a
1458   0884 32 BD 54      sta drawSprite_3
1459   0887 21 94 19      lxi h, sprite_stepUp
1460   088A CD CA 0E      call drawSprite
1461   088D               ; 362 break;
1462   088D C3 DB 08      jmp l137
1463   0890             l139:
1464   0890               ; 363 drawSprite(path_x, path_y-1, 0, sprite_stepDown ); break;
1465   0890 3A 69 18      lda path_x
1466   0893 32 BB 54      sta drawSprite_1
1467   0896 3A 6A 18      lda path_y
1468   0899 3D            dcr a
1469   089A 32 BC 54      sta drawSprite_2
1470   089D AF            xra a
1471   089E 32 BD 54      sta drawSprite_3
1472   08A1 21 A4 19      lxi h, sprite_stepDown
1473   08A4 CD CA 0E      call drawSprite
1474   08A7               ; 363 break;
1475   08A7 C3 DB 08      jmp l137
1476   08AA             l140:
1477   08AA               ; 364 drawSprite(path_x+1, path_y, 0, sprite_stepLeft ); break;
1478   08AA 3A 69 18      lda path_x
1479   08AD 3C            inr a
1480   08AE 32 BB 54      sta drawSprite_1
1481   08B1 3A 6A 18      lda path_y
1482   08B4 32 BC 54      sta drawSprite_2
1483   08B7 AF            xra a
1484   08B8 32 BD 54      sta drawSprite_3
1485   08BB 21 B4 19      lxi h, sprite_stepLeft
1486   08BE CD CA 0E      call drawSprite
1487   08C1               ; 364 break;
1488   08C1 C3 DB 08      jmp l137
1489   08C4             l141:
1490   08C4               ; 365 drawSprite(path_x-1, path_y, 0, sprite_stepRight); break;
1491   08C4 3A 69 18      lda path_x
1492   08C7 3D            dcr a
1493   08C8 32 BB 54      sta drawSprite_1
1494   08CB 3A 6A 18      lda path_y
1495   08CE 32 BC 54      sta drawSprite_2
1496   08D1 AF            xra a
1497   08D2 32 BD 54      sta drawSprite_3
1498   08D5 21 C4 19      lxi h, sprite_stepRight
1499   08D8 CD CA 0E      call drawSprite
1500   08DB               ; 365 break;
1501   08DB             l137:
1502   08DB               ; 367 drawSprite(path_x, path_y, path_c, ballSprite);
1503   08DB 3A 69 18      lda path_x
1504   08DE 32 BB 54      sta drawSprite_1
1505   08E1 3A 6A 18      lda path_y
1506   08E4 32 BC 54      sta drawSprite_2
1507   08E7 3A 64 18      lda path_c
1508   08EA 32 BD 54      sta drawSprite_3
1509   08ED 21 E4 18      lxi h, ballSprite
1510   08F0 CD CA 0E      call drawSprite
1511   08F3               ; 368 if(path_n==LAST_STEP) break;
1512   08F3 3A 68 18      lda path_n
1513   08F6 FE 09         cpi 9
1514   08F8 CA 08 09      jz l136
1515   08FB 3A 3C 17      lda playSound
1516   08FE B7            ora a
1517   08FF C4 04 12      cnz soundJumpSel
1518   0902 CD F3 00      call delayStep
1519   0905 C3 5C 08      jmp l135
1520   0908             l136:
1521   0908               ; 374 path_load();
1522   0908 CD 06 08      call path_load
1523   090B               ; 375 while(1) {
1524   090B             l144:
1525   090B               ; 376 drawSprite(path_x, path_y, 0, emptySprite);
1526   090B 3A 69 18      lda path_x
1527   090E 32 BB 54      sta drawSprite_1
1528   0911 3A 6A 18      lda path_y
1529   0914 32 BC 54      sta drawSprite_2
1530   0917 AF            xra a
1531   0918 32 BD 54      sta drawSprite_3
1532   091B 21 84 19      lxi h, emptySprite
1533   091E CD CA 0E      call drawSprite
1534   0921               ; 377 path_nextStep();
1535   0921 CD 44 07      call path_nextStep
1536   0924               ; 378 if(path_n==LAST_STEP) break;
1537   0924 3A 68 18      lda path_n
1538   0927 FE 09         cpi 9
1539   0929 CA 2F 09      jz l145
1540   092C C3 0B 09      jmp l144
1541   092F             l145:
1542   092F C3 48 09      jmp l147
1543   0932             l134:
1544   0932               ; 381 drawSprite(selX, selY, 0, emptySprite);
1545   0932 3A 34 17      lda selX
1546   0935 32 BB 54      sta drawSprite_1
1547   0938 3A 35 17      lda selY
1548   093B 32 BC 54      sta drawSprite_2
1549   093E AF            xra a
1550   093F 32 BD 54      sta drawSprite_3
1551   0942 21 84 19      lxi h, emptySprite
1552   0945 CD CA 0E      call drawSprite
1553   0948             l147:
1554   0948               ; 385 game[cursorX][cursorY] = path_c;
1555   0948 2A 32 17      lhld cursorX
1556   094B 26 00         mvi h, 0
1557   094D               ; Умножение HL на 2
1558   094D 29            dad h
1559   094E               ; Сложение
1560   094E 11 CE 16      lxi d, game
1561   0951 19            dad d
1562   0952               ; Сложение
1563   0952 5E            mov e, m
1564   0953 23            inx h
1565   0954 56            mov d, m
1566   0955 2A 33 17      lhld cursorY
1567   0958 26 00         mvi h, 0
1568   095A 19            dad d
1569   095B 3A 64 18      lda path_c
1570   095E 77            mov m, a
1571   095F               ; 388 selX = -1;
1572   095F 3E FF         mvi a, 255
1573   0961 32 34 17      sta selX
1574   0964               ; 391 path_end();
1575   0964 CD 1F 08      call path_end
1576   0967               ; 394 gameStep();
1577   0967 C3 14 05      jmp gameStep
1578   096A             startGame:
1579   096A C5            push b
1580   096B               ; 403 selX = -1;
1581   096B 3E FF         mvi a, 255
1582   096D 32 34 17      sta selX
1583   0970               ; 404 score = 0;
1584   0970 21 00 00      lxi h, 0
1585   0973 22 36 17      shld score
1586   0976               ; 405 gameOver = 0;
1587   0976 AF            xra a
1588   0977 32 31 17      sta gameOver
1589   097A               ; 406 drawScore(0);
1590   097A CD 3B 10      call drawScore
1591   097D               ; 408 for(y=0; y!=GAME_HEIGHT; ++y)
1592   097D 0E 00         mvi c, 0
1593   097F             l148:
1594   097F 3E 09         mvi a, 9
1595   0981 B9            cmp c
1596   0982 CA B9 09      jz l149
1597   0985               ; 409 for(x=0; x!=GAME_WIDTH; ++x) {
1598   0985 06 00         mvi b, 0
1599   0987             l151:
1600   0987 3E 09         mvi a, 9
1601   0989 B8            cmp b
1602   098A CA B5 09      jz l152
1603   098D               ; 410 game[x][y] = 0;
1604   098D 26 00         mvi h, 0
1605   098F 68            mov l, b
1606   0990               ; Умножение HL на 2
1607   0990 29            dad h
1608   0991               ; Сложение
1609   0991 11 CE 16      lxi d, game
1610   0994 19            dad d
1611   0995               ; Сложение
1612   0995 5E            mov e, m
1613   0996 23            inx h
1614   0997 56            mov d, m
1615   0998 EB            xchg
1616   0999 59            mov e, c
1617   099A 16 00         mvi d, 0
1618   099C 19            dad d
1619   099D 36 00         mvi m, 0
1620   099F               ; 411 drawSprite(x,y,0,emptySprite);
1621   099F 78            mov a, b
1622   09A0 32 BB 54      sta drawSprite_1
1623   09A3 79            mov a, c
1624   09A4 32 BC 54      sta drawSprite_2
1625   09A7 AF            xra a
1626   09A8 32 BD 54      sta drawSprite_3
1627   09AB 21 84 19      lxi h, emptySprite
1628   09AE CD CA 0E      call drawSprite
1629   09B1             l153:
1630   09B1 04            inr b
1631   09B2 C3 87 09      jmp l151
1632   09B5             l152:
1633   09B5             l150:
1634   09B5 0C            inr c
1635   09B6 C3 7F 09      jmp l148
1636   09B9             l149:
1637   09B9               ; 414 randNewBall();
1638   09B9 CD D5 04      call randNewBall
1639   09BC               ; 415 gameStep();
1640   09BC CD 14 05      call gameStep
1641   09BF C1            pop b
1642   09C0 C9            ret
1643   09C1               ; --- recordAnimation -----------------------------------------------------------------
1644   09C1             recordAnimation:
1645   09C1 2A 36 17      lhld score
1646   09C4 EB            xchg
1647   09C5 2A CE 17      lhld ((hiScores)+(128))+(14)
1648   09C8 CD B6 15      call op_cmp16
1649   09CB DA D2 09      jc l154
1650   09CE CA D2 09      jz l154
1651   09D1               ; 430 return;
1652   09D1 C9            ret
1653   09D2             l154:
1654   09D2               ; 432 hiScores[8].score = score;
1655   09D2 2A 36 17      lhld score
1656   09D5 22 CE 17      shld ((hiScores)+(128))+(14)
1657   09D8               ; 434 memset(hiScores[8].name, 0, 6);
1658   09D8 21 C0 17      lxi h, (hiScores)+(128)
1659   09DB 22 74 55      shld memset_1
1660   09DE AF            xra a
1661   09DF 32 76 55      sta memset_2
1662   09E2 21 06 00      lxi h, 6
1663   09E5 CD BC 15      call memset
1664   09E8               ; 435 i = 0;
1665   09E8 AF            xra a
1666   09E9 32 8A 18      sta recordAnimation_i
1667   09EC               ; 436 while(1) {
1668   09EC             l155:
1669   09EC               ; 437 showRecordScreen(8);
1670   09EC 3E 08         mvi a, 8
1671   09EE CD 2F 14      call showRecordScreen
1672   09F1               ; 438 c = getch();
1673   09F1 CD 03 F8      call 63491
1674   09F4 32 89 18      sta recordAnimation_c
1675   09F7               ; 439 if(c==13) break;  
1676   09F7 FE 0D         cpi 13
1677   09F9 CA 4E 0A      jz l156
1678   09FC FE 7F         cpi 127
1679   09FE C2 1A 0A      jnz l158
1680   0A01               ; 441 if(i==0) continue;
1681   0A01 3A 8A 18      lda recordAnimation_i
1682   0A04 B7            ora a
1683   0A05 CA EC 09      jz l155
1684   0A08 21 8A 18      lxi h, recordAnimation_i
1685   0A0B 35            dcr m
1686   0A0C               ; 443 hiScores[8].name[i] = 0;Сложение
1687   0A0C 2A 8A 18      lhld recordAnimation_i
1688   0A0F 26 00         mvi h, 0
1689   0A11 11 C0 17      lxi d, (hiScores)+(128)
1690   0A14 19            dad d
1691   0A15 36 00         mvi m, 0
1692   0A17               ; 444 continue;
1693   0A17 C3 EC 09      jmp l155
1694   0A1A             l158:
1695   0A1A               ; 446 if(c>=32 && c<127) {
1696   0A1A 3A 89 18      lda recordAnimation_c
1697   0A1D FE 20         cpi 32
1698   0A1F DA 4B 0A      jc l160
1699   0A22 FE 7F         cpi 127
1700   0A24 D2 4B 0A      jnc l160
1701   0A27               ; 447 if(i==6) continue;
1702   0A27 3A 8A 18      lda recordAnimation_i
1703   0A2A FE 06         cpi 6
1704   0A2C CA EC 09      jz l155
1705   0A2F 6F            mov l, a
1706   0A30 26 00         mvi h, 0
1707   0A32 11 C0 17      lxi d, (hiScores)+(128)
1708   0A35 19            dad d
1709   0A36 3A 89 18      lda recordAnimation_c
1710   0A39 77            mov m, a
1711   0A3A               ; 449 hiScores[8].name[i+1] = 0;
1712   0A3A 3A 8A 18      lda recordAnimation_i
1713   0A3D 3C            inr a
1714   0A3E               ; Сложение
1715   0A3E 26 00         mvi h, 0
1716   0A40 6F            mov l, a
1717   0A41 11 C0 17      lxi d, (hiScores)+(128)
1718   0A44 19            dad d
1719   0A45 36 00         mvi m, 0
1720   0A47               ; 450 ++i;   
1721   0A47 21 8A 18      lxi h, recordAnimation_i
1722   0A4A 34            inr m
1723   0A4B             l160:
1724   0A4B C3 EC 09      jmp l155
1725   0A4E             l156:
1726   0A4E               ; 453 c = 8;
1727   0A4E 3E 08         mvi a, 8
1728   0A50 32 89 18      sta recordAnimation_c
1729   0A53               ; 454 p = hiScores+8;
1730   0A53 21 C0 17      lxi h, (hiScores)+(128)
1731   0A56 22 8B 18      shld recordAnimation_p
1732   0A59               ; 455 while(1) {
1733   0A59             l162:
1734   0A59               ; 456 showRecordScreen(c);
1735   0A59 3A 89 18      lda recordAnimation_c
1736   0A5C CD 2F 14      call showRecordScreen
1737   0A5F               ; 458 if(c==0) {
1738   0A5F 3A 89 18      lda recordAnimation_c
1739   0A62 B7            ora a
1740   0A63 C2 6C 0A      jnz l164
1741   0A66               ; 459 updateTopScore();      
1742   0A66 CD D7 14      call updateTopScore
1743   0A69               ; 460 break;
1744   0A69 C3 E3 0A      jmp l163
1745   0A6C             l164:
1746   0A6C               ; 463 if(p->score >= p[-1].score) break;Сложение
1747   0A6C 2A 8B 18      lhld recordAnimation_p
1748   0A6F 11 0E 00      lxi d, 14
1749   0A72 19            dad d
1750   0A73               ; Сложение
1751   0A73 E5            push h
1752   0A74 2A 8B 18      lhld recordAnimation_p
1753   0A77 11 F0 FF      lxi d, 65520
1754   0A7A 19            dad d
1755   0A7B               ; Сложение
1756   0A7B 11 0E 00      lxi d, 14
1757   0A7E 19            dad d
1758   0A7F 5E            mov e, m
1759   0A80 23            inx h
1760   0A81 56            mov d, m
1761   0A82 E1            pop h
1762   0A83 7E            mov a, m
1763   0A84 23            inx h
1764   0A85 66            mov h, m
1765   0A86 6F            mov l, a
1766   0A87 CD B6 15      call op_cmp16
1767   0A8A D2 E3 0A      jnc l163
1768   0A8D 2A 8B 18      lhld recordAnimation_p
1769   0A90 E5            push h
1770   0A91 11 F0 FF      lxi d, 65520
1771   0A94 19            dad d
1772   0A95 22 8B 18      shld recordAnimation_p
1773   0A98 E1            pop h
1774   0A99               ; 466 memcpy(&tmp, p+1, sizeof(tmp));
1775   0A99 21 8D 18      lxi h, recordAnimation_tmp
1776   0A9C 22 79 55      shld memcpy_1
1777   0A9F               ; Сложение
1778   0A9F 2A 8B 18      lhld recordAnimation_p
1779   0AA2 11 10 00      lxi d, 16
1780   0AA5 19            dad d
1781   0AA6 22 7B 55      shld memcpy_2
1782   0AA9 21 10 00      lxi h, 16
1783   0AAC CD D6 15      call memcpy
1784   0AAF               ; 467 memcpy(p+1, p, sizeof(tmp));Сложение
1785   0AAF 2A 8B 18      lhld recordAnimation_p
1786   0AB2 11 10 00      lxi d, 16
1787   0AB5 19            dad d
1788   0AB6 22 79 55      shld memcpy_1
1789   0AB9 2A 8B 18      lhld recordAnimation_p
1790   0ABC 22 7B 55      shld memcpy_2
1791   0ABF 21 10 00      lxi h, 16
1792   0AC2 CD D6 15      call memcpy
1793   0AC5               ; 468 memcpy(p, &tmp, sizeof(tmp));
1794   0AC5 2A 8B 18      lhld recordAnimation_p
1795   0AC8 22 79 55      shld memcpy_1
1796   0ACB 21 8D 18      lxi h, recordAnimation_tmp
1797   0ACE 22 7B 55      shld memcpy_2
1798   0AD1 21 10 00      lxi h, 16
1799   0AD4 CD D6 15      call memcpy
1800   0AD7               ; 469 c--;    
1801   0AD7 21 89 18      lxi h, recordAnimation_c
1802   0ADA 35            dcr m
1803   0ADB               ; 470 delayHS(8);
1804   0ADB 3E 08         mvi a, 8
1805   0ADD CD 98 12      call delayHS
1806   0AE0 C3 59 0A      jmp l162
1807   0AE3             l163:
1808   0AE3               ; 473 getch();
1809   0AE3 C3 03 F8      jmp 63491
1810   0AE6             main:
1811   0AE6 AF            xra a
1812   0AE7 32 9F 18      sta main_selAnimationT
1813   0AEA               ; 479 0, keybTimeout=0; <selAnimationTT>
1814   0AEA 21 00 00      lxi h, 0
1815   0AED 22 A0 18      shld main_selAnimationTT
1816   0AF0               ; 479 0; <keybTimeout>
1817   0AF0 22 A2 18      shld main_keybTimeout
1818   0AF3               ; 481 demo();
1819   0AF3 CD AB 12      call demo
1820   0AF6               ; 484 initGameScreen();
1821   0AF6 CD 2B 15      call initGameScreen
1822   0AF9               ; 487 startGame();
1823   0AF9 CD 6A 09      call startGame
1824   0AFC               ; 489 while(1) {
1825   0AFC             l166:
1826   0AFC               ; 490 rand();
1827   0AFC CD 6C 15      call rand
1828   0AFF               ; 492 if(selX!=-1) {
1829   0AFF 3A 34 17      lda selX
1830   0B02 FE FF         cpi -1
1831   0B04 CA 9F 0B      jz l168
1832   0B07               ; 493 selAnimationTT++;
1833   0B07 2A A0 18      lhld main_selAnimationTT
1834   0B0A 54            mov d, h
1835   0B0B 5D            mov e, l
1836   0B0C 23            inx h
1837   0B0D 22 A0 18      shld main_selAnimationTT
1838   0B10 EB            xchg
1839   0B11               ; 494 if(selAnimationTT==500) {Сложение
1840   0B11 2A A0 18      lhld main_selAnimationTT
1841   0B14 11 0C FE      lxi d, 65036
1842   0B17 19            dad d
1843   0B18 7D            mov a, l
1844   0B19 B4            ora h
1845   0B1A C2 9F 0B      jnz l169
1846   0B1D               ; 495 selAnimationTT=0;
1847   0B1D 21 00 00      lxi h, 0
1848   0B20 22 A0 18      shld main_selAnimationTT
1849   0B23               ; 496 drawSprite(selX, selY, game[selX][selY], ((selX==cursorX && selY==cursorY) ? selCursorAnimation : selAnimation)[selAnimationT]);
1850   0B23 3A 34 17      lda selX
1851   0B26 32 BB 54      sta drawSprite_1
1852   0B29 3A 35 17      lda selY
1853   0B2C 32 BC 54      sta drawSprite_2
1854   0B2F 2A 34 17      lhld selX
1855   0B32 26 00         mvi h, 0
1856   0B34               ; Умножение HL на 2
1857   0B34 29            dad h
1858   0B35               ; Сложение
1859   0B35 11 CE 16      lxi d, game
1860   0B38 19            dad d
1861   0B39               ; Сложение
1862   0B39 5E            mov e, m
1863   0B3A 23            inx h
1864   0B3B 56            mov d, m
1865   0B3C 2A 35 17      lhld selY
1866   0B3F 26 00         mvi h, 0
1867   0B41 19            dad d
1868   0B42 7E            mov a, m
1869   0B43 32 BD 54      sta drawSprite_3
1870   0B46 21 32 17      lxi h, cursorX
1871   0B49 3A 34 17      lda selX
1872   0B4C BE            cmp m
1873   0B4D C2 5F 0B      jnz l170
1874   0B50 21 33 17      lxi h, cursorY
1875   0B53 3A 35 17      lda selY
1876   0B56 BE            cmp m
1877   0B57 C2 5F 0B      jnz l170
1878   0B5A 3E 01         mvi a, 1
1879   0B5C C3 60 0B      jmp l171
1880   0B5F             l170:
1881   0B5F AF            xra a
1882   0B60             l171:
1883   0B60 B7            ora a
1884   0B61 CA 6A 0B      jz l172
1885   0B64 21 7D 18      lxi h, selCursorAnimation
1886   0B67 C3 6D 0B      jmp l173
1887   0B6A             l172:
1888   0B6A 21 71 18      lxi h, selAnimation
1889   0B6D             l173:
1890   0B6D E5            push h
1891   0B6E 2A 9F 18      lhld main_selAnimationT
1892   0B71 26 00         mvi h, 0
1893   0B73               ; Умножение HL на 2
1894   0B73 29            dad h
1895   0B74               ; Сложение
1896   0B74 D1            pop d
1897   0B75 19            dad d
1898   0B76 5E            mov e, m
1899   0B77 23            inx h
1900   0B78 56            mov d, m
1901   0B79 EB            xchg
1902   0B7A CD CA 0E      call drawSprite
1903   0B7D               ; 497 selAnimationT++;
1904   0B7D 21 9F 18      lxi h, main_selAnimationT
1905   0B80 34            inr m
1906   0B81               ; 498 if(selAnimationT>=4) selAnimationT=0; else
1907   0B81 3A 9F 18      lda main_selAnimationT
1908   0B84 FE 04         cpi 4
1909   0B86 DA 90 0B      jc l174
1910   0B89               ; 498 selAnimationT=0; else
1911   0B89 AF            xra a
1912   0B8A 32 9F 18      sta main_selAnimationT
1913   0B8D C3 9F 0B      jmp l175
1914   0B90             l174:
1915   0B90               ; 499 if(playSound && selAnimationT==2) soundJumpSel();convertToConfition
1916   0B90 3A 3C 17      lda playSound
1917   0B93 B7            ora a
1918   0B94 CA 9F 0B      jz l176
1919   0B97 3A 9F 18      lda main_selAnimationT
1920   0B9A FE 02         cpi 2
1921   0B9C CC 04 12      cz soundJumpSel
1922   0B9F             l176:
1923   0B9F             l175:
1924   0B9F             l169:
1925   0B9F             l168:
1926   0B9F               ; 503 if(keybTimeout) {convertToConfition
1927   0B9F 2A A2 18      lhld main_keybTimeout
1928   0BA2 7D            mov a, l
1929   0BA3 B4            ora h
1930   0BA4 CA B1 0B      jz l177
1931   0BA7               ; 504 keybTimeout--;
1932   0BA7 54            mov d, h
1933   0BA8 5D            mov e, l
1934   0BA9 2B            dcx h
1935   0BAA 22 A2 18      shld main_keybTimeout
1936   0BAD EB            xchg
1937   0BAE               ; 505 continue;
1938   0BAE C3 FC 0A      jmp l166
1939   0BB1             l177:
1940   0BB1               ; 508 c1 = bioskey();
1941   0BB1 CD 1B F8      call 63515
1942   0BB4 32 9E 18      sta main_c1
1943   0BB7               ; 509 if(c == c1) continue;
1944   0BB7 21 9E 18      lxi h, main_c1
1945   0BBA 3A 9D 18      lda main_c
1946   0BBD BE            cmp m
1947   0BBE CA FC 0A      jz l166
1948   0BC1 7E            mov a, m
1949   0BC2 32 9D 18      sta main_c
1950   0BC5               ; 512 switch(c) {
1951   0BC5 FE 31         cpi 49
1952   0BC7 CA FF 0B      jz l180
1953   0BCA FE 32         cpi 50
1954   0BCC CA 16 0C      jz l181
1955   0BCF FE 33         cpi 51
1956   0BD1 CA 2E 0C      jz l182
1957   0BD4 FE 34         cpi 52
1958   0BD6 CA 5E 0C      jz l185
1959   0BD9 FE 35         cpi 53
1960   0BDB CA 6C 0C      jz l186
1961   0BDE FE FF         cpi 255
1962   0BE0 CA 72 0C      jz l187
1963   0BE3 FE 19         cpi 25
1964   0BE5 CA 75 0C      jz l188
1965   0BE8 FE 1A         cpi 26
1966   0BEA CA 91 0C      jz l191
1967   0BED FE 08         cpi 8
1968   0BEF CA AD 0C      jz l194
1969   0BF2 FE 18         cpi 24
1970   0BF4 CA C9 0C      jz l197
1971   0BF7 FE 20         cpi 32
1972   0BF9 CA E5 0C      jz l200
1973   0BFC C3 35 0D      jmp l179
1974   0BFF             l180:
1975   0BFF               ; 513 showPath  = !showPath;  drawOnOff(0, showPath);  break;convertToConfition
1976   0BFF 3A 3B 17      lda showPath
1977   0C02 B7            ora a
1978   0C03 D6 01         sui 1
1979   0C05 9F            sbb a
1980   0C06 32 3B 17      sta showPath
1981   0C09               ; 513 drawOnOff(0, showPath);  break;
1982   0C09 AF            xra a
1983   0C0A 32 F2 54      sta drawOnOff_1
1984   0C0D 3A 3B 17      lda showPath
1985   0C10 CD 9A 11      call drawOnOff
1986   0C13               ; 513 break;
1987   0C13 C3 35 0D      jmp l179
1988   0C16             l181:
1989   0C16               ; 514 playSound = !playSound; drawOnOff(1, playSound); break;convertToConfition
1990   0C16 3A 3C 17      lda playSound
1991   0C19 B7            ora a
1992   0C1A D6 01         sui 1
1993   0C1C 9F            sbb a
1994   0C1D 32 3C 17      sta playSound
1995   0C20               ; 514 drawOnOff(1, playSound); break;
1996   0C20 3E 01         mvi a, 1
1997   0C22 32 F2 54      sta drawOnOff_1
1998   0C25 3A 3C 17      lda playSound
1999   0C28 CD 9A 11      call drawOnOff
2000   0C2B               ; 514 break;
2001   0C2B C3 35 0D      jmp l179
2002   0C2E             l182:
2003   0C2E               ; 515 showHelp  = !showHelp;  drawOnOff(2, showHelp);  if(showHelp) redrawNewBalls1(); else redrawNewBalls(7,7,7); break;convertToConfition
2004   0C2E 3A 3D 17      lda showHelp
2005   0C31 B7            ora a
2006   0C32 D6 01         sui 1
2007   0C34 9F            sbb a
2008   0C35 32 3D 17      sta showHelp
2009   0C38               ; 515 drawOnOff(2, showHelp);  if(showHelp) redrawNewBalls1(); else redrawNewBalls(7,7,7); break;
2010   0C38 3E 02         mvi a, 2
2011   0C3A 32 F2 54      sta drawOnOff_1
2012   0C3D 3A 3D 17      lda showHelp
2013   0C40 CD 9A 11      call drawOnOff
2014   0C43               ; 515 if(showHelp) redrawNewBalls1(); else redrawNewBalls(7,7,7); break;convertToConfition
2015   0C43 3A 3D 17      lda showHelp
2016   0C46 B7            ora a
2017   0C47 CA 50 0C      jz l183
2018   0C4A               ; 515 redrawNewBalls1(); else redrawNewBalls(7,7,7); break;
2019   0C4A CD FA 04      call redrawNewBalls1
2020   0C4D C3 5B 0C      jmp l184
2021   0C50             l183:
2022   0C50               ; 515 redrawNewBalls(7,7,7); break;
2023   0C50 3E 07         mvi a, 7
2024   0C52 32 EF 54      sta redrawNewBalls_1
2025   0C55 32 F0 54      sta redrawNewBalls_2
2026   0C58 CD 73 11      call redrawNewBalls
2027   0C5B             l184:
2028   0C5B               ; 515 break;
2029   0C5B C3 35 0D      jmp l179
2030   0C5E             l185:
2031   0C5E               ; 517 showRecordScreen(-1);
2032   0C5E 3E FF         mvi a, 255
2033   0C60 CD 2F 14      call showRecordScreen
2034   0C63               ; 518 getch();
2035   0C63 CD 03 F8      call 63491
2036   0C66               ; 519 drawCells();
2037   0C66 CD A0 00      call drawCells
2038   0C69               ; 520 break;
2039   0C69 C3 35 0D      jmp l179
2040   0C6C             l186:
2041   0C6C               ; 521 startGame(); break;
2042   0C6C CD 6A 09      call startGame
2043   0C6F               ; 521 break;
2044   0C6F C3 35 0D      jmp l179
2045   0C72             l187:
2046   0C72               ; 532 continue;
2047   0C72 C3 FC 0A      jmp l166
2048   0C75             l188:
2049   0C75               ; 533 clearCursor(); if(cursorY==0) cursorY=8; else cursorY--; drawCursor(); break;
2050   0C75 CD D4 00      call clearCursor
2051   0C78               ; 533 if(cursorY==0) cursorY=8; else cursorY--; drawCursor(); break;
2052   0C78 3A 33 17      lda cursorY
2053   0C7B B7            ora a
2054   0C7C C2 87 0C      jnz l189
2055   0C7F               ; 533 cursorY=8; else cursorY--; drawCursor(); break;
2056   0C7F 3E 08         mvi a, 8
2057   0C81 32 33 17      sta cursorY
2058   0C84 C3 8B 0C      jmp l190
2059   0C87             l189:
2060   0C87               ; 533 cursorY--; drawCursor(); break;
2061   0C87 21 33 17      lxi h, cursorY
2062   0C8A 35            dcr m
2063   0C8B             l190:
2064   0C8B               ; 533 drawCursor(); break;
2065   0C8B CD 51 00      call drawCursor
2066   0C8E               ; 533 break;
2067   0C8E C3 35 0D      jmp l179
2068   0C91             l191:
2069   0C91               ; 534 clearCursor(); if(cursorY==8) cursorY=0; else cursorY++; drawCursor(); break;
2070   0C91 CD D4 00      call clearCursor
2071   0C94               ; 534 if(cursorY==8) cursorY=0; else cursorY++; drawCursor(); break;
2072   0C94 3A 33 17      lda cursorY
2073   0C97 FE 08         cpi 8
2074   0C99 C2 A3 0C      jnz l192
2075   0C9C               ; 534 cursorY=0; else cursorY++; drawCursor(); break;
2076   0C9C AF            xra a
2077   0C9D 32 33 17      sta cursorY
2078   0CA0 C3 A7 0C      jmp l193
2079   0CA3             l192:
2080   0CA3               ; 534 cursorY++; drawCursor(); break;
2081   0CA3 21 33 17      lxi h, cursorY
2082   0CA6 34            inr m
2083   0CA7             l193:
2084   0CA7               ; 534 drawCursor(); break;
2085   0CA7 CD 51 00      call drawCursor
2086   0CAA               ; 534 break;
2087   0CAA C3 35 0D      jmp l179
2088   0CAD             l194:
2089   0CAD               ; 535 clearCursor(); if(cursorX==0) cursorX=8; else cursorX--; drawCursor(); break;
2090   0CAD CD D4 00      call clearCursor
2091   0CB0               ; 535 if(cursorX==0) cursorX=8; else cursorX--; drawCursor(); break;
2092   0CB0 3A 32 17      lda cursorX
2093   0CB3 B7            ora a
2094   0CB4 C2 BF 0C      jnz l195
2095   0CB7               ; 535 cursorX=8; else cursorX--; drawCursor(); break;
2096   0CB7 3E 08         mvi a, 8
2097   0CB9 32 32 17      sta cursorX
2098   0CBC C3 C3 0C      jmp l196
2099   0CBF             l195:
2100   0CBF               ; 535 cursorX--; drawCursor(); break;
2101   0CBF 21 32 17      lxi h, cursorX
2102   0CC2 35            dcr m
2103   0CC3             l196:
2104   0CC3               ; 535 drawCursor(); break;
2105   0CC3 CD 51 00      call drawCursor
2106   0CC6               ; 535 break;
2107   0CC6 C3 35 0D      jmp l179
2108   0CC9             l197:
2109   0CC9               ; 536 clearCursor(); if(cursorX==8) cursorX=0; else cursorX++; drawCursor(); break;
2110   0CC9 CD D4 00      call clearCursor
2111   0CCC               ; 536 if(cursorX==8) cursorX=0; else cursorX++; drawCursor(); break;
2112   0CCC 3A 32 17      lda cursorX
2113   0CCF FE 08         cpi 8
2114   0CD1 C2 DB 0C      jnz l198
2115   0CD4               ; 536 cursorX=0; else cursorX++; drawCursor(); break;
2116   0CD4 AF            xra a
2117   0CD5 32 32 17      sta cursorX
2118   0CD8 C3 DF 0C      jmp l199
2119   0CDB             l198:
2120   0CDB               ; 536 cursorX++; drawCursor(); break;
2121   0CDB 21 32 17      lxi h, cursorX
2122   0CDE 34            inr m
2123   0CDF             l199:
2124   0CDF               ; 536 drawCursor(); break;
2125   0CDF CD 51 00      call drawCursor
2126   0CE2               ; 536 break;
2127   0CE2 C3 35 0D      jmp l179
2128   0CE5             l200:
2129   0CE5               ; 538 if(game[cursorX][cursorY]) { if(selX!=-1) drawCell(selX, selY); selX=cursorX, selY=cursorY; break; }
2130   0CE5 2A 32 17      lhld cursorX
2131   0CE8 26 00         mvi h, 0
2132   0CEA               ; Умножение HL на 2
2133   0CEA 29            dad h
2134   0CEB               ; Сложение
2135   0CEB 11 CE 16      lxi d, game
2136   0CEE 19            dad d
2137   0CEF               ; Сложение
2138   0CEF 5E            mov e, m
2139   0CF0 23            inx h
2140   0CF1 56            mov d, m
2141   0CF2 2A 33 17      lhld cursorY
2142   0CF5 26 00         mvi h, 0
2143   0CF7 19            dad d
2144   0CF8               ; convertToConfition
2145   0CF8 AF            xra a
2146   0CF9 B6            ora m
2147   0CFA CA 1D 0D      jz l201
2148   0CFD               ; 538 if(selX!=-1) drawCell(selX, selY); selX=cursorX, selY=cursorY; break; }
2149   0CFD 3A 34 17      lda selX
2150   0D00 FE FF         cpi -1
2151   0D02 CA 0E 0D      jz l202
2152   0D05               ; 538 drawCell(selX, selY); selX=cursorX, selY=cursorY; break; }
2153   0D05 32 45 18      sta drawCell_1
2154   0D08 3A 35 17      lda selY
2155   0D0B CD 03 00      call drawCell
2156   0D0E             l202:
2157   0D0E               ; 538 selX=cursorX, selY=cursorY; break; }
2158   0D0E 3A 32 17      lda cursorX
2159   0D11 32 34 17      sta selX
2160   0D14 3A 33 17      lda cursorY
2161   0D17 32 35 17      sta selY
2162   0D1A               ; 538 break; }
2163   0D1A C3 35 0D      jmp l179
2164   0D1D             l201:
2165   0D1D               ; 539 if(selX==-1) break;
2166   0D1D 3A 34 17      lda selX
2167   0D20 FE FF         cpi -1
2168   0D22 CA 35 0D      jz l179
2169   0D25 CD 43 08      call move
2170   0D28               ; 541 if(gameOver) {convertToConfition
2171   0D28 3A 31 17      lda gameOver
2172   0D2B B7            ora a
2173   0D2C CA 35 0D      jz l204
2174   0D2F               ; 542 recordAnimation();
2175   0D2F CD C1 09      call recordAnimation
2176   0D32               ; 543 startGame();
2177   0D32 CD 6A 09      call startGame
2178   0D35             l204:
2179   0D35               ; 545 break;        
2180   0D35             l179:
2181   0D35               ; 550 keybTimeout=300;
2182   0D35 21 2C 01      lxi h, 300
2183   0D38 22 A2 18      shld main_keybTimeout
2184   0D3B C3 FC 0A      jmp l166
2185   0D3E             l167:
2186   0D3E C9            ret
2187   0D3F               ; --- drawChar -----------------------------------------------------------------
2188   0D3F             drawChar:
2189   0D3F C5            push b
2190   0D40 32 B0 54      sta drawChar_2
2191   0D43               ; 26 if(c>='0' && c<='9') s = font    + 6 * (c - '0'); else
2192   0D43 FE 30         cpi 48
2193   0D45 DA 63 0D      jc l205
2194   0D48 FE 39         cpi 57
2195   0D4A CA 50 0D      jz l206
2196   0D4D D2 63 0D      jnc l205
2197   0D50             l206:
2198   0D50               ; 26 s = font    + 6 * (c - '0'); elseАрифметика 4/3
2199   0D50 3A B0 54      lda drawChar_2
2200   0D53 D6 30         sui 48
2201   0D55 16 06         mvi d, 6
2202   0D57 CD FA 15      call op_mul
2203   0D5A               ; Сложение
2204   0D5A 11 0E 53      lxi d, font
2205   0D5D 19            dad d
2206   0D5E 44            mov b, h
2207   0D5F 4D            mov c, l
2208   0D60 C3 AC 0D      jmp l207
2209   0D63             l205:
2210   0D63               ; 27 if(c>='A' && c<='Z') s = fontEng + 6 * (c - 'A'); else
2211   0D63 3A B0 54      lda drawChar_2
2212   0D66 FE 41         cpi 65
2213   0D68 DA 86 0D      jc l208
2214   0D6B FE 5A         cpi 90
2215   0D6D CA 73 0D      jz l209
2216   0D70 D2 86 0D      jnc l208
2217   0D73             l209:
2218   0D73               ; 27 s = fontEng + 6 * (c - 'A'); elseАрифметика 4/3
2219   0D73 3A B0 54      lda drawChar_2
2220   0D76 D6 41         sui 65
2221   0D78 16 06         mvi d, 6
2222   0D7A CD FA 15      call op_mul
2223   0D7D               ; Сложение
2224   0D7D 11 0A 54      lxi d, fontEng
2225   0D80 19            dad d
2226   0D81 44            mov b, h
2227   0D82 4D            mov c, l
2228   0D83 C3 AC 0D      jmp l210
2229   0D86             l208:
2230   0D86               ; 28 if(c>='`' && c<='~') s = font2   + 6 * (c - '`'); else s = fontSpace;
2231   0D86 3A B0 54      lda drawChar_2
2232   0D89 FE 60         cpi 96
2233   0D8B DA A9 0D      jc l211
2234   0D8E FE 7E         cpi 126
2235   0D90 CA 96 0D      jz l212
2236   0D93 D2 A9 0D      jnc l211
2237   0D96             l212:
2238   0D96               ; 28 s = font2   + 6 * (c - '`'); else s = fontSpace;Арифметика 4/3
2239   0D96 3A B0 54      lda drawChar_2
2240   0D99 D6 60         sui 96
2241   0D9B 16 06         mvi d, 6
2242   0D9D CD FA 15      call op_mul
2243   0DA0               ; Сложение
2244   0DA0 11 4A 53      lxi d, font2
2245   0DA3 19            dad d
2246   0DA4 44            mov b, h
2247   0DA5 4D            mov c, l
2248   0DA6 C3 AC 0D      jmp l213
2249   0DA9             l211:
2250   0DA9               ; 28 s = fontSpace;
2251   0DA9 01 FE 52      lxi b, fontSpace
2252   0DAC             l213:
2253   0DAC             l210:
2254   0DAC             l207:
2255   0DAC               ; 30 *d = *s; ++d; ++s;
2256   0DAC 0A            ldax b
2257   0DAD 2A AE 54      lhld drawChar_1
2258   0DB0 77            mov m, a
2259   0DB1               ; 30 ++d; ++s;
2260   0DB1 2A AE 54      lhld drawChar_1
2261   0DB4 23            inx h
2262   0DB5 22 AE 54      shld drawChar_1
2263   0DB8               ; 30 ++s;
2264   0DB8 03            inx b
2265   0DB9               ; 31 *d = *s; ++s; d += APOGEY_VIDEO_BPL - 1;
2266   0DB9 0A            ldax b
2267   0DBA 77            mov m, a
2268   0DBB               ; 31 ++s; d += APOGEY_VIDEO_BPL - 1;
2269   0DBB 03            inx b
2270   0DBC               ; 31 d += APOGEY_VIDEO_BPL - 1;Сложение
2271   0DBC 11 5D 00      lxi d, 93
2272   0DBF 2A AE 54      lhld drawChar_1
2273   0DC2 19            dad d
2274   0DC3 22 AE 54      shld drawChar_1
2275   0DC6               ; 32 *d = *s; ++d; ++s;
2276   0DC6 0A            ldax b
2277   0DC7 77            mov m, a
2278   0DC8               ; 32 ++d; ++s;
2279   0DC8 2A AE 54      lhld drawChar_1
2280   0DCB 23            inx h
2281   0DCC 22 AE 54      shld drawChar_1
2282   0DCF               ; 32 ++s;
2283   0DCF 03            inx b
2284   0DD0               ; 33 *d = *s; ++s; d += APOGEY_VIDEO_BPL - 1;
2285   0DD0 0A            ldax b
2286   0DD1 77            mov m, a
2287   0DD2               ; 33 ++s; d += APOGEY_VIDEO_BPL - 1;
2288   0DD2 03            inx b
2289   0DD3               ; 33 d += APOGEY_VIDEO_BPL - 1;Сложение
2290   0DD3 11 5D 00      lxi d, 93
2291   0DD6 2A AE 54      lhld drawChar_1
2292   0DD9 19            dad d
2293   0DDA 22 AE 54      shld drawChar_1
2294   0DDD               ; 34 *d = *s; ++d; ++s;
2295   0DDD 0A            ldax b
2296   0DDE 77            mov m, a
2297   0DDF               ; 34 ++d; ++s;
2298   0DDF 2A AE 54      lhld drawChar_1
2299   0DE2 23            inx h
2300   0DE3 22 AE 54      shld drawChar_1
2301   0DE6               ; 34 ++s;
2302   0DE6 03            inx b
2303   0DE7               ; 35 *d = *s;
2304   0DE7 0A            ldax b
2305   0DE8 77            mov m, a
2306   0DE9 C1            pop b
2307   0DEA C9            ret
2308   0DEB               ; --- drawText -----------------------------------------------------------------
2309   0DEB             drawText:
2310   0DEB 22 B3 54      shld drawText_2
2311   0DEE               ; 40 for(;c=*text; text++) {
2312   0DEE             l214:
2313   0DEE 2A B3 54      lhld drawText_2
2314   0DF1 7E            mov a, m
2315   0DF2 32 B5 54      sta drawText_c
2316   0DF5               ; convertToConfition
2317   0DF5 B7            ora a
2318   0DF6 CA 1A 0E      jz l215
2319   0DF9               ; 41 drawChar(d, c);
2320   0DF9 2A B1 54      lhld drawText_1
2321   0DFC 22 AE 54      shld drawChar_1
2322   0DFF 3A B5 54      lda drawText_c
2323   0E02 CD 3F 0D      call drawChar
2324   0E05               ; 42 d += 2; Сложение с константой 2
2325   0E05 2A B1 54      lhld drawText_1
2326   0E08 23            inx h
2327   0E09 23            inx h
2328   0E0A 22 B1 54      shld drawText_1
2329   0E0D             l216:
2330   0E0D 2A B3 54      lhld drawText_2
2331   0E10 54            mov d, h
2332   0E11 5D            mov e, l
2333   0E12 23            inx h
2334   0E13 22 B3 54      shld drawText_2
2335   0E16 EB            xchg
2336   0E17 C3 EE 0D      jmp l214
2337   0E1A             l215:
2338   0E1A C9            ret
2339   0E1B               ; --- drawSprite0 -----------------------------------------------------------------
2340   0E1B             drawSprite0:
2341   0E1B C5            push b
2342   0E1C 22 B9 54      shld drawSprite0_3
2343   0E1F               ; 47 dd;<d>
2344   0E1F 2A B6 54      lhld drawSprite0_1
2345   0E22 44            mov b, h
2346   0E23 4D            mov c, l
2347   0E24               ; 48 c = colors[c];Сложение
2348   0E24 2A B8 54      lhld drawSprite0_2
2349   0E27 26 00         mvi h, 0
2350   0E29 11 A6 54      lxi d, colors
2351   0E2C 19            dad d
2352   0E2D 7E            mov a, m
2353   0E2E 32 B8 54      sta drawSprite0_2
2354   0E31               ; 50 *d = c;  ++d;  
2355   0E31 02            stax b
2356   0E32               ; 50 ++d;  
2357   0E32 03            inx b
2358   0E33               ; 51 *d = *s; ++d; ++s;
2359   0E33 2A B9 54      lhld drawSprite0_3
2360   0E36 7E            mov a, m
2361   0E37 02            stax b
2362   0E38               ; 51 ++d; ++s;
2363   0E38 03            inx b
2364   0E39               ; 51 ++s;
2365   0E39 23            inx h
2366   0E3A 22 B9 54      shld drawSprite0_3
2367   0E3D               ; 52 *d = *s; ++d; ++s;
2368   0E3D 7E            mov a, m
2369   0E3E 02            stax b
2370   0E3F               ; 52 ++d; ++s;
2371   0E3F 03            inx b
2372   0E40               ; 52 ++s;
2373   0E40 23            inx h
2374   0E41 22 B9 54      shld drawSprite0_3
2375   0E44               ; 53 *d = *s; ++d; ++s;
2376   0E44 7E            mov a, m
2377   0E45 02            stax b
2378   0E46               ; 53 ++d; ++s;
2379   0E46 03            inx b
2380   0E47               ; 53 ++s;
2381   0E47 23            inx h
2382   0E48 22 B9 54      shld drawSprite0_3
2383   0E4B               ; 54 *d = *s; ++s; d += APOGEY_VIDEO_BPL - 4;
2384   0E4B 7E            mov a, m
2385   0E4C 02            stax b
2386   0E4D               ; 54 ++s; d += APOGEY_VIDEO_BPL - 4;
2387   0E4D 23            inx h
2388   0E4E 22 B9 54      shld drawSprite0_3
2389   0E51               ; 54 d += APOGEY_VIDEO_BPL - 4;Сложение с BC
2390   0E51 21 5A 00      lxi h, 90
2391   0E54 09            dad b
2392   0E55 44            mov b, h
2393   0E56 4D            mov c, l
2394   0E57               ; 55 *d = c;  ++d;  
2395   0E57 3A B8 54      lda drawSprite0_2
2396   0E5A 02            stax b
2397   0E5B               ; 55 ++d;  
2398   0E5B 03            inx b
2399   0E5C               ; 56 *d = *s; ++d; ++s;
2400   0E5C 2A B9 54      lhld drawSprite0_3
2401   0E5F 7E            mov a, m
2402   0E60 02            stax b
2403   0E61               ; 56 ++d; ++s;
2404   0E61 03            inx b
2405   0E62               ; 56 ++s;
2406   0E62 23            inx h
2407   0E63 22 B9 54      shld drawSprite0_3
2408   0E66               ; 57 *d = *s; ++d; ++s;
2409   0E66 7E            mov a, m
2410   0E67 02            stax b
2411   0E68               ; 57 ++d; ++s;
2412   0E68 03            inx b
2413   0E69               ; 57 ++s;
2414   0E69 23            inx h
2415   0E6A 22 B9 54      shld drawSprite0_3
2416   0E6D               ; 58 *d = *s; ++d; ++s;
2417   0E6D 7E            mov a, m
2418   0E6E 02            stax b
2419   0E6F               ; 58 ++d; ++s;
2420   0E6F 03            inx b
2421   0E70               ; 58 ++s;
2422   0E70 23            inx h
2423   0E71 22 B9 54      shld drawSprite0_3
2424   0E74               ; 59 *d = *s; ++s; d += APOGEY_VIDEO_BPL - 4;
2425   0E74 7E            mov a, m
2426   0E75 02            stax b
2427   0E76               ; 59 ++s; d += APOGEY_VIDEO_BPL - 4;
2428   0E76 23            inx h
2429   0E77 22 B9 54      shld drawSprite0_3
2430   0E7A               ; 59 d += APOGEY_VIDEO_BPL - 4;Сложение с BC
2431   0E7A 21 5A 00      lxi h, 90
2432   0E7D 09            dad b
2433   0E7E 44            mov b, h
2434   0E7F 4D            mov c, l
2435   0E80               ; 60 *d = c;  ++d;  
2436   0E80 3A B8 54      lda drawSprite0_2
2437   0E83 02            stax b
2438   0E84               ; 60 ++d;  
2439   0E84 03            inx b
2440   0E85               ; 61 *d = *s; ++d; ++s;
2441   0E85 2A B9 54      lhld drawSprite0_3
2442   0E88 7E            mov a, m
2443   0E89 02            stax b
2444   0E8A               ; 61 ++d; ++s;
2445   0E8A 03            inx b
2446   0E8B               ; 61 ++s;
2447   0E8B 23            inx h
2448   0E8C 22 B9 54      shld drawSprite0_3
2449   0E8F               ; 62 *d = *s; ++d; ++s;
2450   0E8F 7E            mov a, m
2451   0E90 02            stax b
2452   0E91               ; 62 ++d; ++s;
2453   0E91 03            inx b
2454   0E92               ; 62 ++s;
2455   0E92 23            inx h
2456   0E93 22 B9 54      shld drawSprite0_3
2457   0E96               ; 63 *d = *s; ++d; ++s;
2458   0E96 7E            mov a, m
2459   0E97 02            stax b
2460   0E98               ; 63 ++d; ++s;
2461   0E98 03            inx b
2462   0E99               ; 63 ++s;
2463   0E99 23            inx h
2464   0E9A 22 B9 54      shld drawSprite0_3
2465   0E9D               ; 64 *d = *s; ++s; d += APOGEY_VIDEO_BPL - 4;
2466   0E9D 7E            mov a, m
2467   0E9E 02            stax b
2468   0E9F               ; 64 ++s; d += APOGEY_VIDEO_BPL - 4;
2469   0E9F 23            inx h
2470   0EA0 22 B9 54      shld drawSprite0_3
2471   0EA3               ; 64 d += APOGEY_VIDEO_BPL - 4;Сложение с BC
2472   0EA3 21 5A 00      lxi h, 90
2473   0EA6 09            dad b
2474   0EA7 44            mov b, h
2475   0EA8 4D            mov c, l
2476   0EA9               ; 65 *d = c;  ++d;  
2477   0EA9 3A B8 54      lda drawSprite0_2
2478   0EAC 02            stax b
2479   0EAD               ; 65 ++d;  
2480   0EAD 03            inx b
2481   0EAE               ; 66 *d = *s; ++d; ++s;
2482   0EAE 2A B9 54      lhld drawSprite0_3
2483   0EB1 7E            mov a, m
2484   0EB2 02            stax b
2485   0EB3               ; 66 ++d; ++s;
2486   0EB3 03            inx b
2487   0EB4               ; 66 ++s;
2488   0EB4 23            inx h
2489   0EB5 22 B9 54      shld drawSprite0_3
2490   0EB8               ; 67 *d = *s; ++d; ++s;
2491   0EB8 7E            mov a, m
2492   0EB9 02            stax b
2493   0EBA               ; 67 ++d; ++s;
2494   0EBA 03            inx b
2495   0EBB               ; 67 ++s;
2496   0EBB 23            inx h
2497   0EBC 22 B9 54      shld drawSprite0_3
2498   0EBF               ; 68 *d = *s; ++d; ++s;
2499   0EBF 7E            mov a, m
2500   0EC0 02            stax b
2501   0EC1               ; 68 ++d; ++s;
2502   0EC1 03            inx b
2503   0EC2               ; 68 ++s;
2504   0EC2 23            inx h
2505   0EC3 22 B9 54      shld drawSprite0_3
2506   0EC6               ; 69 *d = *s;
2507   0EC6 7E            mov a, m
2508   0EC7 02            stax b
2509   0EC8 C1            pop b
2510   0EC9 C9            ret
2511   0ECA               ; --- drawSprite -----------------------------------------------------------------
2512   0ECA             drawSprite:
2513   0ECA 22 BE 54      shld drawSprite_4
2514   0ECD               ; 73 drawSprite0(COORDS(x$5 + PLAYFIELD_X, y$4+PLAYFIELD_Y), c, s);
2515   0ECD 3A BB 54      lda drawSprite_1
2516   0ED0               ; Умножение A на 5
2517   0ED0 57            mov d, a
2518   0ED1 87            add a
2519   0ED2 87            add a
2520   0ED3 82            add d
2521   0ED4 C6 12         adi 18
2522   0ED6               ; Сложение
2523   0ED6 26 00         mvi h, 0
2524   0ED8 6F            mov l, a
2525   0ED9 11 4D CD      lxi d, 52557
2526   0EDC 19            dad d
2527   0EDD 3A BC 54      lda drawSprite_2
2528   0EE0               ; Умножение A на 4
2529   0EE0 87            add a
2530   0EE1 87            add a
2531   0EE2 C6 06         adi 6
2532   0EE4 E5            push h
2533   0EE5 16 5E         mvi d, 94
2534   0EE7 CD FA 15      call op_mul
2535   0EEA               ; Сложение
2536   0EEA D1            pop d
2537   0EEB 19            dad d
2538   0EEC 22 B6 54      shld drawSprite0_1
2539   0EEF 3A BD 54      lda drawSprite_3
2540   0EF2 32 B8 54      sta drawSprite0_2
2541   0EF5 2A BE 54      lhld drawSprite_4
2542   0EF8 C3 1B 0E      jmp drawSprite0
2543   0EFB             fillScreen:
2544   0EFB 22 C0 54      shld fillScreen_1
2545   0EFE               ; 78 apogeyVideoMem;<d>
2546   0EFE 2A 7F 55      lhld apogeyVideoMem
2547   0F01 22 C3 54      shld fillScreen_d
2548   0F04               ; 80 for(i=51; i; --i, d += APOGEY_VIDEO_BPL, s += 80)
2549   0F04 3E 33         mvi a, 51
2550   0F06 32 C2 54      sta fillScreen_i
2551   0F09             l217:
2552   0F09               ; convertToConfition
2553   0F09 3A C2 54      lda fillScreen_i
2554   0F0C B7            ora a
2555   0F0D CA 3D 0F      jz l218
2556   0F10               ; 81 memcpy(d, s, 80);
2557   0F10 2A C3 54      lhld fillScreen_d
2558   0F13 22 79 55      shld memcpy_1
2559   0F16 2A C0 54      lhld fillScreen_1
2560   0F19 22 7B 55      shld memcpy_2
2561   0F1C 21 50 00      lxi h, 80
2562   0F1F CD D6 15      call memcpy
2563   0F22             l219:
2564   0F22 21 C2 54      lxi h, fillScreen_i
2565   0F25 35            dcr m
2566   0F26               ; Сложение
2567   0F26 11 5E 00      lxi d, 94
2568   0F29 2A C3 54      lhld fillScreen_d
2569   0F2C 19            dad d
2570   0F2D 22 C3 54      shld fillScreen_d
2571   0F30               ; Сложение
2572   0F30 11 50 00      lxi d, 80
2573   0F33 2A C0 54      lhld fillScreen_1
2574   0F36 19            dad d
2575   0F37 22 C0 54      shld fillScreen_1
2576   0F3A C3 09 0F      jmp l217
2577   0F3D             l218:
2578   0F3D C9            ret
2579   0F3E               ; --- i2s -----------------------------------------------------------------
2580   0F3E             i2s:
2581   0F3E 22 C7 54      shld i2s_2
2582   0F41               ; 88 *buf = ' '; ++buf;
2583   0F41 2A C5 54      lhld i2s_1
2584   0F44 36 20         mvi m, 32
2585   0F46               ; 88 ++buf;
2586   0F46 23            inx h
2587   0F47 22 C5 54      shld i2s_1
2588   0F4A               ; 89 *buf = ' '; ++buf;
2589   0F4A 36 20         mvi m, 32
2590   0F4C               ; 89 ++buf;
2591   0F4C 23            inx h
2592   0F4D 22 C5 54      shld i2s_1
2593   0F50               ; 90 *buf = ' '; ++buf;
2594   0F50 36 20         mvi m, 32
2595   0F52               ; 90 ++buf;
2596   0F52 23            inx h
2597   0F53 22 C5 54      shld i2s_1
2598   0F56               ; 91 *buf = ' '; ++buf;
2599   0F56 36 20         mvi m, 32
2600   0F58               ; 91 ++buf;
2601   0F58 23            inx h
2602   0F59 22 C5 54      shld i2s_1
2603   0F5C               ; 92 for(i=0; i<5; i++) {
2604   0F5C AF            xra a
2605   0F5D 32 C9 54      sta i2s_i
2606   0F60             l220:
2607   0F60 3A C9 54      lda i2s_i
2608   0F63 FE 05         cpi 5
2609   0F65 D2 94 0F      jnc l221
2610   0F68               ; 93 x/=10, *buf = (uchar)op_div16_mod + '0', --buf; 
2611   0F68 11 0A 00      lxi d, 10
2612   0F6B 2A C7 54      lhld i2s_2
2613   0F6E CD 0E 16      call op_div16
2614   0F71 22 C7 54      shld i2s_2
2615   0F74 3A 82 55      lda op_div16_mod
2616   0F77 C6 30         adi 48
2617   0F79 2A C5 54      lhld i2s_1
2618   0F7C 77            mov m, a
2619   0F7D 2A C5 54      lhld i2s_1
2620   0F80 2B            dcx h
2621   0F81 22 C5 54      shld i2s_1
2622   0F84               ; 94 if(x==0) break;Сложение с константой 0
2623   0F84 2A C7 54      lhld i2s_2
2624   0F87 7D            mov a, l
2625   0F88 B4            ora h
2626   0F89 CA 94 0F      jz l221
2627   0F8C             l222:
2628   0F8C 21 C9 54      lxi h, i2s_i
2629   0F8F 7E            mov a, m
2630   0F90 34            inr m
2631   0F91 C3 60 0F      jmp l220
2632   0F94             l221:
2633   0F94 C9            ret
2634   0F95               ; --- drawNumber -----------------------------------------------------------------
2635   0F95             drawNumber:
2636   0F95 22 CC 54      shld drawNumber_2
2637   0F98               ; 100 i2s(buf, x);
2638   0F98 21 CE 54      lxi h, drawNumber_buf
2639   0F9B 22 C5 54      shld i2s_1
2640   0F9E 2A CC 54      lhld drawNumber_2
2641   0FA1 CD 3E 0F      call i2s
2642   0FA4               ; 101 drawText(addr, buf);
2643   0FA4 2A CA 54      lhld drawNumber_1
2644   0FA7 22 B1 54      shld drawText_1
2645   0FAA 21 CE 54      lxi h, drawNumber_buf
2646   0FAD C3 EB 0D      jmp drawText
2647   0FB0             superDraw:
2648   0FB0 C5            push b
2649   0FB1 32 E8 54      sta superDraw_7
2650   0FB4               ; 107 dd;<d>
2651   0FB4 2A E0 54      lhld superDraw_1
2652   0FB7 44            mov b, h
2653   0FB8 4D            mov c, l
2654   0FB9               ; 108 for(; a; --a, d += APOGEY_VIDEO_BPL) memcpy(d, s, w);
2655   0FB9             l224:
2656   0FB9               ; convertToConfition
2657   0FB9 3A E2 54      lda superDraw_2
2658   0FBC B7            ora a
2659   0FBD CA DE 0F      jz l225
2660   0FC0               ; 108 memcpy(d, s, w);
2661   0FC0 22 79 55      shld memcpy_1
2662   0FC3 2A E5 54      lhld superDraw_5
2663   0FC6 22 7B 55      shld memcpy_2
2664   0FC9 2A E7 54      lhld superDraw_6
2665   0FCC 26 00         mvi h, 0
2666   0FCE CD D6 15      call memcpy
2667   0FD1             l226:
2668   0FD1 21 E2 54      lxi h, superDraw_2
2669   0FD4 35            dcr m
2670   0FD5               ; Сложение с BC
2671   0FD5 21 5E 00      lxi h, 94
2672   0FD8 09            dad b
2673   0FD9 44            mov b, h
2674   0FDA 4D            mov c, l
2675   0FDB C3 B9 0F      jmp l224
2676   0FDE             l225:
2677   0FDE               ; 109 for(; b; --b, d += APOGEY_VIDEO_BPL, s+=bpl) memcpy(d, s, w);
2678   0FDE             l227:
2679   0FDE               ; convertToConfition
2680   0FDE 3A E3 54      lda superDraw_3
2681   0FE1 B7            ora a
2682   0FE2 CA 12 10      jz l228
2683   0FE5               ; 109 memcpy(d, s, w);
2684   0FE5 60            mov h, b
2685   0FE6 69            mov l, c
2686   0FE7 22 79 55      shld memcpy_1
2687   0FEA 2A E5 54      lhld superDraw_5
2688   0FED 22 7B 55      shld memcpy_2
2689   0FF0 2A E7 54      lhld superDraw_6
2690   0FF3 26 00         mvi h, 0
2691   0FF5 CD D6 15      call memcpy
2692   0FF8             l229:
2693   0FF8 21 E3 54      lxi h, superDraw_3
2694   0FFB 35            dcr m
2695   0FFC               ; Сложение с BC
2696   0FFC 21 5E 00      lxi h, 94
2697   0FFF 09            dad b
2698   1000 44            mov b, h
2699   1001 4D            mov c, l
2700   1002               ; Сложение
2701   1002 2A E8 54      lhld superDraw_7
2702   1005 26 00         mvi h, 0
2703   1007 EB            xchg
2704   1008 2A E5 54      lhld superDraw_5
2705   100B 19            dad d
2706   100C 22 E5 54      shld superDraw_5
2707   100F C3 DE 0F      jmp l227
2708   1012             l228:
2709   1012               ; 110 for(; c; --c, d += APOGEY_VIDEO_BPL) memcpy(d, s, w);
2710   1012             l230:
2711   1012               ; convertToConfition
2712   1012 3A E4 54      lda superDraw_4
2713   1015 B7            ora a
2714   1016 CA 39 10      jz l231
2715   1019               ; 110 memcpy(d, s, w);
2716   1019 60            mov h, b
2717   101A 69            mov l, c
2718   101B 22 79 55      shld memcpy_1
2719   101E 2A E5 54      lhld superDraw_5
2720   1021 22 7B 55      shld memcpy_2
2721   1024 2A E7 54      lhld superDraw_6
2722   1027 26 00         mvi h, 0
2723   1029 CD D6 15      call memcpy
2724   102C             l232:
2725   102C 21 E4 54      lxi h, superDraw_4
2726   102F 35            dcr m
2727   1030               ; Сложение с BC
2728   1030 21 5E 00      lxi h, 94
2729   1033 09            dad b
2730   1034 44            mov b, h
2731   1035 4D            mov c, l
2732   1036 C3 12 10      jmp l230
2733   1039             l231:
2734   1039 C1            pop b
2735   103A C9            ret
2736   103B               ; --- drawScore -----------------------------------------------------------------
2737   103B             drawScore:
2738   103B 22 E9 54      shld drawScore_1
2739   103E               ; 116 drawNumber(COORDS(67, 1), score);
2740   103E 21 EE CD      lxi h, 52718
2741   1041 22 CA 54      shld drawNumber_1
2742   1044 2A E9 54      lhld drawScore_1
2743   1047 CD 95 0F      call drawNumber
2744   104A               ; 118 if(score < hiScores[0].score) n = (score / (hiScores[0].score / 6));
2745   104A 2A E9 54      lhld drawScore_1
2746   104D EB            xchg
2747   104E 2A 4E 17      lhld ((hiScores)+(0))+(14)
2748   1051 CD B6 15      call op_cmp16
2749   1054 DA 71 10      jc l233
2750   1057 CA 71 10      jz l233
2751   105A               ; 118 n = (score / (hiScores[0].score / 6));
2752   105A 11 06 00      lxi d, 6
2753   105D 2A 4E 17      lhld ((hiScores)+(0))+(14)
2754   1060 CD 0E 16      call op_div16
2755   1063 EB            xchg
2756   1064 2A E9 54      lhld drawScore_1
2757   1067 CD 0E 16      call op_div16
2758   106A 7D            mov a, l
2759   106B 32 EB 54      sta drawScore_n
2760   106E C3 76 10      jmp l234
2761   1071             l233:
2762   1071               ; 119 n = 7;
2763   1071 3E 07         mvi a, 7
2764   1073 32 EB 54      sta drawScore_n
2765   1076             l234:
2766   1076               ; 121 if(playerSpriteTop != n) {
2767   1076 21 EB 54      lxi h, drawScore_n
2768   1079 3A DE 54      lda playerSpriteTop
2769   107C BE            cmp m
2770   107D CA 43 11      jz l235
2771   1080               ; 122 playerSpriteTop = n;
2772   1080 7E            mov a, m
2773   1081 32 DE 54      sta playerSpriteTop
2774   1084               ; 123 waitHorzSync();
2775   1084 CD 49 16      call waitHorzSync
2776   1087               ; 124 if(n > 6) { superDraw(COORDS(63, 6), 0, 23, 7, rightSprite, 17, 17); n=1; }
2777   1087 3A EB 54      lda drawScore_n
2778   108A FE 06         cpi 6
2779   108C DA BC 10      jc l236
2780   108F CA BC 10      jz l236
2781   1092               ; 124 superDraw(COORDS(63, 6), 0, 23, 7, rightSprite, 17, 17); n=1; }
2782   1092 21 C0 CF      lxi h, 53184
2783   1095 22 E0 54      shld superDraw_1
2784   1098 AF            xra a
2785   1099 32 E2 54      sta superDraw_2
2786   109C 3E 17         mvi a, 23
2787   109E 32 E3 54      sta superDraw_3
2788   10A1 3E 07         mvi a, 7
2789   10A3 32 E4 54      sta superDraw_4
2790   10A6 21 66 51      lxi h, rightSprite
2791   10A9 22 E5 54      shld superDraw_5
2792   10AC 3E 11         mvi a, 17
2793   10AE 32 E7 54      sta superDraw_6
2794   10B1 CD B0 0F      call superDraw
2795   10B4               ; 124 n=1; }
2796   10B4 3E 01         mvi a, 1
2797   10B6 32 EB 54      sta drawScore_n
2798   10B9 C3 E8 10      jmp l237
2799   10BC             l236:
2800   10BC               ; 125 superDraw(COORDS(63, 6), 6-n, 23, n, gameScreen + 63 + 12*80, 17, 80); n=0; }  
2801   10BC 21 C0 CF      lxi h, 53184
2802   10BF 22 E0 54      shld superDraw_1
2803   10C2               ; Арифметика 3/4
2804   10C2 21 EB 54      lxi h, drawScore_n
2805   10C5 3E 06         mvi a, 6
2806   10C7 96            sub m
2807   10C8 32 E2 54      sta superDraw_2
2808   10CB 3E 17         mvi a, 23
2809   10CD 32 E3 54      sta superDraw_3
2810   10D0 7E            mov a, m
2811   10D1 32 E4 54      sta superDraw_4
2812   10D4 21 E3 1D      lxi h, ((gameScreen)+(63))+(960)
2813   10D7 22 E5 54      shld superDraw_5
2814   10DA 3E 11         mvi a, 17
2815   10DC 32 E7 54      sta superDraw_6
2816   10DF 3E 50         mvi a, 80
2817   10E1 CD B0 0F      call superDraw
2818   10E4               ; 125 n=0; }  
2819   10E4 AF            xra a
2820   10E5 32 EB 54      sta drawScore_n
2821   10E8             l237:
2822   10E8               ; 126 if(kingSprite != n) {
2823   10E8 21 EB 54      lxi h, drawScore_n
2824   10EB 3A DF 54      lda kingSprite
2825   10EE BE            cmp m
2826   10EF CA 43 11      jz l238
2827   10F2               ; 127 kingSprite = n;
2828   10F2 7E            mov a, m
2829   10F3 32 DF 54      sta kingSprite
2830   10F6               ; 128 if(n) superDraw(COORDS(0, 6), 5, 16, 0, leftSprite, 18, 18);convertToConfition
2831   10F6 AF            xra a
2832   10F7 B6            ora m
2833   10F8 CA 20 11      jz l239
2834   10FB               ; 128 superDraw(COORDS(0, 6), 5, 16, 0, leftSprite, 18, 18);
2835   10FB 21 81 CF      lxi h, 53121
2836   10FE 22 E0 54      shld superDraw_1
2837   1101 3E 05         mvi a, 5
2838   1103 32 E2 54      sta superDraw_2
2839   1106 3E 10         mvi a, 16
2840   1108 32 E3 54      sta superDraw_3
2841   110B AF            xra a
2842   110C 32 E4 54      sta superDraw_4
2843   110F 21 22 50      lxi h, leftSprite
2844   1112 22 E5 54      shld superDraw_5
2845   1115 3E 12         mvi a, 18
2846   1117 32 E7 54      sta superDraw_6
2847   111A CD B0 0F      call superDraw
2848   111D C3 43 11      jmp l240
2849   1120             l239:
2850   1120               ; 129 superDraw(COORDS(0, 6), 0, 21, 0, gameScreen + 0 + 6*80, 18, 80);
2851   1120 21 81 CF      lxi h, 53121
2852   1123 22 E0 54      shld superDraw_1
2853   1126 AF            xra a
2854   1127 32 E2 54      sta superDraw_2
2855   112A 3E 15         mvi a, 21
2856   112C 32 E3 54      sta superDraw_3
2857   112F AF            xra a
2858   1130 32 E4 54      sta superDraw_4
2859   1133 21 C4 1B      lxi h, ((gameScreen)+(0))+(480)
2860   1136 22 E5 54      shld superDraw_5
2861   1139 3E 12         mvi a, 18
2862   113B 32 E7 54      sta superDraw_6
2863   113E 3E 50         mvi a, 80
2864   1140 CD B0 0F      call superDraw
2865   1143             l240:
2866   1143             l238:
2867   1143             l235:
2868   1143 C9            ret
2869   1144               ; --- redrawNewBall -----------------------------------------------------------------
2870   1144             redrawNewBall:
2871   1144 32 EE 54      sta redrawNewBall_2
2872   1147               ; 135 c = colors[c];Сложение
2873   1147 6F            mov l, a
2874   1148 26 00         mvi h, 0
2875   114A 11 A6 54      lxi d, colors
2876   114D 19            dad d
2877   114E 7E            mov a, m
2878   114F 32 EE 54      sta redrawNewBall_2
2879   1152               ; 136 *p = c; p += 94;
2880   1152 2A EC 54      lhld redrawNewBall_1
2881   1155 77            mov m, a
2882   1156               ; 136 p += 94;Сложение
2883   1156 11 5E 00      lxi d, 94
2884   1159 2A EC 54      lhld redrawNewBall_1
2885   115C 19            dad d
2886   115D 22 EC 54      shld redrawNewBall_1
2887   1160               ; 137 *p = c; p += 94;
2888   1160 3A EE 54      lda redrawNewBall_2
2889   1163 77            mov m, a
2890   1164               ; 137 p += 94;Сложение
2891   1164 11 5E 00      lxi d, 94
2892   1167 2A EC 54      lhld redrawNewBall_1
2893   116A 19            dad d
2894   116B 22 EC 54      shld redrawNewBall_1
2895   116E               ; 138 *p = c;
2896   116E 3A EE 54      lda redrawNewBall_2
2897   1171 77            mov m, a
2898   1172 C9            ret
2899   1173               ; --- redrawNewBalls -----------------------------------------------------------------
2900   1173             redrawNewBalls:
2901   1173 32 F1 54      sta redrawNewBalls_3
2902   1176               ; 142 redrawNewBall(COORDS(36, 1), a);
2903   1176 21 CF CD      lxi h, 52687
2904   1179 22 EC 54      shld redrawNewBall_1
2905   117C 3A EF 54      lda redrawNewBalls_1
2906   117F CD 44 11      call redrawNewBall
2907   1182               ; 143 redrawNewBall(COORDS(41, 1), b);
2908   1182 21 D4 CD      lxi h, 52692
2909   1185 22 EC 54      shld redrawNewBall_1
2910   1188 3A F0 54      lda redrawNewBalls_2
2911   118B CD 44 11      call redrawNewBall
2912   118E               ; 144 redrawNewBall(COORDS(46, 1), c);
2913   118E 21 D9 CD      lxi h, 52697
2914   1191 22 EC 54      shld redrawNewBall_1
2915   1194 3A F1 54      lda redrawNewBalls_3
2916   1197 C3 44 11      jmp redrawNewBall
2917   119A             drawOnOff:
2918   119A 32 F3 54      sta drawOnOff_2
2919   119D               ; 151 switch(n) {
2920   119D 3A F2 54      lda drawOnOff_1
2921   11A0 B7            ora a
2922   11A1 CA B1 11      jz l242
2923   11A4 FE 01         cpi 1
2924   11A6 CA BA 11      jz l243
2925   11A9 FE 02         cpi 2
2926   11AB CA C3 11      jz l244
2927   11AE C3 CC 11      jmp l245
2928   11B1             l242:
2929   11B1               ; 152 addr = COORDS(5,  43); break;
2930   11B1 21 1C DD      lxi h, 56604
2931   11B4 22 F5 54      shld drawOnOff_addr
2932   11B7               ; 152 break;
2933   11B7 C3 CD 11      jmp l241
2934   11BA             l243:
2935   11BA               ; 153 addr = COORDS(19, 43); break;
2936   11BA 21 2A DD      lxi h, 56618
2937   11BD 22 F5 54      shld drawOnOff_addr
2938   11C0               ; 153 break;
2939   11C0 C3 CD 11      jmp l241
2940   11C3             l244:
2941   11C3               ; 154 addr = COORDS(34, 43); break;
2942   11C3 21 39 DD      lxi h, 56633
2943   11C6 22 F5 54      shld drawOnOff_addr
2944   11C9               ; 154 break;
2945   11C9 C3 CD 11      jmp l241
2946   11CC             l245:
2947   11CC               ; 155 return;
2948   11CC C9            ret
2949   11CD             l241:
2950   11CD               ; 158 state = state ? 0x84 : 0x80;
2951   11CD 3A F3 54      lda drawOnOff_2
2952   11D0 B7            ora a
2953   11D1 CA D9 11      jz l246
2954   11D4 3E 84         mvi a, 132
2955   11D6 C3 DB 11      jmp l247
2956   11D9             l246:
2957   11D9 3E 80         mvi a, 128
2958   11DB             l247:
2959   11DB 32 F3 54      sta drawOnOff_2
2960   11DE               ; 160 for(i=0; i<4; i++, addr+=APOGEY_VIDEO_BPL)
2961   11DE AF            xra a
2962   11DF 32 F4 54      sta drawOnOff_i
2963   11E2             l248:
2964   11E2 3A F4 54      lda drawOnOff_i
2965   11E5 FE 04         cpi 4
2966   11E7 D2 03 12      jnc l249
2967   11EA               ; 161 *addr = state;
2968   11EA 3A F3 54      lda drawOnOff_2
2969   11ED 2A F5 54      lhld drawOnOff_addr
2970   11F0 77            mov m, a
2971   11F1             l250:
2972   11F1 21 F4 54      lxi h, drawOnOff_i
2973   11F4 7E            mov a, m
2974   11F5 34            inr m
2975   11F6               ; Сложение
2976   11F6 11 5E 00      lxi d, 94
2977   11F9 2A F5 54      lhld drawOnOff_addr
2978   11FC 19            dad d
2979   11FD 22 F5 54      shld drawOnOff_addr
2980   1200 C3 E2 11      jmp l248
2981   1203             l249:
2982   1203 C9            ret
2983   1204               ; --- soundJumpSel -----------------------------------------------------------------
2984   1204             soundJumpSel:
2985   1204 C5            push b
2986   1205               ; 1 ((uchar*)0xEC00)[CH] = (uchar)(FREQ); ((uchar*)0xEC00)[CH] = (FREQ)>>8; }
2987   1205 21 00 EC      lxi h, 60416
2988   1208 36 E8         mvi m, 232
2989   120A               ; 1 ((uchar*)0xEC00)[CH] = (FREQ)>>8; }
2990   120A 36 03         mvi m, 3
2991   120C               ; 167 for(x=255; x; x--);
2992   120C 06 FF         mvi b, 255
2993   120E             l251:
2994   120E               ; convertToConfition
2995   120E 78            mov a, b
2996   120F B7            ora a
2997   1210 CA 18 12      jz l252
2998   1213             l253:
2999   1213 78            mov a, b
3000   1214 05            dcr b
3001   1215 C3 0E 12      jmp l251
3002   1218             l252:
3003   1218               ; 1 *(uchar*)0xEC03 = ((CH)==0 ? 0x3E : ((CH)==1 ? 0x7E : 0xBE)); }
3004   1218 21 03 EC      lxi h, 60419
3005   121B 36 3E         mvi m, 62
3006   121D C1            pop b
3007   121E C9            ret
3008   121F               ; --- delayX -----------------------------------------------------------------
3009   121F             delayX:
3010   121F 22 F7 54      shld delayX_1
3011   1222               ; 172 while(--x);
3012   1222             l258:
3013   1222 2B            dcx h
3014   1223 22 F7 54      shld delayX_1
3015   1226               ; convertToConfition
3016   1226 7D            mov a, l
3017   1227 B4            ora h
3018   1228 CA 2E 12      jz l259
3019   122B C3 22 12      jmp l258
3020   122E             l259:
3021   122E C9            ret
3022   122F               ; --- soundBadMove -----------------------------------------------------------------
3023   122F             soundBadMove:
3024   122F AF            xra a
3025   1230 32 F9 54      sta soundBadMove_i
3026   1233             l260:
3027   1233 3A F9 54      lda soundBadMove_i
3028   1236 FE 02         cpi 2
3029   1238 D2 5B 12      jnc l261
3030   123B               ; 1 ((uchar*)0xEC00)[CH] = (uchar)(FREQ); ((uchar*)0xEC00)[CH] = (FREQ)>>8; }
3031   123B 21 00 EC      lxi h, 60416
3032   123E 36 10         mvi m, 16
3033   1240               ; 1 ((uchar*)0xEC00)[CH] = (FREQ)>>8; }
3034   1240 36 27         mvi m, 39
3035   1242               ; 179 delayX(2000);
3036   1242 21 D0 07      lxi h, 2000
3037   1245 CD 1F 12      call delayX
3038   1248               ; 1 *(uchar*)0xEC03 = ((CH)==0 ? 0x3E : ((CH)==1 ? 0x7E : 0xBE)); }
3039   1248 21 03 EC      lxi h, 60419
3040   124B 36 3E         mvi m, 62
3041   124D               ; 181 delayX(2000);
3042   124D 21 D0 07      lxi h, 2000
3043   1250 CD 1F 12      call delayX
3044   1253             l262:
3045   1253 21 F9 54      lxi h, soundBadMove_i
3046   1256 7E            mov a, m
3047   1257 34            inr m
3048   1258 C3 33 12      jmp l260
3049   125B             l261:
3050   125B C9            ret
3051   125C               ; --- showGameOver -----------------------------------------------------------------
3052   125C             showGameOver:
3053   125C 21 A0 DB      lxi h, 56224
3054   125F 22 B1 54      shld drawText_1
3055   1262 21 C4 55      lxi h, string9
3056   1265 CD EB 0D      call drawText
3057   1268               ; 187 drawText(COORDS(4, 39), "o");
3058   1268 21 A3 DB      lxi h, 56227
3059   126B 22 B1 54      shld drawText_1
3060   126E 21 C8 55      lxi h, string10
3061   1271 CD EB 0D      call drawText
3062   1274               ; 188 drawText(COORDS(7, 39), "n");
3063   1274 21 A6 DB      lxi h, 56230
3064   1277 22 B1 54      shld drawText_1
3065   127A 21 C6 55      lxi h, string11
3066   127D CD EB 0D      call drawText
3067   1280               ; 189 drawText(COORDS(10, 39), "e");
3068   1280 21 A9 DB      lxi h, 56233
3069   1283 22 B1 54      shld drawText_1
3070   1286 21 C2 55      lxi h, string12
3071   1289 CD EB 0D      call drawText
3072   128C               ; 190 drawText(COORDS(12, 39), "c  ");
3073   128C 21 AB DB      lxi h, 56235
3074   128F 22 B1 54      shld drawText_1
3075   1292 21 BE 55      lxi h, string13
3076   1295 C3 EB 0D      jmp drawText
3077   1298             delayHS:
3078   1298 32 FA 54      sta delayHS_1
3079   129B               ; 194 while(f--)
3080   129B             l267:
3081   129B 21 FA 54      lxi h, delayHS_1
3082   129E 7E            mov a, m
3083   129F 35            dcr m
3084   12A0               ; convertToConfition
3085   12A0 B7            ora a
3086   12A1 CA AA 12      jz l268
3087   12A4               ; 195 waitHorzSync();
3088   12A4 CD 49 16      call waitHorzSync
3089   12A7 C3 9B 12      jmp l267
3090   12AA             l268:
3091   12AA C9            ret
3092   12AB               ; --- demo -----------------------------------------------------------------
3093   12AB             demo:
3094   12AB 21 2D 55      lxi h, music
3095   12AE 22 FB 54      shld demo_p
3096   12B1               ; 1 ((uchar*)0xEF00)
3097   12B1 21 01 EF      lxi h, 61185
3098   12B4 36 00         mvi m, 0
3099   12B6               ; 1 ((uchar*)0xEF00)
3100   12B6 2D            dcr l
3101   12B7 36 4D         mvi m, 77
3102   12B9               ; 1 ((uchar*)0xEF00)
3103   12B9 36 7F         mvi m, 127
3104   12BB               ; 1 ((uchar*)0xEF00)
3105   12BB 36 33         mvi m, 51
3106   12BD               ; 1 ((uchar*)0xEF00)
3107   12BD 36 13         mvi m, 19
3108   12BF               ; 1 ((uchar*)0xEF00)
3109   12BF 2C            inr l
3110   12C0 36 23         mvi m, 35
3111   12C2               ; 7 while((VG75[1] & 0x20) == 0); 
3112   12C2             l275:
3113   12C2 3A 01 EF      lda 61185
3114   12C5 E6 20         ani 32
3115   12C7 C2 CD 12      jnz l276
3116   12CA C3 C2 12      jmp l275
3117   12CD             l276:
3118   12CD               ; 8 while((VG75[1] & 0x20) == 0); 
3119   12CD             l277:
3120   12CD 3A 01 EF      lda 61185
3121   12D0 E6 20         ani 32
3122   12D2 C2 D8 12      jnz l278
3123   12D5 C3 CD 12      jmp l277
3124   12D8             l278:
3125   12D8               ; 1 ((uchar*)0xF000)
3126   12D8 21 08 F0      lxi h, 61448
3127   12DB 36 80         mvi m, 128
3128   12DD               ; 1 ((uchar*)0xF000)
3129   12DD 2E 04         mvi l, 4
3130   12DF 36 D4         mvi m, (startScreen) & 0FFh
3131   12E1               ; 1 ((uchar*)0xF000)
3132   12E1 36 29         mvi m, ((startScreen)>>(8)) & 0FFh
3133   12E3               ; 1 ((uchar*)0xF000)
3134   12E3 2C            inr l
3135   12E4 36 4D         mvi m, 77
3136   12E6               ; 1 ((uchar*)0xF000)
3137   12E6 36 66         mvi m, 102
3138   12E8               ; 1 ((uchar*)0xF000)
3139   12E8 2E 08         mvi l, 8
3140   12EA 36 A4         mvi m, 164
3141   12EC               ; 15 if(CHAR_GEN) asm { ei } else asm { di } 15 asm { ei } else asm { di } 
3142   12EC FB           ei 
3143   12ED               ; 15 asm { di } 1 ((uchar*)0xEF00)
3144   12ED 21 01 EF      lxi h, 61185
3145   12F0 36 80         mvi m, 128
3146   12F2               ; 1 ((uchar*)0xEF00)
3147   12F2 2D            dcr l
3148   12F3 36 FF         mvi m, 255
3149   12F5               ; 1 ((uchar*)0xEF00)
3150   12F5 36 FF         mvi m, 255
3151   12F7               ; 209 while(d = * p) {
3152   12F7             l281:
3153   12F7 2A FB 54      lhld demo_p
3154   12FA 7E            mov a, m
3155   12FB 32 01 55      sta demo_d
3156   12FE               ; convertToConfition
3157   12FE B7            ora a
3158   12FF CA A2 13      jz l282
3159   1302               ; 210 ++p;
3160   1302 23            inx h
3161   1303 22 FB 54      shld demo_p
3162   1306               ; 211 s = musicFreq[d-1];
3163   1306 3A 01 55      lda demo_d
3164   1309 3D            dcr a
3165   130A 26 00         mvi h, 0
3166   130C 6F            mov l, a
3167   130D               ; Умножение HL на 2
3168   130D 29            dad h
3169   130E               ; Сложение
3170   130E 11 1F 55      lxi d, musicFreq
3171   1311 19            dad d
3172   1312 5E            mov e, m
3173   1313 23            inx h
3174   1314 56            mov d, m
3175   1315 EB            xchg
3176   1316 22 FF 54      shld demo_s
3177   1319               ; 1 ((uchar*)0xEC00)[CH] = (uchar)(FREQ); ((uchar*)0xEC00)[CH] = (FREQ)>>8; }
3178   1319 3A FF 54      lda demo_s
3179   131C 32 00 EC      sta 60416
3180   131F               ; 1 ((uchar*)0xEC00)[CH] = (FREQ)>>8; }Сдвиг на 8 вправо
3181   131F 2A FF 54      lhld demo_s
3182   1322 6C            mov l, h
3183   1323 26 00         mvi h, 0
3184   1325 7D            mov a, l
3185   1326 32 00 EC      sta 60416
3186   1329               ; 213 s += 10; Сложение
3187   1329 11 0A 00      lxi d, 10
3188   132C 2A FF 54      lhld demo_s
3189   132F 19            dad d
3190   1330 22 FF 54      shld demo_s
3191   1333               ; 1 ((uchar*)0xEC00)[CH] = (uchar)(FREQ); ((uchar*)0xEC00)[CH] = (FREQ)>>8; }
3192   1333 3A FF 54      lda demo_s
3193   1336 32 01 EC      sta 60417
3194   1339               ; 1 ((uchar*)0xEC00)[CH] = (FREQ)>>8; }Сдвиг на 8 вправо
3195   1339 2A FF 54      lhld demo_s
3196   133C 6C            mov l, h
3197   133D 62            mov h, d
3198   133E 7D            mov a, l
3199   133F 32 01 EC      sta 60417
3200   1342               ; 215 s += 15;Сложение
3201   1342 11 0F 00      lxi d, 15
3202   1345 2A FF 54      lhld demo_s
3203   1348 19            dad d
3204   1349 22 FF 54      shld demo_s
3205   134C               ; 1 ((uchar*)0xEC00)[CH] = (uchar)(FREQ); ((uchar*)0xEC00)[CH] = (FREQ)>>8; }
3206   134C 3A FF 54      lda demo_s
3207   134F 32 02 EC      sta 60418
3208   1352               ; 1 ((uchar*)0xEC00)[CH] = (FREQ)>>8; }Сдвиг на 8 вправо
3209   1352 2A FF 54      lhld demo_s
3210   1355 6C            mov l, h
3211   1356 62            mov h, d
3212   1357 7D            mov a, l
3213   1358 32 02 EC      sta 60418
3214   135B               ; 217 d = *p; ++p;
3215   135B 2A FB 54      lhld demo_p
3216   135E 7E            mov a, m
3217   135F 32 01 55      sta demo_d
3218   1362               ; 217 ++p;
3219   1362 23            inx h
3220   1363 22 FB 54      shld demo_p
3221   1366               ; 218 d >>= 1; Сдвиг на 1 влево
3222   1366 BF            cmp a
3223   1367 1F            rar
3224   1368 32 01 55      sta demo_d
3225   136B               ; 219 delayHS(d); 
3226   136B CD 98 12      call delayHS
3227   136E               ; 1 *(uchar*)0xEC03 = ((CH)==0 ? 0x3E : ((CH)==1 ? 0x7E : 0xBE)); }
3228   136E 21 03 EC      lxi h, 60419
3229   1371 36 BE         mvi m, 190
3230   1373               ; 221 d <<= 1; Сдвиг на 1 влево
3231   1373 3A 01 55      lda demo_d
3232   1376 87            add a
3233   1377 32 01 55      sta demo_d
3234   137A               ; 222 delayHS(d); 
3235   137A CD 98 12      call delayHS
3236   137D               ; 1 *(uchar*)0xEC03 = ((CH)==0 ? 0x3E : ((CH)==1 ? 0x7E : 0xBE)); }
3237   137D 21 03 EC      lxi h, 60419
3238   1380 36 7E         mvi m, 126
3239   1382               ; 224 d <<= 1; Сдвиг на 1 влево
3240   1382 3A 01 55      lda demo_d
3241   1385 87            add a
3242   1386 32 01 55      sta demo_d
3243   1389               ; 225 delayHS(d);
3244   1389 CD 98 12      call delayHS
3245   138C               ; 1 *(uchar*)0xEC03 = ((CH)==0 ? 0x3E : ((CH)==1 ? 0x7E : 0xBE)); }
3246   138C 21 03 EC      lxi h, 60419
3247   138F 36 3E         mvi m, 62
3248   1391               ; 227 delayHS(2);
3249   1391 3E 02         mvi a, 2
3250   1393 CD 98 12      call delayHS
3251   1396               ; 228 if(bioskey()!=255) return;
3252   1396 CD 1B F8      call 63515
3253   1399 FE FF         cpi 255
3254   139B CA 9F 13      jz l295
3255   139E               ; 228 return;
3256   139E C9            ret
3257   139F             l295:
3258   139F C3 F7 12      jmp l281
3259   13A2             l282:
3260   13A2               ; 230 while(bioskey()==255);
3261   13A2             l296:
3262   13A2 CD 1B F8      call 63515
3263   13A5 FE FF         cpi 255
3264   13A7 C2 AD 13      jnz l297
3265   13AA C3 A2 13      jmp l296
3266   13AD             l297:
3267   13AD C9            ret
3268   13AE               ; --- printCenter -----------------------------------------------------------------
3269   13AE             printCenter:
3270   13AE 32 07 55      sta printCenter_4
3271   13B1               ; 235 while(1) {
3272   13B1             l298:
3273   13B1               ; 236 *a = cl;   a += APOGEY_VIDEO_BPL;
3274   13B1 3A 02 55      lda printCenter_1
3275   13B4 2A 03 55      lhld printCenter_2
3276   13B7 77            mov m, a
3277   13B8               ; 236 a += APOGEY_VIDEO_BPL;Сложение
3278   13B8 11 5E 00      lxi d, 94
3279   13BB 2A 03 55      lhld printCenter_2
3280   13BE 19            dad d
3281   13BF 22 03 55      shld printCenter_2
3282   13C2               ; 237 *a = cl;   a += APOGEY_VIDEO_BPL;
3283   13C2 3A 02 55      lda printCenter_1
3284   13C5 77            mov m, a
3285   13C6               ; 237 a += APOGEY_VIDEO_BPL;Сложение
3286   13C6 11 5E 00      lxi d, 94
3287   13C9 2A 03 55      lhld printCenter_2
3288   13CC 19            dad d
3289   13CD 22 03 55      shld printCenter_2
3290   13D0               ; 238 *a = cl;   a += APOGEY_VIDEO_BPL;
3291   13D0 3A 02 55      lda printCenter_1
3292   13D3 77            mov m, a
3293   13D4               ; 238 a += APOGEY_VIDEO_BPL;Сложение
3294   13D4 11 5E 00      lxi d, 94
3295   13D7 2A 03 55      lhld printCenter_2
3296   13DA 19            dad d
3297   13DB 22 03 55      shld printCenter_2
3298   13DE               ; 239 *a = 0x8D; a -= APOGEY_VIDEO_BPL*3-1;
3299   13DE 36 8D         mvi m, 141
3300   13E0               ; 239 a -= APOGEY_VIDEO_BPL*3-1;Сложение
3301   13E0 11 E7 FE      lxi d, 65255
3302   13E3 19            dad d
3303   13E4 22 03 55      shld printCenter_2
3304   13E7               ; 241 c = *text;
3305   13E7 2A 05 55      lhld printCenter_3
3306   13EA 7E            mov a, m
3307   13EB 32 08 55      sta printCenter_c
3308   13EE               ; 242 ++text;
3309   13EE 23            inx h
3310   13EF 22 05 55      shld printCenter_3
3311   13F2               ; 243 drawChar(a, c);
3312   13F2 2A 03 55      lhld printCenter_2
3313   13F5 22 AE 54      shld drawChar_1
3314   13F8 CD 3F 0D      call drawChar
3315   13FB               ; 244 a += 2;Сложение с константой 2
3316   13FB 2A 03 55      lhld printCenter_2
3317   13FE 23            inx h
3318   13FF 23            inx h
3319   1400 22 03 55      shld printCenter_2
3320   1403               ; 246 c = *text;
3321   1403 2A 05 55      lhld printCenter_3
3322   1406 7E            mov a, m
3323   1407 32 08 55      sta printCenter_c
3324   140A               ; 247 ++text;
3325   140A 23            inx h
3326   140B 22 05 55      shld printCenter_3
3327   140E               ; 248 drawChar(a, c);
3328   140E 2A 03 55      lhld printCenter_2
3329   1411 22 AE 54      shld drawChar_1
3330   1414 CD 3F 0D      call drawChar
3331   1417               ; 249 a += 2;Сложение с константой 2
3332   1417 2A 03 55      lhld printCenter_2
3333   141A 23            inx h
3334   141B 23            inx h
3335   141C 22 03 55      shld printCenter_2
3336   141F               ; 251 if(--l==0) return;
3337   141F 21 07 55      lxi h, printCenter_4
3338   1422 35            dcr m
3339   1423 3A 07 55      lda printCenter_4
3340   1426 B7            ora a
3341   1427 C2 2B 14      jnz l300
3342   142A               ; 251 return;
3343   142A C9            ret
3344   142B             l300:
3345   142B C3 B1 13      jmp l298
3346   142E             l299:
3347   142E C9            ret
3348   142F               ; --- showRecordScreen -----------------------------------------------------------------
3349   142F             showRecordScreen:
3350   142F C5            push b
3351   1430 32 09 55      sta showRecordScreen_1
3352   1433               ; 262 a = COORDS(18, 6);
3353   1433 01 93 CF      lxi b, 53139
3354   1436               ; 264 buf[0]=' ';
3355   1436 3E 20         mvi a, 32
3356   1438 32 10 55      sta (showRecordScreen_buf)+(0)
3357   143B               ; 265 buf[6]=0;
3358   143B AF            xra a
3359   143C 32 16 55      sta (showRecordScreen_buf)+(6)
3360   143F               ; 267 for(i=0, h=hiScores; i<9; ++i, ++h) {
3361   143F 32 0D 55      sta showRecordScreen_i
3362   1442 21 40 17      lxi h, hiScores
3363   1445 22 0A 55      shld showRecordScreen_h
3364   1448             l301:
3365   1448 3A 0D 55      lda showRecordScreen_i
3366   144B FE 09         cpi 9
3367   144D D2 D5 14      jnc l302
3368   1450               ; 268 if(i==pos) c=0x84; else c=0x80;
3369   1450 21 09 55      lxi h, showRecordScreen_1
3370   1453 BE            cmp m
3371   1454 C2 5F 14      jnz l304
3372   1457               ; 268 c=0x84; else c=0x80;
3373   1457 3E 84         mvi a, 132
3374   1459 32 0C 55      sta showRecordScreen_c
3375   145C C3 64 14      jmp l305
3376   145F             l304:
3377   145F               ; 268 c=0x80;
3378   145F 3E 80         mvi a, 128
3379   1461 32 0C 55      sta showRecordScreen_c
3380   1464             l305:
3381   1464               ; 270 printCenter(c, a, buf, 1);
3382   1464 3A 0C 55      lda showRecordScreen_c
3383   1467 32 02 55      sta printCenter_1
3384   146A 60            mov h, b
3385   146B 69            mov l, c
3386   146C 22 03 55      shld printCenter_2
3387   146F 21 10 55      lxi h, showRecordScreen_buf
3388   1472 22 05 55      shld printCenter_3
3389   1475 3E 01         mvi a, 1
3390   1477 CD AE 13      call printCenter
3391   147A               ; 272 printCenter(c, a + 5, h->name, 4);
3392   147A 3A 0C 55      lda showRecordScreen_c
3393   147D 32 02 55      sta printCenter_1
3394   1480               ; Сложение с BC
3395   1480 21 05 00      lxi h, 5
3396   1483 09            dad b
3397   1484 22 03 55      shld printCenter_2
3398   1487 2A 0A 55      lhld showRecordScreen_h
3399   148A 22 05 55      shld printCenter_3
3400   148D 3E 04         mvi a, 4
3401   148F CD AE 13      call printCenter
3402   1492               ; 274 i2s(buf+1, h->score);
3403   1492 21 11 55      lxi h, (showRecordScreen_buf)+(1)
3404   1495 22 C5 54      shld i2s_1
3405   1498               ; Сложение
3406   1498 2A 0A 55      lhld showRecordScreen_h
3407   149B 11 0E 00      lxi d, 14
3408   149E 19            dad d
3409   149F 5E            mov e, m
3410   14A0 23            inx h
3411   14A1 56            mov d, m
3412   14A2 EB            xchg
3413   14A3 CD 3E 0F      call i2s
3414   14A6               ; 275 printCenter(c, a + 5*5, buf, 4);
3415   14A6 3A 0C 55      lda showRecordScreen_c
3416   14A9 32 02 55      sta printCenter_1
3417   14AC               ; Сложение с BC
3418   14AC 21 19 00      lxi h, 25
3419   14AF 09            dad b
3420   14B0 22 03 55      shld printCenter_2
3421   14B3 21 10 55      lxi h, showRecordScreen_buf
3422   14B6 22 05 55      shld printCenter_3
3423   14B9 3E 04         mvi a, 4
3424   14BB CD AE 13      call printCenter
3425   14BE               ; 277 a += APOGEY_VIDEO_BPL*4;Сложение с BC
3426   14BE 21 78 01      lxi h, 376
3427   14C1 09            dad b
3428   14C2 44            mov b, h
3429   14C3 4D            mov c, l
3430   14C4             l303:
3431   14C4 21 0D 55      lxi h, showRecordScreen_i
3432   14C7 34            inr m
3433   14C8 2A 0A 55      lhld showRecordScreen_h
3434   14CB 11 10 00      lxi d, 16
3435   14CE 19            dad d
3436   14CF 22 0A 55      shld showRecordScreen_h
3437   14D2 C3 48 14      jmp l301
3438   14D5             l302:
3439   14D5 C1            pop b
3440   14D6 C9            ret
3441   14D7               ; --- updateTopScore -----------------------------------------------------------------
3442   14D7             updateTopScore:
3443   14D7 21 B0 CD      lxi h, 52656
3444   14DA 22 CA 54      shld drawNumber_1
3445   14DD 2A 4E 17      lhld ((hiScores)+(0))+(14)
3446   14E0 CD 95 0F      call drawNumber
3447   14E3               ; 286 drawChar(COORDS(1,  39), hiScores[0].name[0]);
3448   14E3 21 A0 DB      lxi h, 56224
3449   14E6 22 AE 54      shld drawChar_1
3450   14E9 3A 40 17      lda ((hiScores)+(0))+(0)
3451   14EC CD 3F 0D      call drawChar
3452   14EF               ; 287 drawChar(COORDS(4,  39), hiScores[0].name[1]);
3453   14EF 21 A3 DB      lxi h, 56227
3454   14F2 22 AE 54      shld drawChar_1
3455   14F5 3A 41 17      lda ((hiScores)+(0))+(1)
3456   14F8 CD 3F 0D      call drawChar
3457   14FB               ; 288 drawChar(COORDS(7,  39), hiScores[0].name[2]);
3458   14FB 21 A6 DB      lxi h, 56230
3459   14FE 22 AE 54      shld drawChar_1
3460   1501 3A 42 17      lda ((hiScores)+(0))+(2)
3461   1504 CD 3F 0D      call drawChar
3462   1507               ; 289 drawChar(COORDS(10, 39), hiScores[0].name[3]);
3463   1507 21 A9 DB      lxi h, 56233
3464   150A 22 AE 54      shld drawChar_1
3465   150D 3A 43 17      lda ((hiScores)+(0))+(3)
3466   1510 CD 3F 0D      call drawChar
3467   1513               ; 290 drawChar(COORDS(12, 39), hiScores[0].name[4]);
3468   1513 21 AB DB      lxi h, 56235
3469   1516 22 AE 54      shld drawChar_1
3470   1519 3A 44 17      lda ((hiScores)+(0))+(4)
3471   151C CD 3F 0D      call drawChar
3472   151F               ; 291 drawChar(COORDS(14, 39), hiScores[0].name[5]);
3473   151F 21 AD DB      lxi h, 56237
3474   1522 22 AE 54      shld drawChar_1
3475   1525 3A 45 17      lda ((hiScores)+(0))+(5)
3476   1528 C3 3F 0D      jmp drawChar
3477   152B             initGameScreen:
3478   152B C5            push b
3479   152C               ; 296 apogeyScreen3c();
3480   152C CD 54 16      call apogeyScreen3c
3481   152F               ; 297 fillScreen(gameScreen);
3482   152F 21 E4 19      lxi h, gameScreen
3483   1532 CD FB 0E      call fillScreen
3484   1535               ; 300 for(y=0; y<9; y++)
3485   1535 06 00         mvi b, 0
3486   1537             l306:
3487   1537 3E 09         mvi a, 9
3488   1539 B8            cmp b
3489   153A DA 67 15      jc l307
3490   153D CA 67 15      jz l307
3491   1540               ; 301 for(x=0; x<9; x++)
3492   1540 0E 00         mvi c, 0
3493   1542             l309:
3494   1542 3E 09         mvi a, 9
3495   1544 B9            cmp c
3496   1545 DA 62 15      jc l310
3497   1548 CA 62 15      jz l310
3498   154B               ; 302 drawSprite(x, y, 0, emptySprite);
3499   154B 79            mov a, c
3500   154C 32 BB 54      sta drawSprite_1
3501   154F 78            mov a, b
3502   1550 32 BC 54      sta drawSprite_2
3503   1553 AF            xra a
3504   1554 32 BD 54      sta drawSprite_3
3505   1557 21 84 19      lxi h, emptySprite
3506   155A CD CA 0E      call drawSprite
3507   155D             l311:
3508   155D 79            mov a, c
3509   155E 0C            inr c
3510   155F C3 42 15      jmp l309
3511   1562             l310:
3512   1562             l308:
3513   1562 78            mov a, b
3514   1563 04            inr b
3515   1564 C3 37 15      jmp l306
3516   1567             l307:
3517   1567               ; 304 updateTopScore();
3518   1567 CD D7 14      call updateTopScore
3519   156A C1            pop b
3520   156B C9            ret
3521   156C               ; --- rand -----------------------------------------------------------------
3522   156C             rand:
3523   156C 3A 72 55        LDA rand_seed
3524   156F 5F              mov e,a
3525   1570 87              add a
3526   1571 87              add a
3527   1572 83              add e
3528   1573 3C              inr a
3529   1574 32 72 55        sta rand_seed
3530   1577               
3531   1577 C9            ret
3532   1578               ; --- op_mod -----------------------------------------------------------------
3533   1578             op_mod:
3534   1578 C5              PUSH B
3535   1579 5F              MOV E, A
3536   157A 21 08 00        LXI H, 8
3537   157D 0E 00           MVI C, 0
3538   157F             op_mod_1:
3539   157F 7B              MOV A,E
3540   1580 17              RAL
3541   1581 5F              MOV E,A
3542   1582 79              MOV A,C
3543   1583 17              RAL
3544   1584 92              SUB D
3545   1585 D2 89 15        JNC op_mod_2
3546   1588 82              ADD D
3547   1589             op_mod_2:
3548   1589 4F              MOV C,A ; Остаток в С
3549   158A 3F              CMC
3550   158B 7C              MOV A,H
3551   158C 17              RAL
3552   158D 67              MOV H,A ; Частное в Н
3553   158E 2D              DCR L
3554   158F C2 7F 15        JNZ op_mod_1
3555   1592 79              MOV A, C
3556   1593 C1              POP B
3557   1594               
3558   1594 C9            ret
3559   1595               ; --- op_div -----------------------------------------------------------------
3560   1595             op_div:
3561   1595 C5              push b
3562   1596 5F              mov e, a
3563   1597 21 08 00        LXI H,0008h
3564   159A 0E 00           MVI C,00
3565   159C             op_div_1:
3566   159C 7B              MOV A,E
3567   159D 17              RAL
3568   159E 5F              MOV E,A
3569   159F 79              MOV A,C
3570   15A0 17              RAL
3571   15A1 92              SUB D
3572   15A2 D2 A6 15        JNC op_div_2
3573   15A5 82              ADD D
3574   15A6             op_div_2:
3575   15A6 4F              MOV C,A ; Остаток в С
3576   15A7 3F              CMC
3577   15A8 7C              MOV A,H
3578   15A9 17              RAL
3579   15AA 67              MOV H,A ; Частное в Н
3580   15AB 2D              DCR L
3581   15AC C2 9C 15        JNZ op_div_1
3582   15AF 79              MOV A, C
3583   15B0 32 73 55        STA op_div_mod
3584   15B3 7C              MOV A, H
3585   15B4 C1              pop b
3586   15B5               
3587   15B5 C9            ret
3588   15B6               ; --- op_cmp16 -----------------------------------------------------------------
3589   15B6             op_cmp16:
3590   15B6 7C              mov a, h
3591   15B7 BA              cmp d
3592   15B8 C0              rnz
3593   15B9 7D              mov a, l
3594   15BA BB              cmp e
3595   15BB               
3596   15BB C9            ret
3597   15BC               ; --- memset -----------------------------------------------------------------
3598   15BC             memset:
3599   15BC 22 77 55      shld memset_3
3600   15BF               ; 2 asm {
3601   15BF C5              push b
3602   15C0 3A 76 55        lda memset_2
3603   15C3 EB              xchg
3604   15C4 2A 74 55        lhld memset_1
3605   15C7 EB              xchg
3606   15C8 01 FF FF        lxi b, -1    
3607   15CB             memset_l1:
3608   15CB 09              dad b
3609   15CC D2 D4 15        jnc memset_l2
3610   15CF 12              stax d
3611   15D0 13              inx d
3612   15D1 C3 CB 15        jmp memset_l1
3613   15D4             memset_l2:
3614   15D4 C1              pop b
3615   15D5               
3616   15D5 C9            ret
3617   15D6               ; --- memcpy -----------------------------------------------------------------
3618   15D6             memcpy:
3619   15D6 22 7D 55      shld memcpy_3
3620   15D9               ; 2 asm {
3621   15D9                 ; if(cnt==0) return
3622   15D9 7C              mov a, h
3623   15DA B5              ora l
3624   15DB C8              rz
3625   15DC                 ; start
3626   15DC C5              push b
3627   15DD                 ; de = count
3628   15DD EB              xchg
3629   15DE                 ; bc = from
3630   15DE 2A 7B 55        lhld memcpy_2
3631   15E1 4D              mov c, l
3632   15E2 44              mov b, h
3633   15E3                 ; hl = to
3634   15E3 2A 79 55        lhld memcpy_1
3635   15E6                 ; enter loop
3636   15E6 14              inr d
3637   15E7 AF              xra a
3638   15E8 B3              ora e
3639   15E9 CA F4 15        jz memcpy_l2
3640   15EC             memcpy_l1:
3641   15EC                 ; *dest = *src
3642   15EC 0A              ldax b
3643   15ED 77              mov m, a
3644   15EE                 ; dest++, src++
3645   15EE 23              inx h
3646   15EF 03              inx b
3647   15F0                 ; while(--cnt)
3648   15F0 1D              dcr e
3649   15F1 C2 EC 15        jnz memcpy_l1
3650   15F4             memcpy_l2:
3651   15F4 15              dcr d
3652   15F5 C2 EC 15        jnz memcpy_l1
3653   15F8 C1              pop b
3654   15F9               
3655   15F9 C9            ret
3656   15FA               ; --- op_mul -----------------------------------------------------------------
3657   15FA             op_mul:
3658   15FA C5            push b
3659   15FB 21 00 00      lxi h, 0
3660   15FE 5A            mov e, d  ; de=d
3661   15FF 55            mov d, l  
3662   1600 0E 08         mvi c, 8
3663   1602             op_mul1:
3664   1602 29            dad h
3665   1603 87            add a
3666   1604 D2 08 16      jnc op_mul2
3667   1607 19              dad d
3668   1608             op_mul2:
3669   1608 0D            dcr c
3670   1609 C2 02 16      jnz op_mul1
3671   160C             pop_bc_ret:
3672   160C C1            pop b
3673   160D             
3674   160D C9            ret
3675   160E               ; --- op_div16 -----------------------------------------------------------------
3676   160E             op_div16:
3677   160E C5                  PUSH B
3678   160F EB                  XCHG
3679   1610 CD 1A 16            CALL _DIV0
3680   1613 EB                  XCHG
3681   1614 22 82 55            SHLD op_div16_mod
3682   1617 EB                  XCHG
3683   1618 C1                  POP B
3684   1619 C9                  RET
3685   161A             
3686   161A             _DIV0:
3687   161A 7C          _DIV:	MOV A,H
3688   161B B5          	ORA L
3689   161C C8          	RZ
3690   161D 01 00 00    	LXI B,0000
3691   1620 C5          	PUSH B
3692   1621 7B          _DIV1:	MOV A,E
3693   1622 95          	SUB L
3694   1623 7A          	MOV A,D
3695   1624 9C          	SBB H
3696   1625 DA 2D 16    	JC _DIV2
3697   1628 E5          	PUSH H
3698   1629 29          	DAD H
3699   162A D2 21 16    	JNC _DIV1
3700   162D 21 00 00    _DIV2:	LXI H,0000
3701   1630 C1          _DIV3:	POP B
3702   1631 78          	MOV A,B
3703   1632 B1          	ORA C
3704   1633 C8          	RZ
3705   1634 29          	DAD H
3706   1635 D5          	PUSH D
3707   1636 7B          	MOV A,E
3708   1637 91          	SUB C
3709   1638 5F          	MOV E,A
3710   1639 7A          	MOV A,D
3711   163A 98          	SBB B
3712   163B 57          	MOV D,A
3713   163C DA 44 16    	JC _DIV4
3714   163F 23          	INX H
3715   1640 C1          	POP B
3716   1641 C3 30 16    	JMP _DIV3
3717   1644 D1          _DIV4:	POP D
3718   1645 C3 30 16    	JMP _DIV3  
3719   1648               
3720   1648 C9            ret
3721   1649               ; --- waitHorzSync -----------------------------------------------------------------
3722   1649             waitHorzSync:
3723   1649 21 01 EF        lxi h, 0EF01h
3724   164C 7E              mov a, m
3725   164D             waitHorzSync_1:
3726   164D 7E              mov a, m
3727   164E E6 20           ani 20h
3728   1650 CA 4D 16        jz waitHorzSync_1
3729   1653               
3730   1653 C9            ret
3731   1654               ; --- apogeyScreen3c -----------------------------------------------------------------
3732   1654             apogeyScreen3c:
3733   1654 C5            push b
3734   1655               ; 3 memset((uchar*)MEM_ADDR, 0, (HEIGHT)*(BPL)+(TOP_INVISIBLE)*2+2); 
3735   1655 21 36 CD      lxi h, 52534
3736   1658 22 74 55      shld memset_1
3737   165B AF            xra a
3738   165C 32 76 55      sta memset_2
3739   165F 21 CA 12      lxi h, 4810
3740   1662 CD BC 15      call memset
3741   1665               ; 4 for(v=(uchar*)(MEM_ADDR)-1, i=TOP_INVISIBLE; i; --i) 
3742   1665 01 35 CD      lxi b, 52533
3743   1668 3E 07         mvi a, 7
3744   166A 32 84 55      sta apogeyScreen3c_i
3745   166D             l312:
3746   166D               ; convertToConfition
3747   166D 3A 84 55      lda apogeyScreen3c_i
3748   1670 B7            ora a
3749   1671 CA 80 16      jz l313
3750   1674               ; 5 v+=2, *v = 0xF1; Сложение BC с константой 2
3751   1674 03            inx b
3752   1675 03            inx b
3753   1676 3E F1         mvi a, 241
3754   1678 02            stax b
3755   1679             l314:
3756   1679 21 84 55      lxi h, apogeyScreen3c_i
3757   167C 35            dcr m
3758   167D C3 6D 16      jmp l312
3759   1680             l313:
3760   1680               ; 6 if(FILL_EOL) 7 for(i = HEIGHT; i; --i) 9 ((uchar*)MEM_ADDR)[(HEIGHT)*(BPL)+(TOP_INVISIBLE)*2+1] = 0xFF; 
3761   1680 21 FF DF      lxi h, 57343
3762   1683 36 FF         mvi m, 255
3763   1685               ; 10 apogeyVideoMem = (uchar*)(MEM_ADDR) + (TOP_INVISIBLE)*2 + 9; 
3764   1685 21 4D CD      lxi h, 52557
3765   1688 22 7F 55      shld apogeyVideoMem
3766   168B               ; 11 apogeyVideoBpl = (BPL); 
3767   168B 3E 5E         mvi a, 94
3768   168D 32 81 55      sta apogeyVideoBpl
3769   1690               ; 1 ((uchar*)0xEF00)
3770   1690 21 01 EF      lxi h, 61185
3771   1693 36 00         mvi m, 0
3772   1695               ; 1 ((uchar*)0xEF00)
3773   1695 2D            dcr l
3774   1696 36 4D         mvi m, 77
3775   1698               ; 1 ((uchar*)0xEF00)
3776   1698 36 7F         mvi m, 127
3777   169A               ; 1 ((uchar*)0xEF00)
3778   169A 36 33         mvi m, 51
3779   169C               ; 1 ((uchar*)0xEF00)
3780   169C 36 13         mvi m, 19
3781   169E               ; 1 ((uchar*)0xEF00)
3782   169E 2C            inr l
3783   169F 36 23         mvi m, 35
3784   16A1               ; 7 while((VG75[1] & 0x20) == 0); 
3785   16A1             l325:
3786   16A1 3A 01 EF      lda 61185
3787   16A4 E6 20         ani 32
3788   16A6 C2 AC 16      jnz l326
3789   16A9 C3 A1 16      jmp l325
3790   16AC             l326:
3791   16AC               ; 8 while((VG75[1] & 0x20) == 0); 
3792   16AC             l327:
3793   16AC 3A 01 EF      lda 61185
3794   16AF E6 20         ani 32
3795   16B1 C2 B7 16      jnz l328
3796   16B4 C3 AC 16      jmp l327
3797   16B7             l328:
3798   16B7               ; 1 ((uchar*)0xF000)
3799   16B7 21 08 F0      lxi h, 61448
3800   16BA 36 80         mvi m, 128
3801   16BC               ; 1 ((uchar*)0xF000)
3802   16BC 2E 04         mvi l, 4
3803   16BE 36 36         mvi m, 54
3804   16C0               ; 1 ((uchar*)0xF000)
3805   16C0 36 CD         mvi m, 205
3806   16C2               ; 1 ((uchar*)0xF000)
3807   16C2 2C            inr l
3808   16C3 36 C9         mvi m, 201
3809   16C5               ; 1 ((uchar*)0xF000)
3810   16C5 36 52         mvi m, 82
3811   16C7               ; 1 ((uchar*)0xF000)
3812   16C7 2E 08         mvi l, 8
3813   16C9 36 A4         mvi m, 164
3814   16CB               ; 15 if(CHAR_GEN) asm { ei } else asm { di } 15 asm { ei } else asm { di } 
3815   16CB FB           ei 
3816   16CC               ; 15 asm { di } 
3817   16CC C1            pop b
3818   16CD C9            ret
3819   16CE             game:
3820   16CE E0 16        .dw $+18
3821   16D0 E9 16        .dw $+25
3822   16D2 F2 16        .dw $+32
3823   16D4 FB 16        .dw $+39
3824   16D6 04 17        .dw $+46
3825   16D8 0D 17        .dw $+53
3826   16DA 16 17        .dw $+60
3827   16DC 1F 17        .dw $+67
3828   16DE 28 17        .dw $+74
3829   16E0              .ds 81
3830   1731             gameOver:
3831   1731 00           .db 0
3832   1732             
3833   1732             cursorX:
3834   1732 04           .db 4
3835   1733             
3836   1733             cursorY:
3837   1733 04           .db 4
3838   1734             
3839   1734             selX:
3840   1734 FF           .db 255
3841   1735             
3842   1735             selY:
3843   1735              .ds 1
3844   1736             score:
3845   1736 00 00        .dw 0
3846   1738             
3847   1738             newBall1:
3848   1738              .ds 1
3849   1739             newBall2:
3850   1739              .ds 1
3851   173A             newBall3:
3852   173A              .ds 1
3853   173B             showPath:
3854   173B 01           .db 1
3855   173C             
3856   173C             playSound:
3857   173C 01           .db 1
3858   173D             
3859   173D             showHelp:
3860   173D 01           .db 1
3861   173E             
3862   173E             nx:
3863   173E              .ds 1
3864   173F             ny:
3865   173F              .ds 1
3866   1740             hiScores:
3867   1740 56 49 4E 58  .db "VINXRU",0,0,0,0,0,0,0,0
3867   1744 52 55 00 00 
3867   1748 00 00 00 00 
3867   174C 00 00 
3868   174E 2C 01        .dw 300
3869   1750 45 4C 54 41  .db "ELTARO",0,0,0,0,0,0,0,0
3869   1754 52 4F 00 00 
3869   1758 00 00 00 00 
3869   175C 00 00 
3870   175E 04 01        .dw 260
3871   1760 45 52 52 34  .db "ERR404",0,0,0,0,0,0,0,0
3871   1764 30 34 00 00 
3871   1768 00 00 00 00 
3871   176C 00 00 
3872   176E E6 00        .dw 230
3873   1770 53 59 53 43  .db "SYSCAT",0,0,0,0,0,0,0,0
3873   1774 41 54 00 00 
3873   1778 00 00 00 00 
3873   177C 00 00 
3874   177E C8 00        .dw 200
3875   1780 4D 49 43 4B  .db "MICK",0,0,0,0,0,0,0,0,0,0
3875   1784 00 00 00 00 
3875   1788 00 00 00 00 
3875   178C 00 00 
3876   178E A0 00        .dw 160
3877   1790 53 43 4C 20  .db "SCL MC",0,0,0,0,0,0,0,0
3877   1794 4D 43 00 00 
3877   1798 00 00 00 00 
3877   179C 00 00 
3878   179E 82 00        .dw 130
3879   17A0 53 56 4F 46  .db "SVOFSK",0,0,0,0,0,0,0,0
3879   17A4 53 4B 00 00 
3879   17A8 00 00 00 00 
3879   17AC 00 00 
3880   17AE 64 00        .dw 100
3881   17B0 54 49 54 55  .db "TITUS",0,0,0,0,0,0,0,0,0
3881   17B4 53 00 00 00 
3881   17B8 00 00 00 00 
3881   17BC 00 00 
3882   17BE 5A 00        .dw 90
3883   17C0 42 32 4D 00  .db "B2M",0,0,0,0,0,0,0,0,0,0,0
3883   17C4 00 00 00 00 
3883   17C8 00 00 00 00 
3883   17CC 00 00 
3884   17CE 3C 00        .dw 60
3885   17D0             
3886   17D0              .ds 117
3887   1845             drawCell_1:
3888   1845              .ds 1
3889   1846             drawCell_2:
3890   1846              .ds 1
3891   1847             drawCell_g:
3892   1847              .ds 1
3893   1848             drawCursor_g:
3894   1848              .ds 1
3895   1849             drawCells_x:
3896   1849              .ds 1
3897   184A             drawCells_y:
3898   184A              .ds 1
3899   184B             clearLine_1:
3900   184B              .ds 1
3901   184C             clearLine_2:
3902   184C              .ds 1
3903   184D             clearLine_3:
3904   184D              .ds 1
3905   184E             clearLine_4:
3906   184E              .ds 1
3907   184F             clearLine_5:
3908   184F              .ds 1
3909   1850             clearLine_y:
3910   1850              .ds 1
3911   1851             clearLine_o:
3912   1851              .ds 1
3913   1852             clearLine_i:
3914   1852              .ds 1
3915   1853             check_prevx:
3916   1853              .ds 1
3917   1854             check_prevy:
3918   1854              .ds 1
3919   1855             check_c:
3920   1855              .ds 1
3921   1856             check_n:
3922   1856              .ds 1
3923   1857             check_total:
3924   1857              .ds 1
3925   1858             check_p:
3926   1858              .ds 2
3927   185A             calcFreeCell_c:
3928   185A              .ds 1
3929   185B             calcFreeCell_i:
3930   185B              .ds 1
3931   185C             newBall_1:
3932   185C              .ds 1
3933   185D             newBall_i:
3934   185D              .ds 1
3935   185E             newBall_c:
3936   185E              .ds 1
3937   185F             gameStep_nx1:
3938   185F              .ds 1
3939   1860             gameStep_ny1:
3940   1860              .ds 1
3941   1861             gameStep_nx2:
3942   1861              .ds 1
3943   1862             gameStep_ny2:
3944   1862              .ds 1
3945   1863             gameStep_o:
3946   1863              .ds 1
3947   1864             path_c:
3948   1864              .ds 1
3949   1865             path_p:
3950   1865 67 18        .dw $+2
3951   1867              .ds 1
3952   1868             path_n:
3953   1868              .ds 1
3954   1869             path_x:
3955   1869              .ds 1
3956   186A             path_y:
3957   186A              .ds 1
3958   186B             path_p1:
3959   186B 6D 18        .dw $+2
3960   186D              .ds 1
3961   186E             path_n1:
3962   186E              .ds 1
3963   186F             path_x1:
3964   186F              .ds 1
3965   1870             path_y1:
3966   1870              .ds 1
3967   1871             selAnimation:
3968   1871 E4 18        .dw (ballSprite) & 65535
3969   1873 F4 18        .dw (selAnimation1) & 65535
3970   1875 04 19        .dw (selAnimation2) & 65535
3971   1877 F4 18        .dw (selAnimation1) & 65535
3972   1879             
3973   1879              .ds 4
3974   187D             selCursorAnimation:
3975   187D 74 19        .dw (ballCursorSprite) & 65535
3976   187F 14 19        .dw (selCursorAnimation1) & 65535
3977   1881 24 19        .dw (selCursorAnimation2) & 65535
3978   1883 14 19        .dw (selCursorAnimation1) & 65535
3979   1885             
3980   1885              .ds 4
3981   1889             recordAnimation_c:
3982   1889              .ds 1
3983   188A             recordAnimation_i:
3984   188A              .ds 1
3985   188B             recordAnimation_p:
3986   188B              .ds 2
3987   188D             recordAnimation_tmp:
3988   188D              .ds 16
3989   189D             main_c:
3990   189D              .ds 1
3991   189E             main_c1:
3992   189E              .ds 1
3993   189F             main_selAnimationT:
3994   189F              .ds 1
3995   18A0             main_selAnimationTT:
3996   18A0              .ds 2
3997   18A2             main_keybTimeout:
3998   18A2              .ds 2
3999   18A4             newBallSprite:
4000   18A4 00           .db 0
4001   18A5 00           .db 0
4002   18A6 00           .db 0
4003   18A7 00           .db 0
4004   18A8 00           .db 0
4005   18A9 20           .db 32
4006   18AA 00           .db 0
4007   18AB 00           .db 0
4008   18AC 00           .db 0
4009   18AD 00           .db 0
4010   18AE 00           .db 0
4011   18AF 00           .db 0
4012   18B0 00           .db 0
4013   18B1 00           .db 0
4014   18B2 00           .db 0
4015   18B3 00           .db 0
4016   18B4 00           .db 0
4017   18B5 00           .db 0
4018   18B6 00           .db 0
4019   18B7 00           .db 0
4020   18B8 00           .db 0
4021   18B9 20           .db 32
4022   18BA 08           .db 8
4023   18BB 00           .db 0
4024   18BC 00           .db 0
4025   18BD 04           .db 4
4026   18BE 01           .db 1
4027   18BF 00           .db 0
4028   18C0 00           .db 0
4029   18C1 00           .db 0
4030   18C2 00           .db 0
4031   18C3 00           .db 0
4032   18C4 00           .db 0
4033   18C5 00           .db 0
4034   18C6 00           .db 0
4035   18C7 00           .db 0
4036   18C8 00           .db 0
4037   18C9 34           .db 52
4038   18CA 19           .db 25
4039   18CB 00           .db 0
4040   18CC 00           .db 0
4041   18CD 26           .db 38
4042   18CE 0A           .db 10
4043   18CF 00           .db 0
4044   18D0 00           .db 0
4045   18D1 00           .db 0
4046   18D2 00           .db 0
4047   18D3 00           .db 0
4048   18D4 00           .db 0
4049   18D5 00           .db 0
4050   18D6 00           .db 0
4051   18D7 00           .db 0
4052   18D8 00           .db 0
4053   18D9 3E           .db 62
4054   18DA 2B           .db 43
4055   18DB 00           .db 0
4056   18DC 00           .db 0
4057   18DD 37           .db 55
4058   18DE 1C           .db 28
4059   18DF 00           .db 0
4060   18E0 00           .db 0
4061   18E1 00           .db 0
4062   18E2 00           .db 0
4063   18E3 00           .db 0
4064   18E4             
4065   18E4             ballSprite:
4066   18E4 00           .db 0
4067   18E5 30           .db 48
4068   18E6 18           .db 24
4069   18E7 00           .db 0
4070   18E8 34           .db 52
4071   18E9 3F           .db 63
4072   18EA 1F           .db 31
4073   18EB 19           .db 25
4074   18EC 26           .db 38
4075   18ED 0F           .db 15
4076   18EE 21           .db 33
4077   18EF 0B           .db 11
4078   18F0 00           .db 0
4079   18F1 06           .db 6
4080   18F2 03           .db 3
4081   18F3 00           .db 0
4082   18F4             
4083   18F4             selAnimation1:
4084   18F4 00           .db 0
4085   18F5 00           .db 0
4086   18F6 00           .db 0
4087   18F7 00           .db 0
4088   18F8 20           .db 32
4089   18F9 3E           .db 62
4090   18FA 3B           .db 59
4091   18FB 08           .db 8
4092   18FC 36           .db 54
4093   18FD 3F           .db 63
4094   18FE 0B           .db 11
4095   18FF 1B           .db 27
4096   1900 04           .db 4
4097   1901 31           .db 49
4098   1902 1C           .db 28
4099   1903 01           .db 1
4100   1904             
4101   1904             selAnimation2:
4102   1904 00           .db 0
4103   1905 00           .db 0
4104   1906 00           .db 0
4105   1907 00           .db 0
4106   1908 00           .db 0
4107   1909 38           .db 56
4108   190A 38           .db 56
4109   190B 00           .db 0
4110   190C 36           .db 54
4111   190D 3F           .db 63
4112   190E 0F           .db 15
4113   190F 1B           .db 27
4114   1910 06           .db 6
4115   1911 39           .db 57
4116   1912 3C           .db 60
4117   1913 03           .db 3
4118   1914             
4119   1914             selCursorAnimation1:
4120   1914 0B           .db 11
4121   1915 00           .db 0
4122   1916 00           .db 0
4123   1917 26           .db 38
4124   1918 20           .db 32
4125   1919 3E           .db 62
4126   191A 3B           .db 59
4127   191B 08           .db 8
4128   191C 36           .db 54
4129   191D 3F           .db 63
4130   191E 0B           .db 11
4131   191F 1B           .db 27
4132   1920 1D           .db 29
4133   1921 31           .db 49
4134   1922 1C           .db 28
4135   1923 35           .db 53
4136   1924             
4137   1924             selCursorAnimation2:
4138   1924 0B           .db 11
4139   1925 00           .db 0
4140   1926 00           .db 0
4141   1927 26           .db 38
4142   1928 00           .db 0
4143   1929 38           .db 56
4144   192A 38           .db 56
4145   192B 00           .db 0
4146   192C 36           .db 54
4147   192D 3F           .db 63
4148   192E 0F           .db 15
4149   192F 1B           .db 27
4150   1930 1F           .db 31
4151   1931 39           .db 57
4152   1932 3C           .db 60
4153   1933 37           .db 55
4154   1934             
4155   1934             killBallSprite:
4156   1934 20           .db 32
4157   1935 38           .db 56
4158   1936 38           .db 56
4159   1937 08           .db 8
4160   1938 36           .db 54
4161   1939 3F           .db 63
4162   193A 01           .db 1
4163   193B 1B           .db 27
4164   193C 36           .db 54
4165   193D 03           .db 3
4166   193E 20           .db 32
4167   193F 1B           .db 27
4168   1940 04           .db 4
4169   1941 07           .db 7
4170   1942 07           .db 7
4171   1943 01           .db 1
4172   1944 20           .db 32
4173   1945 38           .db 56
4174   1946 38           .db 56
4175   1947 08           .db 8
4176   1948 16           .db 22
4177   1949 01           .db 1
4178   194A 04           .db 4
4179   194B 13           .db 19
4180   194C 32           .db 50
4181   194D 08           .db 8
4182   194E 20           .db 32
4183   194F 1A           .db 26
4184   1950 04           .db 4
4185   1951 07           .db 7
4186   1952 07           .db 7
4187   1953 01           .db 1
4188   1954 20           .db 32
4189   1955 18           .db 24
4190   1956 30           .db 48
4191   1957 08           .db 8
4192   1958 06           .db 6
4193   1959 00           .db 0
4194   195A 00           .db 0
4195   195B 03           .db 3
4196   195C 30           .db 48
4197   195D 00           .db 0
4198   195E 00           .db 0
4199   195F 18           .db 24
4200   1960 04           .db 4
4201   1961 03           .db 3
4202   1962 06           .db 6
4203   1963 01           .db 1
4204   1964 20           .db 32
4205   1965 08           .db 8
4206   1966 20           .db 32
4207   1967 08           .db 8
4208   1968 02           .db 2
4209   1969 00           .db 0
4210   196A 00           .db 0
4211   196B 02           .db 2
4212   196C 10           .db 16
4213   196D 00           .db 0
4214   196E 00           .db 0
4215   196F 10           .db 16
4216   1970 04           .db 4
4217   1971 01           .db 1
4218   1972 04           .db 4
4219   1973 01           .db 1
4220   1974             
4221   1974             ballCursorSprite:
4222   1974 0B           .db 11
4223   1975 30           .db 48
4224   1976 18           .db 24
4225   1977 26           .db 38
4226   1978 34           .db 52
4227   1979 3F           .db 63
4228   197A 1F           .db 31
4229   197B 19           .db 25
4230   197C 26           .db 38
4231   197D 0F           .db 15
4232   197E 21           .db 33
4233   197F 0B           .db 11
4234   1980 19           .db 25
4235   1981 06           .db 6
4236   1982 03           .db 3
4237   1983 34           .db 52
4238   1984             
4239   1984             emptySprite:
4240   1984 10           .db 16
4241   1985 28           .db 40
4242   1986 10           .db 16
4243   1987 08           .db 8
4244   1988 14           .db 20
4245   1989 2A           .db 42
4246   198A 15           .db 21
4247   198B 0A           .db 10
4248   198C 14           .db 20
4249   198D 2A           .db 42
4250   198E 15           .db 21
4251   198F 0A           .db 10
4252   1990 04           .db 4
4253   1991 02           .db 2
4254   1992 05           .db 5
4255   1993 02           .db 2
4256   1994             
4257   1994             sprite_stepUp:
4258   1994 00           .db 0
4259   1995 1A           .db 26
4260   1996 10           .db 16
4261   1997 00           .db 0
4262   1998 00           .db 0
4263   1999 1B           .db 27
4264   199A 36           .db 54
4265   199B 00           .db 0
4266   199C 00           .db 0
4267   199D 02           .db 2
4268   199E 16           .db 22
4269   199F 00           .db 0
4270   19A0 00           .db 0
4271   19A1 02           .db 2
4272   19A2 10           .db 16
4273   19A3 00           .db 0
4274   19A4             
4275   19A4             sprite_stepDown:
4276   19A4 00           .db 0
4277   19A5 10           .db 16
4278   19A6 02           .db 2
4279   19A7 00           .db 0
4280   19A8 00           .db 0
4281   19A9 10           .db 16
4282   19AA 32           .db 50
4283   19AB 00           .db 0
4284   19AC 00           .db 0
4285   19AD 1B           .db 27
4286   19AE 36           .db 54
4287   19AF 00           .db 0
4288   19B0 00           .db 0
4289   19B1 13           .db 19
4290   19B2 02           .db 2
4291   19B3 00           .db 0
4292   19B4             
4293   19B4             sprite_stepLeft:
4294   19B4 00           .db 0
4295   19B5 38           .db 56
4296   19B6 00           .db 0
4297   19B7 00           .db 0
4298   19B8 04           .db 4
4299   19B9 07           .db 7
4300   19BA 05           .db 5
4301   19BB 00           .db 0
4302   19BC 00           .db 0
4303   19BD 38           .db 56
4304   19BE 18           .db 24
4305   19BF 08           .db 8
4306   19C0 00           .db 0
4307   19C1 06           .db 6
4308   19C2 01           .db 1
4309   19C3 00           .db 0
4310   19C4             
4311   19C4             sprite_stepRight:
4312   19C4 00           .db 0
4313   19C5 20           .db 32
4314   19C6 18           .db 24
4315   19C7 00           .db 0
4316   19C8 04           .db 4
4317   19C9 06           .db 6
4318   19CA 07           .db 7
4319   19CB 00           .db 0
4320   19CC 00           .db 0
4321   19CD 28           .db 40
4322   19CE 38           .db 56
4323   19CF 08           .db 8
4324   19D0 00           .db 0
4325   19D1 00           .db 0
4326   19D2 07           .db 7
4327   19D3 00           .db 0
4328   19D4             
4329   19D4             cursorSprite:
4330   19D4 1B           .db 27
4331   19D5 28           .db 40
4332   19D6 10           .db 16
4333   19D7 2E           .db 46
4334   19D8 14           .db 20
4335   19D9 2A           .db 42
4336   19DA 15           .db 21
4337   19DB 0A           .db 10
4338   19DC 14           .db 20
4339   19DD 2A           .db 42
4340   19DE 15           .db 21
4341   19DF 0A           .db 10
4342   19E0 1D           .db 29
4343   19E1 02           .db 2
4344   19E2 05           .db 5
4345   19E3 36           .db 54
4346   19E4             
4347   19E4             gameScreen:
4348   19E4 80           .db 128
4349   19E5 3F           .db 63
4350   19E6 80           .db 128
4351   19E7 1F           .db 31
4352   19E8 80           .db 128
4353   19E9 07           .db 7
4354   19EA 07           .db 7
4355   19EB 07           .db 7
4356   19EC 07           .db 7
4357   19ED 07           .db 7
4358   19EE 07           .db 7
4359   19EF 07           .db 7
4360   19F0 07           .db 7
4361   19F1 07           .db 7
4362   19F2 07           .db 7
4363   19F3 80           .db 128
4364   19F4 3F           .db 63
4365   19F5 80           .db 128
4366   19F6 3F           .db 63
4367   19F7 80           .db 128
4368   19F8 3F           .db 63
4369   19F9 80           .db 128
4370   19FA 3F           .db 63
4371   19FB 80           .db 128
4372   19FC 3F           .db 63
4373   19FD 80           .db 128
4374   19FE 3F           .db 63
4375   19FF 80           .db 128
4376   1A00 3F           .db 63
4377   1A01 80           .db 128
4378   1A02 3F           .db 63
4379   1A03 80           .db 128
4380   1A04 3F           .db 63
4381   1A05 80           .db 128
4382   1A06 3F           .db 63
4383   1A07 80           .db 128
4384   1A08 3F           .db 63
4385   1A09 80           .db 128
4386   1A0A 3F           .db 63
4387   1A0B 80           .db 128
4388   1A0C 3F           .db 63
4389   1A0D 3F           .db 63
4390   1A0E 07           .db 7
4391   1A0F 07           .db 7
4392   1A10 07           .db 7
4393   1A11 07           .db 7
4394   1A12 07           .db 7
4395   1A13 07           .db 7
4396   1A14 07           .db 7
4397   1A15 07           .db 7
4398   1A16 07           .db 7
4399   1A17 07           .db 7
4400   1A18 07           .db 7
4401   1A19 07           .db 7
4402   1A1A 3F           .db 63
4403   1A1B 3F           .db 63
4404   1A1C 3F           .db 63
4405   1A1D 3F           .db 63
4406   1A1E 3F           .db 63
4407   1A1F 3F           .db 63
4408   1A20 3F           .db 63
4409   1A21 3F           .db 63
4410   1A22 3F           .db 63
4411   1A23 3F           .db 63
4412   1A24 3F           .db 63
4413   1A25 3F           .db 63
4414   1A26 3F           .db 63
4415   1A27 1F           .db 31
4416   1A28 07           .db 7
4417   1A29 07           .db 7
4418   1A2A 07           .db 7
4419   1A2B 07           .db 7
4420   1A2C 07           .db 7
4421   1A2D 07           .db 7
4422   1A2E 07           .db 7
4423   1A2F 07           .db 7
4424   1A30 07           .db 7
4425   1A31 07           .db 7
4426   1A32 3F           .db 63
4427   1A33 3F           .db 63
4428   1A34 80           .db 128
4429   1A35 3F           .db 63
4430   1A36 80           .db 128
4431   1A37 1B           .db 27
4432   1A38 85           .db 133
4433   1A39 00           .db 0
4434   1A3A 00           .db 0
4435   1A3B 00           .db 0
4436   1A3C 00           .db 0
4437   1A3D 00           .db 0
4438   1A3E 00           .db 0
4439   1A3F 00           .db 0
4440   1A40 00           .db 0
4441   1A41 00           .db 0
4442   1A42 00           .db 0
4443   1A43 80           .db 128
4444   1A44 3F           .db 63
4445   1A45 80           .db 128
4446   1A46 3F           .db 63
4447   1A47 80           .db 128
4448   1A48 3F           .db 63
4449   1A49 80           .db 128
4450   1A4A 36           .db 54
4451   1A4B 80           .db 128
4452   1A4C 2D           .db 45
4453   1A4D 80           .db 128
4454   1A4E 31           .db 49
4455   1A4F 80           .db 128
4456   1A50 2E           .db 46
4457   1A51 30           .db 48
4458   1A52 2E           .db 46
4459   1A53 36           .db 54
4460   1A54 3F           .db 63
4461   1A55 12           .db 18
4462   1A56 38           .db 56
4463   1A57 3E           .db 62
4464   1A58 8D           .db 141
4465   1A59 20           .db 32
4466   1A5A 3E           .db 62
4467   1A5B 3B           .db 59
4468   1A5C 08           .db 8
4469   1A5D 8D           .db 141
4470   1A5E 20           .db 32
4471   1A5F 3E           .db 62
4472   1A60 3B           .db 59
4473   1A61 08           .db 8
4474   1A62 8D           .db 141
4475   1A63 20           .db 32
4476   1A64 3E           .db 62
4477   1A65 3B           .db 59
4478   1A66 08           .db 8
4479   1A67 80           .db 128
4480   1A68 1B           .db 27
4481   1A69 3F           .db 63
4482   1A6A 36           .db 54
4483   1A6B 30           .db 48
4484   1A6C 2E           .db 46
4485   1A6D 30           .db 48
4486   1A6E 3C           .db 60
4487   1A6F 18           .db 24
4488   1A70 3C           .db 60
4489   1A71 31           .db 49
4490   1A72 2E           .db 46
4491   1A73 3F           .db 63
4492   1A74 3F           .db 63
4493   1A75 1B           .db 27
4494   1A76 85           .db 133
4495   1A77 00           .db 0
4496   1A78 00           .db 0
4497   1A79 00           .db 0
4498   1A7A 00           .db 0
4499   1A7B 00           .db 0
4500   1A7C 00           .db 0
4501   1A7D 00           .db 0
4502   1A7E 00           .db 0
4503   1A7F 00           .db 0
4504   1A80 00           .db 0
4505   1A81 80           .db 128
4506   1A82 3F           .db 63
4507   1A83 3F           .db 63
4508   1A84 80           .db 128
4509   1A85 3F           .db 63
4510   1A86 80           .db 128
4511   1A87 1B           .db 27
4512   1A88 85           .db 133
4513   1A89 00           .db 0
4514   1A8A 00           .db 0
4515   1A8B 00           .db 0
4516   1A8C 00           .db 0
4517   1A8D 00           .db 0
4518   1A8E 00           .db 0
4519   1A8F 00           .db 0
4520   1A90 00           .db 0
4521   1A91 00           .db 0
4522   1A92 00           .db 0
4523   1A93 80           .db 128
4524   1A94 3F           .db 63
4525   1A95 80           .db 128
4526   1A96 3F           .db 63
4527   1A97 80           .db 128
4528   1A98 3F           .db 63
4529   1A99 80           .db 128
4530   1A9A 30           .db 48
4531   1A9B 80           .db 128
4532   1A9C 2C           .db 44
4533   1A9D 80           .db 128
4534   1A9E 36           .db 54
4535   1A9F 80           .db 128
4536   1AA0 2D           .db 45
4537   1AA1 30           .db 48
4538   1AA2 2E           .db 46
4539   1AA3 30           .db 48
4540   1AA4 2E           .db 46
4541   1AA5 12           .db 18
4542   1AA6 38           .db 56
4543   1AA7 3F           .db 63
4544   1AA8 8D           .db 141
4545   1AA9 36           .db 54
4546   1AAA 3F           .db 63
4547   1AAB 0B           .db 11
4548   1AAC 1B           .db 27
4549   1AAD 8D           .db 141
4550   1AAE 36           .db 54
4551   1AAF 3F           .db 63
4552   1AB0 0B           .db 11
4553   1AB1 1B           .db 27
4554   1AB2 8D           .db 141
4555   1AB3 36           .db 54
4556   1AB4 3F           .db 63
4557   1AB5 0B           .db 11
4558   1AB6 1B           .db 27
4559   1AB7 80           .db 128
4560   1AB8 1B           .db 27
4561   1AB9 3F           .db 63
4562   1ABA 36           .db 54
4563   1ABB 30           .db 48
4564   1ABC 2E           .db 46
4565   1ABD 30           .db 48
4566   1ABE 3E           .db 62
4567   1ABF 1B           .db 27
4568   1AC0 3F           .db 63
4569   1AC1 06           .db 6
4570   1AC2 25           .db 37
4571   1AC3 3F           .db 63
4572   1AC4 3F           .db 63
4573   1AC5 1B           .db 27
4574   1AC6 85           .db 133
4575   1AC7 00           .db 0
4576   1AC8 00           .db 0
4577   1AC9 00           .db 0
4578   1ACA 00           .db 0
4579   1ACB 00           .db 0
4580   1ACC 00           .db 0
4581   1ACD 00           .db 0
4582   1ACE 00           .db 0
4583   1ACF 00           .db 0
4584   1AD0 00           .db 0
4585   1AD1 80           .db 128
4586   1AD2 3F           .db 63
4587   1AD3 3F           .db 63
4588   1AD4 80           .db 128
4589   1AD5 3F           .db 63
4590   1AD6 80           .db 128
4591   1AD7 1B           .db 27
4592   1AD8 85           .db 133
4593   1AD9 00           .db 0
4594   1ADA 00           .db 0
4595   1ADB 00           .db 0
4596   1ADC 00           .db 0
4597   1ADD 00           .db 0
4598   1ADE 00           .db 0
4599   1ADF 00           .db 0
4600   1AE0 00           .db 0
4601   1AE1 00           .db 0
4602   1AE2 00           .db 0
4603   1AE3 80           .db 128
4604   1AE4 3F           .db 63
4605   1AE5 80           .db 128
4606   1AE6 3F           .db 63
4607   1AE7 80           .db 128
4608   1AE8 3F           .db 63
4609   1AE9 80           .db 128
4610   1AEA 36           .db 54
4611   1AEB 80           .db 128
4612   1AEC 2D           .db 45
4613   1AED 80           .db 128
4614   1AEE 0E           .db 14
4615   1AEF 80           .db 128
4616   1AF0 35           .db 53
4617   1AF1 06           .db 6
4618   1AF2 35           .db 53
4619   1AF3 06           .db 6
4620   1AF4 35           .db 53
4621   1AF5 12           .db 18
4622   1AF6 07           .db 7
4623   1AF7 37           .db 55
4624   1AF8 8D           .db 141
4625   1AF9 04           .db 4
4626   1AFA 31           .db 49
4627   1AFB 1C           .db 28
4628   1AFC 01           .db 1
4629   1AFD 8D           .db 141
4630   1AFE 04           .db 4
4631   1AFF 31           .db 49
4632   1B00 1C           .db 28
4633   1B01 01           .db 1
4634   1B02 8D           .db 141
4635   1B03 04           .db 4
4636   1B04 31           .db 49
4637   1B05 1C           .db 28
4638   1B06 01           .db 1
4639   1B07 80           .db 128
4640   1B08 1B           .db 27
4641   1B09 07           .db 7
4642   1B0A 26           .db 38
4643   1B0B 06           .db 6
4644   1B0C 35           .db 53
4645   1B0D 06           .db 6
4646   1B0E 27           .db 39
4647   1B0F 1B           .db 27
4648   1B10 3F           .db 63
4649   1B11 36           .db 54
4650   1B12 2D           .db 45
4651   1B13 3F           .db 63
4652   1B14 3F           .db 63
4653   1B15 1B           .db 27
4654   1B16 85           .db 133
4655   1B17 00           .db 0
4656   1B18 00           .db 0
4657   1B19 00           .db 0
4658   1B1A 00           .db 0
4659   1B1B 00           .db 0
4660   1B1C 00           .db 0
4661   1B1D 00           .db 0
4662   1B1E 00           .db 0
4663   1B1F 00           .db 0
4664   1B20 00           .db 0
4665   1B21 80           .db 128
4666   1B22 3F           .db 63
4667   1B23 3F           .db 63
4668   1B24 80           .db 128
4669   1B25 3F           .db 63
4670   1B26 80           .db 128
4671   1B27 3B           .db 59
4672   1B28 80           .db 128
4673   1B29 38           .db 56
4674   1B2A 38           .db 56
4675   1B2B 38           .db 56
4676   1B2C 38           .db 56
4677   1B2D 38           .db 56
4678   1B2E 38           .db 56
4679   1B2F 38           .db 56
4680   1B30 38           .db 56
4681   1B31 38           .db 56
4682   1B32 38           .db 56
4683   1B33 80           .db 128
4684   1B34 3F           .db 63
4685   1B35 80           .db 128
4686   1B36 3F           .db 63
4687   1B37 80           .db 128
4688   1B38 3F           .db 63
4689   1B39 80           .db 128
4690   1B3A 3F           .db 63
4691   1B3B 80           .db 128
4692   1B3C 3F           .db 63
4693   1B3D 80           .db 128
4694   1B3E 3F           .db 63
4695   1B3F 80           .db 128
4696   1B40 3F           .db 63
4697   1B41 80           .db 128
4698   1B42 3F           .db 63
4699   1B43 80           .db 128
4700   1B44 3F           .db 63
4701   1B45 80           .db 128
4702   1B46 3F           .db 63
4703   1B47 80           .db 128
4704   1B48 3F           .db 63
4705   1B49 80           .db 128
4706   1B4A 3F           .db 63
4707   1B4B 80           .db 128
4708   1B4C 3F           .db 63
4709   1B4D 3F           .db 63
4710   1B4E 38           .db 56
4711   1B4F 38           .db 56
4712   1B50 38           .db 56
4713   1B51 38           .db 56
4714   1B52 38           .db 56
4715   1B53 38           .db 56
4716   1B54 38           .db 56
4717   1B55 38           .db 56
4718   1B56 38           .db 56
4719   1B57 38           .db 56
4720   1B58 38           .db 56
4721   1B59 38           .db 56
4722   1B5A 3F           .db 63
4723   1B5B 3F           .db 63
4724   1B5C 3D           .db 61
4725   1B5D 3F           .db 63
4726   1B5E 3F           .db 63
4727   1B5F 3F           .db 63
4728   1B60 3F           .db 63
4729   1B61 3F           .db 63
4730   1B62 3F           .db 63
4731   1B63 3F           .db 63
4732   1B64 3F           .db 63
4733   1B65 3F           .db 63
4734   1B66 3F           .db 63
4735   1B67 3B           .db 59
4736   1B68 38           .db 56
4737   1B69 38           .db 56
4738   1B6A 38           .db 56
4739   1B6B 38           .db 56
4740   1B6C 38           .db 56
4741   1B6D 38           .db 56
4742   1B6E 38           .db 56
4743   1B6F 38           .db 56
4744   1B70 38           .db 56
4745   1B71 38           .db 56
4746   1B72 3F           .db 63
4747   1B73 3F           .db 63
4748   1B74 80           .db 128
4749   1B75 00           .db 0
4750   1B76 80           .db 128
4751   1B77 00           .db 0
4752   1B78 80           .db 128
4753   1B79 00           .db 0
4754   1B7A 00           .db 0
4755   1B7B 00           .db 0
4756   1B7C 00           .db 0
4757   1B7D 00           .db 0
4758   1B7E 00           .db 0
4759   1B7F 00           .db 0
4760   1B80 00           .db 0
4761   1B81 00           .db 0
4762   1B82 00           .db 0
4763   1B83 80           .db 128
4764   1B84 00           .db 0
4765   1B85 80           .db 128
4766   1B86 00           .db 0
4767   1B87 80           .db 128
4768   1B88 00           .db 0
4769   1B89 80           .db 128
4770   1B8A 00           .db 0
4771   1B8B 80           .db 128
4772   1B8C 00           .db 0
4773   1B8D 80           .db 128
4774   1B8E 00           .db 0
4775   1B8F 80           .db 128
4776   1B90 00           .db 0
4777   1B91 80           .db 128
4778   1B92 00           .db 0
4779   1B93 80           .db 128
4780   1B94 00           .db 0
4781   1B95 80           .db 128
4782   1B96 00           .db 0
4783   1B97 80           .db 128
4784   1B98 00           .db 0
4785   1B99 80           .db 128
4786   1B9A 00           .db 0
4787   1B9B 80           .db 128
4788   1B9C 00           .db 0
4789   1B9D 00           .db 0
4790   1B9E 00           .db 0
4791   1B9F 00           .db 0
4792   1BA0 00           .db 0
4793   1BA1 00           .db 0
4794   1BA2 00           .db 0
4795   1BA3 00           .db 0
4796   1BA4 00           .db 0
4797   1BA5 00           .db 0
4798   1BA6 00           .db 0
4799   1BA7 00           .db 0
4800   1BA8 00           .db 0
4801   1BA9 00           .db 0
4802   1BAA 00           .db 0
4803   1BAB 00           .db 0
4804   1BAC 00           .db 0
4805   1BAD 00           .db 0
4806   1BAE 00           .db 0
4807   1BAF 00           .db 0
4808   1BB0 00           .db 0
4809   1BB1 00           .db 0
4810   1BB2 00           .db 0
4811   1BB3 00           .db 0
4812   1BB4 00           .db 0
4813   1BB5 00           .db 0
4814   1BB6 00           .db 0
4815   1BB7 00           .db 0
4816   1BB8 00           .db 0
4817   1BB9 00           .db 0
4818   1BBA 00           .db 0
4819   1BBB 00           .db 0
4820   1BBC 00           .db 0
4821   1BBD 00           .db 0
4822   1BBE 00           .db 0
4823   1BBF 00           .db 0
4824   1BC0 00           .db 0
4825   1BC1 00           .db 0
4826   1BC2 00           .db 0
4827   1BC3 00           .db 0
4828   1BC4 80           .db 128
4829   1BC5 00           .db 0
4830   1BC6 80           .db 128
4831   1BC7 00           .db 0
4832   1BC8 80           .db 128
4833   1BC9 00           .db 0
4834   1BCA 00           .db 0
4835   1BCB 00           .db 0
4836   1BCC 00           .db 0
4837   1BCD 00           .db 0
4838   1BCE 00           .db 0
4839   1BCF 00           .db 0
4840   1BD0 00           .db 0
4841   1BD1 00           .db 0
4842   1BD2 84           .db 132
4843   1BD3 20           .db 32
4844   1BD4 08           .db 8
4845   1BD5 00           .db 0
4846   1BD6 85           .db 133
4847   1BD7 00           .db 0
4848   1BD8 00           .db 0
4849   1BD9 00           .db 0
4850   1BDA 00           .db 0
4851   1BDB 88           .db 136
4852   1BDC 00           .db 0
4853   1BDD 00           .db 0
4854   1BDE 00           .db 0
4855   1BDF 00           .db 0
4856   1BE0 85           .db 133
4857   1BE1 00           .db 0
4858   1BE2 00           .db 0
4859   1BE3 00           .db 0
4860   1BE4 00           .db 0
4861   1BE5 88           .db 136
4862   1BE6 00           .db 0
4863   1BE7 00           .db 0
4864   1BE8 00           .db 0
4865   1BE9 00           .db 0
4866   1BEA 85           .db 133
4867   1BEB 00           .db 0
4868   1BEC 00           .db 0
4869   1BED 00           .db 0
4870   1BEE 00           .db 0
4871   1BEF 88           .db 136
4872   1BF0 00           .db 0
4873   1BF1 00           .db 0
4874   1BF2 00           .db 0
4875   1BF3 00           .db 0
4876   1BF4 85           .db 133
4877   1BF5 00           .db 0
4878   1BF6 00           .db 0
4879   1BF7 00           .db 0
4880   1BF8 00           .db 0
4881   1BF9 88           .db 136
4882   1BFA 00           .db 0
4883   1BFB 00           .db 0
4884   1BFC 00           .db 0
4885   1BFD 00           .db 0
4886   1BFE 85           .db 133
4887   1BFF 00           .db 0
4888   1C00 00           .db 0
4889   1C01 00           .db 0
4890   1C02 00           .db 0
4891   1C03 85           .db 133
4892   1C04 00           .db 0
4893   1C05 85           .db 133
4894   1C06 00           .db 0
4895   1C07 85           .db 133
4896   1C08 00           .db 0
4897   1C09 00           .db 0
4898   1C0A 00           .db 0
4899   1C0B 00           .db 0
4900   1C0C 00           .db 0
4901   1C0D 00           .db 0
4902   1C0E 00           .db 0
4903   1C0F 00           .db 0
4904   1C10 00           .db 0
4905   1C11 00           .db 0
4906   1C12 00           .db 0
4907   1C13 00           .db 0
4908   1C14 80           .db 128
4909   1C15 00           .db 0
4910   1C16 80           .db 128
4911   1C17 00           .db 0
4912   1C18 00           .db 0
4913   1C19 00           .db 0
4914   1C1A 00           .db 0
4915   1C1B 8C           .db 140
4916   1C1C 34           .db 52
4917   1C1D 08           .db 8
4918   1C1E 00           .db 0
4919   1C1F 00           .db 0
4920   1C20 00           .db 0
4921   1C21 00           .db 0
4922   1C22 84           .db 132
4923   1C23 26           .db 38
4924   1C24 0B           .db 11
4925   1C25 00           .db 0
4926   1C26 85           .db 133
4927   1C27 00           .db 0
4928   1C28 00           .db 0
4929   1C29 00           .db 0
4930   1C2A 00           .db 0
4931   1C2B 88           .db 136
4932   1C2C 00           .db 0
4933   1C2D 00           .db 0
4934   1C2E 00           .db 0
4935   1C2F 00           .db 0
4936   1C30 85           .db 133
4937   1C31 00           .db 0
4938   1C32 00           .db 0
4939   1C33 00           .db 0
4940   1C34 00           .db 0
4941   1C35 88           .db 136
4942   1C36 00           .db 0
4943   1C37 00           .db 0
4944   1C38 00           .db 0
4945   1C39 00           .db 0
4946   1C3A 85           .db 133
4947   1C3B 00           .db 0
4948   1C3C 00           .db 0
4949   1C3D 00           .db 0
4950   1C3E 00           .db 0
4951   1C3F 88           .db 136
4952   1C40 00           .db 0
4953   1C41 00           .db 0
4954   1C42 00           .db 0
4955   1C43 00           .db 0
4956   1C44 85           .db 133
4957   1C45 00           .db 0
4958   1C46 00           .db 0
4959   1C47 00           .db 0
4960   1C48 00           .db 0
4961   1C49 88           .db 136
4962   1C4A 00           .db 0
4963   1C4B 00           .db 0
4964   1C4C 00           .db 0
4965   1C4D 00           .db 0
4966   1C4E 85           .db 133
4967   1C4F 00           .db 0
4968   1C50 00           .db 0
4969   1C51 00           .db 0
4970   1C52 00           .db 0
4971   1C53 85           .db 133
4972   1C54 00           .db 0
4973   1C55 85           .db 133
4974   1C56 00           .db 0
4975   1C57 85           .db 133
4976   1C58 00           .db 0
4977   1C59 00           .db 0
4978   1C5A 00           .db 0
4979   1C5B 00           .db 0
4980   1C5C 00           .db 0
4981   1C5D 00           .db 0
4982   1C5E 00           .db 0
4983   1C5F 00           .db 0
4984   1C60 00           .db 0
4985   1C61 00           .db 0
4986   1C62 00           .db 0
4987   1C63 00           .db 0
4988   1C64 80           .db 128
4989   1C65 00           .db 0
4990   1C66 80           .db 128
4991   1C67 00           .db 0
4992   1C68 00           .db 0
4993   1C69 00           .db 0
4994   1C6A 00           .db 0
4995   1C6B 8C           .db 140
4996   1C6C 04           .db 4
4997   1C6D 00           .db 0
4998   1C6E 00           .db 0
4999   1C6F 00           .db 0
5000   1C70 00           .db 0
5001   1C71 84           .db 132
5002   1C72 34           .db 52
5003   1C73 3C           .db 60
5004   1C74 39           .db 57
5005   1C75 19           .db 25
5006   1C76 85           .db 133
5007   1C77 00           .db 0
5008   1C78 00           .db 0
5009   1C79 00           .db 0
5010   1C7A 00           .db 0
5011   1C7B 88           .db 136
5012   1C7C 00           .db 0
5013   1C7D 00           .db 0
5014   1C7E 00           .db 0
5015   1C7F 00           .db 0
5016   1C80 85           .db 133
5017   1C81 00           .db 0
5018   1C82 00           .db 0
5019   1C83 00           .db 0
5020   1C84 00           .db 0
5021   1C85 88           .db 136
5022   1C86 00           .db 0
5023   1C87 00           .db 0
5024   1C88 00           .db 0
5025   1C89 00           .db 0
5026   1C8A 85           .db 133
5027   1C8B 00           .db 0
5028   1C8C 00           .db 0
5029   1C8D 00           .db 0
5030   1C8E 00           .db 0
5031   1C8F 88           .db 136
5032   1C90 00           .db 0
5033   1C91 00           .db 0
5034   1C92 00           .db 0
5035   1C93 00           .db 0
5036   1C94 85           .db 133
5037   1C95 00           .db 0
5038   1C96 00           .db 0
5039   1C97 00           .db 0
5040   1C98 00           .db 0
5041   1C99 88           .db 136
5042   1C9A 00           .db 0
5043   1C9B 00           .db 0
5044   1C9C 00           .db 0
5045   1C9D 00           .db 0
5046   1C9E 85           .db 133
5047   1C9F 00           .db 0
5048   1CA0 00           .db 0
5049   1CA1 00           .db 0
5050   1CA2 00           .db 0
5051   1CA3 85           .db 133
5052   1CA4 00           .db 0
5053   1CA5 85           .db 133
5054   1CA6 00           .db 0
5055   1CA7 85           .db 133
5056   1CA8 00           .db 0
5057   1CA9 00           .db 0
5058   1CAA 00           .db 0
5059   1CAB 00           .db 0
5060   1CAC 00           .db 0
5061   1CAD 00           .db 0
5062   1CAE 00           .db 0
5063   1CAF 00           .db 0
5064   1CB0 00           .db 0
5065   1CB1 00           .db 0
5066   1CB2 00           .db 0
5067   1CB3 00           .db 0
5068   1CB4 80           .db 128
5069   1CB5 00           .db 0
5070   1CB6 80           .db 128
5071   1CB7 00           .db 0
5072   1CB8 80           .db 128
5073   1CB9 00           .db 0
5074   1CBA 84           .db 132
5075   1CBB 20           .db 32
5076   1CBC 3F           .db 63
5077   1CBD 28           .db 40
5078   1CBE 34           .db 52
5079   1CBF 3B           .db 59
5080   1CC0 00           .db 0
5081   1CC1 00           .db 0
5082   1CC2 04           .db 4
5083   1CC3 24           .db 36
5084   1CC4 09           .db 9
5085   1CC5 01           .db 1
5086   1CC6 85           .db 133
5087   1CC7 00           .db 0
5088   1CC8 00           .db 0
5089   1CC9 00           .db 0
5090   1CCA 00           .db 0
5091   1CCB 88           .db 136
5092   1CCC 00           .db 0
5093   1CCD 00           .db 0
5094   1CCE 00           .db 0
5095   1CCF 00           .db 0
5096   1CD0 85           .db 133
5097   1CD1 00           .db 0
5098   1CD2 00           .db 0
5099   1CD3 00           .db 0
5100   1CD4 00           .db 0
5101   1CD5 88           .db 136
5102   1CD6 00           .db 0
5103   1CD7 00           .db 0
5104   1CD8 00           .db 0
5105   1CD9 00           .db 0
5106   1CDA 85           .db 133
5107   1CDB 00           .db 0
5108   1CDC 00           .db 0
5109   1CDD 00           .db 0
5110   1CDE 00           .db 0
5111   1CDF 88           .db 136
5112   1CE0 00           .db 0
5113   1CE1 00           .db 0
5114   1CE2 00           .db 0
5115   1CE3 00           .db 0
5116   1CE4 85           .db 133
5117   1CE5 00           .db 0
5118   1CE6 00           .db 0
5119   1CE7 00           .db 0
5120   1CE8 00           .db 0
5121   1CE9 88           .db 136
5122   1CEA 00           .db 0
5123   1CEB 00           .db 0
5124   1CEC 00           .db 0
5125   1CED 00           .db 0
5126   1CEE 85           .db 133
5127   1CEF 00           .db 0
5128   1CF0 00           .db 0
5129   1CF1 00           .db 0
5130   1CF2 00           .db 0
5131   1CF3 85           .db 133
5132   1CF4 00           .db 0
5133   1CF5 85           .db 133
5134   1CF6 00           .db 0
5135   1CF7 85           .db 133
5136   1CF8 00           .db 0
5137   1CF9 00           .db 0
5138   1CFA 00           .db 0
5139   1CFB 00           .db 0
5140   1CFC 00           .db 0
5141   1CFD 00           .db 0
5142   1CFE 00           .db 0
5143   1CFF 00           .db 0
5144   1D00 00           .db 0
5145   1D01 00           .db 0
5146   1D02 00           .db 0
5147   1D03 00           .db 0
5148   1D04 80           .db 128
5149   1D05 00           .db 0
5150   1D06 80           .db 128
5151   1D07 00           .db 0
5152   1D08 80           .db 128
5153   1D09 00           .db 0
5154   1D0A 84           .db 132
5155   1D0B 36           .db 54
5156   1D0C 2F           .db 47
5157   1D0D 2D           .db 45
5158   1D0E 36           .db 54
5159   1D0F 37           .db 55
5160   1D10 09           .db 9
5161   1D11 00           .db 0
5162   1D12 00           .db 0
5163   1D13 3E           .db 62
5164   1D14 3B           .db 59
5165   1D15 00           .db 0
5166   1D16 85           .db 133
5167   1D17 00           .db 0
5168   1D18 00           .db 0
5169   1D19 00           .db 0
5170   1D1A 00           .db 0
5171   1D1B 88           .db 136
5172   1D1C 00           .db 0
5173   1D1D 00           .db 0
5174   1D1E 00           .db 0
5175   1D1F 00           .db 0
5176   1D20 85           .db 133
5177   1D21 00           .db 0
5178   1D22 00           .db 0
5179   1D23 00           .db 0
5180   1D24 00           .db 0
5181   1D25 88           .db 136
5182   1D26 00           .db 0
5183   1D27 00           .db 0
5184   1D28 00           .db 0
5185   1D29 00           .db 0
5186   1D2A 85           .db 133
5187   1D2B 00           .db 0
5188   1D2C 00           .db 0
5189   1D2D 00           .db 0
5190   1D2E 00           .db 0
5191   1D2F 88           .db 136
5192   1D30 00           .db 0
5193   1D31 00           .db 0
5194   1D32 00           .db 0
5195   1D33 00           .db 0
5196   1D34 85           .db 133
5197   1D35 00           .db 0
5198   1D36 00           .db 0
5199   1D37 00           .db 0
5200   1D38 00           .db 0
5201   1D39 88           .db 136
5202   1D3A 00           .db 0
5203   1D3B 00           .db 0
5204   1D3C 00           .db 0
5205   1D3D 00           .db 0
5206   1D3E 85           .db 133
5207   1D3F 00           .db 0
5208   1D40 00           .db 0
5209   1D41 00           .db 0
5210   1D42 00           .db 0
5211   1D43 85           .db 133
5212   1D44 00           .db 0
5213   1D45 85           .db 133
5214   1D46 00           .db 0
5215   1D47 85           .db 133
5216   1D48 00           .db 0
5217   1D49 00           .db 0
5218   1D4A 00           .db 0
5219   1D4B 00           .db 0
5220   1D4C 00           .db 0
5221   1D4D 00           .db 0
5222   1D4E 00           .db 0
5223   1D4F 00           .db 0
5224   1D50 00           .db 0
5225   1D51 00           .db 0
5226   1D52 00           .db 0
5227   1D53 00           .db 0
5228   1D54 80           .db 128
5229   1D55 00           .db 0
5230   1D56 80           .db 128
5231   1D57 00           .db 0
5232   1D58 80           .db 128
5233   1D59 00           .db 0
5234   1D5A 84           .db 132
5235   1D5B 24           .db 36
5236   1D5C 28           .db 40
5237   1D5D 2D           .db 45
5238   1D5E 32           .db 50
5239   1D5F 34           .db 52
5240   1D60 00           .db 0
5241   1D61 00           .db 0
5242   1D62 00           .db 0
5243   1D63 3F           .db 63
5244   1D64 3F           .db 63
5245   1D65 00           .db 0
5246   1D66 85           .db 133
5247   1D67 00           .db 0
5248   1D68 00           .db 0
5249   1D69 00           .db 0
5250   1D6A 00           .db 0
5251   1D6B 88           .db 136
5252   1D6C 00           .db 0
5253   1D6D 00           .db 0
5254   1D6E 00           .db 0
5255   1D6F 00           .db 0
5256   1D70 85           .db 133
5257   1D71 00           .db 0
5258   1D72 00           .db 0
5259   1D73 00           .db 0
5260   1D74 00           .db 0
5261   1D75 88           .db 136
5262   1D76 00           .db 0
5263   1D77 00           .db 0
5264   1D78 00           .db 0
5265   1D79 00           .db 0
5266   1D7A 85           .db 133
5267   1D7B 00           .db 0
5268   1D7C 00           .db 0
5269   1D7D 00           .db 0
5270   1D7E 00           .db 0
5271   1D7F 88           .db 136
5272   1D80 00           .db 0
5273   1D81 00           .db 0
5274   1D82 00           .db 0
5275   1D83 00           .db 0
5276   1D84 85           .db 133
5277   1D85 00           .db 0
5278   1D86 00           .db 0
5279   1D87 00           .db 0
5280   1D88 00           .db 0
5281   1D89 88           .db 136
5282   1D8A 00           .db 0
5283   1D8B 00           .db 0
5284   1D8C 00           .db 0
5285   1D8D 00           .db 0
5286   1D8E 85           .db 133
5287   1D8F 00           .db 0
5288   1D90 00           .db 0
5289   1D91 00           .db 0
5290   1D92 00           .db 0
5291   1D93 85           .db 133
5292   1D94 00           .db 0
5293   1D95 85           .db 133
5294   1D96 00           .db 0
5295   1D97 85           .db 133
5296   1D98 00           .db 0
5297   1D99 00           .db 0
5298   1D9A 00           .db 0
5299   1D9B 00           .db 0
5300   1D9C 00           .db 0
5301   1D9D 00           .db 0
5302   1D9E 00           .db 0
5303   1D9F 00           .db 0
5304   1DA0 00           .db 0
5305   1DA1 00           .db 0
5306   1DA2 00           .db 0
5307   1DA3 00           .db 0
5308   1DA4 80           .db 128
5309   1DA5 00           .db 0
5310   1DA6 80           .db 128
5311   1DA7 00           .db 0
5312   1DA8 80           .db 128
5313   1DA9 00           .db 0
5314   1DAA 00           .db 0
5315   1DAB 84           .db 132
5316   1DAC 07           .db 7
5317   1DAD 05           .db 5
5318   1DAE 06           .db 6
5319   1DAF 03           .db 3
5320   1DB0 00           .db 0
5321   1DB1 00           .db 0
5322   1DB2 00           .db 0
5323   1DB3 26           .db 38
5324   1DB4 0B           .db 11
5325   1DB5 00           .db 0
5326   1DB6 85           .db 133
5327   1DB7 00           .db 0
5328   1DB8 00           .db 0
5329   1DB9 00           .db 0
5330   1DBA 00           .db 0
5331   1DBB 88           .db 136
5332   1DBC 00           .db 0
5333   1DBD 00           .db 0
5334   1DBE 00           .db 0
5335   1DBF 00           .db 0
5336   1DC0 85           .db 133
5337   1DC1 00           .db 0
5338   1DC2 00           .db 0
5339   1DC3 00           .db 0
5340   1DC4 00           .db 0
5341   1DC5 88           .db 136
5342   1DC6 00           .db 0
5343   1DC7 00           .db 0
5344   1DC8 00           .db 0
5345   1DC9 00           .db 0
5346   1DCA 85           .db 133
5347   1DCB 00           .db 0
5348   1DCC 00           .db 0
5349   1DCD 00           .db 0
5350   1DCE 00           .db 0
5351   1DCF 88           .db 136
5352   1DD0 00           .db 0
5353   1DD1 00           .db 0
5354   1DD2 00           .db 0
5355   1DD3 00           .db 0
5356   1DD4 85           .db 133
5357   1DD5 00           .db 0
5358   1DD6 00           .db 0
5359   1DD7 00           .db 0
5360   1DD8 00           .db 0
5361   1DD9 88           .db 136
5362   1DDA 00           .db 0
5363   1DDB 00           .db 0
5364   1DDC 00           .db 0
5365   1DDD 00           .db 0
5366   1DDE 85           .db 133
5367   1DDF 00           .db 0
5368   1DE0 00           .db 0
5369   1DE1 00           .db 0
5370   1DE2 00           .db 0
5371   1DE3 85           .db 133
5372   1DE4 00           .db 0
5373   1DE5 85           .db 133
5374   1DE6 00           .db 0
5375   1DE7 85           .db 133
5376   1DE8 00           .db 0
5377   1DE9 00           .db 0
5378   1DEA 00           .db 0
5379   1DEB 00           .db 0
5380   1DEC 00           .db 0
5381   1DED 00           .db 0
5382   1DEE 00           .db 0
5383   1DEF 00           .db 0
5384   1DF0 00           .db 0
5385   1DF1 00           .db 0
5386   1DF2 00           .db 0
5387   1DF3 00           .db 0
5388   1DF4 80           .db 128
5389   1DF5 00           .db 0
5390   1DF6 80           .db 128
5391   1DF7 00           .db 0
5392   1DF8 80           .db 128
5393   1DF9 00           .db 0
5394   1DFA 00           .db 0
5395   1DFB 84           .db 132
5396   1DFC 26           .db 38
5397   1DFD 3F           .db 63
5398   1DFE 3F           .db 63
5399   1DFF 0B           .db 11
5400   1E00 00           .db 0
5401   1E01 00           .db 0
5402   1E02 00           .db 0
5403   1E03 24           .db 36
5404   1E04 09           .db 9
5405   1E05 00           .db 0
5406   1E06 85           .db 133
5407   1E07 00           .db 0
5408   1E08 00           .db 0
5409   1E09 00           .db 0
5410   1E0A 00           .db 0
5411   1E0B 88           .db 136
5412   1E0C 00           .db 0
5413   1E0D 00           .db 0
5414   1E0E 00           .db 0
5415   1E0F 00           .db 0
5416   1E10 85           .db 133
5417   1E11 00           .db 0
5418   1E12 00           .db 0
5419   1E13 00           .db 0
5420   1E14 00           .db 0
5421   1E15 88           .db 136
5422   1E16 00           .db 0
5423   1E17 00           .db 0
5424   1E18 00           .db 0
5425   1E19 00           .db 0
5426   1E1A 85           .db 133
5427   1E1B 00           .db 0
5428   1E1C 00           .db 0
5429   1E1D 00           .db 0
5430   1E1E 00           .db 0
5431   1E1F 88           .db 136
5432   1E20 00           .db 0
5433   1E21 00           .db 0
5434   1E22 00           .db 0
5435   1E23 00           .db 0
5436   1E24 85           .db 133
5437   1E25 00           .db 0
5438   1E26 00           .db 0
5439   1E27 00           .db 0
5440   1E28 00           .db 0
5441   1E29 88           .db 136
5442   1E2A 00           .db 0
5443   1E2B 00           .db 0
5444   1E2C 00           .db 0
5445   1E2D 00           .db 0
5446   1E2E 85           .db 133
5447   1E2F 00           .db 0
5448   1E30 00           .db 0
5449   1E31 00           .db 0
5450   1E32 00           .db 0
5451   1E33 85           .db 133
5452   1E34 00           .db 0
5453   1E35 85           .db 133
5454   1E36 00           .db 0
5455   1E37 85           .db 133
5456   1E38 00           .db 0
5457   1E39 00           .db 0
5458   1E3A 00           .db 0
5459   1E3B 00           .db 0
5460   1E3C 00           .db 0
5461   1E3D 00           .db 0
5462   1E3E 00           .db 0
5463   1E3F 00           .db 0
5464   1E40 00           .db 0
5465   1E41 00           .db 0
5466   1E42 00           .db 0
5467   1E43 00           .db 0
5468   1E44 80           .db 128
5469   1E45 00           .db 0
5470   1E46 80           .db 128
5471   1E47 00           .db 0
5472   1E48 00           .db 0
5473   1E49 00           .db 0
5474   1E4A 8C           .db 140
5475   1E4B 1C           .db 28
5476   1E4C 27           .db 39
5477   1E4D 07           .db 7
5478   1E4E 39           .db 57
5479   1E4F 00           .db 0
5480   1E50 00           .db 0
5481   1E51 00           .db 0
5482   1E52 84           .db 132
5483   1E53 24           .db 36
5484   1E54 09           .db 9
5485   1E55 00           .db 0
5486   1E56 85           .db 133
5487   1E57 00           .db 0
5488   1E58 00           .db 0
5489   1E59 00           .db 0
5490   1E5A 00           .db 0
5491   1E5B 88           .db 136
5492   1E5C 00           .db 0
5493   1E5D 00           .db 0
5494   1E5E 00           .db 0
5495   1E5F 00           .db 0
5496   1E60 85           .db 133
5497   1E61 00           .db 0
5498   1E62 00           .db 0
5499   1E63 00           .db 0
5500   1E64 00           .db 0
5501   1E65 88           .db 136
5502   1E66 00           .db 0
5503   1E67 00           .db 0
5504   1E68 00           .db 0
5505   1E69 00           .db 0
5506   1E6A 85           .db 133
5507   1E6B 00           .db 0
5508   1E6C 00           .db 0
5509   1E6D 00           .db 0
5510   1E6E 00           .db 0
5511   1E6F 88           .db 136
5512   1E70 00           .db 0
5513   1E71 00           .db 0
5514   1E72 00           .db 0
5515   1E73 00           .db 0
5516   1E74 85           .db 133
5517   1E75 00           .db 0
5518   1E76 00           .db 0
5519   1E77 00           .db 0
5520   1E78 00           .db 0
5521   1E79 88           .db 136
5522   1E7A 00           .db 0
5523   1E7B 00           .db 0
5524   1E7C 00           .db 0
5525   1E7D 00           .db 0
5526   1E7E 85           .db 133
5527   1E7F 00           .db 0
5528   1E80 00           .db 0
5529   1E81 00           .db 0
5530   1E82 00           .db 0
5531   1E83 85           .db 133
5532   1E84 00           .db 0
5533   1E85 85           .db 133
5534   1E86 00           .db 0
5535   1E87 85           .db 133
5536   1E88 00           .db 0
5537   1E89 00           .db 0
5538   1E8A 00           .db 0
5539   1E8B 00           .db 0
5540   1E8C 00           .db 0
5541   1E8D 00           .db 0
5542   1E8E 00           .db 0
5543   1E8F 00           .db 0
5544   1E90 00           .db 0
5545   1E91 00           .db 0
5546   1E92 00           .db 0
5547   1E93 00           .db 0
5548   1E94 80           .db 128
5549   1E95 00           .db 0
5550   1E96 80           .db 128
5551   1E97 00           .db 0
5552   1E98 8C           .db 140
5553   1E99 20           .db 32
5554   1E9A 3E           .db 62
5555   1E9B 2D           .db 45
5556   1E9C 01           .db 1
5557   1E9D 26           .db 38
5558   1E9E 36           .db 54
5559   1E9F 3B           .db 59
5560   1EA0 08           .db 8
5561   1EA1 00           .db 0
5562   1EA2 84           .db 132
5563   1EA3 24           .db 36
5564   1EA4 09           .db 9
5565   1EA5 00           .db 0
5566   1EA6 85           .db 133
5567   1EA7 00           .db 0
5568   1EA8 00           .db 0
5569   1EA9 00           .db 0
5570   1EAA 00           .db 0
5571   1EAB 88           .db 136
5572   1EAC 00           .db 0
5573   1EAD 00           .db 0
5574   1EAE 00           .db 0
5575   1EAF 00           .db 0
5576   1EB0 85           .db 133
5577   1EB1 00           .db 0
5578   1EB2 00           .db 0
5579   1EB3 00           .db 0
5580   1EB4 00           .db 0
5581   1EB5 88           .db 136
5582   1EB6 00           .db 0
5583   1EB7 00           .db 0
5584   1EB8 00           .db 0
5585   1EB9 00           .db 0
5586   1EBA 85           .db 133
5587   1EBB 00           .db 0
5588   1EBC 00           .db 0
5589   1EBD 00           .db 0
5590   1EBE 00           .db 0
5591   1EBF 88           .db 136
5592   1EC0 00           .db 0
5593   1EC1 00           .db 0
5594   1EC2 00           .db 0
5595   1EC3 00           .db 0
5596   1EC4 85           .db 133
5597   1EC5 00           .db 0
5598   1EC6 00           .db 0
5599   1EC7 00           .db 0
5600   1EC8 00           .db 0
5601   1EC9 88           .db 136
5602   1ECA 00           .db 0
5603   1ECB 00           .db 0
5604   1ECC 00           .db 0
5605   1ECD 00           .db 0
5606   1ECE 85           .db 133
5607   1ECF 00           .db 0
5608   1ED0 00           .db 0
5609   1ED1 00           .db 0
5610   1ED2 00           .db 0
5611   1ED3 85           .db 133
5612   1ED4 00           .db 0
5613   1ED5 85           .db 133
5614   1ED6 00           .db 0
5615   1ED7 85           .db 133
5616   1ED8 00           .db 0
5617   1ED9 00           .db 0
5618   1EDA 00           .db 0
5619   1EDB 00           .db 0
5620   1EDC 00           .db 0
5621   1EDD 00           .db 0
5622   1EDE 00           .db 0
5623   1EDF 00           .db 0
5624   1EE0 00           .db 0
5625   1EE1 00           .db 0
5626   1EE2 00           .db 0
5627   1EE3 00           .db 0
5628   1EE4 80           .db 128
5629   1EE5 00           .db 0
5630   1EE6 80           .db 128
5631   1EE7 00           .db 0
5632   1EE8 8C           .db 140
5633   1EE9 3E           .db 62
5634   1EEA 3F           .db 63
5635   1EEB 39           .db 57
5636   1EEC 36           .db 54
5637   1EED 09           .db 9
5638   1EEE 3E           .db 62
5639   1EEF 3F           .db 63
5640   1EF0 3B           .db 59
5641   1EF1 00           .db 0
5642   1EF2 84           .db 132
5643   1EF3 24           .db 36
5644   1EF4 09           .db 9
5645   1EF5 00           .db 0
5646   1EF6 85           .db 133
5647   1EF7 00           .db 0
5648   1EF8 00           .db 0
5649   1EF9 00           .db 0
5650   1EFA 00           .db 0
5651   1EFB 88           .db 136
5652   1EFC 00           .db 0
5653   1EFD 00           .db 0
5654   1EFE 00           .db 0
5655   1EFF 00           .db 0
5656   1F00 85           .db 133
5657   1F01 00           .db 0
5658   1F02 00           .db 0
5659   1F03 00           .db 0
5660   1F04 00           .db 0
5661   1F05 88           .db 136
5662   1F06 00           .db 0
5663   1F07 00           .db 0
5664   1F08 00           .db 0
5665   1F09 00           .db 0
5666   1F0A 85           .db 133
5667   1F0B 00           .db 0
5668   1F0C 00           .db 0
5669   1F0D 00           .db 0
5670   1F0E 00           .db 0
5671   1F0F 88           .db 136
5672   1F10 00           .db 0
5673   1F11 00           .db 0
5674   1F12 00           .db 0
5675   1F13 00           .db 0
5676   1F14 85           .db 133
5677   1F15 00           .db 0
5678   1F16 00           .db 0
5679   1F17 00           .db 0
5680   1F18 00           .db 0
5681   1F19 88           .db 136
5682   1F1A 00           .db 0
5683   1F1B 00           .db 0
5684   1F1C 00           .db 0
5685   1F1D 00           .db 0
5686   1F1E 85           .db 133
5687   1F1F 00           .db 0
5688   1F20 00           .db 0
5689   1F21 00           .db 0
5690   1F22 00           .db 0
5691   1F23 85           .db 133
5692   1F24 00           .db 0
5693   1F25 85           .db 133
5694   1F26 00           .db 0
5695   1F27 00           .db 0
5696   1F28 00           .db 0
5697   1F29 00           .db 0
5698   1F2A 00           .db 0
5699   1F2B 00           .db 0
5700   1F2C 00           .db 0
5701   1F2D 80           .db 128
5702   1F2E 1E           .db 30
5703   1F2F 00           .db 0
5704   1F30 00           .db 0
5705   1F31 00           .db 0
5706   1F32 00           .db 0
5707   1F33 00           .db 0
5708   1F34 80           .db 128
5709   1F35 00           .db 0
5710   1F36 8C           .db 140
5711   1F37 24           .db 36
5712   1F38 8C           .db 140
5713   1F39 3F           .db 63
5714   1F3A 3F           .db 63
5715   1F3B 1B           .db 27
5716   1F3C 3D           .db 61
5717   1F3D 1B           .db 27
5718   1F3E 3F           .db 63
5719   1F3F 3F           .db 63
5720   1F40 3F           .db 63
5721   1F41 08           .db 8
5722   1F42 84           .db 132
5723   1F43 24           .db 36
5724   1F44 09           .db 9
5725   1F45 00           .db 0
5726   1F46 85           .db 133
5727   1F47 00           .db 0
5728   1F48 00           .db 0
5729   1F49 00           .db 0
5730   1F4A 00           .db 0
5731   1F4B 88           .db 136
5732   1F4C 00           .db 0
5733   1F4D 00           .db 0
5734   1F4E 00           .db 0
5735   1F4F 00           .db 0
5736   1F50 85           .db 133
5737   1F51 00           .db 0
5738   1F52 00           .db 0
5739   1F53 00           .db 0
5740   1F54 00           .db 0
5741   1F55 88           .db 136
5742   1F56 00           .db 0
5743   1F57 00           .db 0
5744   1F58 00           .db 0
5745   1F59 00           .db 0
5746   1F5A 85           .db 133
5747   1F5B 00           .db 0
5748   1F5C 00           .db 0
5749   1F5D 00           .db 0
5750   1F5E 00           .db 0
5751   1F5F 88           .db 136
5752   1F60 00           .db 0
5753   1F61 00           .db 0
5754   1F62 00           .db 0
5755   1F63 00           .db 0
5756   1F64 85           .db 133
5757   1F65 00           .db 0
5758   1F66 00           .db 0
5759   1F67 00           .db 0
5760   1F68 00           .db 0
5761   1F69 88           .db 136
5762   1F6A 00           .db 0
5763   1F6B 00           .db 0
5764   1F6C 00           .db 0
5765   1F6D 00           .db 0
5766   1F6E 85           .db 133
5767   1F6F 00           .db 0
5768   1F70 00           .db 0
5769   1F71 00           .db 0
5770   1F72 00           .db 0
5771   1F73 85           .db 133
5772   1F74 00           .db 0
5773   1F75 85           .db 133
5774   1F76 00           .db 0
5775   1F77 00           .db 0
5776   1F78 00           .db 0
5777   1F79 00           .db 0
5778   1F7A 00           .db 0
5779   1F7B 00           .db 0
5780   1F7C 00           .db 0
5781   1F7D 80           .db 128
5782   1F7E 26           .db 38
5783   1F7F 00           .db 0
5784   1F80 00           .db 0
5785   1F81 00           .db 0
5786   1F82 00           .db 0
5787   1F83 00           .db 0
5788   1F84 80           .db 128
5789   1F85 00           .db 0
5790   1F86 81           .db 129
5791   1F87 38           .db 56
5792   1F88 8C           .db 140
5793   1F89 07           .db 7
5794   1F8A 8C           .db 140
5795   1F8B 3F           .db 63
5796   1F8C 2F           .db 47
5797   1F8D 38           .db 56
5798   1F8E 3C           .db 60
5799   1F8F 37           .db 55
5800   1F90 3F           .db 63
5801   1F91 3F           .db 63
5802   1F92 19           .db 25
5803   1F93 34           .db 52
5804   1F94 19           .db 25
5805   1F95 00           .db 0
5806   1F96 85           .db 133
5807   1F97 00           .db 0
5808   1F98 00           .db 0
5809   1F99 00           .db 0
5810   1F9A 00           .db 0
5811   1F9B 88           .db 136
5812   1F9C 00           .db 0
5813   1F9D 00           .db 0
5814   1F9E 00           .db 0
5815   1F9F 00           .db 0
5816   1FA0 85           .db 133
5817   1FA1 00           .db 0
5818   1FA2 00           .db 0
5819   1FA3 00           .db 0
5820   1FA4 00           .db 0
5821   1FA5 88           .db 136
5822   1FA6 00           .db 0
5823   1FA7 00           .db 0
5824   1FA8 00           .db 0
5825   1FA9 00           .db 0
5826   1FAA 85           .db 133
5827   1FAB 00           .db 0
5828   1FAC 00           .db 0
5829   1FAD 00           .db 0
5830   1FAE 00           .db 0
5831   1FAF 88           .db 136
5832   1FB0 00           .db 0
5833   1FB1 00           .db 0
5834   1FB2 00           .db 0
5835   1FB3 00           .db 0
5836   1FB4 85           .db 133
5837   1FB5 00           .db 0
5838   1FB6 00           .db 0
5839   1FB7 00           .db 0
5840   1FB8 00           .db 0
5841   1FB9 88           .db 136
5842   1FBA 00           .db 0
5843   1FBB 00           .db 0
5844   1FBC 00           .db 0
5845   1FBD 00           .db 0
5846   1FBE 85           .db 133
5847   1FBF 00           .db 0
5848   1FC0 00           .db 0
5849   1FC1 00           .db 0
5850   1FC2 00           .db 0
5851   1FC3 85           .db 133
5852   1FC4 00           .db 0
5853   1FC5 80           .db 128
5854   1FC6 20           .db 32
5855   1FC7 80           .db 128
5856   1FC8 09           .db 9
5857   1FC9 00           .db 0
5858   1FCA 00           .db 0
5859   1FCB 00           .db 0
5860   1FCC 00           .db 0
5861   1FCD 20           .db 32
5862   1FCE 3E           .db 62
5863   1FCF 01           .db 1
5864   1FD0 00           .db 0
5865   1FD1 00           .db 0
5866   1FD2 00           .db 0
5867   1FD3 00           .db 0
5868   1FD4 81           .db 129
5869   1FD5 20           .db 32
5870   1FD6 81           .db 129
5871   1FD7 3F           .db 63
5872   1FD8 81           .db 129
5873   1FD9 3F           .db 63
5874   1FDA 18           .db 24
5875   1FDB 8C           .db 140
5876   1FDC 33           .db 51
5877   1FDD 38           .db 56
5878   1FDE 38           .db 56
5879   1FDF 1F           .db 31
5880   1FE0 10           .db 16
5881   1FE1 37           .db 55
5882   1FE2 37           .db 55
5883   1FE3 3F           .db 63
5884   1FE4 0B           .db 11
5885   1FE5 00           .db 0
5886   1FE6 85           .db 133
5887   1FE7 00           .db 0
5888   1FE8 00           .db 0
5889   1FE9 00           .db 0
5890   1FEA 00           .db 0
5891   1FEB 88           .db 136
5892   1FEC 00           .db 0
5893   1FED 00           .db 0
5894   1FEE 00           .db 0
5895   1FEF 00           .db 0
5896   1FF0 85           .db 133
5897   1FF1 00           .db 0
5898   1FF2 00           .db 0
5899   1FF3 00           .db 0
5900   1FF4 00           .db 0
5901   1FF5 88           .db 136
5902   1FF6 00           .db 0
5903   1FF7 00           .db 0
5904   1FF8 00           .db 0
5905   1FF9 00           .db 0
5906   1FFA 85           .db 133
5907   1FFB 00           .db 0
5908   1FFC 00           .db 0
5909   1FFD 00           .db 0
5910   1FFE 00           .db 0
5911   1FFF 88           .db 136
5912   2000 00           .db 0
5913   2001 00           .db 0
5914   2002 00           .db 0
5915   2003 00           .db 0
5916   2004 85           .db 133
5917   2005 00           .db 0
5918   2006 00           .db 0
5919   2007 00           .db 0
5920   2008 00           .db 0
5921   2009 88           .db 136
5922   200A 00           .db 0
5923   200B 00           .db 0
5924   200C 00           .db 0
5925   200D 00           .db 0
5926   200E 85           .db 133
5927   200F 00           .db 0
5928   2010 00           .db 0
5929   2011 00           .db 0
5930   2012 00           .db 0
5931   2013 85           .db 133
5932   2014 00           .db 0
5933   2015 80           .db 128
5934   2016 24           .db 36
5935   2017 80           .db 128
5936   2018 09           .db 9
5937   2019 00           .db 0
5938   201A 00           .db 0
5939   201B 00           .db 0
5940   201C 00           .db 0
5941   201D 36           .db 54
5942   201E 01           .db 1
5943   201F 00           .db 0
5944   2020 00           .db 0
5945   2021 00           .db 0
5946   2022 00           .db 0
5947   2023 00           .db 0
5948   2024 81           .db 129
5949   2025 34           .db 52
5950   2026 81           .db 129
5951   2027 3F           .db 63
5952   2028 3F           .db 63
5953   2029 3F           .db 63
5954   202A 38           .db 56
5955   202B 38           .db 56
5956   202C 38           .db 56
5957   202D 08           .db 8
5958   202E 8C           .db 140
5959   202F 3F           .db 63
5960   2030 24           .db 36
5961   2031 04           .db 4
5962   2032 84           .db 132
5963   2033 24           .db 36
5964   2034 09           .db 9
5965   2035 00           .db 0
5966   2036 85           .db 133
5967   2037 00           .db 0
5968   2038 00           .db 0
5969   2039 00           .db 0
5970   203A 00           .db 0
5971   203B 88           .db 136
5972   203C 00           .db 0
5973   203D 00           .db 0
5974   203E 00           .db 0
5975   203F 00           .db 0
5976   2040 85           .db 133
5977   2041 00           .db 0
5978   2042 00           .db 0
5979   2043 00           .db 0
5980   2044 00           .db 0
5981   2045 88           .db 136
5982   2046 00           .db 0
5983   2047 00           .db 0
5984   2048 00           .db 0
5985   2049 00           .db 0
5986   204A 85           .db 133
5987   204B 00           .db 0
5988   204C 00           .db 0
5989   204D 00           .db 0
5990   204E 00           .db 0
5991   204F 88           .db 136
5992   2050 00           .db 0
5993   2051 00           .db 0
5994   2052 00           .db 0
5995   2053 00           .db 0
5996   2054 85           .db 133
5997   2055 00           .db 0
5998   2056 00           .db 0
5999   2057 00           .db 0
6000   2058 00           .db 0
6001   2059 88           .db 136
6002   205A 00           .db 0
6003   205B 00           .db 0
6004   205C 00           .db 0
6005   205D 00           .db 0
6006   205E 85           .db 133
6007   205F 00           .db 0
6008   2060 00           .db 0
6009   2061 00           .db 0
6010   2062 00           .db 0
6011   2063 85           .db 133
6012   2064 00           .db 0
6013   2065 80           .db 128
6014   2066 24           .db 36
6015   2067 09           .db 9
6016   2068 00           .db 0
6017   2069 00           .db 0
6018   206A 00           .db 0
6019   206B 88           .db 136
6020   206C 20           .db 32
6021   206D 3F           .db 63
6022   206E 3F           .db 63
6023   206F 08           .db 8
6024   2070 00           .db 0
6025   2071 00           .db 0
6026   2072 00           .db 0
6027   2073 00           .db 0
6028   2074 81           .db 129
6029   2075 36           .db 54
6030   2076 81           .db 129
6031   2077 3F           .db 63
6032   2078 3F           .db 63
6033   2079 07           .db 7
6034   207A 07           .db 7
6035   207B 07           .db 7
6036   207C 8C           .db 140
6037   207D 38           .db 56
6038   207E 38           .db 56
6039   207F 02           .db 2
6040   2080 0A           .db 10
6041   2081 00           .db 0
6042   2082 84           .db 132
6043   2083 24           .db 36
6044   2084 09           .db 9
6045   2085 00           .db 0
6046   2086 85           .db 133
6047   2087 00           .db 0
6048   2088 00           .db 0
6049   2089 00           .db 0
6050   208A 00           .db 0
6051   208B 88           .db 136
6052   208C 00           .db 0
6053   208D 00           .db 0
6054   208E 00           .db 0
6055   208F 00           .db 0
6056   2090 85           .db 133
6057   2091 00           .db 0
6058   2092 00           .db 0
6059   2093 00           .db 0
6060   2094 00           .db 0
6061   2095 88           .db 136
6062   2096 00           .db 0
6063   2097 00           .db 0
6064   2098 00           .db 0
6065   2099 00           .db 0
6066   209A 85           .db 133
6067   209B 00           .db 0
6068   209C 00           .db 0
6069   209D 00           .db 0
6070   209E 00           .db 0
6071   209F 88           .db 136
6072   20A0 00           .db 0
6073   20A1 00           .db 0
6074   20A2 00           .db 0
6075   20A3 00           .db 0
6076   20A4 85           .db 133
6077   20A5 00           .db 0
6078   20A6 00           .db 0
6079   20A7 00           .db 0
6080   20A8 00           .db 0
6081   20A9 88           .db 136
6082   20AA 00           .db 0
6083   20AB 00           .db 0
6084   20AC 00           .db 0
6085   20AD 00           .db 0
6086   20AE 85           .db 133
6087   20AF 00           .db 0
6088   20B0 00           .db 0
6089   20B1 00           .db 0
6090   20B2 00           .db 0
6091   20B3 85           .db 133
6092   20B4 00           .db 0
6093   20B5 80           .db 128
6094   20B6 24           .db 36
6095   20B7 09           .db 9
6096   20B8 00           .db 0
6097   20B9 00           .db 0
6098   20BA 88           .db 136
6099   20BB 30           .db 48
6100   20BC 1F           .db 31
6101   20BD 18           .db 24
6102   20BE 21           .db 33
6103   20BF 2E           .db 46
6104   20C0 18           .db 24
6105   20C1 00           .db 0
6106   20C2 00           .db 0
6107   20C3 00           .db 0
6108   20C4 81           .db 129
6109   20C5 36           .db 54
6110   20C6 81           .db 129
6111   20C7 3F           .db 63
6112   20C8 01           .db 1
6113   20C9 8C           .db 140
6114   20CA 37           .db 55
6115   20CB 3F           .db 63
6116   20CC 3F           .db 63
6117   20CD 3F           .db 63
6118   20CE 3F           .db 63
6119   20CF 0F           .db 15
6120   20D0 00           .db 0
6121   20D1 00           .db 0
6122   20D2 84           .db 132
6123   20D3 24           .db 36
6124   20D4 09           .db 9
6125   20D5 00           .db 0
6126   20D6 85           .db 133
6127   20D7 00           .db 0
6128   20D8 00           .db 0
6129   20D9 00           .db 0
6130   20DA 00           .db 0
6131   20DB 88           .db 136
6132   20DC 00           .db 0
6133   20DD 00           .db 0
6134   20DE 00           .db 0
6135   20DF 00           .db 0
6136   20E0 85           .db 133
6137   20E1 00           .db 0
6138   20E2 00           .db 0
6139   20E3 00           .db 0
6140   20E4 00           .db 0
6141   20E5 88           .db 136
6142   20E6 00           .db 0
6143   20E7 00           .db 0
6144   20E8 00           .db 0
6145   20E9 00           .db 0
6146   20EA 85           .db 133
6147   20EB 00           .db 0
6148   20EC 00           .db 0
6149   20ED 00           .db 0
6150   20EE 00           .db 0
6151   20EF 88           .db 136
6152   20F0 00           .db 0
6153   20F1 00           .db 0
6154   20F2 00           .db 0
6155   20F3 00           .db 0
6156   20F4 85           .db 133
6157   20F5 00           .db 0
6158   20F6 00           .db 0
6159   20F7 00           .db 0
6160   20F8 00           .db 0
6161   20F9 88           .db 136
6162   20FA 00           .db 0
6163   20FB 00           .db 0
6164   20FC 00           .db 0
6165   20FD 00           .db 0
6166   20FE 85           .db 133
6167   20FF 00           .db 0
6168   2100 00           .db 0
6169   2101 00           .db 0
6170   2102 00           .db 0
6171   2103 85           .db 133
6172   2104 00           .db 0
6173   2105 80           .db 128
6174   2106 24           .db 36
6175   2107 09           .db 9
6176   2108 00           .db 0
6177   2109 88           .db 136
6178   210A 20           .db 32
6179   210B 3F           .db 63
6180   210C 1B           .db 27
6181   210D 21           .db 33
6182   210E 18           .db 24
6183   210F 25           .db 37
6184   2110 3F           .db 63
6185   2111 19           .db 25
6186   2112 00           .db 0
6187   2113 00           .db 0
6188   2114 81           .db 129
6189   2115 3F           .db 63
6190   2116 81           .db 129
6191   2117 01           .db 1
6192   2118 00           .db 0
6193   2119 00           .db 0
6194   211A 8C           .db 140
6195   211B 27           .db 39
6196   211C 0F           .db 15
6197   211D 37           .db 55
6198   211E 07           .db 7
6199   211F 00           .db 0
6200   2120 00           .db 0
6201   2121 00           .db 0
6202   2122 84           .db 132
6203   2123 24           .db 36
6204   2124 09           .db 9
6205   2125 00           .db 0
6206   2126 85           .db 133
6207   2127 00           .db 0
6208   2128 00           .db 0
6209   2129 00           .db 0
6210   212A 00           .db 0
6211   212B 88           .db 136
6212   212C 00           .db 0
6213   212D 00           .db 0
6214   212E 00           .db 0
6215   212F 00           .db 0
6216   2130 85           .db 133
6217   2131 00           .db 0
6218   2132 00           .db 0
6219   2133 00           .db 0
6220   2134 00           .db 0
6221   2135 88           .db 136
6222   2136 00           .db 0
6223   2137 00           .db 0
6224   2138 00           .db 0
6225   2139 00           .db 0
6226   213A 85           .db 133
6227   213B 00           .db 0
6228   213C 00           .db 0
6229   213D 00           .db 0
6230   213E 00           .db 0
6231   213F 88           .db 136
6232   2140 00           .db 0
6233   2141 00           .db 0
6234   2142 00           .db 0
6235   2143 00           .db 0
6236   2144 85           .db 133
6237   2145 00           .db 0
6238   2146 00           .db 0
6239   2147 00           .db 0
6240   2148 00           .db 0
6241   2149 88           .db 136
6242   214A 00           .db 0
6243   214B 00           .db 0
6244   214C 00           .db 0
6245   214D 00           .db 0
6246   214E 85           .db 133
6247   214F 00           .db 0
6248   2150 00           .db 0
6249   2151 00           .db 0
6250   2152 00           .db 0
6251   2153 85           .db 133
6252   2154 00           .db 0
6253   2155 80           .db 128
6254   2156 3D           .db 61
6255   2157 3D           .db 61
6256   2158 00           .db 0
6257   2159 88           .db 136
6258   215A 36           .db 54
6259   215B 3F           .db 63
6260   215C 3F           .db 63
6261   215D 14           .db 20
6262   215E 3B           .db 59
6263   215F 37           .db 55
6264   2160 3F           .db 63
6265   2161 3F           .db 63
6266   2162 08           .db 8
6267   2163 00           .db 0
6268   2164 81           .db 129
6269   2165 1B           .db 27
6270   2166 81           .db 129
6271   2167 00           .db 0
6272   2168 8C           .db 140
6273   2169 3E           .db 62
6274   216A 08           .db 8
6275   216B 34           .db 52
6276   216C 19           .db 25
6277   216D 3E           .db 62
6278   216E 08           .db 8
6279   216F 34           .db 52
6280   2170 19           .db 25
6281   2171 00           .db 0
6282   2172 84           .db 132
6283   2173 24           .db 36
6284   2174 09           .db 9
6285   2175 00           .db 0
6286   2176 85           .db 133
6287   2177 00           .db 0
6288   2178 00           .db 0
6289   2179 00           .db 0
6290   217A 00           .db 0
6291   217B 88           .db 136
6292   217C 00           .db 0
6293   217D 00           .db 0
6294   217E 00           .db 0
6295   217F 00           .db 0
6296   2180 85           .db 133
6297   2181 00           .db 0
6298   2182 00           .db 0
6299   2183 00           .db 0
6300   2184 00           .db 0
6301   2185 88           .db 136
6302   2186 00           .db 0
6303   2187 00           .db 0
6304   2188 00           .db 0
6305   2189 00           .db 0
6306   218A 85           .db 133
6307   218B 00           .db 0
6308   218C 00           .db 0
6309   218D 00           .db 0
6310   218E 00           .db 0
6311   218F 88           .db 136
6312   2190 00           .db 0
6313   2191 00           .db 0
6314   2192 00           .db 0
6315   2193 00           .db 0
6316   2194 85           .db 133
6317   2195 00           .db 0
6318   2196 00           .db 0
6319   2197 00           .db 0
6320   2198 00           .db 0
6321   2199 88           .db 136
6322   219A 00           .db 0
6323   219B 00           .db 0
6324   219C 00           .db 0
6325   219D 00           .db 0
6326   219E 85           .db 133
6327   219F 00           .db 0
6328   21A0 00           .db 0
6329   21A1 00           .db 0
6330   21A2 00           .db 0
6331   21A3 85           .db 133
6332   21A4 00           .db 0
6333   21A5 88           .db 136
6334   21A6 20           .db 32
6335   21A7 88           .db 136
6336   21A8 18           .db 24
6337   21A9 20           .db 32
6338   21AA 3F           .db 63
6339   21AB 3F           .db 63
6340   21AC 3F           .db 63
6341   21AD 0E           .db 14
6342   21AE 07           .db 7
6343   21AF 3E           .db 62
6344   21B0 3F           .db 63
6345   21B1 3F           .db 63
6346   21B2 01           .db 1
6347   21B3 00           .db 0
6348   21B4 81           .db 129
6349   21B5 01           .db 1
6350   21B6 8C           .db 140
6351   21B7 24           .db 36
6352   21B8 8C           .db 140
6353   21B9 3C           .db 60
6354   21BA 3F           .db 63
6355   21BB 3F           .db 63
6356   21BC 1B           .db 27
6357   21BD 3F           .db 63
6358   21BE 3F           .db 63
6359   21BF 3F           .db 63
6360   21C0 3C           .db 60
6361   21C1 00           .db 0
6362   21C2 84           .db 132
6363   21C3 24           .db 36
6364   21C4 09           .db 9
6365   21C5 00           .db 0
6366   21C6 85           .db 133
6367   21C7 00           .db 0
6368   21C8 00           .db 0
6369   21C9 00           .db 0
6370   21CA 00           .db 0
6371   21CB 88           .db 136
6372   21CC 00           .db 0
6373   21CD 00           .db 0
6374   21CE 00           .db 0
6375   21CF 00           .db 0
6376   21D0 85           .db 133
6377   21D1 00           .db 0
6378   21D2 00           .db 0
6379   21D3 00           .db 0
6380   21D4 00           .db 0
6381   21D5 88           .db 136
6382   21D6 00           .db 0
6383   21D7 00           .db 0
6384   21D8 00           .db 0
6385   21D9 00           .db 0
6386   21DA 85           .db 133
6387   21DB 00           .db 0
6388   21DC 00           .db 0
6389   21DD 00           .db 0
6390   21DE 00           .db 0
6391   21DF 88           .db 136
6392   21E0 00           .db 0
6393   21E1 00           .db 0
6394   21E2 00           .db 0
6395   21E3 00           .db 0
6396   21E4 85           .db 133
6397   21E5 00           .db 0
6398   21E6 00           .db 0
6399   21E7 00           .db 0
6400   21E8 00           .db 0
6401   21E9 88           .db 136
6402   21EA 00           .db 0
6403   21EB 00           .db 0
6404   21EC 00           .db 0
6405   21ED 00           .db 0
6406   21EE 85           .db 133
6407   21EF 00           .db 0
6408   21F0 00           .db 0
6409   21F1 00           .db 0
6410   21F2 00           .db 0
6411   21F3 85           .db 133
6412   21F4 00           .db 0
6413   21F5 88           .db 136
6414   21F6 36           .db 54
6415   21F7 3F           .db 63
6416   21F8 34           .db 52
6417   21F9 3F           .db 63
6418   21FA 07           .db 7
6419   21FB 3B           .db 59
6420   21FC 07           .db 7
6421   21FD 07           .db 7
6422   21FE 35           .db 53
6423   21FF 1F           .db 31
6424   2200 85           .db 133
6425   2201 38           .db 56
6426   2202 3F           .db 63
6427   2203 00           .db 0
6428   2204 80           .db 128
6429   2205 00           .db 0
6430   2206 80           .db 128
6431   2207 00           .db 0
6432   2208 8C           .db 140
6433   2209 07           .db 7
6434   220A 07           .db 7
6435   220B 07           .db 7
6436   220C 01           .db 1
6437   220D 06           .db 6
6438   220E 07           .db 7
6439   220F 07           .db 7
6440   2210 03           .db 3
6441   2211 00           .db 0
6442   2212 84           .db 132
6443   2213 04           .db 4
6444   2214 01           .db 1
6445   2215 00           .db 0
6446   2216 85           .db 133
6447   2217 00           .db 0
6448   2218 00           .db 0
6449   2219 00           .db 0
6450   221A 00           .db 0
6451   221B 88           .db 136
6452   221C 00           .db 0
6453   221D 00           .db 0
6454   221E 00           .db 0
6455   221F 00           .db 0
6456   2220 85           .db 133
6457   2221 00           .db 0
6458   2222 00           .db 0
6459   2223 00           .db 0
6460   2224 00           .db 0
6461   2225 88           .db 136
6462   2226 00           .db 0
6463   2227 00           .db 0
6464   2228 00           .db 0
6465   2229 00           .db 0
6466   222A 85           .db 133
6467   222B 00           .db 0
6468   222C 00           .db 0
6469   222D 00           .db 0
6470   222E 00           .db 0
6471   222F 88           .db 136
6472   2230 00           .db 0
6473   2231 00           .db 0
6474   2232 00           .db 0
6475   2233 00           .db 0
6476   2234 85           .db 133
6477   2235 00           .db 0
6478   2236 00           .db 0
6479   2237 00           .db 0
6480   2238 00           .db 0
6481   2239 88           .db 136
6482   223A 00           .db 0
6483   223B 00           .db 0
6484   223C 00           .db 0
6485   223D 00           .db 0
6486   223E 85           .db 133
6487   223F 00           .db 0
6488   2240 00           .db 0
6489   2241 00           .db 0
6490   2242 00           .db 0
6491   2243 85           .db 133
6492   2244 00           .db 0
6493   2245 88           .db 136
6494   2246 04           .db 4
6495   2247 37           .db 55
6496   2248 1F           .db 31
6497   2249 0B           .db 11
6498   224A 3A           .db 58
6499   224B 06           .db 6
6500   224C 07           .db 7
6501   224D 07           .db 7
6502   224E 07           .db 7
6503   224F 85           .db 133
6504   2250 3C           .db 60
6505   2251 3F           .db 63
6506   2252 3F           .db 63
6507   2253 09           .db 9
6508   2254 80           .db 128
6509   2255 00           .db 0
6510   2256 80           .db 128
6511   2257 39           .db 57
6512   2258 80           .db 128
6513   2259 38           .db 56
6514   225A 80           .db 128
6515   225B 00           .db 0
6516   225C 00           .db 0
6517   225D 00           .db 0
6518   225E 00           .db 0
6519   225F 00           .db 0
6520   2260 20           .db 32
6521   2261 38           .db 56
6522   2262 1A           .db 26
6523   2263 00           .db 0
6524   2264 00           .db 0
6525   2265 00           .db 0
6526   2266 85           .db 133
6527   2267 00           .db 0
6528   2268 00           .db 0
6529   2269 00           .db 0
6530   226A 00           .db 0
6531   226B 88           .db 136
6532   226C 00           .db 0
6533   226D 00           .db 0
6534   226E 00           .db 0
6535   226F 00           .db 0
6536   2270 85           .db 133
6537   2271 00           .db 0
6538   2272 00           .db 0
6539   2273 00           .db 0
6540   2274 00           .db 0
6541   2275 88           .db 136
6542   2276 00           .db 0
6543   2277 00           .db 0
6544   2278 00           .db 0
6545   2279 00           .db 0
6546   227A 85           .db 133
6547   227B 00           .db 0
6548   227C 00           .db 0
6549   227D 00           .db 0
6550   227E 00           .db 0
6551   227F 88           .db 136
6552   2280 00           .db 0
6553   2281 00           .db 0
6554   2282 00           .db 0
6555   2283 00           .db 0
6556   2284 85           .db 133
6557   2285 00           .db 0
6558   2286 00           .db 0
6559   2287 00           .db 0
6560   2288 00           .db 0
6561   2289 88           .db 136
6562   228A 00           .db 0
6563   228B 00           .db 0
6564   228C 00           .db 0
6565   228D 00           .db 0
6566   228E 85           .db 133
6567   228F 00           .db 0
6568   2290 00           .db 0
6569   2291 00           .db 0
6570   2292 00           .db 0
6571   2293 00           .db 0
6572   2294 80           .db 128
6573   2295 06           .db 6
6574   2296 03           .db 3
6575   2297 00           .db 0
6576   2298 88           .db 136
6577   2299 11           .db 17
6578   229A 17           .db 23
6579   229B 85           .db 133
6580   229C 04           .db 4
6581   229D 07           .db 7
6582   229E 3F           .db 63
6583   229F 3F           .db 63
6584   22A0 3F           .db 63
6585   22A1 3F           .db 63
6586   22A2 3F           .db 63
6587   22A3 1B           .db 27
6588   22A4 80           .db 128
6589   22A5 00           .db 0
6590   22A6 80           .db 128
6591   22A7 36           .db 54
6592   22A8 80           .db 128
6593   22A9 3F           .db 63
6594   22AA 80           .db 128
6595   22AB 3F           .db 63
6596   22AC 3F           .db 63
6597   22AD 3F           .db 63
6598   22AE 3F           .db 63
6599   22AF 3F           .db 63
6600   22B0 3F           .db 63
6601   22B1 1B           .db 27
6602   22B2 09           .db 9
6603   22B3 00           .db 0
6604   22B4 00           .db 0
6605   22B5 00           .db 0
6606   22B6 85           .db 133
6607   22B7 00           .db 0
6608   22B8 00           .db 0
6609   22B9 00           .db 0
6610   22BA 00           .db 0
6611   22BB 88           .db 136
6612   22BC 00           .db 0
6613   22BD 00           .db 0
6614   22BE 00           .db 0
6615   22BF 00           .db 0
6616   22C0 85           .db 133
6617   22C1 00           .db 0
6618   22C2 00           .db 0
6619   22C3 00           .db 0
6620   22C4 00           .db 0
6621   22C5 88           .db 136
6622   22C6 00           .db 0
6623   22C7 00           .db 0
6624   22C8 00           .db 0
6625   22C9 00           .db 0
6626   22CA 85           .db 133
6627   22CB 00           .db 0
6628   22CC 00           .db 0
6629   22CD 00           .db 0
6630   22CE 00           .db 0
6631   22CF 88           .db 136
6632   22D0 00           .db 0
6633   22D1 00           .db 0
6634   22D2 00           .db 0
6635   22D3 00           .db 0
6636   22D4 85           .db 133
6637   22D5 00           .db 0
6638   22D6 00           .db 0
6639   22D7 00           .db 0
6640   22D8 00           .db 0
6641   22D9 88           .db 136
6642   22DA 00           .db 0
6643   22DB 00           .db 0
6644   22DC 00           .db 0
6645   22DD 00           .db 0
6646   22DE 85           .db 133
6647   22DF 00           .db 0
6648   22E0 00           .db 0
6649   22E1 00           .db 0
6650   22E2 00           .db 0
6651   22E3 85           .db 133
6652   22E4 00           .db 0
6653   22E5 00           .db 0
6654   22E6 00           .db 0
6655   22E7 00           .db 0
6656   22E8 88           .db 136
6657   22E9 04           .db 4
6658   22EA 38           .db 56
6659   22EB 3F           .db 63
6660   22EC 3F           .db 63
6661   22ED 38           .db 56
6662   22EE 38           .db 56
6663   22EF 38           .db 56
6664   22F0 85           .db 133
6665   22F1 27           .db 39
6666   22F2 3F           .db 63
6667   22F3 1B           .db 27
6668   22F4 80           .db 128
6669   22F5 00           .db 0
6670   22F6 80           .db 128
6671   22F7 15           .db 21
6672   22F8 80           .db 128
6673   22F9 3D           .db 61
6674   22FA 80           .db 128
6675   22FB 3F           .db 63
6676   22FC 3F           .db 63
6677   22FD 3F           .db 63
6678   22FE 3F           .db 63
6679   22FF 3F           .db 63
6680   2300 3F           .db 63
6681   2301 1E           .db 30
6682   2302 0A           .db 10
6683   2303 00           .db 0
6684   2304 00           .db 0
6685   2305 00           .db 0
6686   2306 85           .db 133
6687   2307 00           .db 0
6688   2308 00           .db 0
6689   2309 00           .db 0
6690   230A 00           .db 0
6691   230B 88           .db 136
6692   230C 00           .db 0
6693   230D 00           .db 0
6694   230E 00           .db 0
6695   230F 00           .db 0
6696   2310 85           .db 133
6697   2311 00           .db 0
6698   2312 00           .db 0
6699   2313 00           .db 0
6700   2314 00           .db 0
6701   2315 88           .db 136
6702   2316 00           .db 0
6703   2317 00           .db 0
6704   2318 00           .db 0
6705   2319 00           .db 0
6706   231A 85           .db 133
6707   231B 00           .db 0
6708   231C 00           .db 0
6709   231D 00           .db 0
6710   231E 00           .db 0
6711   231F 88           .db 136
6712   2320 00           .db 0
6713   2321 00           .db 0
6714   2322 00           .db 0
6715   2323 00           .db 0
6716   2324 85           .db 133
6717   2325 00           .db 0
6718   2326 00           .db 0
6719   2327 00           .db 0
6720   2328 00           .db 0
6721   2329 88           .db 136
6722   232A 00           .db 0
6723   232B 00           .db 0
6724   232C 00           .db 0
6725   232D 00           .db 0
6726   232E 85           .db 133
6727   232F 00           .db 0
6728   2330 00           .db 0
6729   2331 00           .db 0
6730   2332 00           .db 0
6731   2333 85           .db 133
6732   2334 00           .db 0
6733   2335 00           .db 0
6734   2336 00           .db 0
6735   2337 00           .db 0
6736   2338 00           .db 0
6737   2339 88           .db 136
6738   233A 04           .db 4
6739   233B 3F           .db 63
6740   233C 3F           .db 63
6741   233D 3F           .db 63
6742   233E 3F           .db 63
6743   233F 03           .db 3
6744   2340 00           .db 0
6745   2341 85           .db 133
6746   2342 27           .db 39
6747   2343 3B           .db 59
6748   2344 80           .db 128
6749   2345 00           .db 0
6750   2346 80           .db 128
6751   2347 15           .db 21
6752   2348 80           .db 128
6753   2349 3A           .db 58
6754   234A 80           .db 128
6755   234B 3F           .db 63
6756   234C 3F           .db 63
6757   234D 3F           .db 63
6758   234E 3F           .db 63
6759   234F 3F           .db 63
6760   2350 3B           .db 59
6761   2351 1D           .db 29
6762   2352 0A           .db 10
6763   2353 00           .db 0
6764   2354 00           .db 0
6765   2355 00           .db 0
6766   2356 85           .db 133
6767   2357 00           .db 0
6768   2358 00           .db 0
6769   2359 00           .db 0
6770   235A 00           .db 0
6771   235B 88           .db 136
6772   235C 00           .db 0
6773   235D 00           .db 0
6774   235E 00           .db 0
6775   235F 00           .db 0
6776   2360 85           .db 133
6777   2361 00           .db 0
6778   2362 00           .db 0
6779   2363 00           .db 0
6780   2364 00           .db 0
6781   2365 88           .db 136
6782   2366 00           .db 0
6783   2367 00           .db 0
6784   2368 00           .db 0
6785   2369 00           .db 0
6786   236A 85           .db 133
6787   236B 00           .db 0
6788   236C 00           .db 0
6789   236D 00           .db 0
6790   236E 00           .db 0
6791   236F 88           .db 136
6792   2370 00           .db 0
6793   2371 00           .db 0
6794   2372 00           .db 0
6795   2373 00           .db 0
6796   2374 85           .db 133
6797   2375 00           .db 0
6798   2376 00           .db 0
6799   2377 00           .db 0
6800   2378 00           .db 0
6801   2379 88           .db 136
6802   237A 00           .db 0
6803   237B 00           .db 0
6804   237C 00           .db 0
6805   237D 00           .db 0
6806   237E 85           .db 133
6807   237F 00           .db 0
6808   2380 00           .db 0
6809   2381 00           .db 0
6810   2382 00           .db 0
6811   2383 85           .db 133
6812   2384 00           .db 0
6813   2385 00           .db 0
6814   2386 00           .db 0
6815   2387 00           .db 0
6816   2388 88           .db 136
6817   2389 30           .db 48
6818   238A 00           .db 0
6819   238B 24           .db 36
6820   238C 09           .db 9
6821   238D 36           .db 54
6822   238E 00           .db 0
6823   238F 20           .db 32
6824   2390 08           .db 8
6825   2391 00           .db 0
6826   2392 85           .db 133
6827   2393 37           .db 55
6828   2394 80           .db 128
6829   2395 00           .db 0
6830   2396 80           .db 128
6831   2397 15           .db 21
6832   2398 80           .db 128
6833   2399 3D           .db 61
6834   239A 80           .db 128
6835   239B 3F           .db 63
6836   239C 3F           .db 63
6837   239D 3F           .db 63
6838   239E 3F           .db 63
6839   239F 3F           .db 63
6840   23A0 3F           .db 63
6841   23A1 1E           .db 30
6842   23A2 0A           .db 10
6843   23A3 00           .db 0
6844   23A4 00           .db 0
6845   23A5 00           .db 0
6846   23A6 85           .db 133
6847   23A7 00           .db 0
6848   23A8 00           .db 0
6849   23A9 00           .db 0
6850   23AA 00           .db 0
6851   23AB 88           .db 136
6852   23AC 00           .db 0
6853   23AD 00           .db 0
6854   23AE 00           .db 0
6855   23AF 00           .db 0
6856   23B0 85           .db 133
6857   23B1 00           .db 0
6858   23B2 00           .db 0
6859   23B3 00           .db 0
6860   23B4 00           .db 0
6861   23B5 88           .db 136
6862   23B6 00           .db 0
6863   23B7 00           .db 0
6864   23B8 00           .db 0
6865   23B9 00           .db 0
6866   23BA 85           .db 133
6867   23BB 00           .db 0
6868   23BC 00           .db 0
6869   23BD 00           .db 0
6870   23BE 00           .db 0
6871   23BF 88           .db 136
6872   23C0 00           .db 0
6873   23C1 00           .db 0
6874   23C2 00           .db 0
6875   23C3 00           .db 0
6876   23C4 85           .db 133
6877   23C5 00           .db 0
6878   23C6 00           .db 0
6879   23C7 00           .db 0
6880   23C8 00           .db 0
6881   23C9 88           .db 136
6882   23CA 00           .db 0
6883   23CB 00           .db 0
6884   23CC 00           .db 0
6885   23CD 00           .db 0
6886   23CE 85           .db 133
6887   23CF 00           .db 0
6888   23D0 00           .db 0
6889   23D1 00           .db 0
6890   23D2 00           .db 0
6891   23D3 85           .db 133
6892   23D4 00           .db 0
6893   23D5 00           .db 0
6894   23D6 00           .db 0
6895   23D7 88           .db 136
6896   23D8 20           .db 32
6897   23D9 27           .db 39
6898   23DA 39           .db 57
6899   23DB 3E           .db 62
6900   23DC 1B           .db 27
6901   23DD 3F           .db 63
6902   23DE 39           .db 57
6903   23DF 3E           .db 62
6904   23E0 23           .db 35
6905   23E1 00           .db 0
6906   23E2 85           .db 133
6907   23E3 26           .db 38
6908   23E4 80           .db 128
6909   23E5 00           .db 0
6910   23E6 80           .db 128
6911   23E7 15           .db 21
6912   23E8 80           .db 128
6913   23E9 3A           .db 58
6914   23EA 80           .db 128
6915   23EB 3F           .db 63
6916   23EC 3F           .db 63
6917   23ED 3F           .db 63
6918   23EE 3F           .db 63
6919   23EF 3F           .db 63
6920   23F0 3B           .db 59
6921   23F1 1D           .db 29
6922   23F2 0A           .db 10
6923   23F3 00           .db 0
6924   23F4 00           .db 0
6925   23F5 00           .db 0
6926   23F6 85           .db 133
6927   23F7 00           .db 0
6928   23F8 00           .db 0
6929   23F9 00           .db 0
6930   23FA 00           .db 0
6931   23FB 88           .db 136
6932   23FC 00           .db 0
6933   23FD 00           .db 0
6934   23FE 00           .db 0
6935   23FF 00           .db 0
6936   2400 85           .db 133
6937   2401 00           .db 0
6938   2402 00           .db 0
6939   2403 00           .db 0
6940   2404 00           .db 0
6941   2405 88           .db 136
6942   2406 00           .db 0
6943   2407 00           .db 0
6944   2408 00           .db 0
6945   2409 00           .db 0
6946   240A 85           .db 133
6947   240B 00           .db 0
6948   240C 00           .db 0
6949   240D 00           .db 0
6950   240E 00           .db 0
6951   240F 88           .db 136
6952   2410 00           .db 0
6953   2411 00           .db 0
6954   2412 00           .db 0
6955   2413 00           .db 0
6956   2414 85           .db 133
6957   2415 00           .db 0
6958   2416 00           .db 0
6959   2417 00           .db 0
6960   2418 00           .db 0
6961   2419 88           .db 136
6962   241A 00           .db 0
6963   241B 00           .db 0
6964   241C 00           .db 0
6965   241D 00           .db 0
6966   241E 85           .db 133
6967   241F 00           .db 0
6968   2420 00           .db 0
6969   2421 00           .db 0
6970   2422 00           .db 0
6971   2423 85           .db 133
6972   2424 00           .db 0
6973   2425 85           .db 133
6974   2426 00           .db 0
6975   2427 00           .db 0
6976   2428 88           .db 136
6977   2429 04           .db 4
6978   242A 3F           .db 63
6979   242B 3F           .db 63
6980   242C 3F           .db 63
6981   242D 0B           .db 11
6982   242E 37           .db 55
6983   242F 3F           .db 63
6984   2430 3F           .db 63
6985   2431 1F           .db 31
6986   2432 00           .db 0
6987   2433 00           .db 0
6988   2434 80           .db 128
6989   2435 00           .db 0
6990   2436 80           .db 128
6991   2437 15           .db 21
6992   2438 80           .db 128
6993   2439 3D           .db 61
6994   243A 80           .db 128
6995   243B 3F           .db 63
6996   243C 3F           .db 63
6997   243D 3F           .db 63
6998   243E 3F           .db 63
6999   243F 3F           .db 63
7000   2440 3F           .db 63
7001   2441 1E           .db 30
7002   2442 0A           .db 10
7003   2443 00           .db 0
7004   2444 00           .db 0
7005   2445 00           .db 0
7006   2446 85           .db 133
7007   2447 00           .db 0
7008   2448 00           .db 0
7009   2449 00           .db 0
7010   244A 00           .db 0
7011   244B 88           .db 136
7012   244C 00           .db 0
7013   244D 00           .db 0
7014   244E 00           .db 0
7015   244F 00           .db 0
7016   2450 85           .db 133
7017   2451 00           .db 0
7018   2452 00           .db 0
7019   2453 00           .db 0
7020   2454 00           .db 0
7021   2455 88           .db 136
7022   2456 00           .db 0
7023   2457 00           .db 0
7024   2458 00           .db 0
7025   2459 00           .db 0
7026   245A 85           .db 133
7027   245B 00           .db 0
7028   245C 00           .db 0
7029   245D 00           .db 0
7030   245E 00           .db 0
7031   245F 88           .db 136
7032   2460 00           .db 0
7033   2461 00           .db 0
7034   2462 00           .db 0
7035   2463 00           .db 0
7036   2464 85           .db 133
7037   2465 00           .db 0
7038   2466 00           .db 0
7039   2467 00           .db 0
7040   2468 00           .db 0
7041   2469 88           .db 136
7042   246A 00           .db 0
7043   246B 00           .db 0
7044   246C 00           .db 0
7045   246D 00           .db 0
7046   246E 85           .db 133
7047   246F 00           .db 0
7048   2470 00           .db 0
7049   2471 00           .db 0
7050   2472 00           .db 0
7051   2473 85           .db 133
7052   2474 00           .db 0
7053   2475 85           .db 133
7054   2476 00           .db 0
7055   2477 00           .db 0
7056   2478 80           .db 128
7057   2479 08           .db 8
7058   247A 00           .db 0
7059   247B 00           .db 0
7060   247C 00           .db 0
7061   247D 00           .db 0
7062   247E 00           .db 0
7063   247F 00           .db 0
7064   2480 00           .db 0
7065   2481 00           .db 0
7066   2482 10           .db 16
7067   2483 00           .db 0
7068   2484 80           .db 128
7069   2485 00           .db 0
7070   2486 80           .db 128
7071   2487 15           .db 21
7072   2488 80           .db 128
7073   2489 3A           .db 58
7074   248A 80           .db 128
7075   248B 3F           .db 63
7076   248C 3F           .db 63
7077   248D 3F           .db 63
7078   248E 3F           .db 63
7079   248F 3F           .db 63
7080   2490 3B           .db 59
7081   2491 1D           .db 29
7082   2492 0A           .db 10
7083   2493 00           .db 0
7084   2494 00           .db 0
7085   2495 00           .db 0
7086   2496 85           .db 133
7087   2497 00           .db 0
7088   2498 00           .db 0
7089   2499 00           .db 0
7090   249A 00           .db 0
7091   249B 88           .db 136
7092   249C 00           .db 0
7093   249D 00           .db 0
7094   249E 00           .db 0
7095   249F 00           .db 0
7096   24A0 85           .db 133
7097   24A1 00           .db 0
7098   24A2 00           .db 0
7099   24A3 00           .db 0
7100   24A4 00           .db 0
7101   24A5 88           .db 136
7102   24A6 00           .db 0
7103   24A7 00           .db 0
7104   24A8 00           .db 0
7105   24A9 00           .db 0
7106   24AA 85           .db 133
7107   24AB 00           .db 0
7108   24AC 00           .db 0
7109   24AD 00           .db 0
7110   24AE 00           .db 0
7111   24AF 88           .db 136
7112   24B0 00           .db 0
7113   24B1 00           .db 0
7114   24B2 00           .db 0
7115   24B3 00           .db 0
7116   24B4 85           .db 133
7117   24B5 00           .db 0
7118   24B6 00           .db 0
7119   24B7 00           .db 0
7120   24B8 00           .db 0
7121   24B9 88           .db 136
7122   24BA 00           .db 0
7123   24BB 00           .db 0
7124   24BC 00           .db 0
7125   24BD 00           .db 0
7126   24BE 85           .db 133
7127   24BF 00           .db 0
7128   24C0 00           .db 0
7129   24C1 00           .db 0
7130   24C2 00           .db 0
7131   24C3 85           .db 133
7132   24C4 00           .db 0
7133   24C5 85           .db 133
7134   24C6 00           .db 0
7135   24C7 00           .db 0
7136   24C8 80           .db 128
7137   24C9 17           .db 23
7138   24CA 3F           .db 63
7139   24CB 38           .db 56
7140   24CC 38           .db 56
7141   24CD 38           .db 56
7142   24CE 38           .db 56
7143   24CF 38           .db 56
7144   24D0 38           .db 56
7145   24D1 1F           .db 31
7146   24D2 0B           .db 11
7147   24D3 00           .db 0
7148   24D4 80           .db 128
7149   24D5 00           .db 0
7150   24D6 80           .db 128
7151   24D7 1D           .db 29
7152   24D8 80           .db 128
7153   24D9 3D           .db 61
7154   24DA 80           .db 128
7155   24DB 3F           .db 63
7156   24DC 3F           .db 63
7157   24DD 3F           .db 63
7158   24DE 3F           .db 63
7159   24DF 3F           .db 63
7160   24E0 3F           .db 63
7161   24E1 1E           .db 30
7162   24E2 1A           .db 26
7163   24E3 00           .db 0
7164   24E4 00           .db 0
7165   24E5 00           .db 0
7166   24E6 85           .db 133
7167   24E7 00           .db 0
7168   24E8 00           .db 0
7169   24E9 00           .db 0
7170   24EA 00           .db 0
7171   24EB 88           .db 136
7172   24EC 00           .db 0
7173   24ED 00           .db 0
7174   24EE 00           .db 0
7175   24EF 00           .db 0
7176   24F0 85           .db 133
7177   24F1 00           .db 0
7178   24F2 00           .db 0
7179   24F3 00           .db 0
7180   24F4 00           .db 0
7181   24F5 88           .db 136
7182   24F6 00           .db 0
7183   24F7 00           .db 0
7184   24F8 00           .db 0
7185   24F9 00           .db 0
7186   24FA 85           .db 133
7187   24FB 00           .db 0
7188   24FC 00           .db 0
7189   24FD 00           .db 0
7190   24FE 00           .db 0
7191   24FF 88           .db 136
7192   2500 00           .db 0
7193   2501 00           .db 0
7194   2502 00           .db 0
7195   2503 00           .db 0
7196   2504 85           .db 133
7197   2505 00           .db 0
7198   2506 00           .db 0
7199   2507 00           .db 0
7200   2508 00           .db 0
7201   2509 88           .db 136
7202   250A 00           .db 0
7203   250B 00           .db 0
7204   250C 00           .db 0
7205   250D 00           .db 0
7206   250E 85           .db 133
7207   250F 00           .db 0
7208   2510 00           .db 0
7209   2511 00           .db 0
7210   2512 00           .db 0
7211   2513 85           .db 133
7212   2514 00           .db 0
7213   2515 85           .db 133
7214   2516 00           .db 0
7215   2517 00           .db 0
7216   2518 80           .db 128
7217   2519 1D           .db 29
7218   251A 3A           .db 58
7219   251B 3F           .db 63
7220   251C 3F           .db 63
7221   251D 3F           .db 63
7222   251E 3F           .db 63
7223   251F 3F           .db 63
7224   2520 3B           .db 59
7225   2521 1D           .db 29
7226   2522 1A           .db 26
7227   2523 00           .db 0
7228   2524 80           .db 128
7229   2525 3C           .db 60
7230   2526 80           .db 128
7231   2527 0E           .db 14
7232   2528 80           .db 128
7233   2529 07           .db 7
7234   252A 80           .db 128
7235   252B 3F           .db 63
7236   252C 3F           .db 63
7237   252D 3F           .db 63
7238   252E 3F           .db 63
7239   252F 3F           .db 63
7240   2530 3F           .db 63
7241   2531 07           .db 7
7242   2532 35           .db 53
7243   2533 38           .db 56
7244   2534 00           .db 0
7245   2535 00           .db 0
7246   2536 85           .db 133
7247   2537 00           .db 0
7248   2538 00           .db 0
7249   2539 00           .db 0
7250   253A 00           .db 0
7251   253B 88           .db 136
7252   253C 00           .db 0
7253   253D 00           .db 0
7254   253E 00           .db 0
7255   253F 00           .db 0
7256   2540 85           .db 133
7257   2541 00           .db 0
7258   2542 00           .db 0
7259   2543 00           .db 0
7260   2544 00           .db 0
7261   2545 88           .db 136
7262   2546 00           .db 0
7263   2547 00           .db 0
7264   2548 00           .db 0
7265   2549 00           .db 0
7266   254A 85           .db 133
7267   254B 00           .db 0
7268   254C 00           .db 0
7269   254D 00           .db 0
7270   254E 00           .db 0
7271   254F 88           .db 136
7272   2550 00           .db 0
7273   2551 00           .db 0
7274   2552 00           .db 0
7275   2553 00           .db 0
7276   2554 85           .db 133
7277   2555 00           .db 0
7278   2556 00           .db 0
7279   2557 00           .db 0
7280   2558 00           .db 0
7281   2559 88           .db 136
7282   255A 00           .db 0
7283   255B 00           .db 0
7284   255C 00           .db 0
7285   255D 00           .db 0
7286   255E 85           .db 133
7287   255F 00           .db 0
7288   2560 00           .db 0
7289   2561 00           .db 0
7290   2562 00           .db 0
7291   2563 85           .db 133
7292   2564 00           .db 0
7293   2565 85           .db 133
7294   2566 00           .db 0
7295   2567 80           .db 128
7296   2568 3C           .db 60
7297   2569 0E           .db 14
7298   256A 07           .db 7
7299   256B 3F           .db 63
7300   256C 3F           .db 63
7301   256D 3F           .db 63
7302   256E 3F           .db 63
7303   256F 3F           .db 63
7304   2570 3F           .db 63
7305   2571 07           .db 7
7306   2572 35           .db 53
7307   2573 38           .db 56
7308   2574 80           .db 128
7309   2575 27           .db 39
7310   2576 80           .db 128
7311   2577 3F           .db 63
7312   2578 80           .db 128
7313   2579 3F           .db 63
7314   257A 80           .db 128
7315   257B 38           .db 56
7316   257C 38           .db 56
7317   257D 38           .db 56
7318   257E 38           .db 56
7319   257F 38           .db 56
7320   2580 38           .db 56
7321   2581 3F           .db 63
7322   2582 3F           .db 63
7323   2583 0F           .db 15
7324   2584 00           .db 0
7325   2585 00           .db 0
7326   2586 85           .db 133
7327   2587 00           .db 0
7328   2588 00           .db 0
7329   2589 00           .db 0
7330   258A 00           .db 0
7331   258B 88           .db 136
7332   258C 00           .db 0
7333   258D 00           .db 0
7334   258E 00           .db 0
7335   258F 00           .db 0
7336   2590 85           .db 133
7337   2591 00           .db 0
7338   2592 00           .db 0
7339   2593 00           .db 0
7340   2594 00           .db 0
7341   2595 88           .db 136
7342   2596 00           .db 0
7343   2597 00           .db 0
7344   2598 00           .db 0
7345   2599 00           .db 0
7346   259A 85           .db 133
7347   259B 00           .db 0
7348   259C 00           .db 0
7349   259D 00           .db 0
7350   259E 00           .db 0
7351   259F 88           .db 136
7352   25A0 00           .db 0
7353   25A1 00           .db 0
7354   25A2 00           .db 0
7355   25A3 00           .db 0
7356   25A4 85           .db 133
7357   25A5 00           .db 0
7358   25A6 00           .db 0
7359   25A7 00           .db 0
7360   25A8 00           .db 0
7361   25A9 88           .db 136
7362   25AA 00           .db 0
7363   25AB 00           .db 0
7364   25AC 00           .db 0
7365   25AD 00           .db 0
7366   25AE 85           .db 133
7367   25AF 00           .db 0
7368   25B0 00           .db 0
7369   25B1 00           .db 0
7370   25B2 00           .db 0
7371   25B3 85           .db 133
7372   25B4 00           .db 0
7373   25B5 85           .db 133
7374   25B6 00           .db 0
7375   25B7 80           .db 128
7376   25B8 27           .db 39
7377   25B9 3F           .db 63
7378   25BA 3F           .db 63
7379   25BB 38           .db 56
7380   25BC 38           .db 56
7381   25BD 38           .db 56
7382   25BE 38           .db 56
7383   25BF 38           .db 56
7384   25C0 38           .db 56
7385   25C1 3F           .db 63
7386   25C2 3F           .db 63
7387   25C3 0F           .db 15
7388   25C4 80           .db 128
7389   25C5 00           .db 0
7390   25C6 80           .db 128
7391   25C7 00           .db 0
7392   25C8 80           .db 128
7393   25C9 04           .db 4
7394   25CA 80           .db 128
7395   25CB 07           .db 7
7396   25CC 07           .db 7
7397   25CD 07           .db 7
7398   25CE 07           .db 7
7399   25CF 07           .db 7
7400   25D0 07           .db 7
7401   25D1 01           .db 1
7402   25D2 00           .db 0
7403   25D3 00           .db 0
7404   25D4 00           .db 0
7405   25D5 00           .db 0
7406   25D6 85           .db 133
7407   25D7 00           .db 0
7408   25D8 00           .db 0
7409   25D9 00           .db 0
7410   25DA 00           .db 0
7411   25DB 88           .db 136
7412   25DC 00           .db 0
7413   25DD 00           .db 0
7414   25DE 00           .db 0
7415   25DF 00           .db 0
7416   25E0 85           .db 133
7417   25E1 00           .db 0
7418   25E2 00           .db 0
7419   25E3 00           .db 0
7420   25E4 00           .db 0
7421   25E5 88           .db 136
7422   25E6 00           .db 0
7423   25E7 00           .db 0
7424   25E8 00           .db 0
7425   25E9 00           .db 0
7426   25EA 85           .db 133
7427   25EB 00           .db 0
7428   25EC 00           .db 0
7429   25ED 00           .db 0
7430   25EE 00           .db 0
7431   25EF 88           .db 136
7432   25F0 00           .db 0
7433   25F1 00           .db 0
7434   25F2 00           .db 0
7435   25F3 00           .db 0
7436   25F4 85           .db 133
7437   25F5 00           .db 0
7438   25F6 00           .db 0
7439   25F7 00           .db 0
7440   25F8 00           .db 0
7441   25F9 88           .db 136
7442   25FA 00           .db 0
7443   25FB 00           .db 0
7444   25FC 00           .db 0
7445   25FD 00           .db 0
7446   25FE 85           .db 133
7447   25FF 00           .db 0
7448   2600 00           .db 0
7449   2601 00           .db 0
7450   2602 00           .db 0
7451   2603 85           .db 133
7452   2604 00           .db 0
7453   2605 85           .db 133
7454   2606 00           .db 0
7455   2607 00           .db 0
7456   2608 00           .db 0
7457   2609 80           .db 128
7458   260A 04           .db 4
7459   260B 07           .db 7
7460   260C 07           .db 7
7461   260D 07           .db 7
7462   260E 07           .db 7
7463   260F 07           .db 7
7464   2610 07           .db 7
7465   2611 01           .db 1
7466   2612 00           .db 0
7467   2613 00           .db 0
7468   2614 84           .db 132
7469   2615 00           .db 0
7470   2616 00           .db 0
7471   2617 84           .db 132
7472   2618 00           .db 0
7473   2619 00           .db 0
7474   261A 84           .db 132
7475   261B 00           .db 0
7476   261C 00           .db 0
7477   261D 84           .db 132
7478   261E 00           .db 0
7479   261F 00           .db 0
7480   2620 00           .db 0
7481   2621 00           .db 0
7482   2622 00           .db 0
7483   2623 00           .db 0
7484   2624 00           .db 0
7485   2625 00           .db 0
7486   2626 85           .db 133
7487   2627 00           .db 0
7488   2628 00           .db 0
7489   2629 00           .db 0
7490   262A 00           .db 0
7491   262B 88           .db 136
7492   262C 00           .db 0
7493   262D 00           .db 0
7494   262E 00           .db 0
7495   262F 00           .db 0
7496   2630 85           .db 133
7497   2631 00           .db 0
7498   2632 00           .db 0
7499   2633 00           .db 0
7500   2634 00           .db 0
7501   2635 88           .db 136
7502   2636 00           .db 0
7503   2637 00           .db 0
7504   2638 00           .db 0
7505   2639 00           .db 0
7506   263A 85           .db 133
7507   263B 00           .db 0
7508   263C 00           .db 0
7509   263D 00           .db 0
7510   263E 00           .db 0
7511   263F 88           .db 136
7512   2640 00           .db 0
7513   2641 00           .db 0
7514   2642 00           .db 0
7515   2643 00           .db 0
7516   2644 85           .db 133
7517   2645 00           .db 0
7518   2646 00           .db 0
7519   2647 00           .db 0
7520   2648 00           .db 0
7521   2649 88           .db 136
7522   264A 00           .db 0
7523   264B 00           .db 0
7524   264C 00           .db 0
7525   264D 00           .db 0
7526   264E 85           .db 133
7527   264F 00           .db 0
7528   2650 00           .db 0
7529   2651 00           .db 0
7530   2652 00           .db 0
7531   2653 85           .db 133
7532   2654 00           .db 0
7533   2655 85           .db 133
7534   2656 00           .db 0
7535   2657 00           .db 0
7536   2658 00           .db 0
7537   2659 00           .db 0
7538   265A 00           .db 0
7539   265B 84           .db 132
7540   265C 16           .db 22
7541   265D 11           .db 17
7542   265E 09           .db 9
7543   265F 12           .db 18
7544   2660 00           .db 0
7545   2661 00           .db 0
7546   2662 00           .db 0
7547   2663 00           .db 0
7548   2664 84           .db 132
7549   2665 00           .db 0
7550   2666 00           .db 0
7551   2667 84           .db 132
7552   2668 00           .db 0
7553   2669 00           .db 0
7554   266A 84           .db 132
7555   266B 00           .db 0
7556   266C 00           .db 0
7557   266D 84           .db 132
7558   266E 00           .db 0
7559   266F 00           .db 0
7560   2670 00           .db 0
7561   2671 00           .db 0
7562   2672 00           .db 0
7563   2673 00           .db 0
7564   2674 00           .db 0
7565   2675 00           .db 0
7566   2676 85           .db 133
7567   2677 00           .db 0
7568   2678 00           .db 0
7569   2679 00           .db 0
7570   267A 00           .db 0
7571   267B 88           .db 136
7572   267C 00           .db 0
7573   267D 00           .db 0
7574   267E 00           .db 0
7575   267F 00           .db 0
7576   2680 85           .db 133
7577   2681 00           .db 0
7578   2682 00           .db 0
7579   2683 00           .db 0
7580   2684 00           .db 0
7581   2685 88           .db 136
7582   2686 00           .db 0
7583   2687 00           .db 0
7584   2688 00           .db 0
7585   2689 00           .db 0
7586   268A 85           .db 133
7587   268B 00           .db 0
7588   268C 00           .db 0
7589   268D 00           .db 0
7590   268E 00           .db 0
7591   268F 88           .db 136
7592   2690 00           .db 0
7593   2691 00           .db 0
7594   2692 00           .db 0
7595   2693 00           .db 0
7596   2694 85           .db 133
7597   2695 00           .db 0
7598   2696 00           .db 0
7599   2697 00           .db 0
7600   2698 00           .db 0
7601   2699 88           .db 136
7602   269A 00           .db 0
7603   269B 00           .db 0
7604   269C 00           .db 0
7605   269D 00           .db 0
7606   269E 85           .db 133
7607   269F 00           .db 0
7608   26A0 00           .db 0
7609   26A1 00           .db 0
7610   26A2 00           .db 0
7611   26A3 85           .db 133
7612   26A4 00           .db 0
7613   26A5 85           .db 133
7614   26A6 00           .db 0
7615   26A7 00           .db 0
7616   26A8 00           .db 0
7617   26A9 00           .db 0
7618   26AA 00           .db 0
7619   26AB 84           .db 132
7620   26AC 16           .db 22
7621   26AD 11           .db 17
7622   26AE 2B           .db 43
7623   26AF 12           .db 18
7624   26B0 00           .db 0
7625   26B1 00           .db 0
7626   26B2 00           .db 0
7627   26B3 00           .db 0
7628   26B4 84           .db 132
7629   26B5 00           .db 0
7630   26B6 00           .db 0
7631   26B7 84           .db 132
7632   26B8 00           .db 0
7633   26B9 00           .db 0
7634   26BA 84           .db 132
7635   26BB 00           .db 0
7636   26BC 00           .db 0
7637   26BD 84           .db 132
7638   26BE 00           .db 0
7639   26BF 00           .db 0
7640   26C0 00           .db 0
7641   26C1 00           .db 0
7642   26C2 00           .db 0
7643   26C3 00           .db 0
7644   26C4 00           .db 0
7645   26C5 00           .db 0
7646   26C6 85           .db 133
7647   26C7 00           .db 0
7648   26C8 00           .db 0
7649   26C9 00           .db 0
7650   26CA 00           .db 0
7651   26CB 88           .db 136
7652   26CC 00           .db 0
7653   26CD 00           .db 0
7654   26CE 00           .db 0
7655   26CF 00           .db 0
7656   26D0 85           .db 133
7657   26D1 00           .db 0
7658   26D2 00           .db 0
7659   26D3 00           .db 0
7660   26D4 00           .db 0
7661   26D5 88           .db 136
7662   26D6 00           .db 0
7663   26D7 00           .db 0
7664   26D8 00           .db 0
7665   26D9 00           .db 0
7666   26DA 85           .db 133
7667   26DB 00           .db 0
7668   26DC 00           .db 0
7669   26DD 00           .db 0
7670   26DE 00           .db 0
7671   26DF 88           .db 136
7672   26E0 00           .db 0
7673   26E1 00           .db 0
7674   26E2 00           .db 0
7675   26E3 00           .db 0
7676   26E4 85           .db 133
7677   26E5 00           .db 0
7678   26E6 00           .db 0
7679   26E7 00           .db 0
7680   26E8 00           .db 0
7681   26E9 88           .db 136
7682   26EA 00           .db 0
7683   26EB 00           .db 0
7684   26EC 00           .db 0
7685   26ED 00           .db 0
7686   26EE 85           .db 133
7687   26EF 00           .db 0
7688   26F0 00           .db 0
7689   26F1 00           .db 0
7690   26F2 00           .db 0
7691   26F3 85           .db 133
7692   26F4 00           .db 0
7693   26F5 85           .db 133
7694   26F6 00           .db 0
7695   26F7 00           .db 0
7696   26F8 00           .db 0
7697   26F9 00           .db 0
7698   26FA 00           .db 0
7699   26FB 84           .db 132
7700   26FC 32           .db 50
7701   26FD 0A           .db 10
7702   26FE 1D           .db 29
7703   26FF 12           .db 18
7704   2700 00           .db 0
7705   2701 00           .db 0
7706   2702 00           .db 0
7707   2703 00           .db 0
7708   2704 80           .db 128
7709   2705 38           .db 56
7710   2706 80           .db 128
7711   2707 38           .db 56
7712   2708 80           .db 128
7713   2709 38           .db 56
7714   270A 80           .db 128
7715   270B 38           .db 56
7716   270C 80           .db 128
7717   270D 38           .db 56
7718   270E 80           .db 128
7719   270F 38           .db 56
7720   2710 80           .db 128
7721   2711 38           .db 56
7722   2712 38           .db 56
7723   2713 38           .db 56
7724   2714 38           .db 56
7725   2715 38           .db 56
7726   2716 38           .db 56
7727   2717 38           .db 56
7728   2718 38           .db 56
7729   2719 38           .db 56
7730   271A 38           .db 56
7731   271B 38           .db 56
7732   271C 38           .db 56
7733   271D 38           .db 56
7734   271E 38           .db 56
7735   271F 38           .db 56
7736   2720 38           .db 56
7737   2721 38           .db 56
7738   2722 38           .db 56
7739   2723 38           .db 56
7740   2724 38           .db 56
7741   2725 38           .db 56
7742   2726 38           .db 56
7743   2727 38           .db 56
7744   2728 38           .db 56
7745   2729 38           .db 56
7746   272A 38           .db 56
7747   272B 38           .db 56
7748   272C 38           .db 56
7749   272D 38           .db 56
7750   272E 38           .db 56
7751   272F 38           .db 56
7752   2730 80           .db 128
7753   2731 38           .db 56
7754   2732 80           .db 128
7755   2733 38           .db 56
7756   2734 80           .db 128
7757   2735 38           .db 56
7758   2736 80           .db 128
7759   2737 38           .db 56
7760   2738 80           .db 128
7761   2739 38           .db 56
7762   273A 80           .db 128
7763   273B 38           .db 56
7764   273C 80           .db 128
7765   273D 38           .db 56
7766   273E 80           .db 128
7767   273F 38           .db 56
7768   2740 80           .db 128
7769   2741 38           .db 56
7770   2742 38           .db 56
7771   2743 38           .db 56
7772   2744 38           .db 56
7773   2745 38           .db 56
7774   2746 38           .db 56
7775   2747 38           .db 56
7776   2748 38           .db 56
7777   2749 38           .db 56
7778   274A 38           .db 56
7779   274B 38           .db 56
7780   274C 38           .db 56
7781   274D 38           .db 56
7782   274E 38           .db 56
7783   274F 38           .db 56
7784   2750 38           .db 56
7785   2751 38           .db 56
7786   2752 38           .db 56
7787   2753 38           .db 56
7788   2754 80           .db 128
7789   2755 3F           .db 63
7790   2756 3F           .db 63
7791   2757 3F           .db 63
7792   2758 1F           .db 31
7793   2759 84           .db 132
7794   275A 38           .db 56
7795   275B 38           .db 56
7796   275C 38           .db 56
7797   275D 38           .db 56
7798   275E 38           .db 56
7799   275F 80           .db 128
7800   2760 37           .db 55
7801   2761 3F           .db 63
7802   2762 3F           .db 63
7803   2763 3F           .db 63
7804   2764 3F           .db 63
7805   2765 3F           .db 63
7806   2766 1F           .db 31
7807   2767 84           .db 132
7808   2768 38           .db 56
7809   2769 38           .db 56
7810   276A 38           .db 56
7811   276B 38           .db 56
7812   276C 38           .db 56
7813   276D 80           .db 128
7814   276E 37           .db 55
7815   276F 3F           .db 63
7816   2770 3F           .db 63
7817   2771 3F           .db 63
7818   2772 3F           .db 63
7819   2773 3F           .db 63
7820   2774 3F           .db 63
7821   2775 1F           .db 31
7822   2776 84           .db 132
7823   2777 38           .db 56
7824   2778 38           .db 56
7825   2779 38           .db 56
7826   277A 38           .db 56
7827   277B 38           .db 56
7828   277C 80           .db 128
7829   277D 37           .db 55
7830   277E 3F           .db 63
7831   277F 3F           .db 63
7832   2780 80           .db 128
7833   2781 3F           .db 63
7834   2782 80           .db 128
7835   2783 3F           .db 63
7836   2784 80           .db 128
7837   2785 3F           .db 63
7838   2786 80           .db 128
7839   2787 3F           .db 63
7840   2788 80           .db 128
7841   2789 1F           .db 31
7842   278A 80           .db 128
7843   278B 38           .db 56
7844   278C 80           .db 128
7845   278D 38           .db 56
7846   278E 80           .db 128
7847   278F 38           .db 56
7848   2790 80           .db 128
7849   2791 38           .db 56
7850   2792 38           .db 56
7851   2793 37           .db 55
7852   2794 3F           .db 63
7853   2795 3F           .db 63
7854   2796 3F           .db 63
7855   2797 3F           .db 63
7856   2798 3F           .db 63
7857   2799 1F           .db 31
7858   279A 38           .db 56
7859   279B 38           .db 56
7860   279C 38           .db 56
7861   279D 38           .db 56
7862   279E 38           .db 56
7863   279F 38           .db 56
7864   27A0 2E           .db 46
7865   27A1 3F           .db 63
7866   27A2 3F           .db 63
7867   27A3 3F           .db 63
7868   27A4 80           .db 128
7869   27A5 3F           .db 63
7870   27A6 3F           .db 63
7871   27A7 3F           .db 63
7872   27A8 1B           .db 27
7873   27A9 84           .db 132
7874   27AA 1B           .db 27
7875   27AB 38           .db 56
7876   27AC 3E           .db 62
7877   27AD 25           .db 37
7878   27AE 3F           .db 63
7879   27AF 80           .db 128
7880   27B0 36           .db 54
7881   27B1 3F           .db 63
7882   27B2 3F           .db 63
7883   27B3 3F           .db 63
7884   27B4 3F           .db 63
7885   27B5 3F           .db 63
7886   27B6 1B           .db 27
7887   27B7 84           .db 132
7888   27B8 1B           .db 27
7889   27B9 38           .db 56
7890   27BA 3A           .db 58
7891   27BB 38           .db 56
7892   27BC 37           .db 55
7893   27BD 80           .db 128
7894   27BE 36           .db 54
7895   27BF 3F           .db 63
7896   27C0 3F           .db 63
7897   27C1 3F           .db 63
7898   27C2 3F           .db 63
7899   27C3 3F           .db 63
7900   27C4 3F           .db 63
7901   27C5 1B           .db 27
7902   27C6 84           .db 132
7903   27C7 1B           .db 27
7904   27C8 38           .db 56
7905   27C9 3A           .db 58
7906   27CA 38           .db 56
7907   27CB 37           .db 55
7908   27CC 80           .db 128
7909   27CD 36           .db 54
7910   27CE 3F           .db 63
7911   27CF 3F           .db 63
7912   27D0 80           .db 128
7913   27D1 3F           .db 63
7914   27D2 80           .db 128
7915   27D3 3F           .db 63
7916   27D4 80           .db 128
7917   27D5 3F           .db 63
7918   27D6 80           .db 128
7919   27D7 3F           .db 63
7920   27D8 80           .db 128
7921   27D9 1B           .db 27
7922   27DA 80           .db 128
7923   27DB 1B           .db 27
7924   27DC 80           .db 128
7925   27DD 38           .db 56
7926   27DE 80           .db 128
7927   27DF 1A           .db 26
7928   27E0 80           .db 128
7929   27E1 3F           .db 63
7930   27E2 36           .db 54
7931   27E3 36           .db 54
7932   27E4 3F           .db 63
7933   27E5 3F           .db 63
7934   27E6 3F           .db 63
7935   27E7 3F           .db 63
7936   27E8 3F           .db 63
7937   27E9 1B           .db 27
7938   27EA 2B           .db 43
7939   27EB 1C           .db 28
7940   27EC 29           .db 41
7941   27ED 1C           .db 28
7942   27EE 39           .db 57
7943   27EF 1C           .db 28
7944   27F0 2D           .db 45
7945   27F1 3F           .db 63
7946   27F2 3F           .db 63
7947   27F3 3F           .db 63
7948   27F4 80           .db 128
7949   27F5 3F           .db 63
7950   27F6 3F           .db 63
7951   27F7 3F           .db 63
7952   27F8 1B           .db 27
7953   27F9 84           .db 132
7954   27FA 1B           .db 27
7955   27FB 3C           .db 60
7956   27FC 3F           .db 63
7957   27FD 2D           .db 45
7958   27FE 3F           .db 63
7959   27FF 80           .db 128
7960   2800 36           .db 54
7961   2801 3F           .db 63
7962   2802 3F           .db 63
7963   2803 3F           .db 63
7964   2804 3F           .db 63
7965   2805 3F           .db 63
7966   2806 1B           .db 27
7967   2807 84           .db 132
7968   2808 1B           .db 27
7969   2809 3C           .db 60
7970   280A 1F           .db 31
7971   280B 38           .db 56
7972   280C 3F           .db 63
7973   280D 80           .db 128
7974   280E 36           .db 54
7975   280F 3F           .db 63
7976   2810 3F           .db 63
7977   2811 3F           .db 63
7978   2812 3F           .db 63
7979   2813 3F           .db 63
7980   2814 3F           .db 63
7981   2815 1B           .db 27
7982   2816 84           .db 132
7983   2817 1B           .db 27
7984   2818 3C           .db 60
7985   2819 3F           .db 63
7986   281A 39           .db 57
7987   281B 37           .db 55
7988   281C 80           .db 128
7989   281D 36           .db 54
7990   281E 3F           .db 63
7991   281F 3F           .db 63
7992   2820 80           .db 128
7993   2821 3F           .db 63
7994   2822 80           .db 128
7995   2823 3F           .db 63
7996   2824 80           .db 128
7997   2825 3F           .db 63
7998   2826 80           .db 128
7999   2827 3F           .db 63
8000   2828 80           .db 128
8001   2829 1B           .db 27
8002   282A 80           .db 128
8003   282B 1B           .db 27
8004   282C 80           .db 128
8005   282D 3C           .db 60
8006   282E 80           .db 128
8007   282F 3B           .db 59
8008   2830 80           .db 128
8009   2831 38           .db 56
8010   2832 36           .db 54
8011   2833 36           .db 54
8012   2834 3F           .db 63
8013   2835 3F           .db 63
8014   2836 3F           .db 63
8015   2837 3F           .db 63
8016   2838 3F           .db 63
8017   2839 1B           .db 27
8018   283A 0D           .db 13
8019   283B 03           .db 3
8020   283C 0D           .db 13
8021   283D 23           .db 35
8022   283E 2B           .db 43
8023   283F 3C           .db 60
8024   2840 2D           .db 45
8025   2841 3F           .db 63
8026   2842 3F           .db 63
8027   2843 3F           .db 63
8028   2844 80           .db 128
8029   2845 3F           .db 63
8030   2846 3F           .db 63
8031   2847 3F           .db 63
8032   2848 1B           .db 27
8033   2849 84           .db 132
8034   284A 3B           .db 59
8035   284B 3F           .db 63
8036   284C 3B           .db 59
8037   284D 38           .db 56
8038   284E 3E           .db 62
8039   284F 80           .db 128
8040   2850 36           .db 54
8041   2851 3F           .db 63
8042   2852 3F           .db 63
8043   2853 3F           .db 63
8044   2854 3F           .db 63
8045   2855 3F           .db 63
8046   2856 1B           .db 27
8047   2857 84           .db 132
8048   2858 3B           .db 59
8049   2859 3F           .db 63
8050   285A 3B           .db 59
8051   285B 38           .db 56
8052   285C 3E           .db 62
8053   285D 80           .db 128
8054   285E 36           .db 54
8055   285F 3F           .db 63
8056   2860 3F           .db 63
8057   2861 3F           .db 63
8058   2862 3F           .db 63
8059   2863 3F           .db 63
8060   2864 3F           .db 63
8061   2865 1B           .db 27
8062   2866 84           .db 132
8063   2867 3B           .db 59
8064   2868 3F           .db 63
8065   2869 3B           .db 59
8066   286A 38           .db 56
8067   286B 3F           .db 63
8068   286C 80           .db 128
8069   286D 36           .db 54
8070   286E 3F           .db 63
8071   286F 3F           .db 63
8072   2870 80           .db 128
8073   2871 3F           .db 63
8074   2872 80           .db 128
8075   2873 3F           .db 63
8076   2874 80           .db 128
8077   2875 3F           .db 63
8078   2876 80           .db 128
8079   2877 3F           .db 63
8080   2878 80           .db 128
8081   2879 1B           .db 27
8082   287A 80           .db 128
8083   287B 3B           .db 59
8084   287C 80           .db 128
8085   287D 3F           .db 63
8086   287E 80           .db 128
8087   287F 3F           .db 63
8088   2880 80           .db 128
8089   2881 3F           .db 63
8090   2882 3E           .db 62
8091   2883 36           .db 54
8092   2884 3F           .db 63
8093   2885 3F           .db 63
8094   2886 3F           .db 63
8095   2887 3F           .db 63
8096   2888 3F           .db 63
8097   2889 1B           .db 27
8098   288A 3D           .db 61
8099   288B 3B           .db 59
8100   288C 3D           .db 61
8101   288D 3F           .db 63
8102   288E 39           .db 57
8103   288F 38           .db 56
8104   2890 2D           .db 45
8105   2891 3F           .db 63
8106   2892 3F           .db 63
8107   2893 3F           .db 63
8108   2894 80           .db 128
8109   2895 3F           .db 63
8110   2896 80           .db 128
8111   2897 3F           .db 63
8112   2898 80           .db 128
8113   2899 3F           .db 63
8114   289A 80           .db 128
8115   289B 3F           .db 63
8116   289C 80           .db 128
8117   289D 38           .db 56
8118   289E 80           .db 128
8119   289F 38           .db 56
8120   28A0 80           .db 128
8121   28A1 38           .db 56
8122   28A2 38           .db 56
8123   28A3 38           .db 56
8124   28A4 3F           .db 63
8125   28A5 3F           .db 63
8126   28A6 3F           .db 63
8127   28A7 3F           .db 63
8128   28A8 3F           .db 63
8129   28A9 3F           .db 63
8130   28AA 3F           .db 63
8131   28AB 38           .db 56
8132   28AC 38           .db 56
8133   28AD 38           .db 56
8134   28AE 38           .db 56
8135   28AF 38           .db 56
8136   28B0 3F           .db 63
8137   28B1 3F           .db 63
8138   28B2 3F           .db 63
8139   28B3 3F           .db 63
8140   28B4 3F           .db 63
8141   28B5 3F           .db 63
8142   28B6 3F           .db 63
8143   28B7 3F           .db 63
8144   28B8 38           .db 56
8145   28B9 38           .db 56
8146   28BA 38           .db 56
8147   28BB 38           .db 56
8148   28BC 38           .db 56
8149   28BD 3F           .db 63
8150   28BE 3F           .db 63
8151   28BF 3F           .db 63
8152   28C0 80           .db 128
8153   28C1 3F           .db 63
8154   28C2 80           .db 128
8155   28C3 3F           .db 63
8156   28C4 80           .db 128
8157   28C5 3F           .db 63
8158   28C6 80           .db 128
8159   28C7 3F           .db 63
8160   28C8 80           .db 128
8161   28C9 3F           .db 63
8162   28CA 80           .db 128
8163   28CB 38           .db 56
8164   28CC 80           .db 128
8165   28CD 38           .db 56
8166   28CE 80           .db 128
8167   28CF 38           .db 56
8168   28D0 80           .db 128
8169   28D1 38           .db 56
8170   28D2 38           .db 56
8171   28D3 3F           .db 63
8172   28D4 3F           .db 63
8173   28D5 3F           .db 63
8174   28D6 3F           .db 63
8175   28D7 3F           .db 63
8176   28D8 3F           .db 63
8177   28D9 3F           .db 63
8178   28DA 38           .db 56
8179   28DB 38           .db 56
8180   28DC 38           .db 56
8181   28DD 38           .db 56
8182   28DE 38           .db 56
8183   28DF 38           .db 56
8184   28E0 3E           .db 62
8185   28E1 3F           .db 63
8186   28E2 3F           .db 63
8187   28E3 3F           .db 63
8188   28E4 80           .db 128
8189   28E5 3F           .db 63
8190   28E6 80           .db 128
8191   28E7 3F           .db 63
8192   28E8 80           .db 128
8193   28E9 1B           .db 27
8194   28EA 80           .db 128
8195   28EB 38           .db 56
8196   28EC 80           .db 128
8197   28ED 12           .db 18
8198   28EE 80           .db 128
8199   28EF 3F           .db 63
8200   28F0 80           .db 128
8201   28F1 32           .db 50
8202   28F2 28           .db 40
8203   28F3 1A           .db 26
8204   28F4 07           .db 7
8205   28F5 3F           .db 63
8206   28F6 3F           .db 63
8207   28F7 3F           .db 63
8208   28F8 3F           .db 63
8209   28F9 3B           .db 59
8210   28FA 38           .db 56
8211   28FB 13           .db 19
8212   28FC 38           .db 56
8213   28FD 13           .db 19
8214   28FE 3F           .db 63
8215   28FF 12           .db 18
8216   2900 1F           .db 31
8217   2901 3E           .db 62
8218   2902 3F           .db 63
8219   2903 3F           .db 63
8220   2904 3F           .db 63
8221   2905 1B           .db 27
8222   2906 38           .db 56
8223   2907 16           .db 22
8224   2908 38           .db 56
8225   2909 17           .db 23
8226   290A 38           .db 56
8227   290B 17           .db 23
8228   290C 38           .db 56
8229   290D 13           .db 19
8230   290E 1F           .db 31
8231   290F 3E           .db 62
8232   2910 80           .db 128
8233   2911 3F           .db 63
8234   2912 80           .db 128
8235   2913 1B           .db 27
8236   2914 80           .db 128
8237   2915 38           .db 56
8238   2916 80           .db 128
8239   2917 13           .db 19
8240   2918 80           .db 128
8241   2919 38           .db 56
8242   291A 80           .db 128
8243   291B 1A           .db 26
8244   291C 80           .db 128
8245   291D 1F           .db 31
8246   291E 80           .db 128
8247   291F 1E           .db 30
8248   2920 80           .db 128
8249   2921 38           .db 56
8250   2922 13           .db 19
8251   2923 38           .db 56
8252   2924 17           .db 23
8253   2925 38           .db 56
8254   2926 37           .db 55
8255   2927 3F           .db 63
8256   2928 36           .db 54
8257   2929 2D           .db 45
8258   292A 31           .db 49
8259   292B 2E           .db 46
8260   292C 36           .db 54
8261   292D 2D           .db 45
8262   292E 31           .db 49
8263   292F 2E           .db 46
8264   2930 31           .db 49
8265   2931 2E           .db 46
8266   2932 31           .db 49
8267   2933 2E           .db 46
8268   2934 80           .db 128
8269   2935 3F           .db 63
8270   2936 80           .db 128
8271   2937 3F           .db 63
8272   2938 80           .db 128
8273   2939 1B           .db 27
8274   293A 80           .db 128
8275   293B 3F           .db 63
8276   293C 80           .db 128
8277   293D 36           .db 54
8278   293E 80           .db 128
8279   293F 38           .db 56
8280   2940 80           .db 128
8281   2941 36           .db 54
8282   2942 2D           .db 45
8283   2943 1B           .db 27
8284   2944 3F           .db 63
8285   2945 36           .db 54
8286   2946 3F           .db 63
8287   2947 3F           .db 63
8288   2948 3F           .db 63
8289   2949 3F           .db 63
8290   294A 38           .db 56
8291   294B 13           .db 19
8292   294C 38           .db 56
8293   294D 37           .db 55
8294   294E 38           .db 56
8295   294F 12           .db 18
8296   2950 1C           .db 28
8297   2951 3F           .db 63
8298   2952 3F           .db 63
8299   2953 3F           .db 63
8300   2954 3F           .db 63
8301   2955 1B           .db 27
8302   2956 3F           .db 63
8303   2957 12           .db 18
8304   2958 3F           .db 63
8305   2959 12           .db 18
8306   295A 3F           .db 63
8307   295B 12           .db 18
8308   295C 3F           .db 63
8309   295D 13           .db 19
8310   295E 1C           .db 28
8311   295F 3F           .db 63
8312   2960 80           .db 128
8313   2961 3F           .db 63
8314   2962 80           .db 128
8315   2963 1B           .db 27
8316   2964 80           .db 128
8317   2965 38           .db 56
8318   2966 80           .db 128
8319   2967 1B           .db 27
8320   2968 80           .db 128
8321   2969 38           .db 56
8322   296A 80           .db 128
8323   296B 1B           .db 27
8324   296C 80           .db 128
8325   296D 1C           .db 28
8326   296E 80           .db 128
8327   296F 1B           .db 27
8328   2970 80           .db 128
8329   2971 3F           .db 63
8330   2972 12           .db 18
8331   2973 38           .db 56
8332   2974 1B           .db 27
8333   2975 3F           .db 63
8334   2976 36           .db 54
8335   2977 3F           .db 63
8336   2978 30           .db 48
8337   2979 2C           .db 44
8338   297A 06           .db 6
8339   297B 25           .db 37
8340   297C 38           .db 56
8341   297D 2C           .db 44
8342   297E 06           .db 6
8343   297F 25           .db 37
8344   2980 36           .db 54
8345   2981 2D           .db 45
8346   2982 36           .db 54
8347   2983 2D           .db 45
8348   2984 80           .db 128
8349   2985 3F           .db 63
8350   2986 80           .db 128
8351   2987 3F           .db 63
8352   2988 80           .db 128
8353   2989 3B           .db 59
8354   298A 80           .db 128
8355   298B 3F           .db 63
8356   298C 80           .db 128
8357   298D 3E           .db 62
8358   298E 80           .db 128
8359   298F 38           .db 56
8360   2990 80           .db 128
8361   2991 3F           .db 63
8362   2992 3D           .db 61
8363   2993 3B           .db 59
8364   2994 38           .db 56
8365   2995 3F           .db 63
8366   2996 3F           .db 63
8367   2997 3F           .db 63
8368   2998 3F           .db 63
8369   2999 3B           .db 59
8370   299A 38           .db 56
8371   299B 3B           .db 59
8372   299C 38           .db 56
8373   299D 3F           .db 63
8374   299E 38           .db 56
8375   299F 3B           .db 59
8376   29A0 3F           .db 63
8377   29A1 3E           .db 62
8378   29A2 3F           .db 63
8379   29A3 3F           .db 63
8380   29A4 3F           .db 63
8381   29A5 3B           .db 59
8382   29A6 3F           .db 63
8383   29A7 3E           .db 62
8384   29A8 38           .db 56
8385   29A9 39           .db 57
8386   29AA 38           .db 56
8387   29AB 3C           .db 60
8388   29AC 38           .db 56
8389   29AD 3B           .db 59
8390   29AE 3F           .db 63
8391   29AF 3E           .db 62
8392   29B0 80           .db 128
8393   29B1 3F           .db 63
8394   29B2 80           .db 128
8395   29B3 3B           .db 59
8396   29B4 80           .db 128
8397   29B5 3F           .db 63
8398   29B6 80           .db 128
8399   29B7 3B           .db 59
8400   29B8 80           .db 128
8401   29B9 38           .db 56
8402   29BA 80           .db 128
8403   29BB 3A           .db 58
8404   29BC 80           .db 128
8405   29BD 3F           .db 63
8406   29BE 80           .db 128
8407   29BF 3E           .db 62
8408   29C0 80           .db 128
8409   29C1 38           .db 56
8410   29C2 3B           .db 59
8411   29C3 3F           .db 63
8412   29C4 39           .db 57
8413   29C5 38           .db 56
8414   29C6 3C           .db 60
8415   29C7 3F           .db 63
8416   29C8 3E           .db 62
8417   29C9 3D           .db 61
8418   29CA 3E           .db 62
8419   29CB 3D           .db 61
8420   29CC 3F           .db 63
8421   29CD 3D           .db 61
8422   29CE 3E           .db 62
8423   29CF 3D           .db 61
8424   29D0 3E           .db 62
8425   29D1 3D           .db 61
8426   29D2 39           .db 57
8427   29D3 3E           .db 62
8428   29D4             
8429   29D4             startScreen:
8430   29D4 00           .db 0
8431   29D5 F1           .db 241
8432   29D6 00           .db 0
8433   29D7 F1           .db 241
8434   29D8 00           .db 0
8435   29D9 F1           .db 241
8436   29DA 00           .db 0
8437   29DB F1           .db 241
8438   29DC 00           .db 0
8439   29DD F1           .db 241
8440   29DE 00           .db 0
8441   29DF F1           .db 241
8442   29E0 00           .db 0
8443   29E1 F1           .db 241
8444   29E2 00           .db 0
8445   29E3 00           .db 0
8446   29E4 00           .db 0
8447   29E5 00           .db 0
8448   29E6 00           .db 0
8449   29E7 00           .db 0
8450   29E8 00           .db 0
8451   29E9 00           .db 0
8452   29EA 80           .db 128
8453   29EB 00           .db 0
8454   29EC 80           .db 128
8455   29ED 00           .db 0
8456   29EE 80           .db 128
8457   29EF 00           .db 0
8458   29F0 80           .db 128
8459   29F1 00           .db 0
8460   29F2 80           .db 128
8461   29F3 00           .db 0
8462   29F4 80           .db 128
8463   29F5 00           .db 0
8464   29F6 80           .db 128
8465   29F7 00           .db 0
8466   29F8 80           .db 128
8467   29F9 00           .db 0
8468   29FA 80           .db 128
8469   29FB 00           .db 0
8470   29FC 80           .db 128
8471   29FD 00           .db 0
8472   29FE 80           .db 128
8473   29FF 00           .db 0
8474   2A00 80           .db 128
8475   2A01 08           .db 8
8476   2A02 80           .db 128
8477   2A03 00           .db 0
8478   2A04 80           .db 128
8479   2A05 00           .db 0
8480   2A06 80           .db 128
8481   2A07 00           .db 0
8482   2A08 80           .db 128
8483   2A09 00           .db 0
8484   2A0A 10           .db 16
8485   2A0B 00           .db 0
8486   2A0C 00           .db 0
8487   2A0D 00           .db 0
8488   2A0E 00           .db 0
8489   2A0F 00           .db 0
8490   2A10 00           .db 0
8491   2A11 00           .db 0
8492   2A12 00           .db 0
8493   2A13 00           .db 0
8494   2A14 00           .db 0
8495   2A15 00           .db 0
8496   2A16 00           .db 0
8497   2A17 10           .db 16
8498   2A18 00           .db 0
8499   2A19 00           .db 0
8500   2A1A 3A           .db 58
8501   2A1B 00           .db 0
8502   2A1C 00           .db 0
8503   2A1D 00           .db 0
8504   2A1E 00           .db 0
8505   2A1F 00           .db 0
8506   2A20 00           .db 0
8507   2A21 38           .db 56
8508   2A22 08           .db 8
8509   2A23 00           .db 0
8510   2A24 10           .db 16
8511   2A25 00           .db 0
8512   2A26 00           .db 0
8513   2A27 18           .db 24
8514   2A28 00           .db 0
8515   2A29 00           .db 0
8516   2A2A 00           .db 0
8517   2A2B 00           .db 0
8518   2A2C 00           .db 0
8519   2A2D 00           .db 0
8520   2A2E 00           .db 0
8521   2A2F 00           .db 0
8522   2A30 00           .db 0
8523   2A31 00           .db 0
8524   2A32 00           .db 0
8525   2A33 00           .db 0
8526   2A34 00           .db 0
8527   2A35 00           .db 0
8528   2A36 00           .db 0
8529   2A37 00           .db 0
8530   2A38 00           .db 0
8531   2A39 00           .db 0
8532   2A3A 00           .db 0
8533   2A3B 00           .db 0
8534   2A3C 00           .db 0
8535   2A3D 00           .db 0
8536   2A3E 00           .db 0
8537   2A3F 00           .db 0
8538   2A40 00           .db 0
8539   2A41 00           .db 0
8540   2A42 00           .db 0
8541   2A43 00           .db 0
8542   2A44 00           .db 0
8543   2A45 00           .db 0
8544   2A46 00           .db 0
8545   2A47 00           .db 0
8546   2A48 80           .db 128
8547   2A49 00           .db 0
8548   2A4A 80           .db 128
8549   2A4B 34           .db 52
8550   2A4C 80           .db 128
8551   2A4D 08           .db 8
8552   2A4E 80           .db 128
8553   2A4F 20           .db 32
8554   2A50 80           .db 128
8555   2A51 19           .db 25
8556   2A52 80           .db 128
8557   2A53 00           .db 0
8558   2A54 80           .db 128
8559   2A55 3E           .db 62
8560   2A56 80           .db 128
8561   2A57 18           .db 24
8562   2A58 80           .db 128
8563   2A59 00           .db 0
8564   2A5A 80           .db 128
8565   2A5B 00           .db 0
8566   2A5C 80           .db 128
8567   2A5D 34           .db 52
8568   2A5E 80           .db 128
8569   2A5F 3B           .db 59
8570   2A60 80           .db 128
8571   2A61 3E           .db 62
8572   2A62 80           .db 128
8573   2A63 08           .db 8
8574   2A64 80           .db 128
8575   2A65 00           .db 0
8576   2A66 80           .db 128
8577   2A67 3C           .db 60
8578   2A68 3F           .db 63
8579   2A69 18           .db 24
8580   2A6A 00           .db 0
8581   2A6B 20           .db 32
8582   2A6C 19           .db 25
8583   2A6D 00           .db 0
8584   2A6E 3A           .db 58
8585   2A6F 00           .db 0
8586   2A70 20           .db 32
8587   2A71 19           .db 25
8588   2A72 00           .db 0
8589   2A73 00           .db 0
8590   2A74 20           .db 32
8591   2A75 3B           .db 59
8592   2A76 00           .db 0
8593   2A77 34           .db 52
8594   2A78 3F           .db 63
8595   2A79 3F           .db 63
8596   2A7A 08           .db 8
8597   2A7B 00           .db 0
8598   2A7C 00           .db 0
8599   2A7D 00           .db 0
8600   2A7E 34           .db 52
8601   2A7F 3F           .db 63
8602   2A80 3B           .db 59
8603   2A81 20           .db 32
8604   2A82 3F           .db 63
8605   2A83 08           .db 8
8606   2A84 34           .db 52
8607   2A85 3F           .db 63
8608   2A86 08           .db 8
8609   2A87 20           .db 32
8610   2A88 19           .db 25
8611   2A89 00           .db 0
8612   2A8A 3A           .db 58
8613   2A8B 00           .db 0
8614   2A8C 3A           .db 58
8615   2A8D 00           .db 0
8616   2A8E 20           .db 32
8617   2A8F 3F           .db 63
8618   2A90 08           .db 8
8619   2A91 20           .db 32
8620   2A92 19           .db 25
8621   2A93 00           .db 0
8622   2A94 34           .db 52
8623   2A95 3B           .db 59
8624   2A96 00           .db 0
8625   2A97 00           .db 0
8626   2A98 00           .db 0
8627   2A99 00           .db 0
8628   2A9A 00           .db 0
8629   2A9B 00           .db 0
8630   2A9C 00           .db 0
8631   2A9D 00           .db 0
8632   2A9E 00           .db 0
8633   2A9F 00           .db 0
8634   2AA0 00           .db 0
8635   2AA1 00           .db 0
8636   2AA2 00           .db 0
8637   2AA3 00           .db 0
8638   2AA4 00           .db 0
8639   2AA5 00           .db 0
8640   2AA6 80           .db 128
8641   2AA7 00           .db 0
8642   2AA8 80           .db 128
8643   2AA9 37           .db 55
8644   2AAA 80           .db 128
8645   2AAB 0B           .db 11
8646   2AAC 80           .db 128
8647   2AAD 26           .db 38
8648   2AAE 80           .db 128
8649   2AAF 1F           .db 31
8650   2AB0 80           .db 128
8651   2AB1 24           .db 36
8652   2AB2 80           .db 128
8653   2AB3 3F           .db 63
8654   2AB4 80           .db 128
8655   2AB5 2F           .db 47
8656   2AB6 80           .db 128
8657   2AB7 3B           .db 59
8658   2AB8 80           .db 128
8659   2AB9 00           .db 0
8660   2ABA 80           .db 128
8661   2ABB 37           .db 55
8662   2ABC 80           .db 128
8663   2ABD 0B           .db 11
8664   2ABE 37           .db 55
8665   2ABF 00           .db 0
8666   2AC0 3F           .db 63
8667   2AC1 27           .db 39
8668   2AC2 3F           .db 63
8669   2AC3 27           .db 39
8670   2AC4 1B           .db 27
8671   2AC5 26           .db 38
8672   2AC6 1F           .db 31
8673   2AC7 04           .db 4
8674   2AC8 3F           .db 63
8675   2AC9 01           .db 1
8676   2ACA 26           .db 38
8677   2ACB 1F           .db 31
8678   2ACC 89           .db 137
8679   2ACD 30           .db 48
8680   2ACE 38           .db 56
8681   2ACF 80           .db 128
8682   2AD0 04           .db 4
8683   2AD1 3F           .db 63
8684   2AD2 01           .db 1
8685   2AD3 24           .db 36
8686   2AD4 1B           .db 27
8687   2AD5 26           .db 38
8688   2AD6 09           .db 9
8689   2AD7 89           .db 137
8690   2AD8 38           .db 56
8691   2AD9 38           .db 56
8692   2ADA 08           .db 8
8693   2ADB 80           .db 128
8694   2ADC 36           .db 54
8695   2ADD 0F           .db 15
8696   2ADE 3F           .db 63
8697   2ADF 00           .db 0
8698   2AE0 3F           .db 63
8699   2AE1 00           .db 0
8700   2AE2 36           .db 54
8701   2AE3 37           .db 55
8702   2AE4 09           .db 9
8703   2AE5 26           .db 38
8704   2AE6 1F           .db 31
8705   2AE7 04           .db 4
8706   2AE8 3F           .db 63
8707   2AE9 05           .db 5
8708   2AEA 3F           .db 63
8709   2AEB 01           .db 1
8710   2AEC 36           .db 54
8711   2AED 3F           .db 63
8712   2AEE 1B           .db 27
8713   2AEF 26           .db 38
8714   2AF0 1F           .db 31
8715   2AF1 00           .db 0
8716   2AF2 3F           .db 63
8717   2AF3 3F           .db 63
8718   2AF4 09           .db 9
8719   2AF5 00           .db 0
8720   2AF6 00           .db 0
8721   2AF7 00           .db 0
8722   2AF8 00           .db 0
8723   2AF9 00           .db 0
8724   2AFA 00           .db 0
8725   2AFB 00           .db 0
8726   2AFC 00           .db 0
8727   2AFD 00           .db 0
8728   2AFE 00           .db 0
8729   2AFF 00           .db 0
8730   2B00 00           .db 0
8731   2B01 00           .db 0
8732   2B02 00           .db 0
8733   2B03 00           .db 0
8734   2B04 80           .db 128
8735   2B05 00           .db 0
8736   2B06 80           .db 128
8737   2B07 36           .db 54
8738   2B08 80           .db 128
8739   2B09 09           .db 9
8740   2B0A 80           .db 128
8741   2B0B 24           .db 36
8742   2B0C 80           .db 128
8743   2B0D 1B           .db 27
8744   2B0E 80           .db 128
8745   2B0F 00           .db 0
8746   2B10 80           .db 128
8747   2B11 3F           .db 63
8748   2B12 80           .db 128
8749   2B13 00           .db 0
8750   2B14 3F           .db 63
8751   2B15 01           .db 1
8752   2B16 36           .db 54
8753   2B17 09           .db 9
8754   2B18 36           .db 54
8755   2B19 00           .db 0
8756   2B1A 3F           .db 63
8757   2B1B 24           .db 36
8758   2B1C 3F           .db 63
8759   2B1D 24           .db 36
8760   2B1E 1B           .db 27
8761   2B1F 24           .db 36
8762   2B20 1B           .db 27
8763   2B21 00           .db 0
8764   2B22 3F           .db 63
8765   2B23 89           .db 137
8766   2B24 24           .db 36
8767   2B25 80           .db 128
8768   2B26 24           .db 36
8769   2B27 1B           .db 27
8770   2B28 89           .db 137
8771   2B29 36           .db 54
8772   2B2A 3F           .db 63
8773   2B2B 09           .db 9
8774   2B2C 80           .db 128
8775   2B2D 3F           .db 63
8776   2B2E 89           .db 137
8777   2B2F 24           .db 36
8778   2B30 80           .db 128
8779   2B31 24           .db 36
8780   2B32 1B           .db 27
8781   2B33 34           .db 52
8782   2B34 09           .db 9
8783   2B35 89           .db 137
8784   2B36 3F           .db 63
8785   2B37 3F           .db 63
8786   2B38 09           .db 9
8787   2B39 80           .db 128
8788   2B3A 3E           .db 62
8789   2B3B 09           .db 9
8790   2B3C 3F           .db 63
8791   2B3D 00           .db 0
8792   2B3E 3F           .db 63
8793   2B3F 00           .db 0
8794   2B40 3E           .db 62
8795   2B41 36           .db 54
8796   2B42 09           .db 9
8797   2B43 24           .db 36
8798   2B44 1B           .db 27
8799   2B45 00           .db 0
8800   2B46 3F           .db 63
8801   2B47 00           .db 0
8802   2B48 3F           .db 63
8803   2B49 00           .db 0
8804   2B4A 36           .db 54
8805   2B4B 2D           .db 45
8806   2B4C 1B           .db 27
8807   2B4D 24           .db 36
8808   2B4E 1B           .db 27
8809   2B4F 00           .db 0
8810   2B50 3F           .db 63
8811   2B51 36           .db 54
8812   2B52 09           .db 9
8813   2B53 00           .db 0
8814   2B54 00           .db 0
8815   2B55 00           .db 0
8816   2B56 00           .db 0
8817   2B57 00           .db 0
8818   2B58 00           .db 0
8819   2B59 00           .db 0
8820   2B5A 00           .db 0
8821   2B5B 00           .db 0
8822   2B5C 00           .db 0
8823   2B5D 00           .db 0
8824   2B5E 00           .db 0
8825   2B5F 00           .db 0
8826   2B60 00           .db 0
8827   2B61 00           .db 0
8828   2B62 80           .db 128
8829   2B63 00           .db 0
8830   2B64 84           .db 132
8831   2B65 36           .db 54
8832   2B66 84           .db 132
8833   2B67 09           .db 9
8834   2B68 84           .db 132
8835   2B69 24           .db 36
8836   2B6A 84           .db 132
8837   2B6B 1B           .db 27
8838   2B6C 84           .db 132
8839   2B6D 00           .db 0
8840   2B6E 84           .db 132
8841   2B6F 3F           .db 63
8842   2B70 84           .db 132
8843   2B71 00           .db 0
8844   2B72 3F           .db 63
8845   2B73 00           .db 0
8846   2B74 36           .db 54
8847   2B75 09           .db 9
8848   2B76 26           .db 38
8849   2B77 01           .db 1
8850   2B78 17           .db 23
8851   2B79 24           .db 36
8852   2B7A 3F           .db 63
8853   2B7B 00           .db 0
8854   2B7C 01           .db 1
8855   2B7D 24           .db 36
8856   2B7E 1B           .db 27
8857   2B7F 00           .db 0
8858   2B80 3F           .db 63
8859   2B81 89           .db 137
8860   2B82 24           .db 36
8861   2B83 84           .db 132
8862   2B84 24           .db 36
8863   2B85 1B           .db 27
8864   2B86 89           .db 137
8865   2B87 16           .db 22
8866   2B88 27           .db 39
8867   2B89 09           .db 9
8868   2B8A 84           .db 132
8869   2B8B 3F           .db 63
8870   2B8C 89           .db 137
8871   2B8D 24           .db 36
8872   2B8E 84           .db 132
8873   2B8F 24           .db 36
8874   2B90 1B           .db 27
8875   2B91 00           .db 0
8876   2B92 89           .db 137
8877   2B93 20           .db 32
8878   2B94 3F           .db 63
8879   2B95 3F           .db 63
8880   2B96 09           .db 9
8881   2B97 84           .db 132
8882   2B98 3F           .db 63
8883   2B99 09           .db 9
8884   2B9A 3F           .db 63
8885   2B9B 00           .db 0
8886   2B9C 3F           .db 63
8887   2B9D 00           .db 0
8888   2B9E 3F           .db 63
8889   2B9F 36           .db 54
8890   2BA0 09           .db 9
8891   2BA1 24           .db 36
8892   2BA2 1B           .db 27
8893   2BA3 00           .db 0
8894   2BA4 3F           .db 63
8895   2BA5 00           .db 0
8896   2BA6 3F           .db 63
8897   2BA7 00           .db 0
8898   2BA8 3E           .db 62
8899   2BA9 2D           .db 45
8900   2BAA 1B           .db 27
8901   2BAB 24           .db 36
8902   2BAC 1B           .db 27
8903   2BAD 00           .db 0
8904   2BAE 3F           .db 63
8905   2BAF 36           .db 54
8906   2BB0 09           .db 9
8907   2BB1 00           .db 0
8908   2BB2 00           .db 0
8909   2BB3 00           .db 0
8910   2BB4 00           .db 0
8911   2BB5 00           .db 0
8912   2BB6 00           .db 0
8913   2BB7 00           .db 0
8914   2BB8 00           .db 0
8915   2BB9 00           .db 0
8916   2BBA 00           .db 0
8917   2BBB 00           .db 0
8918   2BBC 00           .db 0
8919   2BBD 00           .db 0
8920   2BBE 00           .db 0
8921   2BBF 00           .db 0
8922   2BC0 80           .db 128
8923   2BC1 00           .db 0
8924   2BC2 84           .db 132
8925   2BC3 36           .db 54
8926   2BC4 84           .db 132
8927   2BC5 09           .db 9
8928   2BC6 84           .db 132
8929   2BC7 24           .db 36
8930   2BC8 1B           .db 27
8931   2BC9 00           .db 0
8932   2BCA 3F           .db 63
8933   2BCB 00           .db 0
8934   2BCC 3F           .db 63
8935   2BCD 00           .db 0
8936   2BCE 36           .db 54
8937   2BCF 09           .db 9
8938   2BD0 00           .db 0
8939   2BD1 89           .db 137
8940   2BD2 30           .db 48
8941   2BD3 08           .db 8
8942   2BD4 84           .db 132
8943   2BD5 24           .db 36
8944   2BD6 3F           .db 63
8945   2BD7 00           .db 0
8946   2BD8 89           .db 137
8947   2BD9 18           .db 24
8948   2BDA 84           .db 132
8949   2BDB 24           .db 36
8950   2BDC 3B           .db 59
8951   2BDD 20           .db 32
8952   2BDE 3F           .db 63
8953   2BDF 89           .db 137
8954   2BE0 24           .db 36
8955   2BE1 84           .db 132
8956   2BE2 24           .db 36
8957   2BE3 1B           .db 27
8958   2BE4 00           .db 0
8959   2BE5 08           .db 8
8960   2BE6 89           .db 137
8961   2BE7 01           .db 1
8962   2BE8 84           .db 132
8963   2BE9 3F           .db 63
8964   2BEA 89           .db 137
8965   2BEB 24           .db 36
8966   2BEC 84           .db 132
8967   2BED 24           .db 36
8968   2BEE 3B           .db 59
8969   2BEF 18           .db 24
8970   2BF0 89           .db 137
8971   2BF1 3E           .db 62
8972   2BF2 3F           .db 63
8973   2BF3 3F           .db 63
8974   2BF4 09           .db 9
8975   2BF5 84           .db 132
8976   2BF6 3F           .db 63
8977   2BF7 00           .db 0
8978   2BF8 3F           .db 63
8979   2BF9 00           .db 0
8980   2BFA 3F           .db 63
8981   2BFB 24           .db 36
8982   2BFC 1F           .db 31
8983   2BFD 36           .db 54
8984   2BFE 09           .db 9
8985   2BFF 24           .db 36
8986   2C00 1B           .db 27
8987   2C01 00           .db 0
8988   2C02 3F           .db 63
8989   2C03 00           .db 0
8990   2C04 3F           .db 63
8991   2C05 00           .db 0
8992   2C06 3F           .db 63
8993   2C07 25           .db 37
8994   2C08 1B           .db 27
8995   2C09 24           .db 36
8996   2C0A 1B           .db 27
8997   2C0B 20           .db 32
8998   2C0C 1F           .db 31
8999   2C0D 36           .db 54
9000   2C0E 09           .db 9
9001   2C0F 00           .db 0
9002   2C10 00           .db 0
9003   2C11 00           .db 0
9004   2C12 00           .db 0
9005   2C13 00           .db 0
9006   2C14 00           .db 0
9007   2C15 00           .db 0
9008   2C16 00           .db 0
9009   2C17 00           .db 0
9010   2C18 00           .db 0
9011   2C19 00           .db 0
9012   2C1A 00           .db 0
9013   2C1B 00           .db 0
9014   2C1C 00           .db 0
9015   2C1D 00           .db 0
9016   2C1E 80           .db 128
9017   2C1F 00           .db 0
9018   2C20 84           .db 132
9019   2C21 36           .db 54
9020   2C22 84           .db 132
9021   2C23 09           .db 9
9022   2C24 84           .db 132
9023   2C25 24           .db 36
9024   2C26 84           .db 132
9025   2C27 1B           .db 27
9026   2C28 84           .db 132
9027   2C29 00           .db 0
9028   2C2A 3F           .db 63
9029   2C2B 20           .db 32
9030   2C2C 1F           .db 31
9031   2C2D 00           .db 0
9032   2C2E 36           .db 54
9033   2C2F 3D           .db 61
9034   2C30 09           .db 9
9035   2C31 89           .db 137
9036   2C32 3F           .db 63
9037   2C33 3B           .db 59
9038   2C34 84           .db 132
9039   2C35 24           .db 36
9040   2C36 3F           .db 63
9041   2C37 89           .db 137
9042   2C38 24           .db 36
9043   2C39 3F           .db 63
9044   2C3A 84           .db 132
9045   2C3B 24           .db 36
9046   2C3C 3F           .db 63
9047   2C3D 27           .db 39
9048   2C3E 3F           .db 63
9049   2C3F 89           .db 137
9050   2C40 24           .db 36
9051   2C41 84           .db 132
9052   2C42 24           .db 36
9053   2C43 3B           .db 59
9054   2C44 2E           .db 46
9055   2C45 1B           .db 27
9056   2C46 00           .db 0
9057   2C47 3F           .db 63
9058   2C48 89           .db 137
9059   2C49 24           .db 36
9060   2C4A 84           .db 132
9061   2C4B 24           .db 36
9062   2C4C 1B           .db 27
9063   2C4D 00           .db 0
9064   2C4E 89           .db 137
9065   2C4F 26           .db 38
9066   2C50 3F           .db 63
9067   2C51 3F           .db 63
9068   2C52 09           .db 9
9069   2C53 84           .db 132
9070   2C54 3F           .db 63
9071   2C55 00           .db 0
9072   2C56 3F           .db 63
9073   2C57 00           .db 0
9074   2C58 3F           .db 63
9075   2C59 34           .db 52
9076   2C5A 1B           .db 27
9077   2C5B 36           .db 54
9078   2C5C 09           .db 9
9079   2C5D 24           .db 36
9080   2C5E 3F           .db 63
9081   2C5F 3C           .db 60
9082   2C60 3F           .db 63
9083   2C61 00           .db 0
9084   2C62 3F           .db 63
9085   2C63 00           .db 0
9086   2C64 3F           .db 63
9087   2C65 24           .db 36
9088   2C66 1B           .db 27
9089   2C67 24           .db 36
9090   2C68 1B           .db 27
9091   2C69 24           .db 36
9092   2C6A 1B           .db 27
9093   2C6B 36           .db 54
9094   2C6C 09           .db 9
9095   2C6D 00           .db 0
9096   2C6E 00           .db 0
9097   2C6F 00           .db 0
9098   2C70 00           .db 0
9099   2C71 00           .db 0
9100   2C72 00           .db 0
9101   2C73 00           .db 0
9102   2C74 00           .db 0
9103   2C75 00           .db 0
9104   2C76 00           .db 0
9105   2C77 00           .db 0
9106   2C78 00           .db 0
9107   2C79 00           .db 0
9108   2C7A 00           .db 0
9109   2C7B 00           .db 0
9110   2C7C 80           .db 128
9111   2C7D 00           .db 0
9112   2C7E 84           .db 132
9113   2C7F 36           .db 54
9114   2C80 84           .db 132
9115   2C81 09           .db 9
9116   2C82 84           .db 132
9117   2C83 24           .db 36
9118   2C84 84           .db 132
9119   2C85 1B           .db 27
9120   2C86 84           .db 132
9121   2C87 00           .db 0
9122   2C88 3F           .db 63
9123   2C89 27           .db 39
9124   2C8A 1B           .db 27
9125   2C8B 00           .db 0
9126   2C8C 36           .db 54
9127   2C8D 09           .db 9
9128   2C8E 00           .db 0
9129   2C8F 89           .db 137
9130   2C90 26           .db 38
9131   2C91 3F           .db 63
9132   2C92 84           .db 132
9133   2C93 24           .db 36
9134   2C94 3F           .db 63
9135   2C95 89           .db 137
9136   2C96 24           .db 36
9137   2C97 3F           .db 63
9138   2C98 84           .db 132
9139   2C99 24           .db 36
9140   2C9A 1B           .db 27
9141   2C9B 00           .db 0
9142   2C9C 3F           .db 63
9143   2C9D 89           .db 137
9144   2C9E 24           .db 36
9145   2C9F 84           .db 132
9146   2CA0 24           .db 36
9147   2CA1 1B           .db 27
9148   2CA2 24           .db 36
9149   2CA3 1B           .db 27
9150   2CA4 00           .db 0
9151   2CA5 3F           .db 63
9152   2CA6 89           .db 137
9153   2CA7 24           .db 36
9154   2CA8 84           .db 132
9155   2CA9 24           .db 36
9156   2CAA 1B           .db 27
9157   2CAB 34           .db 52
9158   2CAC 08           .db 8
9159   2CAD 89           .db 137
9160   2CAE 3F           .db 63
9161   2CAF 3F           .db 63
9162   2CB0 84           .db 132
9163   2CB1 20           .db 32
9164   2CB2 3F           .db 63
9165   2CB3 00           .db 0
9166   2CB4 3F           .db 63
9167   2CB5 00           .db 0
9168   2CB6 3F           .db 63
9169   2CB7 36           .db 54
9170   2CB8 09           .db 9
9171   2CB9 36           .db 54
9172   2CBA 09           .db 9
9173   2CBB 24           .db 36
9174   2CBC 1F           .db 31
9175   2CBD 04           .db 4
9176   2CBE 3F           .db 63
9177   2CBF 00           .db 0
9178   2CC0 3F           .db 63
9179   2CC1 24           .db 36
9180   2CC2 1B           .db 27
9181   2CC3 24           .db 36
9182   2CC4 1B           .db 27
9183   2CC5 24           .db 36
9184   2CC6 1B           .db 27
9185   2CC7 34           .db 52
9186   2CC8 1B           .db 27
9187   2CC9 36           .db 54
9188   2CCA 09           .db 9
9189   2CCB 00           .db 0
9190   2CCC 00           .db 0
9191   2CCD 00           .db 0
9192   2CCE 00           .db 0
9193   2CCF 00           .db 0
9194   2CD0 00           .db 0
9195   2CD1 00           .db 0
9196   2CD2 00           .db 0
9197   2CD3 00           .db 0
9198   2CD4 00           .db 0
9199   2CD5 00           .db 0
9200   2CD6 00           .db 0
9201   2CD7 00           .db 0
9202   2CD8 00           .db 0
9203   2CD9 00           .db 0
9204   2CDA 80           .db 128
9205   2CDB 00           .db 0
9206   2CDC 84           .db 132
9207   2CDD 36           .db 54
9208   2CDE 84           .db 132
9209   2CDF 09           .db 9
9210   2CE0 84           .db 132
9211   2CE1 24           .db 36
9212   2CE2 84           .db 132
9213   2CE3 1B           .db 27
9214   2CE4 84           .db 132
9215   2CE5 00           .db 0
9216   2CE6 3F           .db 63
9217   2CE7 00           .db 0
9218   2CE8 3F           .db 63
9219   2CE9 00           .db 0
9220   2CEA 26           .db 38
9221   2CEB 09           .db 9
9222   2CEC 34           .db 52
9223   2CED 08           .db 8
9224   2CEE 89           .db 137
9225   2CEF 3F           .db 63
9226   2CF0 84           .db 132
9227   2CF1 24           .db 36
9228   2CF2 3F           .db 63
9229   2CF3 89           .db 137
9230   2CF4 24           .db 36
9231   2CF5 3F           .db 63
9232   2CF6 84           .db 132
9233   2CF7 24           .db 36
9234   2CF8 1B           .db 27
9235   2CF9 00           .db 0
9236   2CFA 3F           .db 63
9237   2CFB 89           .db 137
9238   2CFC 24           .db 36
9239   2CFD 84           .db 132
9240   2CFE 24           .db 36
9241   2CFF 1B           .db 27
9242   2D00 24           .db 36
9243   2D01 1B           .db 27
9244   2D02 00           .db 0
9245   2D03 3F           .db 63
9246   2D04 89           .db 137
9247   2D05 24           .db 36
9248   2D06 84           .db 132
9249   2D07 24           .db 36
9250   2D08 1B           .db 27
9251   2D09 24           .db 36
9252   2D0A 09           .db 9
9253   2D0B 89           .db 137
9254   2D0C 3F           .db 63
9255   2D0D 3F           .db 63
9256   2D0E 84           .db 132
9257   2D0F 24           .db 36
9258   2D10 1B           .db 27
9259   2D11 00           .db 0
9260   2D12 3F           .db 63
9261   2D13 00           .db 0
9262   2D14 3F           .db 63
9263   2D15 36           .db 54
9264   2D16 01           .db 1
9265   2D17 36           .db 54
9266   2D18 09           .db 9
9267   2D19 24           .db 36
9268   2D1A 1B           .db 27
9269   2D1B 00           .db 0
9270   2D1C 3F           .db 63
9271   2D1D 00           .db 0
9272   2D1E 3F           .db 63
9273   2D1F 24           .db 36
9274   2D20 1B           .db 27
9275   2D21 24           .db 36
9276   2D22 1B           .db 27
9277   2D23 24           .db 36
9278   2D24 1B           .db 27
9279   2D25 36           .db 54
9280   2D26 09           .db 9
9281   2D27 36           .db 54
9282   2D28 09           .db 9
9283   2D29 00           .db 0
9284   2D2A 00           .db 0
9285   2D2B 00           .db 0
9286   2D2C 00           .db 0
9287   2D2D 00           .db 0
9288   2D2E 00           .db 0
9289   2D2F 00           .db 0
9290   2D30 00           .db 0
9291   2D31 00           .db 0
9292   2D32 00           .db 0
9293   2D33 00           .db 0
9294   2D34 00           .db 0
9295   2D35 00           .db 0
9296   2D36 00           .db 0
9297   2D37 00           .db 0
9298   2D38 80           .db 128
9299   2D39 00           .db 0
9300   2D3A 84           .db 132
9301   2D3B 36           .db 54
9302   2D3C 84           .db 132
9303   2D3D 09           .db 9
9304   2D3E 84           .db 132
9305   2D3F 24           .db 36
9306   2D40 84           .db 132
9307   2D41 1B           .db 27
9308   2D42 84           .db 132
9309   2D43 00           .db 0
9310   2D44 84           .db 132
9311   2D45 3F           .db 63
9312   2D46 84           .db 132
9313   2D47 00           .db 0
9314   2D48 3F           .db 63
9315   2D49 00           .db 0
9316   2D4A 36           .db 54
9317   2D4B 09           .db 9
9318   2D4C 36           .db 54
9319   2D4D 00           .db 0
9320   2D4E 89           .db 137
9321   2D4F 3F           .db 63
9322   2D50 84           .db 132
9323   2D51 24           .db 36
9324   2D52 3F           .db 63
9325   2D53 89           .db 137
9326   2D54 04           .db 4
9327   2D55 1F           .db 31
9328   2D56 84           .db 132
9329   2D57 24           .db 36
9330   2D58 1B           .db 27
9331   2D59 00           .db 0
9332   2D5A 3F           .db 63
9333   2D5B 00           .db 0
9334   2D5C 34           .db 52
9335   2D5D 1B           .db 27
9336   2D5E 34           .db 52
9337   2D5F 1B           .db 27
9338   2D60 00           .db 0
9339   2D61 3F           .db 63
9340   2D62 89           .db 137
9341   2D63 04           .db 4
9342   2D64 84           .db 132
9343   2D65 24           .db 36
9344   2D66 1B           .db 27
9345   2D67 3C           .db 60
9346   2D68 09           .db 9
9347   2D69 89           .db 137
9348   2D6A 3F           .db 63
9349   2D6B 1F           .db 31
9350   2D6C 84           .db 132
9351   2D6D 24           .db 36
9352   2D6E 1B           .db 27
9353   2D6F 00           .db 0
9354   2D70 3F           .db 63
9355   2D71 00           .db 0
9356   2D72 3F           .db 63
9357   2D73 3E           .db 62
9358   2D74 00           .db 0
9359   2D75 36           .db 54
9360   2D76 09           .db 9
9361   2D77 24           .db 36
9362   2D78 1B           .db 27
9363   2D79 00           .db 0
9364   2D7A 3F           .db 63
9365   2D7B 00           .db 0
9366   2D7C 3F           .db 63
9367   2D7D 36           .db 54
9368   2D7E 09           .db 9
9369   2D7F 24           .db 36
9370   2D80 1B           .db 27
9371   2D81 24           .db 36
9372   2D82 1B           .db 27
9373   2D83 3E           .db 62
9374   2D84 01           .db 1
9375   2D85 36           .db 54
9376   2D86 09           .db 9
9377   2D87 00           .db 0
9378   2D88 00           .db 0
9379   2D89 00           .db 0
9380   2D8A 00           .db 0
9381   2D8B 00           .db 0
9382   2D8C 00           .db 0
9383   2D8D 00           .db 0
9384   2D8E 00           .db 0
9385   2D8F 00           .db 0
9386   2D90 00           .db 0
9387   2D91 00           .db 0
9388   2D92 00           .db 0
9389   2D93 00           .db 0
9390   2D94 00           .db 0
9391   2D95 00           .db 0
9392   2D96 80           .db 128
9393   2D97 00           .db 0
9394   2D98 8C           .db 140
9395   2D99 36           .db 54
9396   2D9A 8C           .db 140
9397   2D9B 09           .db 9
9398   2D9C 8C           .db 140
9399   2D9D 24           .db 36
9400   2D9E 8C           .db 140
9401   2D9F 1B           .db 27
9402   2DA0 8C           .db 140
9403   2DA1 00           .db 0
9404   2DA2 8C           .db 140
9405   2DA3 3F           .db 63
9406   2DA4 8C           .db 140
9407   2DA5 00           .db 0
9408   2DA6 8C           .db 140
9409   2DA7 3F           .db 63
9410   2DA8 8C           .db 140
9411   2DA9 08           .db 8
9412   2DAA 8C           .db 140
9413   2DAB 36           .db 54
9414   2DAC 8C           .db 140
9415   2DAD 19           .db 25
9416   2DAE 3E           .db 62
9417   2DAF 00           .db 0
9418   2DB0 89           .db 137
9419   2DB1 3F           .db 63
9420   2DB2 8C           .db 140
9421   2DB3 24           .db 36
9422   2DB4 3F           .db 63
9423   2DB5 09           .db 9
9424   2DB6 00           .db 0
9425   2DB7 26           .db 38
9426   2DB8 1F           .db 31
9427   2DB9 04           .db 4
9428   2DBA 3F           .db 63
9429   2DBB 01           .db 1
9430   2DBC 26           .db 38
9431   2DBD 1F           .db 31
9432   2DBE 07           .db 7
9433   2DBF 01           .db 1
9434   2DC0 04           .db 4
9435   2DC1 3F           .db 63
9436   2DC2 01           .db 1
9437   2DC3 26           .db 38
9438   2DC4 3F           .db 63
9439   2DC5 01           .db 1
9440   2DC6 89           .db 137
9441   2DC7 20           .db 32
9442   2DC8 3F           .db 63
9443   2DC9 1B           .db 27
9444   2DCA 8C           .db 140
9445   2DCB 26           .db 38
9446   2DCC 1F           .db 31
9447   2DCD 04           .db 4
9448   2DCE 3F           .db 63
9449   2DCF 01           .db 1
9450   2DD0 37           .db 55
9451   2DD1 1F           .db 31
9452   2DD2 00           .db 0
9453   2DD3 37           .db 55
9454   2DD4 0B           .db 11
9455   2DD5 34           .db 52
9456   2DD6 3B           .db 59
9457   2DD7 00           .db 0
9458   2DD8 3F           .db 63
9459   2DD9 00           .db 0
9460   2DDA 3F           .db 63
9461   2DDB 3E           .db 62
9462   2DDC 09           .db 9
9463   2DDD 24           .db 36
9464   2DDE 1B           .db 27
9465   2DDF 24           .db 36
9466   2DE0 1B           .db 27
9467   2DE1 3F           .db 63
9468   2DE2 00           .db 0
9469   2DE3 36           .db 54
9470   2DE4 09           .db 9
9471   2DE5 00           .db 0
9472   2DE6 00           .db 0
9473   2DE7 00           .db 0
9474   2DE8 00           .db 0
9475   2DE9 00           .db 0
9476   2DEA 00           .db 0
9477   2DEB 00           .db 0
9478   2DEC 00           .db 0
9479   2DED 00           .db 0
9480   2DEE 00           .db 0
9481   2DEF 00           .db 0
9482   2DF0 00           .db 0
9483   2DF1 00           .db 0
9484   2DF2 00           .db 0
9485   2DF3 00           .db 0
9486   2DF4 80           .db 128
9487   2DF5 00           .db 0
9488   2DF6 8C           .db 140
9489   2DF7 36           .db 54
9490   2DF8 09           .db 9
9491   2DF9 24           .db 36
9492   2DFA 1B           .db 27
9493   2DFB 20           .db 32
9494   2DFC 3F           .db 63
9495   2DFD 3D           .db 61
9496   2DFE 3F           .db 63
9497   2DFF 00           .db 0
9498   2E00 37           .db 55
9499   2E01 3F           .db 63
9500   2E02 37           .db 55
9501   2E03 01           .db 1
9502   2E04 89           .db 137
9503   2E05 3F           .db 63
9504   2E06 08           .db 8
9505   2E07 8C           .db 140
9506   2E08 17           .db 23
9507   2E09 00           .db 0
9508   2E0A 00           .db 0
9509   2E0B 00           .db 0
9510   2E0C 01           .db 1
9511   2E0D 00           .db 0
9512   2E0E 02           .db 2
9513   2E0F 00           .db 0
9514   2E10 00           .db 0
9515   2E11 01           .db 1
9516   2E12 89           .db 137
9517   2E13 38           .db 56
9518   2E14 38           .db 56
9519   2E15 18           .db 24
9520   2E16 8C           .db 140
9521   2E17 02           .db 2
9522   2E18 89           .db 137
9523   2E19 34           .db 52
9524   2E1A 08           .db 8
9525   2E1B 8C           .db 140
9526   2E1C 01           .db 1
9527   2E1D 89           .db 137
9528   2E1E 34           .db 52
9529   2E1F 3F           .db 63
9530   2E20 3F           .db 63
9531   2E21 3F           .db 63
9532   2E22 08           .db 8
9533   2E23 8C           .db 140
9534   2E24 01           .db 1
9535   2E25 89           .db 137
9536   2E26 18           .db 24
9537   2E27 8C           .db 140
9538   2E28 02           .db 2
9539   2E29 89           .db 137
9540   2E2A 38           .db 56
9541   2E2B 8C           .db 140
9542   2E2C 04           .db 4
9543   2E2D 01           .db 1
9544   2E2E 89           .db 137
9545   2E2F 3A           .db 58
9546   2E30 8C           .db 140
9547   2E31 04           .db 4
9548   2E32 00           .db 0
9549   2E33 04           .db 4
9550   2E34 0B           .db 11
9551   2E35 04           .db 4
9552   2E36 3F           .db 63
9553   2E37 01           .db 1
9554   2E38 37           .db 55
9555   2E39 3F           .db 63
9556   2E3A 01           .db 1
9557   2E3B 34           .db 52
9558   2E3C 1B           .db 27
9559   2E3D 24           .db 36
9560   2E3E 3F           .db 63
9561   2E3F 3F           .db 63
9562   2E40 00           .db 0
9563   2E41 36           .db 54
9564   2E42 09           .db 9
9565   2E43 00           .db 0
9566   2E44 00           .db 0
9567   2E45 00           .db 0
9568   2E46 00           .db 0
9569   2E47 00           .db 0
9570   2E48 00           .db 0
9571   2E49 00           .db 0
9572   2E4A 00           .db 0
9573   2E4B 00           .db 0
9574   2E4C 00           .db 0
9575   2E4D 00           .db 0
9576   2E4E 00           .db 0
9577   2E4F 00           .db 0
9578   2E50 00           .db 0
9579   2E51 00           .db 0
9580   2E52 80           .db 128
9581   2E53 00           .db 0
9582   2E54 8C           .db 140
9583   2E55 3E           .db 62
9584   2E56 8C           .db 140
9585   2E57 3B           .db 59
9586   2E58 8C           .db 140
9587   2E59 3E           .db 62
9588   2E5A 8C           .db 140
9589   2E5B 3F           .db 63
9590   2E5C 8C           .db 140
9591   2E5D 04           .db 4
9592   2E5E 8C           .db 140
9593   2E5F 3F           .db 63
9594   2E60 8C           .db 140
9595   2E61 0F           .db 15
9596   2E62 8C           .db 140
9597   2E63 00           .db 0
9598   2E64 8C           .db 140
9599   2E65 00           .db 0
9600   2E66 04           .db 4
9601   2E67 0B           .db 11
9602   2E68 00           .db 0
9603   2E69 89           .db 137
9604   2E6A 34           .db 52
9605   2E6B 3F           .db 63
9606   2E6C 3B           .db 59
9607   2E6D 00           .db 0
9608   2E6E 3E           .db 62
9609   2E6F 3F           .db 63
9610   2E70 3B           .db 59
9611   2E71 3C           .db 60
9612   2E72 3F           .db 63
9613   2E73 38           .db 56
9614   2E74 3F           .db 63
9615   2E75 3B           .db 59
9616   2E76 3E           .db 62
9617   2E77 3F           .db 63
9618   2E78 3F           .db 63
9619   2E79 3F           .db 63
9620   2E7A 39           .db 57
9621   2E7B 3F           .db 63
9622   2E7C 3B           .db 59
9623   2E7D 3C           .db 60
9624   2E7E 3F           .db 63
9625   2E7F 3F           .db 63
9626   2E80 3F           .db 63
9627   2E81 3F           .db 63
9628   2E82 3B           .db 59
9629   2E83 3C           .db 60
9630   2E84 3B           .db 59
9631   2E85 3C           .db 60
9632   2E86 3F           .db 63
9633   2E87 3B           .db 59
9634   2E88 3C           .db 60
9635   2E89 3F           .db 63
9636   2E8A 09           .db 9
9637   2E8B 3E           .db 62
9638   2E8C 08           .db 8
9639   2E8D 20           .db 32
9640   2E8E 08           .db 8
9641   2E8F 8C           .db 140
9642   2E90 02           .db 2
9643   2E91 89           .db 137
9644   2E92 3E           .db 62
9645   2E93 8C           .db 140
9646   2E94 04           .db 4
9647   2E95 03           .db 3
9648   2E96 89           .db 137
9649   2E97 30           .db 48
9650   2E98 8C           .db 140
9651   2E99 04           .db 4
9652   2E9A 0B           .db 11
9653   2E9B 00           .db 0
9654   2E9C 37           .db 55
9655   2E9D 0B           .db 11
9656   2E9E 00           .db 0
9657   2E9F 3E           .db 62
9658   2EA0 19           .db 25
9659   2EA1 00           .db 0
9660   2EA2 00           .db 0
9661   2EA3 00           .db 0
9662   2EA4 00           .db 0
9663   2EA5 00           .db 0
9664   2EA6 00           .db 0
9665   2EA7 00           .db 0
9666   2EA8 00           .db 0
9667   2EA9 00           .db 0
9668   2EAA 00           .db 0
9669   2EAB 00           .db 0
9670   2EAC 00           .db 0
9671   2EAD 00           .db 0
9672   2EAE 00           .db 0
9673   2EAF 00           .db 0
9674   2EB0 80           .db 128
9675   2EB1 00           .db 0
9676   2EB2 80           .db 128
9677   2EB3 00           .db 0
9678   2EB4 8C           .db 140
9679   2EB5 37           .db 55
9680   2EB6 8C           .db 140
9681   2EB7 0F           .db 15
9682   2EB8 8C           .db 140
9683   2EB9 37           .db 55
9684   2EBA 8C           .db 140
9685   2EBB 00           .db 0
9686   2EBC 8C           .db 140
9687   2EBD 06           .db 6
9688   2EBE 89           .db 137
9689   2EBF 20           .db 32
9690   2EC0 89           .db 137
9691   2EC1 3F           .db 63
9692   2EC2 89           .db 137
9693   2EC3 3F           .db 63
9694   2EC4 89           .db 137
9695   2EC5 08           .db 8
9696   2EC6 89           .db 137
9697   2EC7 00           .db 0
9698   2EC8 89           .db 137
9699   2EC9 3E           .db 62
9700   2ECA 89           .db 137
9701   2ECB 3F           .db 63
9702   2ECC 89           .db 137
9703   2ECD 3F           .db 63
9704   2ECE 3F           .db 63
9705   2ECF 3F           .db 63
9706   2ED0 3F           .db 63
9707   2ED1 3F           .db 63
9708   2ED2 3F           .db 63
9709   2ED3 3F           .db 63
9710   2ED4 3F           .db 63
9711   2ED5 3F           .db 63
9712   2ED6 3F           .db 63
9713   2ED7 3F           .db 63
9714   2ED8 3F           .db 63
9715   2ED9 3F           .db 63
9716   2EDA 3F           .db 63
9717   2EDB 3F           .db 63
9718   2EDC 3F           .db 63
9719   2EDD 3F           .db 63
9720   2EDE 3F           .db 63
9721   2EDF 3F           .db 63
9722   2EE0 3F           .db 63
9723   2EE1 3F           .db 63
9724   2EE2 3F           .db 63
9725   2EE3 3F           .db 63
9726   2EE4 3F           .db 63
9727   2EE5 3F           .db 63
9728   2EE6 3F           .db 63
9729   2EE7 3F           .db 63
9730   2EE8 3F           .db 63
9731   2EE9 3F           .db 63
9732   2EEA 3F           .db 63
9733   2EEB 3F           .db 63
9734   2EEC 3F           .db 63
9735   2EED 3F           .db 63
9736   2EEE 3F           .db 63
9737   2EEF 3E           .db 62
9738   2EF0 3B           .db 59
9739   2EF1 3C           .db 60
9740   2EF2 3F           .db 63
9741   2EF3 19           .db 25
9742   2EF4 20           .db 32
9743   2EF5 3F           .db 63
9744   2EF6 09           .db 9
9745   2EF7 20           .db 32
9746   2EF8 3B           .db 59
9747   2EF9 00           .db 0
9748   2EFA 20           .db 32
9749   2EFB 19           .db 25
9750   2EFC 8C           .db 140
9751   2EFD 26           .db 38
9752   2EFE 01           .db 1
9753   2EFF 00           .db 0
9754   2F00 00           .db 0
9755   2F01 00           .db 0
9756   2F02 00           .db 0
9757   2F03 00           .db 0
9758   2F04 00           .db 0
9759   2F05 00           .db 0
9760   2F06 00           .db 0
9761   2F07 00           .db 0
9762   2F08 00           .db 0
9763   2F09 00           .db 0
9764   2F0A 00           .db 0
9765   2F0B 00           .db 0
9766   2F0C 00           .db 0
9767   2F0D 00           .db 0
9768   2F0E 80           .db 128
9769   2F0F 00           .db 0
9770   2F10 80           .db 128
9771   2F11 00           .db 0
9772   2F12 8C           .db 140
9773   2F13 04           .db 4
9774   2F14 89           .db 137
9775   2F15 20           .db 32
9776   2F16 8C           .db 140
9777   2F17 04           .db 4
9778   2F18 89           .db 137
9779   2F19 24           .db 36
9780   2F1A 89           .db 137
9781   2F1B 38           .db 56
9782   2F1C 89           .db 137
9783   2F1D 3E           .db 62
9784   2F1E 89           .db 137
9785   2F1F 3F           .db 63
9786   2F20 89           .db 137
9787   2F21 3F           .db 63
9788   2F22 89           .db 137
9789   2F23 3F           .db 63
9790   2F24 89           .db 137
9791   2F25 3F           .db 63
9792   2F26 89           .db 137
9793   2F27 3F           .db 63
9794   2F28 89           .db 137
9795   2F29 3F           .db 63
9796   2F2A 89           .db 137
9797   2F2B 3F           .db 63
9798   2F2C 89           .db 137
9799   2F2D 3F           .db 63
9800   2F2E 3F           .db 63
9801   2F2F 3F           .db 63
9802   2F30 3F           .db 63
9803   2F31 3F           .db 63
9804   2F32 3F           .db 63
9805   2F33 3F           .db 63
9806   2F34 3F           .db 63
9807   2F35 3F           .db 63
9808   2F36 3F           .db 63
9809   2F37 3F           .db 63
9810   2F38 3F           .db 63
9811   2F39 3F           .db 63
9812   2F3A 3F           .db 63
9813   2F3B 3F           .db 63
9814   2F3C 3F           .db 63
9815   2F3D 3F           .db 63
9816   2F3E 3F           .db 63
9817   2F3F 3F           .db 63
9818   2F40 3F           .db 63
9819   2F41 3F           .db 63
9820   2F42 3F           .db 63
9821   2F43 3F           .db 63
9822   2F44 3F           .db 63
9823   2F45 3F           .db 63
9824   2F46 3F           .db 63
9825   2F47 3F           .db 63
9826   2F48 3F           .db 63
9827   2F49 3F           .db 63
9828   2F4A 3F           .db 63
9829   2F4B 3F           .db 63
9830   2F4C 3F           .db 63
9831   2F4D 3F           .db 63
9832   2F4E 3F           .db 63
9833   2F4F 3F           .db 63
9834   2F50 3F           .db 63
9835   2F51 3F           .db 63
9836   2F52 3F           .db 63
9837   2F53 3F           .db 63
9838   2F54 3F           .db 63
9839   2F55 3F           .db 63
9840   2F56 3E           .db 62
9841   2F57 3F           .db 63
9842   2F58 08           .db 8
9843   2F59 3E           .db 62
9844   2F5A 1B           .db 27
9845   2F5B 00           .db 0
9846   2F5C 00           .db 0
9847   2F5D 00           .db 0
9848   2F5E 00           .db 0
9849   2F5F 00           .db 0
9850   2F60 00           .db 0
9851   2F61 00           .db 0
9852   2F62 00           .db 0
9853   2F63 00           .db 0
9854   2F64 00           .db 0
9855   2F65 00           .db 0
9856   2F66 00           .db 0
9857   2F67 00           .db 0
9858   2F68 00           .db 0
9859   2F69 00           .db 0
9860   2F6A 00           .db 0
9861   2F6B 00           .db 0
9862   2F6C 80           .db 128
9863   2F6D 00           .db 0
9864   2F6E 80           .db 128
9865   2F6F 00           .db 0
9866   2F70 80           .db 128
9867   2F71 00           .db 0
9868   2F72 81           .db 129
9869   2F73 3C           .db 60
9870   2F74 81           .db 129
9871   2F75 3B           .db 59
9872   2F76 81           .db 129
9873   2F77 3C           .db 60
9874   2F78 81           .db 129
9875   2F79 3F           .db 63
9876   2F7A 81           .db 129
9877   2F7B 3F           .db 63
9878   2F7C 81           .db 129
9879   2F7D 3F           .db 63
9880   2F7E 81           .db 129
9881   2F7F 3F           .db 63
9882   2F80 81           .db 129
9883   2F81 3F           .db 63
9884   2F82 81           .db 129
9885   2F83 3F           .db 63
9886   2F84 81           .db 129
9887   2F85 3F           .db 63
9888   2F86 81           .db 129
9889   2F87 3F           .db 63
9890   2F88 81           .db 129
9891   2F89 3F           .db 63
9892   2F8A 81           .db 129
9893   2F8B 3F           .db 63
9894   2F8C 3F           .db 63
9895   2F8D 3F           .db 63
9896   2F8E 3F           .db 63
9897   2F8F 3F           .db 63
9898   2F90 3F           .db 63
9899   2F91 3F           .db 63
9900   2F92 3F           .db 63
9901   2F93 3F           .db 63
9902   2F94 3F           .db 63
9903   2F95 3F           .db 63
9904   2F96 3F           .db 63
9905   2F97 3F           .db 63
9906   2F98 3F           .db 63
9907   2F99 3F           .db 63
9908   2F9A 3F           .db 63
9909   2F9B 3F           .db 63
9910   2F9C 3F           .db 63
9911   2F9D 3F           .db 63
9912   2F9E 3F           .db 63
9913   2F9F 3F           .db 63
9914   2FA0 3F           .db 63
9915   2FA1 3F           .db 63
9916   2FA2 3F           .db 63
9917   2FA3 3F           .db 63
9918   2FA4 3F           .db 63
9919   2FA5 3F           .db 63
9920   2FA6 3F           .db 63
9921   2FA7 3F           .db 63
9922   2FA8 3F           .db 63
9923   2FA9 3F           .db 63
9924   2FAA 3F           .db 63
9925   2FAB 3F           .db 63
9926   2FAC 3F           .db 63
9927   2FAD 3F           .db 63
9928   2FAE 3F           .db 63
9929   2FAF 3F           .db 63
9930   2FB0 3F           .db 63
9931   2FB1 3F           .db 63
9932   2FB2 3F           .db 63
9933   2FB3 3F           .db 63
9934   2FB4 3F           .db 63
9935   2FB5 3F           .db 63
9936   2FB6 3F           .db 63
9937   2FB7 3F           .db 63
9938   2FB8 1B           .db 27
9939   2FB9 00           .db 0
9940   2FBA 00           .db 0
9941   2FBB 00           .db 0
9942   2FBC 00           .db 0
9943   2FBD 00           .db 0
9944   2FBE 00           .db 0
9945   2FBF 00           .db 0
9946   2FC0 00           .db 0
9947   2FC1 00           .db 0
9948   2FC2 00           .db 0
9949   2FC3 00           .db 0
9950   2FC4 00           .db 0
9951   2FC5 00           .db 0
9952   2FC6 00           .db 0
9953   2FC7 00           .db 0
9954   2FC8 00           .db 0
9955   2FC9 00           .db 0
9956   2FCA 80           .db 128
9957   2FCB 00           .db 0
9958   2FCC 80           .db 128
9959   2FCD 00           .db 0
9960   2FCE 80           .db 128
9961   2FCF 00           .db 0
9962   2FD0 81           .db 129
9963   2FD1 3F           .db 63
9964   2FD2 81           .db 129
9965   2FD3 3F           .db 63
9966   2FD4 81           .db 129
9967   2FD5 3F           .db 63
9968   2FD6 81           .db 129
9969   2FD7 3F           .db 63
9970   2FD8 81           .db 129
9971   2FD9 3F           .db 63
9972   2FDA 81           .db 129
9973   2FDB 3F           .db 63
9974   2FDC 81           .db 129
9975   2FDD 3F           .db 63
9976   2FDE 81           .db 129
9977   2FDF 3F           .db 63
9978   2FE0 81           .db 129
9979   2FE1 3F           .db 63
9980   2FE2 81           .db 129
9981   2FE3 3F           .db 63
9982   2FE4 81           .db 129
9983   2FE5 3F           .db 63
9984   2FE6 81           .db 129
9985   2FE7 3F           .db 63
9986   2FE8 81           .db 129
9987   2FE9 3F           .db 63
9988   2FEA 3F           .db 63
9989   2FEB 3F           .db 63
9990   2FEC 3F           .db 63
9991   2FED 3F           .db 63
9992   2FEE 3F           .db 63
9993   2FEF 3F           .db 63
9994   2FF0 3F           .db 63
9995   2FF1 3F           .db 63
9996   2FF2 3F           .db 63
9997   2FF3 3F           .db 63
9998   2FF4 3F           .db 63
9999   2FF5 3F           .db 63
10000  2FF6 3F           .db 63
10001  2FF7 3F           .db 63
10002  2FF8 3F           .db 63
10003  2FF9 3F           .db 63
10004  2FFA 3F           .db 63
10005  2FFB 3F           .db 63
10006  2FFC 3F           .db 63
10007  2FFD 2D           .db 45
10008  2FFE 3F           .db 63
10009  2FFF 3F           .db 63
10010  3000 3F           .db 63
10011  3001 3F           .db 63
10012  3002 3F           .db 63
10013  3003 3F           .db 63
10014  3004 3F           .db 63
10015  3005 3F           .db 63
10016  3006 3F           .db 63
10017  3007 3F           .db 63
10018  3008 3F           .db 63
10019  3009 3F           .db 63
10020  300A 3F           .db 63
10021  300B 3F           .db 63
10022  300C 3F           .db 63
10023  300D 3F           .db 63
10024  300E 3F           .db 63
10025  300F 3F           .db 63
10026  3010 3F           .db 63
10027  3011 3F           .db 63
10028  3012 3F           .db 63
10029  3013 3F           .db 63
10030  3014 3F           .db 63
10031  3015 3F           .db 63
10032  3016 1B           .db 27
10033  3017 00           .db 0
10034  3018 00           .db 0
10035  3019 00           .db 0
10036  301A 00           .db 0
10037  301B 00           .db 0
10038  301C 00           .db 0
10039  301D 00           .db 0
10040  301E 00           .db 0
10041  301F 00           .db 0
10042  3020 00           .db 0
10043  3021 00           .db 0
10044  3022 00           .db 0
10045  3023 00           .db 0
10046  3024 00           .db 0
10047  3025 00           .db 0
10048  3026 00           .db 0
10049  3027 00           .db 0
10050  3028 80           .db 128
10051  3029 00           .db 0
10052  302A 80           .db 128
10053  302B 00           .db 0
10054  302C 80           .db 128
10055  302D 00           .db 0
10056  302E 81           .db 129
10057  302F 3F           .db 63
10058  3030 81           .db 129
10059  3031 3F           .db 63
10060  3032 81           .db 129
10061  3033 3F           .db 63
10062  3034 81           .db 129
10063  3035 3F           .db 63
10064  3036 81           .db 129
10065  3037 3F           .db 63
10066  3038 81           .db 129
10067  3039 3F           .db 63
10068  303A 81           .db 129
10069  303B 3F           .db 63
10070  303C 81           .db 129
10071  303D 3F           .db 63
10072  303E 81           .db 129
10073  303F 3F           .db 63
10074  3040 81           .db 129
10075  3041 3F           .db 63
10076  3042 81           .db 129
10077  3043 3F           .db 63
10078  3044 81           .db 129
10079  3045 3F           .db 63
10080  3046 81           .db 129
10081  3047 3F           .db 63
10082  3048 3F           .db 63
10083  3049 3F           .db 63
10084  304A 3F           .db 63
10085  304B 3F           .db 63
10086  304C 3F           .db 63
10087  304D 3F           .db 63
10088  304E 3F           .db 63
10089  304F 3F           .db 63
10090  3050 3F           .db 63
10091  3051 3F           .db 63
10092  3052 3F           .db 63
10093  3053 3F           .db 63
10094  3054 3F           .db 63
10095  3055 3F           .db 63
10096  3056 3F           .db 63
10097  3057 3F           .db 63
10098  3058 3F           .db 63
10099  3059 3F           .db 63
10100  305A 3F           .db 63
10101  305B 05           .db 5
10102  305C 3F           .db 63
10103  305D 3F           .db 63
10104  305E 3F           .db 63
10105  305F 3F           .db 63
10106  3060 3F           .db 63
10107  3061 3F           .db 63
10108  3062 3F           .db 63
10109  3063 3F           .db 63
10110  3064 3F           .db 63
10111  3065 3F           .db 63
10112  3066 3F           .db 63
10113  3067 3F           .db 63
10114  3068 3F           .db 63
10115  3069 3F           .db 63
10116  306A 3F           .db 63
10117  306B 3F           .db 63
10118  306C 3F           .db 63
10119  306D 3F           .db 63
10120  306E 3F           .db 63
10121  306F 3F           .db 63
10122  3070 3F           .db 63
10123  3071 3F           .db 63
10124  3072 3F           .db 63
10125  3073 3F           .db 63
10126  3074 1B           .db 27
10127  3075 00           .db 0
10128  3076 00           .db 0
10129  3077 00           .db 0
10130  3078 00           .db 0
10131  3079 00           .db 0
10132  307A 00           .db 0
10133  307B 00           .db 0
10134  307C 00           .db 0
10135  307D 00           .db 0
10136  307E 00           .db 0
10137  307F 00           .db 0
10138  3080 00           .db 0
10139  3081 00           .db 0
10140  3082 00           .db 0
10141  3083 00           .db 0
10142  3084 00           .db 0
10143  3085 00           .db 0
10144  3086 80           .db 128
10145  3087 00           .db 0
10146  3088 80           .db 128
10147  3089 00           .db 0
10148  308A 80           .db 128
10149  308B 00           .db 0
10150  308C 81           .db 129
10151  308D 3F           .db 63
10152  308E 81           .db 129
10153  308F 3F           .db 63
10154  3090 81           .db 129
10155  3091 3F           .db 63
10156  3092 81           .db 129
10157  3093 3F           .db 63
10158  3094 81           .db 129
10159  3095 3F           .db 63
10160  3096 81           .db 129
10161  3097 3F           .db 63
10162  3098 81           .db 129
10163  3099 3F           .db 63
10164  309A 81           .db 129
10165  309B 3F           .db 63
10166  309C 81           .db 129
10167  309D 3F           .db 63
10168  309E 81           .db 129
10169  309F 3F           .db 63
10170  30A0 81           .db 129
10171  30A1 3F           .db 63
10172  30A2 81           .db 129
10173  30A3 3F           .db 63
10174  30A4 81           .db 129
10175  30A5 3F           .db 63
10176  30A6 3F           .db 63
10177  30A7 3F           .db 63
10178  30A8 3F           .db 63
10179  30A9 3F           .db 63
10180  30AA 3F           .db 63
10181  30AB 3F           .db 63
10182  30AC 3F           .db 63
10183  30AD 3F           .db 63
10184  30AE 3F           .db 63
10185  30AF 3F           .db 63
10186  30B0 3F           .db 63
10187  30B1 3F           .db 63
10188  30B2 3F           .db 63
10189  30B3 3F           .db 63
10190  30B4 3F           .db 63
10191  30B5 3F           .db 63
10192  30B6 3F           .db 63
10193  30B7 3F           .db 63
10194  30B8 3F           .db 63
10195  30B9 00           .db 0
10196  30BA 3F           .db 63
10197  30BB 3F           .db 63
10198  30BC 3F           .db 63
10199  30BD 3F           .db 63
10200  30BE 3F           .db 63
10201  30BF 3F           .db 63
10202  30C0 3F           .db 63
10203  30C1 3F           .db 63
10204  30C2 3F           .db 63
10205  30C3 3F           .db 63
10206  30C4 3F           .db 63
10207  30C5 3F           .db 63
10208  30C6 3F           .db 63
10209  30C7 3F           .db 63
10210  30C8 3F           .db 63
10211  30C9 3F           .db 63
10212  30CA 3F           .db 63
10213  30CB 3F           .db 63
10214  30CC 3F           .db 63
10215  30CD 3F           .db 63
10216  30CE 3F           .db 63
10217  30CF 3F           .db 63
10218  30D0 3F           .db 63
10219  30D1 3F           .db 63
10220  30D2 1B           .db 27
10221  30D3 00           .db 0
10222  30D4 00           .db 0
10223  30D5 00           .db 0
10224  30D6 00           .db 0
10225  30D7 00           .db 0
10226  30D8 00           .db 0
10227  30D9 00           .db 0
10228  30DA 00           .db 0
10229  30DB 00           .db 0
10230  30DC 00           .db 0
10231  30DD 00           .db 0
10232  30DE 00           .db 0
10233  30DF 00           .db 0
10234  30E0 00           .db 0
10235  30E1 00           .db 0
10236  30E2 00           .db 0
10237  30E3 00           .db 0
10238  30E4 80           .db 128
10239  30E5 00           .db 0
10240  30E6 80           .db 128
10241  30E7 00           .db 0
10242  30E8 80           .db 128
10243  30E9 00           .db 0
10244  30EA 81           .db 129
10245  30EB 3F           .db 63
10246  30EC 81           .db 129
10247  30ED 3F           .db 63
10248  30EE 81           .db 129
10249  30EF 3F           .db 63
10250  30F0 81           .db 129
10251  30F1 3F           .db 63
10252  30F2 81           .db 129
10253  30F3 3F           .db 63
10254  30F4 81           .db 129
10255  30F5 3F           .db 63
10256  30F6 81           .db 129
10257  30F7 3F           .db 63
10258  30F8 81           .db 129
10259  30F9 3F           .db 63
10260  30FA 81           .db 129
10261  30FB 3F           .db 63
10262  30FC 81           .db 129
10263  30FD 3F           .db 63
10264  30FE 81           .db 129
10265  30FF 3F           .db 63
10266  3100 81           .db 129
10267  3101 3F           .db 63
10268  3102 81           .db 129
10269  3103 3F           .db 63
10270  3104 3F           .db 63
10271  3105 3F           .db 63
10272  3106 3F           .db 63
10273  3107 3F           .db 63
10274  3108 3F           .db 63
10275  3109 3F           .db 63
10276  310A 3F           .db 63
10277  310B 3F           .db 63
10278  310C 3F           .db 63
10279  310D 3F           .db 63
10280  310E 3F           .db 63
10281  310F 3F           .db 63
10282  3110 3F           .db 63
10283  3111 3F           .db 63
10284  3112 3F           .db 63
10285  3113 3F           .db 63
10286  3114 3F           .db 63
10287  3115 3F           .db 63
10288  3116 1B           .db 27
10289  3117 00           .db 0
10290  3118 36           .db 54
10291  3119 3F           .db 63
10292  311A 3F           .db 63
10293  311B 3F           .db 63
10294  311C 3F           .db 63
10295  311D 3F           .db 63
10296  311E 3F           .db 63
10297  311F 1F           .db 31
10298  3120 3F           .db 63
10299  3121 3F           .db 63
10300  3122 36           .db 54
10301  3123 3F           .db 63
10302  3124 3F           .db 63
10303  3125 3F           .db 63
10304  3126 3F           .db 63
10305  3127 3F           .db 63
10306  3128 3F           .db 63
10307  3129 3F           .db 63
10308  312A 3F           .db 63
10309  312B 3F           .db 63
10310  312C 3F           .db 63
10311  312D 3F           .db 63
10312  312E 3F           .db 63
10313  312F 3F           .db 63
10314  3130 1B           .db 27
10315  3131 00           .db 0
10316  3132 00           .db 0
10317  3133 00           .db 0
10318  3134 00           .db 0
10319  3135 00           .db 0
10320  3136 00           .db 0
10321  3137 00           .db 0
10322  3138 00           .db 0
10323  3139 00           .db 0
10324  313A 00           .db 0
10325  313B 00           .db 0
10326  313C 00           .db 0
10327  313D 00           .db 0
10328  313E 00           .db 0
10329  313F 00           .db 0
10330  3140 00           .db 0
10331  3141 00           .db 0
10332  3142 80           .db 128
10333  3143 00           .db 0
10334  3144 80           .db 128
10335  3145 00           .db 0
10336  3146 80           .db 128
10337  3147 00           .db 0
10338  3148 89           .db 137
10339  3149 3F           .db 63
10340  314A 89           .db 137
10341  314B 3F           .db 63
10342  314C 89           .db 137
10343  314D 3F           .db 63
10344  314E 89           .db 137
10345  314F 3F           .db 63
10346  3150 89           .db 137
10347  3151 3F           .db 63
10348  3152 89           .db 137
10349  3153 3F           .db 63
10350  3154 89           .db 137
10351  3155 3F           .db 63
10352  3156 89           .db 137
10353  3157 3F           .db 63
10354  3158 89           .db 137
10355  3159 3F           .db 63
10356  315A 89           .db 137
10357  315B 3F           .db 63
10358  315C 89           .db 137
10359  315D 3F           .db 63
10360  315E 89           .db 137
10361  315F 3F           .db 63
10362  3160 89           .db 137
10363  3161 3F           .db 63
10364  3162 3F           .db 63
10365  3163 3F           .db 63
10366  3164 3F           .db 63
10367  3165 3F           .db 63
10368  3166 3F           .db 63
10369  3167 1F           .db 31
10370  3168 3F           .db 63
10371  3169 3F           .db 63
10372  316A 3F           .db 63
10373  316B 3F           .db 63
10374  316C 3F           .db 63
10375  316D 3F           .db 63
10376  316E 3F           .db 63
10377  316F 3F           .db 63
10378  3170 3F           .db 63
10379  3171 3F           .db 63
10380  3172 3F           .db 63
10381  3173 3F           .db 63
10382  3174 09           .db 9
10383  3175 00           .db 0
10384  3176 24           .db 36
10385  3177 3F           .db 63
10386  3178 3F           .db 63
10387  3179 3F           .db 63
10388  317A 3F           .db 63
10389  317B 3F           .db 63
10390  317C 3F           .db 63
10391  317D 1B           .db 27
10392  317E 3E           .db 62
10393  317F 1F           .db 31
10394  3180 26           .db 38
10395  3181 3F           .db 63
10396  3182 3F           .db 63
10397  3183 3F           .db 63
10398  3184 3F           .db 63
10399  3185 3F           .db 63
10400  3186 3F           .db 63
10401  3187 3F           .db 63
10402  3188 3F           .db 63
10403  3189 3F           .db 63
10404  318A 3F           .db 63
10405  318B 3F           .db 63
10406  318C 3F           .db 63
10407  318D 3F           .db 63
10408  318E 1B           .db 27
10409  318F 00           .db 0
10410  3190 00           .db 0
10411  3191 00           .db 0
10412  3192 00           .db 0
10413  3193 00           .db 0
10414  3194 00           .db 0
10415  3195 00           .db 0
10416  3196 00           .db 0
10417  3197 00           .db 0
10418  3198 00           .db 0
10419  3199 00           .db 0
10420  319A 00           .db 0
10421  319B 00           .db 0
10422  319C 00           .db 0
10423  319D 00           .db 0
10424  319E 00           .db 0
10425  319F 00           .db 0
10426  31A0 80           .db 128
10427  31A1 00           .db 0
10428  31A2 80           .db 128
10429  31A3 00           .db 0
10430  31A4 80           .db 128
10431  31A5 00           .db 0
10432  31A6 89           .db 137
10433  31A7 3F           .db 63
10434  31A8 89           .db 137
10435  31A9 3F           .db 63
10436  31AA 89           .db 137
10437  31AB 3F           .db 63
10438  31AC 89           .db 137
10439  31AD 3F           .db 63
10440  31AE 89           .db 137
10441  31AF 3F           .db 63
10442  31B0 89           .db 137
10443  31B1 3F           .db 63
10444  31B2 89           .db 137
10445  31B3 3F           .db 63
10446  31B4 89           .db 137
10447  31B5 3F           .db 63
10448  31B6 89           .db 137
10449  31B7 3F           .db 63
10450  31B8 89           .db 137
10451  31B9 3F           .db 63
10452  31BA 89           .db 137
10453  31BB 3F           .db 63
10454  31BC 89           .db 137
10455  31BD 3F           .db 63
10456  31BE 89           .db 137
10457  31BF 3F           .db 63
10458  31C0 3F           .db 63
10459  31C1 3F           .db 63
10460  31C2 3F           .db 63
10461  31C3 3F           .db 63
10462  31C4 1F           .db 31
10463  31C5 19           .db 25
10464  31C6 3E           .db 62
10465  31C7 37           .db 55
10466  31C8 3F           .db 63
10467  31C9 3F           .db 63
10468  31CA 3F           .db 63
10469  31CB 3F           .db 63
10470  31CC 3F           .db 63
10471  31CD 3F           .db 63
10472  31CE 3F           .db 63
10473  31CF 3F           .db 63
10474  31D0 3F           .db 63
10475  31D1 3F           .db 63
10476  31D2 09           .db 9
10477  31D3 00           .db 0
10478  31D4 24           .db 36
10479  31D5 3F           .db 63
10480  31D6 3F           .db 63
10481  31D7 3F           .db 63
10482  31D8 3F           .db 63
10483  31D9 3F           .db 63
10484  31DA 0F           .db 15
10485  31DB 00           .db 0
10486  31DC 04           .db 4
10487  31DD 01           .db 1
10488  31DE 00           .db 0
10489  31DF 37           .db 55
10490  31E0 1F           .db 31
10491  31E1 07           .db 7
10492  31E2 07           .db 7
10493  31E3 07           .db 7
10494  31E4 07           .db 7
10495  31E5 07           .db 7
10496  31E6 07           .db 7
10497  31E7 3F           .db 63
10498  31E8 3F           .db 63
10499  31E9 3F           .db 63
10500  31EA 1F           .db 31
10501  31EB 07           .db 7
10502  31EC 03           .db 3
10503  31ED 00           .db 0
10504  31EE 00           .db 0
10505  31EF 00           .db 0
10506  31F0 00           .db 0
10507  31F1 00           .db 0
10508  31F2 00           .db 0
10509  31F3 00           .db 0
10510  31F4 00           .db 0
10511  31F5 00           .db 0
10512  31F6 00           .db 0
10513  31F7 00           .db 0
10514  31F8 00           .db 0
10515  31F9 00           .db 0
10516  31FA 00           .db 0
10517  31FB 00           .db 0
10518  31FC 00           .db 0
10519  31FD 00           .db 0
10520  31FE 80           .db 128
10521  31FF 00           .db 0
10522  3200 80           .db 128
10523  3201 00           .db 0
10524  3202 80           .db 128
10525  3203 00           .db 0
10526  3204 89           .db 137
10527  3205 3F           .db 63
10528  3206 89           .db 137
10529  3207 3F           .db 63
10530  3208 89           .db 137
10531  3209 3F           .db 63
10532  320A 89           .db 137
10533  320B 3F           .db 63
10534  320C 89           .db 137
10535  320D 3F           .db 63
10536  320E 89           .db 137
10537  320F 3F           .db 63
10538  3210 89           .db 137
10539  3211 3F           .db 63
10540  3212 89           .db 137
10541  3213 3F           .db 63
10542  3214 89           .db 137
10543  3215 3F           .db 63
10544  3216 89           .db 137
10545  3217 3F           .db 63
10546  3218 89           .db 137
10547  3219 3F           .db 63
10548  321A 89           .db 137
10549  321B 3F           .db 63
10550  321C 89           .db 137
10551  321D 3F           .db 63
10552  321E 3F           .db 63
10553  321F 3F           .db 63
10554  3220 3F           .db 63
10555  3221 1F           .db 31
10556  3222 19           .db 25
10557  3223 08           .db 8
10558  3224 02           .db 2
10559  3225 04           .db 4
10560  3226 37           .db 55
10561  3227 3F           .db 63
10562  3228 3F           .db 63
10563  3229 3F           .db 63
10564  322A 3F           .db 63
10565  322B 34           .db 52
10566  322C 3F           .db 63
10567  322D 3F           .db 63
10568  322E 3F           .db 63
10569  322F 3F           .db 63
10570  3230 09           .db 9
10571  3231 00           .db 0
10572  3232 24           .db 36
10573  3233 3F           .db 63
10574  3234 3F           .db 63
10575  3235 0F           .db 15
10576  3236 00           .db 0
10577  3237 00           .db 0
10578  3238 00           .db 0
10579  3239 00           .db 0
10580  323A 00           .db 0
10581  323B 00           .db 0
10582  323C 00           .db 0
10583  323D 06           .db 6
10584  323E 00           .db 0
10585  323F 00           .db 0
10586  3240 00           .db 0
10587  3241 00           .db 0
10588  3242 00           .db 0
10589  3243 00           .db 0
10590  3244 00           .db 0
10591  3245 00           .db 0
10592  3246 00           .db 0
10593  3247 00           .db 0
10594  3248 00           .db 0
10595  3249 00           .db 0
10596  324A 00           .db 0
10597  324B 00           .db 0
10598  324C 00           .db 0
10599  324D 00           .db 0
10600  324E 00           .db 0
10601  324F 00           .db 0
10602  3250 00           .db 0
10603  3251 00           .db 0
10604  3252 00           .db 0
10605  3253 00           .db 0
10606  3254 00           .db 0
10607  3255 00           .db 0
10608  3256 00           .db 0
10609  3257 00           .db 0
10610  3258 00           .db 0
10611  3259 00           .db 0
10612  325A 00           .db 0
10613  325B 00           .db 0
10614  325C 80           .db 128
10615  325D 00           .db 0
10616  325E 80           .db 128
10617  325F 00           .db 0
10618  3260 80           .db 128
10619  3261 00           .db 0
10620  3262 89           .db 137
10621  3263 27           .db 39
10622  3264 89           .db 137
10623  3265 3F           .db 63
10624  3266 89           .db 137
10625  3267 3F           .db 63
10626  3268 89           .db 137
10627  3269 1F           .db 31
10628  326A 89           .db 137
10629  326B 07           .db 7
10630  326C 89           .db 137
10631  326D 37           .db 55
10632  326E 89           .db 137
10633  326F 3F           .db 63
10634  3270 89           .db 137
10635  3271 3F           .db 63
10636  3272 89           .db 137
10637  3273 3F           .db 63
10638  3274 89           .db 137
10639  3275 3F           .db 63
10640  3276 3F           .db 63
10641  3277 3F           .db 63
10642  3278 3F           .db 63
10643  3279 3F           .db 63
10644  327A 3F           .db 63
10645  327B 3F           .db 63
10646  327C 19           .db 25
10647  327D 08           .db 8
10648  327E 00           .db 0
10649  327F 8C           .db 140
10650  3280 30           .db 48
10651  3281 3E           .db 62
10652  3282 39           .db 57
10653  3283 89           .db 137
10654  3284 26           .db 38
10655  3285 3F           .db 63
10656  3286 3F           .db 63
10657  3287 0B           .db 11
10658  3288 04           .db 4
10659  3289 07           .db 7
10660  328A 07           .db 7
10661  328B 01           .db 1
10662  328C 00           .db 0
10663  328D 00           .db 0
10664  328E 00           .db 0
10665  328F 00           .db 0
10666  3290 85           .db 133
10667  3291 20           .db 32
10668  3292 38           .db 56
10669  3293 18           .db 24
10670  3294 00           .db 0
10671  3295 00           .db 0
10672  3296 00           .db 0
10673  3297 00           .db 0
10674  3298 00           .db 0
10675  3299 00           .db 0
10676  329A 00           .db 0
10677  329B 00           .db 0
10678  329C 00           .db 0
10679  329D 00           .db 0
10680  329E 00           .db 0
10681  329F 00           .db 0
10682  32A0 00           .db 0
10683  32A1 00           .db 0
10684  32A2 00           .db 0
10685  32A3 00           .db 0
10686  32A4 00           .db 0
10687  32A5 00           .db 0
10688  32A6 00           .db 0
10689  32A7 00           .db 0
10690  32A8 00           .db 0
10691  32A9 00           .db 0
10692  32AA 00           .db 0
10693  32AB 00           .db 0
10694  32AC 00           .db 0
10695  32AD 00           .db 0
10696  32AE 00           .db 0
10697  32AF 00           .db 0
10698  32B0 00           .db 0
10699  32B1 00           .db 0
10700  32B2 00           .db 0
10701  32B3 00           .db 0
10702  32B4 00           .db 0
10703  32B5 00           .db 0
10704  32B6 00           .db 0
10705  32B7 00           .db 0
10706  32B8 00           .db 0
10707  32B9 00           .db 0
10708  32BA 80           .db 128
10709  32BB 00           .db 0
10710  32BC 80           .db 128
10711  32BD 00           .db 0
10712  32BE 80           .db 128
10713  32BF 00           .db 0
10714  32C0 89           .db 137
10715  32C1 04           .db 4
10716  32C2 89           .db 137
10717  32C3 00           .db 0
10718  32C4 89           .db 137
10719  32C5 04           .db 4
10720  32C6 89           .db 137
10721  32C7 03           .db 3
10722  32C8 89           .db 137
10723  32C9 00           .db 0
10724  32CA 89           .db 137
10725  32CB 36           .db 54
10726  32CC 89           .db 137
10727  32CD 1B           .db 27
10728  32CE 89           .db 137
10729  32CF 00           .db 0
10730  32D0 89           .db 137
10731  32D1 06           .db 6
10732  32D2 89           .db 137
10733  32D3 17           .db 23
10734  32D4 27           .db 39
10735  32D5 3F           .db 63
10736  32D6 07           .db 7
10737  32D7 37           .db 55
10738  32D8 3F           .db 63
10739  32D9 3F           .db 63
10740  32DA 09           .db 9
10741  32DB 00           .db 0
10742  32DC 8C           .db 140
10743  32DD 20           .db 32
10744  32DE 3F           .db 63
10745  32DF 3F           .db 63
10746  32E0 3F           .db 63
10747  32E1 3B           .db 59
10748  32E2 89           .db 137
10749  32E3 37           .db 55
10750  32E4 1F           .db 31
10751  32E5 00           .db 0
10752  32E6 00           .db 0
10753  32E7 00           .db 0
10754  32E8 00           .db 0
10755  32E9 00           .db 0
10756  32EA 00           .db 0
10757  32EB 00           .db 0
10758  32EC 00           .db 0
10759  32ED 85           .db 133
10760  32EE 20           .db 32
10761  32EF 3F           .db 63
10762  32F0 3F           .db 63
10763  32F1 3F           .db 63
10764  32F2 19           .db 25
10765  32F3 00           .db 0
10766  32F4 00           .db 0
10767  32F5 00           .db 0
10768  32F6 00           .db 0
10769  32F7 00           .db 0
10770  32F8 00           .db 0
10771  32F9 00           .db 0
10772  32FA 00           .db 0
10773  32FB 00           .db 0
10774  32FC 00           .db 0
10775  32FD 00           .db 0
10776  32FE 00           .db 0
10777  32FF 00           .db 0
10778  3300 00           .db 0
10779  3301 00           .db 0
10780  3302 00           .db 0
10781  3303 00           .db 0
10782  3304 00           .db 0
10783  3305 00           .db 0
10784  3306 00           .db 0
10785  3307 00           .db 0
10786  3308 00           .db 0
10787  3309 00           .db 0
10788  330A 00           .db 0
10789  330B 00           .db 0
10790  330C 00           .db 0
10791  330D 00           .db 0
10792  330E 00           .db 0
10793  330F 00           .db 0
10794  3310 00           .db 0
10795  3311 00           .db 0
10796  3312 00           .db 0
10797  3313 00           .db 0
10798  3314 00           .db 0
10799  3315 00           .db 0
10800  3316 00           .db 0
10801  3317 00           .db 0
10802  3318 80           .db 128
10803  3319 00           .db 0
10804  331A 80           .db 128
10805  331B 00           .db 0
10806  331C 80           .db 128
10807  331D 00           .db 0
10808  331E 80           .db 128
10809  331F 00           .db 0
10810  3320 80           .db 128
10811  3321 00           .db 0
10812  3322 80           .db 128
10813  3323 00           .db 0
10814  3324 80           .db 128
10815  3325 00           .db 0
10816  3326 80           .db 128
10817  3327 00           .db 0
10818  3328 89           .db 137
10819  3329 06           .db 6
10820  332A 89           .db 137
10821  332B 03           .db 3
10822  332C 89           .db 137
10823  332D 00           .db 0
10824  332E 89           .db 137
10825  332F 00           .db 0
10826  3330 89           .db 137
10827  3331 02           .db 2
10828  3332 00           .db 0
10829  3333 07           .db 7
10830  3334 00           .db 0
10831  3335 36           .db 54
10832  3336 3F           .db 63
10833  3337 3F           .db 63
10834  3338 01           .db 1
10835  3339 00           .db 0
10836  333A 8C           .db 140
10837  333B 24           .db 36
10838  333C 3F           .db 63
10839  333D 3F           .db 63
10840  333E 3F           .db 63
10841  333F 3F           .db 63
10842  3340 89           .db 137
10843  3341 36           .db 54
10844  3342 3F           .db 63
10845  3343 00           .db 0
10846  3344 00           .db 0
10847  3345 00           .db 0
10848  3346 00           .db 0
10849  3347 00           .db 0
10850  3348 00           .db 0
10851  3349 00           .db 0
10852  334A 00           .db 0
10853  334B 85           .db 133
10854  334C 3E           .db 62
10855  334D 3F           .db 63
10856  334E 3F           .db 63
10857  334F 3F           .db 63
10858  3350 3F           .db 63
10859  3351 08           .db 8
10860  3352 00           .db 0
10861  3353 00           .db 0
10862  3354 00           .db 0
10863  3355 00           .db 0
10864  3356 00           .db 0
10865  3357 00           .db 0
10866  3358 00           .db 0
10867  3359 00           .db 0
10868  335A 00           .db 0
10869  335B 00           .db 0
10870  335C 00           .db 0
10871  335D 00           .db 0
10872  335E 00           .db 0
10873  335F 00           .db 0
10874  3360 00           .db 0
10875  3361 00           .db 0
10876  3362 00           .db 0
10877  3363 00           .db 0
10878  3364 00           .db 0
10879  3365 00           .db 0
10880  3366 00           .db 0
10881  3367 00           .db 0
10882  3368 00           .db 0
10883  3369 00           .db 0
10884  336A 00           .db 0
10885  336B 00           .db 0
10886  336C 00           .db 0
10887  336D 00           .db 0
10888  336E 00           .db 0
10889  336F 00           .db 0
10890  3370 00           .db 0
10891  3371 00           .db 0
10892  3372 00           .db 0
10893  3373 00           .db 0
10894  3374 00           .db 0
10895  3375 00           .db 0
10896  3376 80           .db 128
10897  3377 00           .db 0
10898  3378 80           .db 128
10899  3379 00           .db 0
10900  337A 80           .db 128
10901  337B 00           .db 0
10902  337C 80           .db 128
10903  337D 00           .db 0
10904  337E 80           .db 128
10905  337F 00           .db 0
10906  3380 80           .db 128
10907  3381 00           .db 0
10908  3382 80           .db 128
10909  3383 00           .db 0
10910  3384 80           .db 128
10911  3385 00           .db 0
10912  3386 80           .db 128
10913  3387 00           .db 0
10914  3388 80           .db 128
10915  3389 00           .db 0
10916  338A 80           .db 128
10917  338B 00           .db 0
10918  338C 00           .db 0
10919  338D 00           .db 0
10920  338E 00           .db 0
10921  338F 00           .db 0
10922  3390 00           .db 0
10923  3391 00           .db 0
10924  3392 89           .db 137
10925  3393 06           .db 6
10926  3394 07           .db 7
10927  3395 00           .db 0
10928  3396 00           .db 0
10929  3397 8C           .db 140
10930  3398 04           .db 4
10931  3399 3F           .db 63
10932  339A 3F           .db 63
10933  339B 3F           .db 63
10934  339C 1F           .db 31
10935  339D 89           .db 137
10936  339E 06           .db 6
10937  339F 07           .db 7
10938  33A0 00           .db 0
10939  33A1 00           .db 0
10940  33A2 88           .db 136
10941  33A3 20           .db 32
10942  33A4 38           .db 56
10943  33A5 38           .db 56
10944  33A6 00           .db 0
10945  33A7 00           .db 0
10946  33A8 00           .db 0
10947  33A9 85           .db 133
10948  33AA 3F           .db 63
10949  33AB 3F           .db 63
10950  33AC 3F           .db 63
10951  33AD 3F           .db 63
10952  33AE 3F           .db 63
10953  33AF 09           .db 9
10954  33B0 00           .db 0
10955  33B1 00           .db 0
10956  33B2 00           .db 0
10957  33B3 00           .db 0
10958  33B4 00           .db 0
10959  33B5 00           .db 0
10960  33B6 00           .db 0
10961  33B7 00           .db 0
10962  33B8 00           .db 0
10963  33B9 00           .db 0
10964  33BA 00           .db 0
10965  33BB 00           .db 0
10966  33BC 00           .db 0
10967  33BD 00           .db 0
10968  33BE 00           .db 0
10969  33BF 00           .db 0
10970  33C0 00           .db 0
10971  33C1 00           .db 0
10972  33C2 00           .db 0
10973  33C3 00           .db 0
10974  33C4 00           .db 0
10975  33C5 00           .db 0
10976  33C6 00           .db 0
10977  33C7 00           .db 0
10978  33C8 00           .db 0
10979  33C9 00           .db 0
10980  33CA 00           .db 0
10981  33CB 00           .db 0
10982  33CC 00           .db 0
10983  33CD 00           .db 0
10984  33CE 00           .db 0
10985  33CF 00           .db 0
10986  33D0 00           .db 0
10987  33D1 00           .db 0
10988  33D2 00           .db 0
10989  33D3 00           .db 0
10990  33D4 80           .db 128
10991  33D5 00           .db 0
10992  33D6 80           .db 128
10993  33D7 00           .db 0
10994  33D8 80           .db 128
10995  33D9 00           .db 0
10996  33DA 84           .db 132
10997  33DB 1F           .db 31
10998  33DC 84           .db 132
10999  33DD 23           .db 35
11000  33DE 84           .db 132
11001  33DF 18           .db 24
11002  33E0 81           .db 129
11003  33E1 27           .db 39
11004  33E2 81           .db 129
11005  33E3 3F           .db 63
11006  33E4 81           .db 129
11007  33E5 3F           .db 63
11008  33E6 81           .db 129
11009  33E7 3F           .db 63
11010  33E8 38           .db 56
11011  33E9 07           .db 7
11012  33EA 37           .db 55
11013  33EB 3F           .db 63
11014  33EC 3F           .db 63
11015  33ED 39           .db 57
11016  33EE 1C           .db 28
11017  33EF 07           .db 7
11018  33F0 27           .db 39
11019  33F1 3F           .db 63
11020  33F2 3B           .db 59
11021  33F3 38           .db 56
11022  33F4 8C           .db 140
11023  33F5 06           .db 6
11024  33F6 37           .db 55
11025  33F7 0F           .db 15
11026  33F8 01           .db 1
11027  33F9 81           .db 129
11028  33FA 3F           .db 63
11029  33FB 3F           .db 63
11030  33FC 00           .db 0
11031  33FD 88           .db 136
11032  33FE 30           .db 48
11033  33FF 3F           .db 63
11034  3400 3F           .db 63
11035  3401 3F           .db 63
11036  3402 3B           .db 59
11037  3403 08           .db 8
11038  3404 00           .db 0
11039  3405 85           .db 133
11040  3406 37           .db 55
11041  3407 3F           .db 63
11042  3408 3F           .db 63
11043  3409 3F           .db 63
11044  340A 3F           .db 63
11045  340B 01           .db 1
11046  340C 81           .db 129
11047  340D 3C           .db 60
11048  340E 3F           .db 63
11049  340F 3F           .db 63
11050  3410 07           .db 7
11051  3411 07           .db 7
11052  3412 38           .db 56
11053  3413 3F           .db 63
11054  3414 3F           .db 63
11055  3415 3F           .db 63
11056  3416 07           .db 7
11057  3417 31           .db 49
11058  3418 3E           .db 62
11059  3419 3F           .db 63
11060  341A 3F           .db 63
11061  341B 1F           .db 31
11062  341C 03           .db 3
11063  341D 84           .db 132
11064  341E 1C           .db 28
11065  341F 27           .db 39
11066  3420 1B           .db 27
11067  3421 00           .db 0
11068  3422 00           .db 0
11069  3423 00           .db 0
11070  3424 00           .db 0
11071  3425 00           .db 0
11072  3426 00           .db 0
11073  3427 00           .db 0
11074  3428 00           .db 0
11075  3429 00           .db 0
11076  342A 00           .db 0
11077  342B 00           .db 0
11078  342C 00           .db 0
11079  342D 00           .db 0
11080  342E 00           .db 0
11081  342F 00           .db 0
11082  3430 00           .db 0
11083  3431 00           .db 0
11084  3432 80           .db 128
11085  3433 00           .db 0
11086  3434 80           .db 128
11087  3435 00           .db 0
11088  3436 80           .db 128
11089  3437 00           .db 0
11090  3438 84           .db 132
11091  3439 3F           .db 63
11092  343A 84           .db 132
11093  343B 3B           .db 59
11094  343C 84           .db 132
11095  343D 1C           .db 28
11096  343E 84           .db 132
11097  343F 23           .db 35
11098  3440 84           .db 132
11099  3441 18           .db 24
11100  3442 81           .db 129
11101  3443 27           .db 39
11102  3444 3F           .db 63
11103  3445 3F           .db 63
11104  3446 3F           .db 63
11105  3447 39           .db 57
11106  3448 1C           .db 28
11107  3449 07           .db 7
11108  344A 07           .db 7
11109  344B 07           .db 7
11110  344C 07           .db 7
11111  344D 03           .db 3
11112  344E 00           .db 0
11113  344F 00           .db 0
11114  3450 07           .db 7
11115  3451 01           .db 1
11116  3452 8C           .db 140
11117  3453 30           .db 48
11118  3454 08           .db 8
11119  3455 81           .db 129
11120  3456 30           .db 48
11121  3457 38           .db 56
11122  3458 38           .db 56
11123  3459 00           .db 0
11124  345A 88           .db 136
11125  345B 3F           .db 63
11126  345C 3F           .db 63
11127  345D 3F           .db 63
11128  345E 3F           .db 63
11129  345F 3F           .db 63
11130  3460 1B           .db 27
11131  3461 81           .db 129
11132  3462 30           .db 48
11133  3463 85           .db 133
11134  3464 04           .db 4
11135  3465 3F           .db 63
11136  3466 3F           .db 63
11137  3467 3F           .db 63
11138  3468 0B           .db 11
11139  3469 00           .db 0
11140  346A 00           .db 0
11141  346B 81           .db 129
11142  346C 08           .db 8
11143  346D 00           .db 0
11144  346E 07           .db 7
11145  346F 27           .db 39
11146  3470 3F           .db 63
11147  3471 0F           .db 15
11148  3472 23           .db 35
11149  3473 38           .db 56
11150  3474 3F           .db 63
11151  3475 3F           .db 63
11152  3476 3F           .db 63
11153  3477 3F           .db 63
11154  3478 07           .db 7
11155  3479 84           .db 132
11156  347A 1C           .db 28
11157  347B 23           .db 35
11158  347C 3C           .db 60
11159  347D 3F           .db 63
11160  347E 1B           .db 27
11161  347F 00           .db 0
11162  3480 00           .db 0
11163  3481 00           .db 0
11164  3482 00           .db 0
11165  3483 00           .db 0
11166  3484 00           .db 0
11167  3485 00           .db 0
11168  3486 00           .db 0
11169  3487 00           .db 0
11170  3488 00           .db 0
11171  3489 00           .db 0
11172  348A 00           .db 0
11173  348B 00           .db 0
11174  348C 00           .db 0
11175  348D 00           .db 0
11176  348E 00           .db 0
11177  348F 00           .db 0
11178  3490 80           .db 128
11179  3491 00           .db 0
11180  3492 80           .db 128
11181  3493 00           .db 0
11182  3494 80           .db 128
11183  3495 00           .db 0
11184  3496 84           .db 132
11185  3497 04           .db 4
11186  3498 84           .db 132
11187  3499 37           .db 55
11188  349A 84           .db 132
11189  349B 3F           .db 63
11190  349C 84           .db 132
11191  349D 3B           .db 59
11192  349E 84           .db 132
11193  349F 1C           .db 28
11194  34A0 31           .db 49
11195  34A1 81           .db 129
11196  34A2 06           .db 6
11197  34A3 23           .db 35
11198  34A4 38           .db 56
11199  34A5 38           .db 56
11200  34A6 3C           .db 60
11201  34A7 3F           .db 63
11202  34A8 38           .db 56
11203  34A9 1C           .db 28
11204  34AA 07           .db 7
11205  34AB 3F           .db 63
11206  34AC 3F           .db 63
11207  34AD 3F           .db 63
11208  34AE 1F           .db 31
11209  34AF 8C           .db 140
11210  34B0 3E           .db 62
11211  34B1 38           .db 56
11212  34B2 38           .db 56
11213  34B3 81           .db 129
11214  34B4 04           .db 4
11215  34B5 07           .db 7
11216  34B6 07           .db 7
11217  34B7 88           .db 136
11218  34B8 24           .db 36
11219  34B9 3F           .db 63
11220  34BA 3F           .db 63
11221  34BB 3F           .db 63
11222  34BC 3F           .db 63
11223  34BD 3F           .db 63
11224  34BE 3F           .db 63
11225  34BF 81           .db 129
11226  34C0 06           .db 6
11227  34C1 07           .db 7
11228  34C2 85           .db 133
11229  34C3 04           .db 4
11230  34C4 07           .db 7
11231  34C5 03           .db 3
11232  34C6 81           .db 129
11233  34C7 30           .db 48
11234  34C8 3F           .db 63
11235  34C9 3F           .db 63
11236  34CA 3F           .db 63
11237  34CB 3F           .db 63
11238  34CC 0F           .db 15
11239  34CD 03           .db 3
11240  34CE 38           .db 56
11241  34CF 38           .db 56
11242  34D0 38           .db 56
11243  34D1 38           .db 56
11244  34D2 38           .db 56
11245  34D3 38           .db 56
11246  34D4 00           .db 0
11247  34D5 84           .db 132
11248  34D6 38           .db 56
11249  34D7 23           .db 35
11250  34D8 3C           .db 60
11251  34D9 3F           .db 63
11252  34DA 3F           .db 63
11253  34DB 0F           .db 15
11254  34DC 00           .db 0
11255  34DD 00           .db 0
11256  34DE 00           .db 0
11257  34DF 00           .db 0
11258  34E0 00           .db 0
11259  34E1 00           .db 0
11260  34E2 00           .db 0
11261  34E3 00           .db 0
11262  34E4 00           .db 0
11263  34E5 00           .db 0
11264  34E6 00           .db 0
11265  34E7 00           .db 0
11266  34E8 00           .db 0
11267  34E9 00           .db 0
11268  34EA 00           .db 0
11269  34EB 00           .db 0
11270  34EC 00           .db 0
11271  34ED 00           .db 0
11272  34EE 80           .db 128
11273  34EF 00           .db 0
11274  34F0 80           .db 128
11275  34F1 00           .db 0
11276  34F2 80           .db 128
11277  34F3 00           .db 0
11278  34F4 80           .db 128
11279  34F5 00           .db 0
11280  34F6 80           .db 128
11281  34F7 00           .db 0
11282  34F8 84           .db 132
11283  34F9 07           .db 7
11284  34FA 84           .db 132
11285  34FB 3F           .db 63
11286  34FC 84           .db 132
11287  34FD 3F           .db 63
11288  34FE 39           .db 57
11289  34FF 0E           .db 14
11290  3500 33           .db 51
11291  3501 81           .db 129
11292  3502 04           .db 4
11293  3503 27           .db 39
11294  3504 3F           .db 63
11295  3505 3F           .db 63
11296  3506 3F           .db 63
11297  3507 3F           .db 63
11298  3508 3F           .db 63
11299  3509 38           .db 56
11300  350A 0E           .db 14
11301  350B 07           .db 7
11302  350C 01           .db 1
11303  350D 8C           .db 140
11304  350E 03           .db 3
11305  350F 38           .db 56
11306  3510 38           .db 56
11307  3511 3F           .db 63
11308  3512 81           .db 129
11309  3513 36           .db 54
11310  3514 39           .db 57
11311  3515 88           .db 136
11312  3516 24           .db 36
11313  3517 3F           .db 63
11314  3518 3F           .db 63
11315  3519 3F           .db 63
11316  351A 3F           .db 63
11317  351B 3F           .db 63
11318  351C 3F           .db 63
11319  351D 81           .db 129
11320  351E 30           .db 48
11321  351F 0B           .db 11
11322  3520 85           .db 133
11323  3521 3C           .db 60
11324  3522 3F           .db 63
11325  3523 3B           .db 59
11326  3524 08           .db 8
11327  3525 81           .db 129
11328  3526 38           .db 56
11329  3527 18           .db 24
11330  3528 07           .db 7
11331  3529 30           .db 48
11332  352A 3C           .db 60
11333  352B 3F           .db 63
11334  352C 3F           .db 63
11335  352D 3F           .db 63
11336  352E 3F           .db 63
11337  352F 1F           .db 31
11338  3530 07           .db 7
11339  3531 84           .db 132
11340  3532 38           .db 56
11341  3533 07           .db 7
11342  3534 38           .db 56
11343  3535 3F           .db 63
11344  3536 3F           .db 63
11345  3537 1F           .db 31
11346  3538 03           .db 3
11347  3539 00           .db 0
11348  353A 00           .db 0
11349  353B 00           .db 0
11350  353C 00           .db 0
11351  353D 00           .db 0
11352  353E 00           .db 0
11353  353F 00           .db 0
11354  3540 00           .db 0
11355  3541 00           .db 0
11356  3542 00           .db 0
11357  3543 00           .db 0
11358  3544 00           .db 0
11359  3545 00           .db 0
11360  3546 00           .db 0
11361  3547 00           .db 0
11362  3548 00           .db 0
11363  3549 00           .db 0
11364  354A 00           .db 0
11365  354B 00           .db 0
11366  354C 80           .db 128
11367  354D 00           .db 0
11368  354E 80           .db 128
11369  354F 00           .db 0
11370  3550 80           .db 128
11371  3551 00           .db 0
11372  3552 80           .db 128
11373  3553 00           .db 0
11374  3554 80           .db 128
11375  3555 00           .db 0
11376  3556 80           .db 128
11377  3557 00           .db 0
11378  3558 84           .db 132
11379  3559 04           .db 4
11380  355A 84           .db 132
11381  355B 37           .db 55
11382  355C 3F           .db 63
11383  355D 3F           .db 63
11384  355E 39           .db 57
11385  355F 0E           .db 14
11386  3560 33           .db 51
11387  3561 81           .db 129
11388  3562 04           .db 4
11389  3563 07           .db 7
11390  3564 3F           .db 63
11391  3565 07           .db 7
11392  3566 07           .db 7
11393  3567 38           .db 56
11394  3568 3C           .db 60
11395  3569 3B           .db 59
11396  356A 08           .db 8
11397  356B 8C           .db 140
11398  356C 0E           .db 14
11399  356D 27           .db 39
11400  356E 3F           .db 63
11401  356F 3F           .db 63
11402  3570 81           .db 129
11403  3571 36           .db 54
11404  3572 3F           .db 63
11405  3573 1B           .db 27
11406  3574 88           .db 136
11407  3575 3F           .db 63
11408  3576 3F           .db 63
11409  3577 3F           .db 63
11410  3578 3F           .db 63
11411  3579 3F           .db 63
11412  357A 1B           .db 27
11413  357B 81           .db 129
11414  357C 0F           .db 15
11415  357D 85           .db 133
11416  357E 34           .db 52
11417  357F 3F           .db 63
11418  3580 3F           .db 63
11419  3581 3F           .db 63
11420  3582 03           .db 3
11421  3583 81           .db 129
11422  3584 21           .db 33
11423  3585 3C           .db 60
11424  3586 3F           .db 63
11425  3587 39           .db 57
11426  3588 38           .db 56
11427  3589 1C           .db 28
11428  358A 07           .db 7
11429  358B 17           .db 23
11430  358C 03           .db 3
11431  358D 84           .db 132
11432  358E 3C           .db 60
11433  358F 07           .db 7
11434  3590 38           .db 56
11435  3591 3F           .db 63
11436  3592 3F           .db 63
11437  3593 3F           .db 63
11438  3594 07           .db 7
11439  3595 00           .db 0
11440  3596 00           .db 0
11441  3597 00           .db 0
11442  3598 00           .db 0
11443  3599 00           .db 0
11444  359A 00           .db 0
11445  359B 00           .db 0
11446  359C 00           .db 0
11447  359D 00           .db 0
11448  359E 00           .db 0
11449  359F 00           .db 0
11450  35A0 00           .db 0
11451  35A1 00           .db 0
11452  35A2 00           .db 0
11453  35A3 00           .db 0
11454  35A4 00           .db 0
11455  35A5 00           .db 0
11456  35A6 00           .db 0
11457  35A7 00           .db 0
11458  35A8 00           .db 0
11459  35A9 00           .db 0
11460  35AA 84           .db 132
11461  35AB 20           .db 32
11462  35AC 84           .db 132
11463  35AD 0F           .db 15
11464  35AE 84           .db 132
11465  35AF 3B           .db 59
11466  35B0 84           .db 132
11467  35B1 00           .db 0
11468  35B2 84           .db 132
11469  35B3 00           .db 0
11470  35B4 84           .db 132
11471  35B5 00           .db 0
11472  35B6 84           .db 132
11473  35B7 00           .db 0
11474  35B8 84           .db 132
11475  35B9 00           .db 0
11476  35BA 06           .db 6
11477  35BB 3F           .db 63
11478  35BC 3F           .db 63
11479  35BD 3F           .db 63
11480  35BE 39           .db 57
11481  35BF 0E           .db 14
11482  35C0 37           .db 55
11483  35C1 38           .db 56
11484  35C2 81           .db 129
11485  35C3 07           .db 7
11486  35C4 3F           .db 63
11487  35C5 3F           .db 63
11488  35C6 3F           .db 63
11489  35C7 3F           .db 63
11490  35C8 19           .db 25
11491  35C9 8C           .db 140
11492  35CA 37           .db 55
11493  35CB 3B           .db 59
11494  35CC 38           .db 56
11495  35CD 01           .db 1
11496  35CE 81           .db 129
11497  35CF 04           .db 4
11498  35D0 01           .db 1
11499  35D1 38           .db 56
11500  35D2 88           .db 136
11501  35D3 06           .db 6
11502  35D4 3F           .db 63
11503  35D5 3F           .db 63
11504  35D6 3F           .db 63
11505  35D7 1F           .db 31
11506  35D8 01           .db 1
11507  35D9 81           .db 129
11508  35DA 18           .db 24
11509  35DB 85           .db 133
11510  35DC 38           .db 56
11511  35DD 07           .db 7
11512  35DE 23           .db 35
11513  35DF 38           .db 56
11514  35E0 3E           .db 62
11515  35E1 09           .db 9
11516  35E2 81           .db 129
11517  35E3 3F           .db 63
11518  35E4 3F           .db 63
11519  35E5 3F           .db 63
11520  35E6 3F           .db 63
11521  35E7 1F           .db 31
11522  35E8 03           .db 3
11523  35E9 84           .db 132
11524  35EA 3C           .db 60
11525  35EB 07           .db 7
11526  35EC 38           .db 56
11527  35ED 3F           .db 63
11528  35EE 3F           .db 63
11529  35EF 3F           .db 63
11530  35F0 1F           .db 31
11531  35F1 01           .db 1
11532  35F2 00           .db 0
11533  35F3 00           .db 0
11534  35F4 00           .db 0
11535  35F5 00           .db 0
11536  35F6 00           .db 0
11537  35F7 3E           .db 62
11538  35F8 27           .db 39
11539  35F9 08           .db 8
11540  35FA 00           .db 0
11541  35FB 00           .db 0
11542  35FC 00           .db 0
11543  35FD 00           .db 0
11544  35FE 00           .db 0
11545  35FF 00           .db 0
11546  3600 00           .db 0
11547  3601 00           .db 0
11548  3602 00           .db 0
11549  3603 00           .db 0
11550  3604 00           .db 0
11551  3605 00           .db 0
11552  3606 00           .db 0
11553  3607 00           .db 0
11554  3608 84           .db 132
11555  3609 36           .db 54
11556  360A 84           .db 132
11557  360B 00           .db 0
11558  360C 84           .db 132
11559  360D 36           .db 54
11560  360E 84           .db 132
11561  360F 00           .db 0
11562  3610 84           .db 132
11563  3611 00           .db 0
11564  3612 84           .db 132
11565  3613 00           .db 0
11566  3614 84           .db 132
11567  3615 00           .db 0
11568  3616 84           .db 132
11569  3617 00           .db 0
11570  3618 00           .db 0
11571  3619 00           .db 0
11572  361A 27           .db 39
11573  361B 3F           .db 63
11574  361C 3F           .db 63
11575  361D 3F           .db 63
11576  361E 39           .db 57
11577  361F 0E           .db 14
11578  3620 37           .db 55
11579  3621 38           .db 56
11580  3622 81           .db 129
11581  3623 07           .db 7
11582  3624 3F           .db 63
11583  3625 3F           .db 63
11584  3626 3F           .db 63
11585  3627 39           .db 57
11586  3628 8C           .db 140
11587  3629 06           .db 6
11588  362A 01           .db 1
11589  362B 81           .db 129
11590  362C 38           .db 56
11591  362D 3B           .db 59
11592  362E 38           .db 56
11593  362F 04           .db 4
11594  3630 27           .db 39
11595  3631 88           .db 136
11596  3632 04           .db 4
11597  3633 07           .db 7
11598  3634 07           .db 7
11599  3635 81           .db 129
11600  3636 3C           .db 60
11601  3637 07           .db 7
11602  3638 03           .db 3
11603  3639 85           .db 133
11604  363A 38           .db 56
11605  363B 3E           .db 62
11606  363C 3B           .db 59
11607  363D 38           .db 56
11608  363E 07           .db 7
11609  363F 01           .db 1
11610  3640 81           .db 129
11611  3641 3F           .db 63
11612  3642 3F           .db 63
11613  3643 0F           .db 15
11614  3644 01           .db 1
11615  3645 84           .db 132
11616  3646 3C           .db 60
11617  3647 07           .db 7
11618  3648 38           .db 56
11619  3649 3F           .db 63
11620  364A 3F           .db 63
11621  364B 3F           .db 63
11622  364C 3F           .db 63
11623  364D 0F           .db 15
11624  364E 00           .db 0
11625  364F 00           .db 0
11626  3650 00           .db 0
11627  3651 00           .db 0
11628  3652 00           .db 0
11629  3653 00           .db 0
11630  3654 00           .db 0
11631  3655 1B           .db 27
11632  3656 00           .db 0
11633  3657 1B           .db 27
11634  3658 00           .db 0
11635  3659 00           .db 0
11636  365A 00           .db 0
11637  365B 00           .db 0
11638  365C 00           .db 0
11639  365D 00           .db 0
11640  365E 00           .db 0
11641  365F 00           .db 0
11642  3660 00           .db 0
11643  3661 00           .db 0
11644  3662 00           .db 0
11645  3663 00           .db 0
11646  3664 00           .db 0
11647  3665 00           .db 0
11648  3666 84           .db 132
11649  3667 26           .db 38
11650  3668 84           .db 132
11651  3669 39           .db 57
11652  366A 84           .db 132
11653  366B 3F           .db 63
11654  366C 84           .db 132
11655  366D 18           .db 24
11656  366E 84           .db 132
11657  366F 00           .db 0
11658  3670 84           .db 132
11659  3671 00           .db 0
11660  3672 00           .db 0
11661  3673 00           .db 0
11662  3674 00           .db 0
11663  3675 00           .db 0
11664  3676 85           .db 133
11665  3677 08           .db 8
11666  3678 84           .db 132
11667  3679 06           .db 6
11668  367A 37           .db 55
11669  367B 3F           .db 63
11670  367C 3F           .db 63
11671  367D 3F           .db 63
11672  367E 39           .db 57
11673  367F 0E           .db 14
11674  3680 3F           .db 63
11675  3681 38           .db 56
11676  3682 81           .db 129
11677  3683 07           .db 7
11678  3684 23           .db 35
11679  3685 38           .db 56
11680  3686 3E           .db 62
11681  3687 3F           .db 63
11682  3688 3F           .db 63
11683  3689 3F           .db 63
11684  368A 3F           .db 63
11685  368B 3F           .db 63
11686  368C 01           .db 1
11687  368D 88           .db 136
11688  368E 04           .db 4
11689  368F 07           .db 7
11690  3690 07           .db 7
11691  3691 00           .db 0
11692  3692 81           .db 129
11693  3693 20           .db 32
11694  3694 3F           .db 63
11695  3695 85           .db 133
11696  3696 26           .db 38
11697  3697 3F           .db 63
11698  3698 3F           .db 63
11699  3699 3F           .db 63
11700  369A 1F           .db 31
11701  369B 81           .db 129
11702  369C 38           .db 56
11703  369D 08           .db 8
11704  369E 01           .db 1
11705  369F 84           .db 132
11706  36A0 3E           .db 62
11707  36A1 0F           .db 15
11708  36A2 38           .db 56
11709  36A3 3F           .db 63
11710  36A4 3F           .db 63
11711  36A5 3F           .db 63
11712  36A6 3F           .db 63
11713  36A7 1F           .db 31
11714  36A8 01           .db 1
11715  36A9 89           .db 137
11716  36AA 20           .db 32
11717  36AB 00           .db 0
11718  36AC 00           .db 0
11719  36AD 00           .db 0
11720  36AE 00           .db 0
11721  36AF 00           .db 0
11722  36B0 00           .db 0
11723  36B1 84           .db 132
11724  36B2 20           .db 32
11725  36B3 3F           .db 63
11726  36B4 3C           .db 60
11727  36B5 1B           .db 27
11728  36B6 00           .db 0
11729  36B7 00           .db 0
11730  36B8 00           .db 0
11731  36B9 00           .db 0
11732  36BA 00           .db 0
11733  36BB 00           .db 0
11734  36BC 00           .db 0
11735  36BD 00           .db 0
11736  36BE 00           .db 0
11737  36BF 00           .db 0
11738  36C0 00           .db 0
11739  36C1 00           .db 0
11740  36C2 00           .db 0
11741  36C3 00           .db 0
11742  36C4 80           .db 128
11743  36C5 00           .db 0
11744  36C6 84           .db 132
11745  36C7 07           .db 7
11746  36C8 84           .db 132
11747  36C9 27           .db 39
11748  36CA 84           .db 132
11749  36CB 3F           .db 63
11750  36CC 84           .db 132
11751  36CD 18           .db 24
11752  36CE 85           .db 133
11753  36CF 20           .db 32
11754  36D0 85           .db 133
11755  36D1 1E           .db 30
11756  36D2 2F           .db 47
11757  36D3 3B           .db 59
11758  36D4 1C           .db 28
11759  36D5 01           .db 1
11760  36D6 00           .db 0
11761  36D7 00           .db 0
11762  36D8 84           .db 132
11763  36D9 27           .db 39
11764  36DA 3F           .db 63
11765  36DB 3F           .db 63
11766  36DC 3F           .db 63
11767  36DD 3F           .db 63
11768  36DE 38           .db 56
11769  36DF 07           .db 7
11770  36E0 3F           .db 63
11771  36E1 38           .db 56
11772  36E2 81           .db 129
11773  36E3 06           .db 6
11774  36E4 37           .db 55
11775  36E5 3F           .db 63
11776  36E6 3F           .db 63
11777  36E7 3F           .db 63
11778  36E8 3F           .db 63
11779  36E9 1B           .db 27
11780  36EA 88           .db 136
11781  36EB 06           .db 6
11782  36EC 01           .db 1
11783  36ED 38           .db 56
11784  36EE 38           .db 56
11785  36EF 06           .db 6
11786  36F0 01           .db 1
11787  36F1 81           .db 129
11788  36F2 3F           .db 63
11789  36F3 3B           .db 59
11790  36F4 85           .db 133
11791  36F5 27           .db 39
11792  36F6 3F           .db 63
11793  36F7 1F           .db 31
11794  36F8 01           .db 1
11795  36F9 81           .db 129
11796  36FA 01           .db 1
11797  36FB 84           .db 132
11798  36FC 3E           .db 62
11799  36FD 0F           .db 15
11800  36FE 31           .db 49
11801  36FF 3E           .db 62
11802  3700 3F           .db 63
11803  3701 3F           .db 63
11804  3702 3F           .db 63
11805  3703 3F           .db 63
11806  3704 03           .db 3
11807  3705 00           .db 0
11808  3706 00           .db 0
11809  3707 89           .db 137
11810  3708 04           .db 4
11811  3709 31           .db 49
11812  370A 3E           .db 62
11813  370B 2F           .db 47
11814  370C 33           .db 51
11815  370D 08           .db 8
11816  370E 84           .db 132
11817  370F 30           .db 48
11818  3710 3F           .db 63
11819  3711 0F           .db 15
11820  3712 07           .db 7
11821  3713 00           .db 0
11822  3714 00           .db 0
11823  3715 00           .db 0
11824  3716 00           .db 0
11825  3717 00           .db 0
11826  3718 00           .db 0
11827  3719 00           .db 0
11828  371A 00           .db 0
11829  371B 00           .db 0
11830  371C 00           .db 0
11831  371D 00           .db 0
11832  371E 00           .db 0
11833  371F 00           .db 0
11834  3720 00           .db 0
11835  3721 00           .db 0
11836  3722 80           .db 128
11837  3723 00           .db 0
11838  3724 80           .db 128
11839  3725 00           .db 0
11840  3726 84           .db 132
11841  3727 24           .db 36
11842  3728 84           .db 132
11843  3729 0C           .db 12
11844  372A 84           .db 132
11845  372B 37           .db 55
11846  372C 84           .db 132
11847  372D 39           .db 57
11848  372E 85           .db 133
11849  372F 3B           .db 59
11850  3730 85           .db 133
11851  3731 3D           .db 61
11852  3732 85           .db 133
11853  3733 3F           .db 63
11854  3734 3F           .db 63
11855  3735 08           .db 8
11856  3736 00           .db 0
11857  3737 00           .db 0
11858  3738 00           .db 0
11859  3739 84           .db 132
11860  373A 04           .db 4
11861  373B 37           .db 55
11862  373C 3F           .db 63
11863  373D 3F           .db 63
11864  373E 3F           .db 63
11865  373F 3F           .db 63
11866  3740 38           .db 56
11867  3741 07           .db 7
11868  3742 3F           .db 63
11869  3743 39           .db 57
11870  3744 81           .db 129
11871  3745 06           .db 6
11872  3746 17           .db 23
11873  3747 07           .db 7
11874  3748 07           .db 7
11875  3749 88           .db 136
11876  374A 20           .db 32
11877  374B 3C           .db 60
11878  374C 3F           .db 63
11879  374D 3F           .db 63
11880  374E 3F           .db 63
11881  374F 3F           .db 63
11882  3750 39           .db 57
11883  3751 81           .db 129
11884  3752 30           .db 48
11885  3753 06           .db 6
11886  3754 33           .db 51
11887  3755 00           .db 0
11888  3756 84           .db 132
11889  3757 38           .db 56
11890  3758 3F           .db 63
11891  3759 0F           .db 15
11892  375A 31           .db 49
11893  375B 3E           .db 62
11894  375C 3F           .db 63
11895  375D 3F           .db 63
11896  375E 3F           .db 63
11897  375F 3F           .db 63
11898  3760 0F           .db 15
11899  3761 01           .db 1
11900  3762 00           .db 0
11901  3763 00           .db 0
11902  3764 00           .db 0
11903  3765 89           .db 137
11904  3766 20           .db 32
11905  3767 3F           .db 63
11906  3768 3F           .db 63
11907  3769 3D           .db 61
11908  376A 3E           .db 62
11909  376B 03           .db 3
11910  376C 84           .db 132
11911  376D 1F           .db 31
11912  376E 21           .db 33
11913  376F 09           .db 9
11914  3770 00           .db 0
11915  3771 00           .db 0
11916  3772 00           .db 0
11917  3773 00           .db 0
11918  3774 00           .db 0
11919  3775 00           .db 0
11920  3776 00           .db 0
11921  3777 00           .db 0
11922  3778 00           .db 0
11923  3779 00           .db 0
11924  377A 00           .db 0
11925  377B 00           .db 0
11926  377C 00           .db 0
11927  377D 00           .db 0
11928  377E 00           .db 0
11929  377F 00           .db 0
11930  3780 80           .db 128
11931  3781 00           .db 0
11932  3782 00           .db 0
11933  3783 00           .db 0
11934  3784 85           .db 133
11935  3785 3F           .db 63
11936  3786 84           .db 132
11937  3787 3C           .db 60
11938  3788 85           .db 133
11939  3789 39           .db 57
11940  378A 84           .db 132
11941  378B 3B           .db 59
11942  378C 85           .db 133
11943  378D 3F           .db 63
11944  378E 3F           .db 63
11945  378F 0F           .db 15
11946  3790 13           .db 19
11947  3791 00           .db 0
11948  3792 00           .db 0
11949  3793 00           .db 0
11950  3794 00           .db 0
11951  3795 00           .db 0
11952  3796 84           .db 132
11953  3797 07           .db 7
11954  3798 3F           .db 63
11955  3799 3F           .db 63
11956  379A 3F           .db 63
11957  379B 3F           .db 63
11958  379C 3F           .db 63
11959  379D 38           .db 56
11960  379E 07           .db 7
11961  379F 3F           .db 63
11962  37A0 39           .db 57
11963  37A1 08           .db 8
11964  37A2 81           .db 129
11965  37A3 37           .db 55
11966  37A4 19           .db 25
11967  37A5 88           .db 136
11968  37A6 3F           .db 63
11969  37A7 3F           .db 63
11970  37A8 3F           .db 63
11971  37A9 3F           .db 63
11972  37AA 3F           .db 63
11973  37AB 1F           .db 31
11974  37AC 81           .db 129
11975  37AD 3E           .db 62
11976  37AE 07           .db 7
11977  37AF 84           .db 132
11978  37B0 38           .db 56
11979  37B1 3F           .db 63
11980  37B2 0F           .db 15
11981  37B3 31           .db 49
11982  37B4 3E           .db 62
11983  37B5 3F           .db 63
11984  37B6 3F           .db 63
11985  37B7 3F           .db 63
11986  37B8 3F           .db 63
11987  37B9 1F           .db 31
11988  37BA 03           .db 3
11989  37BB 00           .db 0
11990  37BC 00           .db 0
11991  37BD 00           .db 0
11992  37BE 00           .db 0
11993  37BF 00           .db 0
11994  37C0 89           .db 137
11995  37C1 16           .db 22
11996  37C2 27           .db 39
11997  37C3 3F           .db 63
11998  37C4 3F           .db 63
11999  37C5 84           .db 132
12000  37C6 3E           .db 62
12001  37C7 89           .db 137
12002  37C8 3C           .db 60
12003  37C9 84           .db 132
12004  37CA 39           .db 57
12005  37CB 89           .db 137
12006  37CC 3F           .db 63
12007  37CD 00           .db 0
12008  37CE 00           .db 0
12009  37CF 00           .db 0
12010  37D0 00           .db 0
12011  37D1 00           .db 0
12012  37D2 00           .db 0
12013  37D3 00           .db 0
12014  37D4 00           .db 0
12015  37D5 00           .db 0
12016  37D6 00           .db 0
12017  37D7 00           .db 0
12018  37D8 00           .db 0
12019  37D9 00           .db 0
12020  37DA 00           .db 0
12021  37DB 00           .db 0
12022  37DC 00           .db 0
12023  37DD 00           .db 0
12024  37DE 80           .db 128
12025  37DF 00           .db 0
12026  37E0 80           .db 128
12027  37E1 00           .db 0
12028  37E2 80           .db 128
12029  37E3 00           .db 0
12030  37E4 85           .db 133
12031  37E5 06           .db 6
12032  37E6 85           .db 133
12033  37E7 27           .db 39
12034  37E8 85           .db 133
12035  37E9 3F           .db 63
12036  37EA 85           .db 133
12037  37EB 3F           .db 63
12038  37EC 85           .db 133
12039  37ED 3F           .db 63
12040  37EE 85           .db 133
12041  37EF 3F           .db 63
12042  37F0 85           .db 133
12043  37F1 2D           .db 45
12044  37F2 85           .db 133
12045  37F3 39           .db 57
12046  37F4 85           .db 133
12047  37F5 00           .db 0
12048  37F6 00           .db 0
12049  37F7 00           .db 0
12050  37F8 00           .db 0
12051  37F9 00           .db 0
12052  37FA 00           .db 0
12053  37FB 84           .db 132
12054  37FC 04           .db 4
12055  37FD 37           .db 55
12056  37FE 3F           .db 63
12057  37FF 3F           .db 63
12058  3800 3F           .db 63
12059  3801 3F           .db 63
12060  3802 3F           .db 63
12061  3803 38           .db 56
12062  3804 07           .db 7
12063  3805 3F           .db 63
12064  3806 39           .db 57
12065  3807 18           .db 24
12066  3808 88           .db 136
12067  3809 06           .db 6
12068  380A 3F           .db 63
12069  380B 3F           .db 63
12070  380C 3F           .db 63
12071  380D 0F           .db 15
12072  380E 01           .db 1
12073  380F 84           .db 132
12074  3810 38           .db 56
12075  3811 3F           .db 63
12076  3812 0F           .db 15
12077  3813 31           .db 49
12078  3814 3E           .db 62
12079  3815 3F           .db 63
12080  3816 3F           .db 63
12081  3817 3F           .db 63
12082  3818 3F           .db 63
12083  3819 3F           .db 63
12084  381A 0F           .db 15
12085  381B 00           .db 0
12086  381C 00           .db 0
12087  381D 00           .db 0
12088  381E 00           .db 0
12089  381F 00           .db 0
12090  3820 00           .db 0
12091  3821 00           .db 0
12092  3822 89           .db 137
12093  3823 3C           .db 60
12094  3824 2D           .db 45
12095  3825 3F           .db 63
12096  3826 3F           .db 63
12097  3827 3F           .db 63
12098  3828 3F           .db 63
12099  3829 0F           .db 15
12100  382A 03           .db 3
12101  382B 00           .db 0
12102  382C 00           .db 0
12103  382D 00           .db 0
12104  382E 00           .db 0
12105  382F 00           .db 0
12106  3830 00           .db 0
12107  3831 00           .db 0
12108  3832 00           .db 0
12109  3833 00           .db 0
12110  3834 00           .db 0
12111  3835 00           .db 0
12112  3836 00           .db 0
12113  3837 00           .db 0
12114  3838 00           .db 0
12115  3839 00           .db 0
12116  383A 00           .db 0
12117  383B 00           .db 0
12118  383C 80           .db 128
12119  383D 00           .db 0
12120  383E 80           .db 128
12121  383F 00           .db 0
12122  3840 80           .db 128
12123  3841 00           .db 0
12124  3842 80           .db 128
12125  3843 00           .db 0
12126  3844 85           .db 133
12127  3845 24           .db 36
12128  3846 85           .db 133
12129  3847 3F           .db 63
12130  3848 85           .db 133
12131  3849 3F           .db 63
12132  384A 85           .db 133
12133  384B 3F           .db 63
12134  384C 85           .db 133
12135  384D 1B           .db 27
12136  384E 85           .db 133
12137  384F 38           .db 56
12138  3850 85           .db 133
12139  3851 3F           .db 63
12140  3852 84           .db 132
12141  3853 20           .db 32
12142  3854 84           .db 132
12143  3855 0F           .db 15
12144  3856 3B           .db 59
12145  3857 00           .db 0
12146  3858 00           .db 0
12147  3859 00           .db 0
12148  385A 00           .db 0
12149  385B 00           .db 0
12150  385C 07           .db 7
12151  385D 3F           .db 63
12152  385E 3F           .db 63
12153  385F 3F           .db 63
12154  3860 3F           .db 63
12155  3861 3F           .db 63
12156  3862 3F           .db 63
12157  3863 1C           .db 28
12158  3864 27           .db 39
12159  3865 3F           .db 63
12160  3866 3B           .db 59
12161  3867 18           .db 24
12162  3868 88           .db 136
12163  3869 07           .db 7
12164  386A 84           .db 132
12165  386B 20           .db 32
12166  386C 3C           .db 60
12167  386D 3F           .db 63
12168  386E 1F           .db 31
12169  386F 23           .db 35
12170  3870 3E           .db 62
12171  3871 3F           .db 63
12172  3872 3F           .db 63
12173  3873 3F           .db 63
12174  3874 3F           .db 63
12175  3875 3F           .db 63
12176  3876 1F           .db 31
12177  3877 01           .db 1
12178  3878 00           .db 0
12179  3879 00           .db 0
12180  387A 00           .db 0
12181  387B 00           .db 0
12182  387C 00           .db 0
12183  387D 3E           .db 62
12184  387E 27           .db 39
12185  387F 08           .db 8
12186  3880 89           .db 137
12187  3881 3F           .db 63
12188  3882 38           .db 56
12189  3883 36           .db 54
12190  3884 3F           .db 63
12191  3885 3F           .db 63
12192  3886 3F           .db 63
12193  3887 09           .db 9
12194  3888 00           .db 0
12195  3889 00           .db 0
12196  388A 00           .db 0
12197  388B 00           .db 0
12198  388C 00           .db 0
12199  388D 00           .db 0
12200  388E 00           .db 0
12201  388F 00           .db 0
12202  3890 00           .db 0
12203  3891 00           .db 0
12204  3892 00           .db 0
12205  3893 00           .db 0
12206  3894 00           .db 0
12207  3895 00           .db 0
12208  3896 00           .db 0
12209  3897 00           .db 0
12210  3898 00           .db 0
12211  3899 00           .db 0
12212  389A 80           .db 128
12213  389B 00           .db 0
12214  389C 80           .db 128
12215  389D 00           .db 0
12216  389E 80           .db 128
12217  389F 00           .db 0
12218  38A0 80           .db 128
12219  38A1 00           .db 0
12220  38A2 84           .db 132
12221  38A3 04           .db 4
12222  38A4 84           .db 132
12223  38A5 3F           .db 63
12224  38A6 84           .db 132
12225  38A7 3F           .db 63
12226  38A8 84           .db 132
12227  38A9 3F           .db 63
12228  38AA 84           .db 132
12229  38AB 39           .db 57
12230  38AC 85           .db 133
12231  38AD 07           .db 7
12232  38AE 85           .db 133
12233  38AF 03           .db 3
12234  38B0 84           .db 132
12235  38B1 36           .db 54
12236  38B2 84           .db 132
12237  38B3 00           .db 0
12238  38B4 84           .db 132
12239  38B5 36           .db 54
12240  38B6 00           .db 0
12241  38B7 00           .db 0
12242  38B8 00           .db 0
12243  38B9 00           .db 0
12244  38BA 00           .db 0
12245  38BB 00           .db 0
12246  38BC 04           .db 4
12247  38BD 37           .db 55
12248  38BE 3F           .db 63
12249  38BF 3F           .db 63
12250  38C0 3F           .db 63
12251  38C1 3F           .db 63
12252  38C2 3F           .db 63
12253  38C3 3B           .db 59
12254  38C4 1C           .db 28
12255  38C5 27           .db 39
12256  38C6 3F           .db 63
12257  38C7 09           .db 9
12258  38C8 3F           .db 63
12259  38C9 1F           .db 31
12260  38CA 23           .db 35
12261  38CB 3C           .db 60
12262  38CC 3F           .db 63
12263  38CD 3F           .db 63
12264  38CE 3F           .db 63
12265  38CF 3F           .db 63
12266  38D0 3F           .db 63
12267  38D1 3F           .db 63
12268  38D2 03           .db 3
12269  38D3 00           .db 0
12270  38D4 00           .db 0
12271  38D5 00           .db 0
12272  38D6 00           .db 0
12273  38D7 00           .db 0
12274  38D8 00           .db 0
12275  38D9 00           .db 0
12276  38DA 1B           .db 27
12277  38DB 00           .db 0
12278  38DC 1B           .db 27
12279  38DD 89           .db 137
12280  38DE 06           .db 6
12281  38DF 07           .db 7
12282  38E0 84           .db 132
12283  38E1 3C           .db 60
12284  38E2 3F           .db 63
12285  38E3 3F           .db 63
12286  38E4 3F           .db 63
12287  38E5 01           .db 1
12288  38E6 00           .db 0
12289  38E7 00           .db 0
12290  38E8 00           .db 0
12291  38E9 00           .db 0
12292  38EA 00           .db 0
12293  38EB 00           .db 0
12294  38EC 00           .db 0
12295  38ED 00           .db 0
12296  38EE 00           .db 0
12297  38EF 00           .db 0
12298  38F0 00           .db 0
12299  38F1 00           .db 0
12300  38F2 00           .db 0
12301  38F3 00           .db 0
12302  38F4 00           .db 0
12303  38F5 00           .db 0
12304  38F6 00           .db 0
12305  38F7 00           .db 0
12306  38F8 80           .db 128
12307  38F9 00           .db 0
12308  38FA 80           .db 128
12309  38FB 00           .db 0
12310  38FC 80           .db 128
12311  38FD 00           .db 0
12312  38FE 80           .db 128
12313  38FF 00           .db 0
12314  3900 80           .db 128
12315  3901 00           .db 0
12316  3902 85           .db 133
12317  3903 26           .db 38
12318  3904 85           .db 133
12319  3905 3F           .db 63
12320  3906 85           .db 133
12321  3907 3F           .db 63
12322  3908 85           .db 133
12323  3909 3F           .db 63
12324  390A 84           .db 132
12325  390B 37           .db 55
12326  390C 84           .db 132
12327  390D 00           .db 0
12328  390E 26           .db 38
12329  390F 39           .db 57
12330  3910 3F           .db 63
12331  3911 18           .db 24
12332  3912 00           .db 0
12333  3913 00           .db 0
12334  3914 00           .db 0
12335  3915 00           .db 0
12336  3916 00           .db 0
12337  3917 00           .db 0
12338  3918 8C           .db 140
12339  3919 08           .db 8
12340  391A 84           .db 132
12341  391B 06           .db 6
12342  391C 3F           .db 63
12343  391D 3F           .db 63
12344  391E 3F           .db 63
12345  391F 3F           .db 63
12346  3920 3F           .db 63
12347  3921 3F           .db 63
12348  3922 3B           .db 59
12349  3923 1C           .db 28
12350  3924 01           .db 1
12351  3925 23           .db 35
12352  3926 3C           .db 60
12353  3927 3F           .db 63
12354  3928 3F           .db 63
12355  3929 3F           .db 63
12356  392A 3F           .db 63
12357  392B 3F           .db 63
12358  392C 3F           .db 63
12359  392D 0F           .db 15
12360  392E 01           .db 1
12361  392F 88           .db 136
12362  3930 20           .db 32
12363  3931 00           .db 0
12364  3932 00           .db 0
12365  3933 00           .db 0
12366  3934 00           .db 0
12367  3935 00           .db 0
12368  3936 00           .db 0
12369  3937 84           .db 132
12370  3938 30           .db 48
12371  3939 3F           .db 63
12372  393A 3C           .db 60
12373  393B 0B           .db 11
12374  393C 00           .db 0
12375  393D 1F           .db 31
12376  393E 89           .db 137
12377  393F 3F           .db 63
12378  3940 3F           .db 63
12379  3941 3F           .db 63
12380  3942 0B           .db 11
12381  3943 00           .db 0
12382  3944 00           .db 0
12383  3945 00           .db 0
12384  3946 00           .db 0
12385  3947 00           .db 0
12386  3948 00           .db 0
12387  3949 00           .db 0
12388  394A 00           .db 0
12389  394B 00           .db 0
12390  394C 00           .db 0
12391  394D 00           .db 0
12392  394E 00           .db 0
12393  394F 00           .db 0
12394  3950 00           .db 0
12395  3951 00           .db 0
12396  3952 00           .db 0
12397  3953 00           .db 0
12398  3954 00           .db 0
12399  3955 00           .db 0
12400  3956 80           .db 128
12401  3957 00           .db 0
12402  3958 80           .db 128
12403  3959 00           .db 0
12404  395A 80           .db 128
12405  395B 00           .db 0
12406  395C 80           .db 128
12407  395D 00           .db 0
12408  395E 80           .db 128
12409  395F 00           .db 0
12410  3960 80           .db 128
12411  3961 00           .db 0
12412  3962 85           .db 133
12413  3963 27           .db 39
12414  3964 85           .db 133
12415  3965 0F           .db 15
12416  3966 85           .db 133
12417  3967 1F           .db 31
12418  3968 85           .db 133
12419  3969 03           .db 3
12420  396A 00           .db 0
12421  396B 00           .db 0
12422  396C 84           .db 132
12423  396D 07           .db 7
12424  396E 27           .db 39
12425  396F 3F           .db 63
12426  3970 18           .db 24
12427  3971 8C           .db 140
12428  3972 20           .db 32
12429  3973 1E           .db 30
12430  3974 2F           .db 47
12431  3975 3B           .db 59
12432  3976 1C           .db 28
12433  3977 01           .db 1
12434  3978 00           .db 0
12435  3979 00           .db 0
12436  397A 84           .db 132
12437  397B 27           .db 39
12438  397C 3F           .db 63
12439  397D 3F           .db 63
12440  397E 3F           .db 63
12441  397F 3F           .db 63
12442  3980 3F           .db 63
12443  3981 3F           .db 63
12444  3982 09           .db 9
12445  3983 3F           .db 63
12446  3984 3F           .db 63
12447  3985 3F           .db 63
12448  3986 3F           .db 63
12449  3987 3F           .db 63
12450  3988 3F           .db 63
12451  3989 1F           .db 31
12452  398A 01           .db 1
12453  398B 00           .db 0
12454  398C 00           .db 0
12455  398D 88           .db 136
12456  398E 04           .db 4
12457  398F 31           .db 49
12458  3990 3E           .db 62
12459  3991 2F           .db 47
12460  3992 33           .db 51
12461  3993 08           .db 8
12462  3994 84           .db 132
12463  3995 30           .db 48
12464  3996 3F           .db 63
12465  3997 0F           .db 15
12466  3998 07           .db 7
12467  3999 00           .db 0
12468  399A 00           .db 0
12469  399B 89           .db 137
12470  399C 06           .db 6
12471  399D 37           .db 55
12472  399E 27           .db 39
12473  399F 0F           .db 15
12474  39A0 00           .db 0
12475  39A1 00           .db 0
12476  39A2 00           .db 0
12477  39A3 00           .db 0
12478  39A4 00           .db 0
12479  39A5 00           .db 0
12480  39A6 00           .db 0
12481  39A7 00           .db 0
12482  39A8 00           .db 0
12483  39A9 00           .db 0
12484  39AA 00           .db 0
12485  39AB 00           .db 0
12486  39AC 00           .db 0
12487  39AD 00           .db 0
12488  39AE 00           .db 0
12489  39AF 00           .db 0
12490  39B0 00           .db 0
12491  39B1 00           .db 0
12492  39B2 00           .db 0
12493  39B3 00           .db 0
12494  39B4 80           .db 128
12495  39B5 00           .db 0
12496  39B6 80           .db 128
12497  39B7 00           .db 0
12498  39B8 80           .db 128
12499  39B9 00           .db 0
12500  39BA 80           .db 128
12501  39BB 00           .db 0
12502  39BC 85           .db 133
12503  39BD 20           .db 32
12504  39BE 85           .db 133
12505  39BF 3F           .db 63
12506  39C0 85           .db 133
12507  39C1 3C           .db 60
12508  39C2 85           .db 133
12509  39C3 09           .db 9
12510  39C4 85           .db 133
12511  39C5 3F           .db 63
12512  39C6 85           .db 133
12513  39C7 3C           .db 60
12514  39C8 3B           .db 59
12515  39C9 00           .db 0
12516  39CA 00           .db 0
12517  39CB 84           .db 132
12518  39CC 24           .db 36
12519  39CD 0C           .db 12
12520  39CE 37           .db 55
12521  39CF 39           .db 57
12522  39D0 8C           .db 140
12523  39D1 3B           .db 59
12524  39D2 3D           .db 61
12525  39D3 3F           .db 63
12526  39D4 3F           .db 63
12527  39D5 08           .db 8
12528  39D6 00           .db 0
12529  39D7 00           .db 0
12530  39D8 00           .db 0
12531  39D9 84           .db 132
12532  39DA 04           .db 4
12533  39DB 37           .db 55
12534  39DC 3F           .db 63
12535  39DD 3F           .db 63
12536  39DE 3F           .db 63
12537  39DF 3F           .db 63
12538  39E0 09           .db 9
12539  39E1 3F           .db 63
12540  39E2 3F           .db 63
12541  39E3 3F           .db 63
12542  39E4 3F           .db 63
12543  39E5 3F           .db 63
12544  39E6 03           .db 3
12545  39E7 00           .db 0
12546  39E8 00           .db 0
12547  39E9 00           .db 0
12548  39EA 00           .db 0
12549  39EB 88           .db 136
12550  39EC 20           .db 32
12551  39ED 3F           .db 63
12552  39EE 3F           .db 63
12553  39EF 3D           .db 61
12554  39F0 3E           .db 62
12555  39F1 03           .db 3
12556  39F2 84           .db 132
12557  39F3 1F           .db 31
12558  39F4 21           .db 33
12559  39F5 09           .db 9
12560  39F6 00           .db 0
12561  39F7 00           .db 0
12562  39F8 89           .db 137
12563  39F9 3E           .db 62
12564  39FA 39           .db 57
12565  39FB 3F           .db 63
12566  39FC 24           .db 36
12567  39FD 39           .db 57
12568  39FE 3F           .db 63
12569  39FF 08           .db 8
12570  3A00 00           .db 0
12571  3A01 00           .db 0
12572  3A02 00           .db 0
12573  3A03 00           .db 0
12574  3A04 00           .db 0
12575  3A05 00           .db 0
12576  3A06 00           .db 0
12577  3A07 00           .db 0
12578  3A08 00           .db 0
12579  3A09 00           .db 0
12580  3A0A 00           .db 0
12581  3A0B 00           .db 0
12582  3A0C 00           .db 0
12583  3A0D 00           .db 0
12584  3A0E 00           .db 0
12585  3A0F 00           .db 0
12586  3A10 00           .db 0
12587  3A11 00           .db 0
12588  3A12 80           .db 128
12589  3A13 00           .db 0
12590  3A14 80           .db 128
12591  3A15 00           .db 0
12592  3A16 80           .db 128
12593  3A17 00           .db 0
12594  3A18 00           .db 0
12595  3A19 00           .db 0
12596  3A1A 85           .db 133
12597  3A1B 07           .db 7
12598  3A1C 07           .db 7
12599  3A1D 00           .db 0
12600  3A1E 06           .db 6
12601  3A1F 07           .db 7
12602  3A20 03           .db 3
12603  3A21 00           .db 0
12604  3A22 00           .db 0
12605  3A23 00           .db 0
12606  3A24 8C           .db 140
12607  3A25 3F           .db 63
12608  3A26 84           .db 132
12609  3A27 3C           .db 60
12610  3A28 8C           .db 140
12611  3A29 39           .db 57
12612  3A2A 84           .db 132
12613  3A2B 3B           .db 59
12614  3A2C 8C           .db 140
12615  3A2D 3F           .db 63
12616  3A2E 3F           .db 63
12617  3A2F 0F           .db 15
12618  3A30 13           .db 19
12619  3A31 00           .db 0
12620  3A32 00           .db 0
12621  3A33 00           .db 0
12622  3A34 00           .db 0
12623  3A35 00           .db 0
12624  3A36 84           .db 132
12625  3A37 06           .db 6
12626  3A38 3F           .db 63
12627  3A39 3F           .db 63
12628  3A3A 3F           .db 63
12629  3A3B 09           .db 9
12630  3A3C 3F           .db 63
12631  3A3D 3F           .db 63
12632  3A3E 3F           .db 63
12633  3A3F 0F           .db 15
12634  3A40 01           .db 1
12635  3A41 00           .db 0
12636  3A42 00           .db 0
12637  3A43 00           .db 0
12638  3A44 00           .db 0
12639  3A45 00           .db 0
12640  3A46 88           .db 136
12641  3A47 16           .db 22
12642  3A48 27           .db 39
12643  3A49 3F           .db 63
12644  3A4A 3F           .db 63
12645  3A4B 84           .db 132
12646  3A4C 3E           .db 62
12647  3A4D 88           .db 136
12648  3A4E 3C           .db 60
12649  3A4F 84           .db 132
12650  3A50 39           .db 57
12651  3A51 88           .db 136
12652  3A52 3F           .db 63
12653  3A53 00           .db 0
12654  3A54 00           .db 0
12655  3A55 00           .db 0
12656  3A56 89           .db 137
12657  3A57 06           .db 6
12658  3A58 07           .db 7
12659  3A59 03           .db 3
12660  3A5A 00           .db 0
12661  3A5B 07           .db 7
12662  3A5C 07           .db 7
12663  3A5D 00           .db 0
12664  3A5E 00           .db 0
12665  3A5F 00           .db 0
12666  3A60 00           .db 0
12667  3A61 00           .db 0
12668  3A62 00           .db 0
12669  3A63 00           .db 0
12670  3A64 00           .db 0
12671  3A65 00           .db 0
12672  3A66 00           .db 0
12673  3A67 00           .db 0
12674  3A68 00           .db 0
12675  3A69 00           .db 0
12676  3A6A 00           .db 0
12677  3A6B 00           .db 0
12678  3A6C 00           .db 0
12679  3A6D 00           .db 0
12680  3A6E 00           .db 0
12681  3A6F 00           .db 0
12682  3A70 80           .db 128
12683  3A71 00           .db 0
12684  3A72 80           .db 128
12685  3A73 00           .db 0
12686  3A74 80           .db 128
12687  3A75 00           .db 0
12688  3A76 80           .db 128
12689  3A77 00           .db 0
12690  3A78 80           .db 128
12691  3A79 00           .db 0
12692  3A7A 80           .db 128
12693  3A7B 00           .db 0
12694  3A7C 80           .db 128
12695  3A7D 00           .db 0
12696  3A7E 80           .db 128
12697  3A7F 00           .db 0
12698  3A80 80           .db 128
12699  3A81 00           .db 0
12700  3A82 80           .db 128
12701  3A83 00           .db 0
12702  3A84 80           .db 128
12703  3A85 00           .db 0
12704  3A86 80           .db 128
12705  3A87 00           .db 0
12706  3A88 80           .db 128
12707  3A89 00           .db 0
12708  3A8A 00           .db 0
12709  3A8B 8C           .db 140
12710  3A8C 06           .db 6
12711  3A8D 27           .db 39
12712  3A8E 3F           .db 63
12713  3A8F 3F           .db 63
12714  3A90 3F           .db 63
12715  3A91 3F           .db 63
12716  3A92 2D           .db 45
12717  3A93 39           .db 57
12718  3A94 00           .db 0
12719  3A95 00           .db 0
12720  3A96 00           .db 0
12721  3A97 00           .db 0
12722  3A98 00           .db 0
12723  3A99 00           .db 0
12724  3A9A 84           .db 132
12725  3A9B 04           .db 4
12726  3A9C 27           .db 39
12727  3A9D 3F           .db 63
12728  3A9E 09           .db 9
12729  3A9F 3F           .db 63
12730  3AA0 1F           .db 31
12731  3AA1 03           .db 3
12732  3AA2 00           .db 0
12733  3AA3 00           .db 0
12734  3AA4 00           .db 0
12735  3AA5 00           .db 0
12736  3AA6 00           .db 0
12737  3AA7 00           .db 0
12738  3AA8 00           .db 0
12739  3AA9 88           .db 136
12740  3AAA 3C           .db 60
12741  3AAB 2D           .db 45
12742  3AAC 3F           .db 63
12743  3AAD 3F           .db 63
12744  3AAE 3F           .db 63
12745  3AAF 3F           .db 63
12746  3AB0 0F           .db 15
12747  3AB1 03           .db 3
12748  3AB2 00           .db 0
12749  3AB3 00           .db 0
12750  3AB4 00           .db 0
12751  3AB5 00           .db 0
12752  3AB6 00           .db 0
12753  3AB7 00           .db 0
12754  3AB8 00           .db 0
12755  3AB9 00           .db 0
12756  3ABA 00           .db 0
12757  3ABB 00           .db 0
12758  3ABC 00           .db 0
12759  3ABD 00           .db 0
12760  3ABE 00           .db 0
12761  3ABF 00           .db 0
12762  3AC0 00           .db 0
12763  3AC1 00           .db 0
12764  3AC2 00           .db 0
12765  3AC3 00           .db 0
12766  3AC4 00           .db 0
12767  3AC5 00           .db 0
12768  3AC6 00           .db 0
12769  3AC7 00           .db 0
12770  3AC8 00           .db 0
12771  3AC9 00           .db 0
12772  3ACA 00           .db 0
12773  3ACB 00           .db 0
12774  3ACC 00           .db 0
12775  3ACD 00           .db 0
12776  3ACE 80           .db 128
12777  3ACF 00           .db 0
12778  3AD0 80           .db 128
12779  3AD1 00           .db 0
12780  3AD2 80           .db 128
12781  3AD3 00           .db 0
12782  3AD4 80           .db 128
12783  3AD5 00           .db 0
12784  3AD6 80           .db 128
12785  3AD7 00           .db 0
12786  3AD8 80           .db 128
12787  3AD9 00           .db 0
12788  3ADA 80           .db 128
12789  3ADB 00           .db 0
12790  3ADC 80           .db 128
12791  3ADD 00           .db 0
12792  3ADE 80           .db 128
12793  3ADF 00           .db 0
12794  3AE0 80           .db 128
12795  3AE1 00           .db 0
12796  3AE2 80           .db 128
12797  3AE3 00           .db 0
12798  3AE4 80           .db 128
12799  3AE5 00           .db 0
12800  3AE6 80           .db 128
12801  3AE7 00           .db 0
12802  3AE8 00           .db 0
12803  3AE9 00           .db 0
12804  3AEA 8C           .db 140
12805  3AEB 24           .db 36
12806  3AEC 3F           .db 63
12807  3AED 3F           .db 63
12808  3AEE 3F           .db 63
12809  3AEF 1B           .db 27
12810  3AF0 38           .db 56
12811  3AF1 3F           .db 63
12812  3AF2 00           .db 0
12813  3AF3 00           .db 0
12814  3AF4 00           .db 0
12815  3AF5 00           .db 0
12816  3AF6 00           .db 0
12817  3AF7 00           .db 0
12818  3AF8 00           .db 0
12819  3AF9 00           .db 0
12820  3AFA 84           .db 132
12821  3AFB 06           .db 6
12822  3AFC 39           .db 57
12823  3AFD 0F           .db 15
12824  3AFE 00           .db 0
12825  3AFF 00           .db 0
12826  3B00 00           .db 0
12827  3B01 00           .db 0
12828  3B02 00           .db 0
12829  3B03 00           .db 0
12830  3B04 00           .db 0
12831  3B05 00           .db 0
12832  3B06 00           .db 0
12833  3B07 88           .db 136
12834  3B08 3F           .db 63
12835  3B09 38           .db 56
12836  3B0A 36           .db 54
12837  3B0B 3F           .db 63
12838  3B0C 3F           .db 63
12839  3B0D 3F           .db 63
12840  3B0E 09           .db 9
12841  3B0F 00           .db 0
12842  3B10 00           .db 0
12843  3B11 00           .db 0
12844  3B12 00           .db 0
12845  3B13 00           .db 0
12846  3B14 00           .db 0
12847  3B15 00           .db 0
12848  3B16 00           .db 0
12849  3B17 00           .db 0
12850  3B18 00           .db 0
12851  3B19 00           .db 0
12852  3B1A 00           .db 0
12853  3B1B 00           .db 0
12854  3B1C 00           .db 0
12855  3B1D 00           .db 0
12856  3B1E 00           .db 0
12857  3B1F 00           .db 0
12858  3B20 00           .db 0
12859  3B21 00           .db 0
12860  3B22 00           .db 0
12861  3B23 00           .db 0
12862  3B24 00           .db 0
12863  3B25 00           .db 0
12864  3B26 00           .db 0
12865  3B27 00           .db 0
12866  3B28 00           .db 0
12867  3B29 00           .db 0
12868  3B2A 00           .db 0
12869  3B2B 00           .db 0
12870  3B2C 80           .db 128
12871  3B2D 00           .db 0
12872  3B2E 80           .db 128
12873  3B2F 00           .db 0
12874  3B30 80           .db 128
12875  3B31 00           .db 0
12876  3B32 80           .db 128
12877  3B33 00           .db 0
12878  3B34 80           .db 128
12879  3B35 00           .db 0
12880  3B36 80           .db 128
12881  3B37 00           .db 0
12882  3B38 80           .db 128
12883  3B39 00           .db 0
12884  3B3A 80           .db 128
12885  3B3B 00           .db 0
12886  3B3C 80           .db 128
12887  3B3D 00           .db 0
12888  3B3E 80           .db 128
12889  3B3F 00           .db 0
12890  3B40 80           .db 128
12891  3B41 00           .db 0
12892  3B42 80           .db 128
12893  3B43 00           .db 0
12894  3B44 00           .db 0
12895  3B45 00           .db 0
12896  3B46 00           .db 0
12897  3B47 84           .db 132
12898  3B48 04           .db 4
12899  3B49 3F           .db 63
12900  3B4A 3F           .db 63
12901  3B4B 3F           .db 63
12902  3B4C 39           .db 57
12903  3B4D 8C           .db 140
12904  3B4E 07           .db 7
12905  3B4F 03           .db 3
12906  3B50 00           .db 0
12907  3B51 00           .db 0
12908  3B52 00           .db 0
12909  3B53 00           .db 0
12910  3B54 00           .db 0
12911  3B55 00           .db 0
12912  3B56 00           .db 0
12913  3B57 00           .db 0
12914  3B58 00           .db 0
12915  3B59 00           .db 0
12916  3B5A 00           .db 0
12917  3B5B 00           .db 0
12918  3B5C 00           .db 0
12919  3B5D 00           .db 0
12920  3B5E 00           .db 0
12921  3B5F 00           .db 0
12922  3B60 00           .db 0
12923  3B61 00           .db 0
12924  3B62 00           .db 0
12925  3B63 00           .db 0
12926  3B64 88           .db 136
12927  3B65 06           .db 6
12928  3B66 07           .db 7
12929  3B67 84           .db 132
12930  3B68 3C           .db 60
12931  3B69 3F           .db 63
12932  3B6A 3F           .db 63
12933  3B6B 3F           .db 63
12934  3B6C 01           .db 1
12935  3B6D 00           .db 0
12936  3B6E 00           .db 0
12937  3B6F 00           .db 0
12938  3B70 00           .db 0
12939  3B71 00           .db 0
12940  3B72 00           .db 0
12941  3B73 00           .db 0
12942  3B74 00           .db 0
12943  3B75 00           .db 0
12944  3B76 00           .db 0
12945  3B77 00           .db 0
12946  3B78 00           .db 0
12947  3B79 00           .db 0
12948  3B7A 00           .db 0
12949  3B7B 00           .db 0
12950  3B7C 00           .db 0
12951  3B7D 00           .db 0
12952  3B7E 00           .db 0
12953  3B7F 00           .db 0
12954  3B80 00           .db 0
12955  3B81 00           .db 0
12956  3B82 00           .db 0
12957  3B83 00           .db 0
12958  3B84 00           .db 0
12959  3B85 00           .db 0
12960  3B86 00           .db 0
12961  3B87 00           .db 0
12962  3B88 00           .db 0
12963  3B89 00           .db 0
12964  3B8A 80           .db 128
12965  3B8B 00           .db 0
12966  3B8C 80           .db 128
12967  3B8D 00           .db 0
12968  3B8E 80           .db 128
12969  3B8F 00           .db 0
12970  3B90 80           .db 128
12971  3B91 00           .db 0
12972  3B92 80           .db 128
12973  3B93 00           .db 0
12974  3B94 80           .db 128
12975  3B95 00           .db 0
12976  3B96 80           .db 128
12977  3B97 00           .db 0
12978  3B98 80           .db 128
12979  3B99 00           .db 0
12980  3B9A 80           .db 128
12981  3B9B 00           .db 0
12982  3B9C 80           .db 128
12983  3B9D 00           .db 0
12984  3B9E 80           .db 128
12985  3B9F 00           .db 0
12986  3BA0 80           .db 128
12987  3BA1 00           .db 0
12988  3BA2 80           .db 128
12989  3BA3 00           .db 0
12990  3BA4 00           .db 0
12991  3BA5 00           .db 0
12992  3BA6 00           .db 0
12993  3BA7 8C           .db 140
12994  3BA8 26           .db 38
12995  3BA9 3F           .db 63
12996  3BAA 3F           .db 63
12997  3BAB 3F           .db 63
12998  3BAC 84           .db 132
12999  3BAD 37           .db 55
13000  3BAE 00           .db 0
13001  3BAF 00           .db 0
13002  3BB0 00           .db 0
13003  3BB1 00           .db 0
13004  3BB2 00           .db 0
13005  3BB3 00           .db 0
13006  3BB4 00           .db 0
13007  3BB5 00           .db 0
13008  3BB6 00           .db 0
13009  3BB7 00           .db 0
13010  3BB8 00           .db 0
13011  3BB9 00           .db 0
13012  3BBA 00           .db 0
13013  3BBB 00           .db 0
13014  3BBC 00           .db 0
13015  3BBD 00           .db 0
13016  3BBE 00           .db 0
13017  3BBF 00           .db 0
13018  3BC0 00           .db 0
13019  3BC1 00           .db 0
13020  3BC2 00           .db 0
13021  3BC3 00           .db 0
13022  3BC4 1F           .db 31
13023  3BC5 88           .db 136
13024  3BC6 3F           .db 63
13025  3BC7 3F           .db 63
13026  3BC8 3F           .db 63
13027  3BC9 0B           .db 11
13028  3BCA 00           .db 0
13029  3BCB 00           .db 0
13030  3BCC 00           .db 0
13031  3BCD 00           .db 0
13032  3BCE 00           .db 0
13033  3BCF 00           .db 0
13034  3BD0 00           .db 0
13035  3BD1 00           .db 0
13036  3BD2 00           .db 0
13037  3BD3 00           .db 0
13038  3BD4 00           .db 0
13039  3BD5 00           .db 0
13040  3BD6 00           .db 0
13041  3BD7 00           .db 0
13042  3BD8 00           .db 0
13043  3BD9 00           .db 0
13044  3BDA 00           .db 0
13045  3BDB 00           .db 0
13046  3BDC 00           .db 0
13047  3BDD 00           .db 0
13048  3BDE 00           .db 0
13049  3BDF 00           .db 0
13050  3BE0 00           .db 0
13051  3BE1 00           .db 0
13052  3BE2 00           .db 0
13053  3BE3 00           .db 0
13054  3BE4 00           .db 0
13055  3BE5 00           .db 0
13056  3BE6 00           .db 0
13057  3BE7 00           .db 0
13058  3BE8 80           .db 128
13059  3BE9 00           .db 0
13060  3BEA 80           .db 128
13061  3BEB 00           .db 0
13062  3BEC 80           .db 128
13063  3BED 00           .db 0
13064  3BEE 80           .db 128
13065  3BEF 00           .db 0
13066  3BF0 80           .db 128
13067  3BF1 00           .db 0
13068  3BF2 80           .db 128
13069  3BF3 00           .db 0
13070  3BF4 80           .db 128
13071  3BF5 00           .db 0
13072  3BF6 80           .db 128
13073  3BF7 00           .db 0
13074  3BF8 80           .db 128
13075  3BF9 00           .db 0
13076  3BFA 80           .db 128
13077  3BFB 00           .db 0
13078  3BFC 80           .db 128
13079  3BFD 00           .db 0
13080  3BFE 80           .db 128
13081  3BFF 00           .db 0
13082  3C00 80           .db 128
13083  3C01 00           .db 0
13084  3C02 80           .db 128
13085  3C03 00           .db 0
13086  3C04 00           .db 0
13087  3C05 00           .db 0
13088  3C06 00           .db 0
13089  3C07 8C           .db 140
13090  3C08 27           .db 39
13091  3C09 0F           .db 15
13092  3C0A 1F           .db 31
13093  3C0B 03           .db 3
13094  3C0C 00           .db 0
13095  3C0D 00           .db 0
13096  3C0E 00           .db 0
13097  3C0F 00           .db 0
13098  3C10 00           .db 0
13099  3C11 00           .db 0
13100  3C12 00           .db 0
13101  3C13 00           .db 0
13102  3C14 00           .db 0
13103  3C15 00           .db 0
13104  3C16 00           .db 0
13105  3C17 00           .db 0
13106  3C18 00           .db 0
13107  3C19 00           .db 0
13108  3C1A 00           .db 0
13109  3C1B 00           .db 0
13110  3C1C 00           .db 0
13111  3C1D 00           .db 0
13112  3C1E 00           .db 0
13113  3C1F 00           .db 0
13114  3C20 00           .db 0
13115  3C21 00           .db 0
13116  3C22 88           .db 136
13117  3C23 06           .db 6
13118  3C24 37           .db 55
13119  3C25 27           .db 39
13120  3C26 0F           .db 15
13121  3C27 00           .db 0
13122  3C28 00           .db 0
13123  3C29 00           .db 0
13124  3C2A 00           .db 0
13125  3C2B 00           .db 0
13126  3C2C 00           .db 0
13127  3C2D 00           .db 0
13128  3C2E 00           .db 0
13129  3C2F 00           .db 0
13130  3C30 00           .db 0
13131  3C31 00           .db 0
13132  3C32 00           .db 0
13133  3C33 00           .db 0
13134  3C34 00           .db 0
13135  3C35 00           .db 0
13136  3C36 00           .db 0
13137  3C37 00           .db 0
13138  3C38 00           .db 0
13139  3C39 00           .db 0
13140  3C3A 00           .db 0
13141  3C3B 00           .db 0
13142  3C3C 00           .db 0
13143  3C3D 00           .db 0
13144  3C3E 00           .db 0
13145  3C3F 00           .db 0
13146  3C40 00           .db 0
13147  3C41 00           .db 0
13148  3C42 00           .db 0
13149  3C43 00           .db 0
13150  3C44 00           .db 0
13151  3C45 00           .db 0
13152  3C46 80           .db 128
13153  3C47 00           .db 0
13154  3C48 80           .db 128
13155  3C49 00           .db 0
13156  3C4A 80           .db 128
13157  3C4B 00           .db 0
13158  3C4C 80           .db 128
13159  3C4D 00           .db 0
13160  3C4E 80           .db 128
13161  3C4F 00           .db 0
13162  3C50 80           .db 128
13163  3C51 00           .db 0
13164  3C52 80           .db 128
13165  3C53 00           .db 0
13166  3C54 80           .db 128
13167  3C55 00           .db 0
13168  3C56 80           .db 128
13169  3C57 00           .db 0
13170  3C58 80           .db 128
13171  3C59 00           .db 0
13172  3C5A 80           .db 128
13173  3C5B 00           .db 0
13174  3C5C 80           .db 128
13175  3C5D 00           .db 0
13176  3C5E 80           .db 128
13177  3C5F 00           .db 0
13178  3C60 80           .db 128
13179  3C61 00           .db 0
13180  3C62 00           .db 0
13181  3C63 8C           .db 140
13182  3C64 20           .db 32
13183  3C65 3F           .db 63
13184  3C66 3C           .db 60
13185  3C67 09           .db 9
13186  3C68 3F           .db 63
13187  3C69 3C           .db 60
13188  3C6A 3B           .db 59
13189  3C6B 00           .db 0
13190  3C6C 00           .db 0
13191  3C6D 00           .db 0
13192  3C6E 00           .db 0
13193  3C6F 00           .db 0
13194  3C70 00           .db 0
13195  3C71 00           .db 0
13196  3C72 00           .db 0
13197  3C73 00           .db 0
13198  3C74 00           .db 0
13199  3C75 00           .db 0
13200  3C76 00           .db 0
13201  3C77 00           .db 0
13202  3C78 00           .db 0
13203  3C79 00           .db 0
13204  3C7A 00           .db 0
13205  3C7B 00           .db 0
13206  3C7C 00           .db 0
13207  3C7D 00           .db 0
13208  3C7E 00           .db 0
13209  3C7F 88           .db 136
13210  3C80 3E           .db 62
13211  3C81 39           .db 57
13212  3C82 3F           .db 63
13213  3C83 24           .db 36
13214  3C84 39           .db 57
13215  3C85 3F           .db 63
13216  3C86 08           .db 8
13217  3C87 00           .db 0
13218  3C88 00           .db 0
13219  3C89 00           .db 0
13220  3C8A 00           .db 0
13221  3C8B 00           .db 0
13222  3C8C 00           .db 0
13223  3C8D 00           .db 0
13224  3C8E 00           .db 0
13225  3C8F 00           .db 0
13226  3C90 00           .db 0
13227  3C91 00           .db 0
13228  3C92 00           .db 0
13229  3C93 00           .db 0
13230  3C94 00           .db 0
13231  3C95 00           .db 0
13232  3C96 00           .db 0
13233  3C97 00           .db 0
13234  3C98 00           .db 0
13235  3C99 00           .db 0
13236  3C9A 00           .db 0
13237  3C9B 00           .db 0
13238  3C9C 00           .db 0
13239  3C9D 00           .db 0
13240  3C9E 00           .db 0
13241  3C9F 00           .db 0
13242  3CA0 00           .db 0
13243  3CA1 00           .db 0
13244  3CA2 00           .db 0
13245  3CA3 00           .db 0
13246  3CA4 80           .db 128
13247  3CA5 00           .db 0
13248  3CA6 80           .db 128
13249  3CA7 00           .db 0
13250  3CA8 80           .db 128
13251  3CA9 00           .db 0
13252  3CAA 80           .db 128
13253  3CAB 00           .db 0
13254  3CAC 80           .db 128
13255  3CAD 00           .db 0
13256  3CAE 80           .db 128
13257  3CAF 00           .db 0
13258  3CB0 80           .db 128
13259  3CB1 00           .db 0
13260  3CB2 80           .db 128
13261  3CB3 00           .db 0
13262  3CB4 80           .db 128
13263  3CB5 00           .db 0
13264  3CB6 80           .db 128
13265  3CB7 00           .db 0
13266  3CB8 80           .db 128
13267  3CB9 00           .db 0
13268  3CBA 80           .db 128
13269  3CBB 00           .db 0
13270  3CBC 80           .db 128
13271  3CBD 00           .db 0
13272  3CBE 80           .db 128
13273  3CBF 00           .db 0
13274  3CC0 00           .db 0
13275  3CC1 00           .db 0
13276  3CC2 8C           .db 140
13277  3CC3 07           .db 7
13278  3CC4 07           .db 7
13279  3CC5 00           .db 0
13280  3CC6 06           .db 6
13281  3CC7 07           .db 7
13282  3CC8 03           .db 3
13283  3CC9 00           .db 0
13284  3CCA 00           .db 0
13285  3CCB 00           .db 0
13286  3CCC 00           .db 0
13287  3CCD 00           .db 0
13288  3CCE 00           .db 0
13289  3CCF 00           .db 0
13290  3CD0 00           .db 0
13291  3CD1 00           .db 0
13292  3CD2 00           .db 0
13293  3CD3 00           .db 0
13294  3CD4 00           .db 0
13295  3CD5 00           .db 0
13296  3CD6 00           .db 0
13297  3CD7 00           .db 0
13298  3CD8 00           .db 0
13299  3CD9 00           .db 0
13300  3CDA 00           .db 0
13301  3CDB 00           .db 0
13302  3CDC 00           .db 0
13303  3CDD 88           .db 136
13304  3CDE 06           .db 6
13305  3CDF 07           .db 7
13306  3CE0 03           .db 3
13307  3CE1 00           .db 0
13308  3CE2 07           .db 7
13309  3CE3 07           .db 7
13310  3CE4 00           .db 0
13311  3CE5 00           .db 0
13312  3CE6 00           .db 0
13313  3CE7 00           .db 0
13314  3CE8 00           .db 0
13315  3CE9 00           .db 0
13316  3CEA 00           .db 0
13317  3CEB 00           .db 0
13318  3CEC 00           .db 0
13319  3CED 00           .db 0
13320  3CEE 00           .db 0
13321  3CEF 00           .db 0
13322  3CF0 00           .db 0
13323  3CF1 00           .db 0
13324  3CF2 00           .db 0
13325  3CF3 00           .db 0
13326  3CF4 00           .db 0
13327  3CF5 00           .db 0
13328  3CF6 00           .db 0
13329  3CF7 00           .db 0
13330  3CF8 00           .db 0
13331  3CF9 00           .db 0
13332  3CFA FF           .db 255
13333  3CFB 00           .db 0
13334  3CFC F1           .db 241
13335  3CFD 00           .db 0
13336  3CFE F1           .db 241
13337  3CFF 00           .db 0
13338  3D00 F1           .db 241
13339  3D01 00           .db 0
13340  3D02 F1           .db 241
13341  3D03 00           .db 0
13342  3D04 F1           .db 241
13343  3D05 00           .db 0
13344  3D06 F1           .db 241
13345  3D07 00           .db 0
13346  3D08 F1           .db 241
13347  3D09 00           .db 0
13348  3D0A 00           .db 0
13349  3D0B 00           .db 0
13350  3D0C 00           .db 0
13351  3D0D 00           .db 0
13352  3D0E 00           .db 0
13353  3D0F 00           .db 0
13354  3D10 00           .db 0
13355  3D11 80           .db 128
13356  3D12 00           .db 0
13357  3D13 80           .db 128
13358  3D14 00           .db 0
13359  3D15 80           .db 128
13360  3D16 00           .db 0
13361  3D17 80           .db 128
13362  3D18 00           .db 0
13363  3D19 80           .db 128
13364  3D1A 00           .db 0
13365  3D1B 80           .db 128
13366  3D1C 00           .db 0
13367  3D1D 80           .db 128
13368  3D1E 00           .db 0
13369  3D1F 80           .db 128
13370  3D20 00           .db 0
13371  3D21 80           .db 128
13372  3D22 00           .db 0
13373  3D23 80           .db 128
13374  3D24 00           .db 0
13375  3D25 80           .db 128
13376  3D26 00           .db 0
13377  3D27 80           .db 128
13378  3D28 08           .db 8
13379  3D29 80           .db 128
13380  3D2A 00           .db 0
13381  3D2B 80           .db 128
13382  3D2C 00           .db 0
13383  3D2D 80           .db 128
13384  3D2E 00           .db 0
13385  3D2F 80           .db 128
13386  3D30 00           .db 0
13387  3D31 10           .db 16
13388  3D32 00           .db 0
13389  3D33 00           .db 0
13390  3D34 00           .db 0
13391  3D35 00           .db 0
13392  3D36 00           .db 0
13393  3D37 00           .db 0
13394  3D38 00           .db 0
13395  3D39 00           .db 0
13396  3D3A 00           .db 0
13397  3D3B 00           .db 0
13398  3D3C 00           .db 0
13399  3D3D 00           .db 0
13400  3D3E 10           .db 16
13401  3D3F 00           .db 0
13402  3D40 00           .db 0
13403  3D41 3A           .db 58
13404  3D42 00           .db 0
13405  3D43 00           .db 0
13406  3D44 00           .db 0
13407  3D45 00           .db 0
13408  3D46 00           .db 0
13409  3D47 00           .db 0
13410  3D48 38           .db 56
13411  3D49 08           .db 8
13412  3D4A 00           .db 0
13413  3D4B 10           .db 16
13414  3D4C 00           .db 0
13415  3D4D 00           .db 0
13416  3D4E 18           .db 24
13417  3D4F 00           .db 0
13418  3D50 00           .db 0
13419  3D51 00           .db 0
13420  3D52 00           .db 0
13421  3D53 00           .db 0
13422  3D54 00           .db 0
13423  3D55 00           .db 0
13424  3D56 00           .db 0
13425  3D57 00           .db 0
13426  3D58 00           .db 0
13427  3D59 00           .db 0
13428  3D5A 00           .db 0
13429  3D5B 00           .db 0
13430  3D5C 00           .db 0
13431  3D5D 00           .db 0
13432  3D5E 00           .db 0
13433  3D5F 00           .db 0
13434  3D60 00           .db 0
13435  3D61 00           .db 0
13436  3D62 00           .db 0
13437  3D63 00           .db 0
13438  3D64 00           .db 0
13439  3D65 00           .db 0
13440  3D66 00           .db 0
13441  3D67 00           .db 0
13442  3D68 00           .db 0
13443  3D69 00           .db 0
13444  3D6A 00           .db 0
13445  3D6B 00           .db 0
13446  3D6C 00           .db 0
13447  3D6D 00           .db 0
13448  3D6E 00           .db 0
13449  3D6F 80           .db 128
13450  3D70 00           .db 0
13451  3D71 80           .db 128
13452  3D72 34           .db 52
13453  3D73 80           .db 128
13454  3D74 08           .db 8
13455  3D75 80           .db 128
13456  3D76 20           .db 32
13457  3D77 80           .db 128
13458  3D78 19           .db 25
13459  3D79 80           .db 128
13460  3D7A 00           .db 0
13461  3D7B 80           .db 128
13462  3D7C 3E           .db 62
13463  3D7D 80           .db 128
13464  3D7E 18           .db 24
13465  3D7F 80           .db 128
13466  3D80 00           .db 0
13467  3D81 80           .db 128
13468  3D82 00           .db 0
13469  3D83 80           .db 128
13470  3D84 34           .db 52
13471  3D85 80           .db 128
13472  3D86 3B           .db 59
13473  3D87 80           .db 128
13474  3D88 3E           .db 62
13475  3D89 80           .db 128
13476  3D8A 08           .db 8
13477  3D8B 80           .db 128
13478  3D8C 00           .db 0
13479  3D8D 80           .db 128
13480  3D8E 3C           .db 60
13481  3D8F 3F           .db 63
13482  3D90 18           .db 24
13483  3D91 00           .db 0
13484  3D92 20           .db 32
13485  3D93 19           .db 25
13486  3D94 00           .db 0
13487  3D95 3A           .db 58
13488  3D96 00           .db 0
13489  3D97 20           .db 32
13490  3D98 19           .db 25
13491  3D99 00           .db 0
13492  3D9A 00           .db 0
13493  3D9B 20           .db 32
13494  3D9C 3B           .db 59
13495  3D9D 00           .db 0
13496  3D9E 34           .db 52
13497  3D9F 3F           .db 63
13498  3DA0 3F           .db 63
13499  3DA1 08           .db 8
13500  3DA2 00           .db 0
13501  3DA3 00           .db 0
13502  3DA4 00           .db 0
13503  3DA5 34           .db 52
13504  3DA6 3F           .db 63
13505  3DA7 3B           .db 59
13506  3DA8 20           .db 32
13507  3DA9 3F           .db 63
13508  3DAA 08           .db 8
13509  3DAB 34           .db 52
13510  3DAC 3F           .db 63
13511  3DAD 08           .db 8
13512  3DAE 20           .db 32
13513  3DAF 19           .db 25
13514  3DB0 00           .db 0
13515  3DB1 3A           .db 58
13516  3DB2 00           .db 0
13517  3DB3 3A           .db 58
13518  3DB4 00           .db 0
13519  3DB5 20           .db 32
13520  3DB6 3F           .db 63
13521  3DB7 08           .db 8
13522  3DB8 20           .db 32
13523  3DB9 19           .db 25
13524  3DBA 00           .db 0
13525  3DBB 34           .db 52
13526  3DBC 3B           .db 59
13527  3DBD 00           .db 0
13528  3DBE 00           .db 0
13529  3DBF 00           .db 0
13530  3DC0 00           .db 0
13531  3DC1 00           .db 0
13532  3DC2 00           .db 0
13533  3DC3 00           .db 0
13534  3DC4 00           .db 0
13535  3DC5 00           .db 0
13536  3DC6 00           .db 0
13537  3DC7 00           .db 0
13538  3DC8 00           .db 0
13539  3DC9 00           .db 0
13540  3DCA 00           .db 0
13541  3DCB 00           .db 0
13542  3DCC 00           .db 0
13543  3DCD 80           .db 128
13544  3DCE 00           .db 0
13545  3DCF 80           .db 128
13546  3DD0 37           .db 55
13547  3DD1 80           .db 128
13548  3DD2 0B           .db 11
13549  3DD3 80           .db 128
13550  3DD4 26           .db 38
13551  3DD5 80           .db 128
13552  3DD6 1F           .db 31
13553  3DD7 80           .db 128
13554  3DD8 24           .db 36
13555  3DD9 80           .db 128
13556  3DDA 3F           .db 63
13557  3DDB 80           .db 128
13558  3DDC 2F           .db 47
13559  3DDD 80           .db 128
13560  3DDE 3B           .db 59
13561  3DDF 80           .db 128
13562  3DE0 00           .db 0
13563  3DE1 80           .db 128
13564  3DE2 37           .db 55
13565  3DE3 80           .db 128
13566  3DE4 0B           .db 11
13567  3DE5 80           .db 128
13568  3DE6 37           .db 55
13569  3DE7 80           .db 128
13570  3DE8 00           .db 0
13571  3DE9 80           .db 128
13572  3DEA 3F           .db 63
13573  3DEB 80           .db 128
13574  3DEC 27           .db 39
13575  3DED 3F           .db 63
13576  3DEE 27           .db 39
13577  3DEF 1B           .db 27
13578  3DF0 26           .db 38
13579  3DF1 1F           .db 31
13580  3DF2 04           .db 4
13581  3DF3 3F           .db 63
13582  3DF4 01           .db 1
13583  3DF5 26           .db 38
13584  3DF6 1F           .db 31
13585  3DF7 00           .db 0
13586  3DF8 00           .db 0
13587  3DF9 04           .db 4
13588  3DFA 3F           .db 63
13589  3DFB 01           .db 1
13590  3DFC 24           .db 36
13591  3DFD 1B           .db 27
13592  3DFE 26           .db 38
13593  3DFF 09           .db 9
13594  3E00 00           .db 0
13595  3E01 00           .db 0
13596  3E02 00           .db 0
13597  3E03 36           .db 54
13598  3E04 0F           .db 15
13599  3E05 3F           .db 63
13600  3E06 00           .db 0
13601  3E07 3F           .db 63
13602  3E08 00           .db 0
13603  3E09 36           .db 54
13604  3E0A 37           .db 55
13605  3E0B 09           .db 9
13606  3E0C 26           .db 38
13607  3E0D 1F           .db 31
13608  3E0E 04           .db 4
13609  3E0F 3F           .db 63
13610  3E10 05           .db 5
13611  3E11 3F           .db 63
13612  3E12 01           .db 1
13613  3E13 36           .db 54
13614  3E14 3F           .db 63
13615  3E15 1B           .db 27
13616  3E16 26           .db 38
13617  3E17 1F           .db 31
13618  3E18 00           .db 0
13619  3E19 3F           .db 63
13620  3E1A 3F           .db 63
13621  3E1B 09           .db 9
13622  3E1C 00           .db 0
13623  3E1D 00           .db 0
13624  3E1E 00           .db 0
13625  3E1F 00           .db 0
13626  3E20 00           .db 0
13627  3E21 00           .db 0
13628  3E22 00           .db 0
13629  3E23 00           .db 0
13630  3E24 00           .db 0
13631  3E25 00           .db 0
13632  3E26 00           .db 0
13633  3E27 00           .db 0
13634  3E28 00           .db 0
13635  3E29 00           .db 0
13636  3E2A 00           .db 0
13637  3E2B 80           .db 128
13638  3E2C 00           .db 0
13639  3E2D 80           .db 128
13640  3E2E 36           .db 54
13641  3E2F 80           .db 128
13642  3E30 09           .db 9
13643  3E31 80           .db 128
13644  3E32 24           .db 36
13645  3E33 80           .db 128
13646  3E34 1B           .db 27
13647  3E35 80           .db 128
13648  3E36 00           .db 0
13649  3E37 80           .db 128
13650  3E38 3F           .db 63
13651  3E39 80           .db 128
13652  3E3A 00           .db 0
13653  3E3B 80           .db 128
13654  3E3C 3F           .db 63
13655  3E3D 80           .db 128
13656  3E3E 01           .db 1
13657  3E3F 80           .db 128
13658  3E40 36           .db 54
13659  3E41 80           .db 128
13660  3E42 09           .db 9
13661  3E43 80           .db 128
13662  3E44 36           .db 54
13663  3E45 80           .db 128
13664  3E46 00           .db 0
13665  3E47 80           .db 128
13666  3E48 3F           .db 63
13667  3E49 80           .db 128
13668  3E4A 24           .db 36
13669  3E4B 3F           .db 63
13670  3E4C 24           .db 36
13671  3E4D 1B           .db 27
13672  3E4E 24           .db 36
13673  3E4F 1B           .db 27
13674  3E50 00           .db 0
13675  3E51 3F           .db 63
13676  3E52 00           .db 0
13677  3E53 24           .db 36
13678  3E54 1B           .db 27
13679  3E55 00           .db 0
13680  3E56 00           .db 0
13681  3E57 00           .db 0
13682  3E58 3F           .db 63
13683  3E59 00           .db 0
13684  3E5A 24           .db 36
13685  3E5B 1B           .db 27
13686  3E5C 34           .db 52
13687  3E5D 09           .db 9
13688  3E5E 00           .db 0
13689  3E5F 00           .db 0
13690  3E60 00           .db 0
13691  3E61 3E           .db 62
13692  3E62 09           .db 9
13693  3E63 3F           .db 63
13694  3E64 00           .db 0
13695  3E65 3F           .db 63
13696  3E66 00           .db 0
13697  3E67 3E           .db 62
13698  3E68 36           .db 54
13699  3E69 09           .db 9
13700  3E6A 24           .db 36
13701  3E6B 1B           .db 27
13702  3E6C 00           .db 0
13703  3E6D 3F           .db 63
13704  3E6E 00           .db 0
13705  3E6F 3F           .db 63
13706  3E70 00           .db 0
13707  3E71 36           .db 54
13708  3E72 2D           .db 45
13709  3E73 1B           .db 27
13710  3E74 24           .db 36
13711  3E75 1B           .db 27
13712  3E76 00           .db 0
13713  3E77 3F           .db 63
13714  3E78 36           .db 54
13715  3E79 09           .db 9
13716  3E7A 00           .db 0
13717  3E7B 00           .db 0
13718  3E7C 00           .db 0
13719  3E7D 00           .db 0
13720  3E7E 00           .db 0
13721  3E7F 00           .db 0
13722  3E80 00           .db 0
13723  3E81 00           .db 0
13724  3E82 00           .db 0
13725  3E83 00           .db 0
13726  3E84 00           .db 0
13727  3E85 00           .db 0
13728  3E86 00           .db 0
13729  3E87 00           .db 0
13730  3E88 00           .db 0
13731  3E89 80           .db 128
13732  3E8A 00           .db 0
13733  3E8B 80           .db 128
13734  3E8C 36           .db 54
13735  3E8D 80           .db 128
13736  3E8E 09           .db 9
13737  3E8F 80           .db 128
13738  3E90 24           .db 36
13739  3E91 80           .db 128
13740  3E92 1B           .db 27
13741  3E93 80           .db 128
13742  3E94 00           .db 0
13743  3E95 80           .db 128
13744  3E96 3F           .db 63
13745  3E97 80           .db 128
13746  3E98 00           .db 0
13747  3E99 80           .db 128
13748  3E9A 3F           .db 63
13749  3E9B 80           .db 128
13750  3E9C 00           .db 0
13751  3E9D 80           .db 128
13752  3E9E 36           .db 54
13753  3E9F 80           .db 128
13754  3EA0 09           .db 9
13755  3EA1 80           .db 128
13756  3EA2 26           .db 38
13757  3EA3 80           .db 128
13758  3EA4 01           .db 1
13759  3EA5 80           .db 128
13760  3EA6 17           .db 23
13761  3EA7 80           .db 128
13762  3EA8 24           .db 36
13763  3EA9 3F           .db 63
13764  3EAA 00           .db 0
13765  3EAB 01           .db 1
13766  3EAC 24           .db 36
13767  3EAD 1B           .db 27
13768  3EAE 00           .db 0
13769  3EAF 3F           .db 63
13770  3EB0 00           .db 0
13771  3EB1 24           .db 36
13772  3EB2 1B           .db 27
13773  3EB3 00           .db 0
13774  3EB4 00           .db 0
13775  3EB5 00           .db 0
13776  3EB6 3F           .db 63
13777  3EB7 00           .db 0
13778  3EB8 24           .db 36
13779  3EB9 1B           .db 27
13780  3EBA 00           .db 0
13781  3EBB 00           .db 0
13782  3EBC 00           .db 0
13783  3EBD 00           .db 0
13784  3EBE 00           .db 0
13785  3EBF 3F           .db 63
13786  3EC0 09           .db 9
13787  3EC1 3F           .db 63
13788  3EC2 00           .db 0
13789  3EC3 3F           .db 63
13790  3EC4 00           .db 0
13791  3EC5 3F           .db 63
13792  3EC6 36           .db 54
13793  3EC7 09           .db 9
13794  3EC8 24           .db 36
13795  3EC9 1B           .db 27
13796  3ECA 00           .db 0
13797  3ECB 3F           .db 63
13798  3ECC 00           .db 0
13799  3ECD 3F           .db 63
13800  3ECE 00           .db 0
13801  3ECF 3E           .db 62
13802  3ED0 2D           .db 45
13803  3ED1 1B           .db 27
13804  3ED2 24           .db 36
13805  3ED3 1B           .db 27
13806  3ED4 00           .db 0
13807  3ED5 3F           .db 63
13808  3ED6 36           .db 54
13809  3ED7 09           .db 9
13810  3ED8 00           .db 0
13811  3ED9 00           .db 0
13812  3EDA 00           .db 0
13813  3EDB 00           .db 0
13814  3EDC 00           .db 0
13815  3EDD 00           .db 0
13816  3EDE 00           .db 0
13817  3EDF 00           .db 0
13818  3EE0 00           .db 0
13819  3EE1 00           .db 0
13820  3EE2 00           .db 0
13821  3EE3 00           .db 0
13822  3EE4 00           .db 0
13823  3EE5 00           .db 0
13824  3EE6 00           .db 0
13825  3EE7 80           .db 128
13826  3EE8 00           .db 0
13827  3EE9 80           .db 128
13828  3EEA 36           .db 54
13829  3EEB 80           .db 128
13830  3EEC 09           .db 9
13831  3EED 80           .db 128
13832  3EEE 24           .db 36
13833  3EEF 80           .db 128
13834  3EF0 1B           .db 27
13835  3EF1 80           .db 128
13836  3EF2 00           .db 0
13837  3EF3 80           .db 128
13838  3EF4 3F           .db 63
13839  3EF5 80           .db 128
13840  3EF6 00           .db 0
13841  3EF7 80           .db 128
13842  3EF8 3F           .db 63
13843  3EF9 80           .db 128
13844  3EFA 00           .db 0
13845  3EFB 80           .db 128
13846  3EFC 36           .db 54
13847  3EFD 80           .db 128
13848  3EFE 09           .db 9
13849  3EFF 80           .db 128
13850  3F00 00           .db 0
13851  3F01 80           .db 128
13852  3F02 00           .db 0
13853  3F03 80           .db 128
13854  3F04 00           .db 0
13855  3F05 80           .db 128
13856  3F06 24           .db 36
13857  3F07 3F           .db 63
13858  3F08 00           .db 0
13859  3F09 00           .db 0
13860  3F0A 24           .db 36
13861  3F0B 3B           .db 59
13862  3F0C 20           .db 32
13863  3F0D 3F           .db 63
13864  3F0E 00           .db 0
13865  3F0F 24           .db 36
13866  3F10 1B           .db 27
13867  3F11 00           .db 0
13868  3F12 08           .db 8
13869  3F13 00           .db 0
13870  3F14 3F           .db 63
13871  3F15 00           .db 0
13872  3F16 24           .db 36
13873  3F17 3B           .db 59
13874  3F18 18           .db 24
13875  3F19 00           .db 0
13876  3F1A 00           .db 0
13877  3F1B 00           .db 0
13878  3F1C 00           .db 0
13879  3F1D 3F           .db 63
13880  3F1E 00           .db 0
13881  3F1F 3F           .db 63
13882  3F20 00           .db 0
13883  3F21 3F           .db 63
13884  3F22 24           .db 36
13885  3F23 1F           .db 31
13886  3F24 36           .db 54
13887  3F25 09           .db 9
13888  3F26 24           .db 36
13889  3F27 1B           .db 27
13890  3F28 00           .db 0
13891  3F29 3F           .db 63
13892  3F2A 00           .db 0
13893  3F2B 3F           .db 63
13894  3F2C 00           .db 0
13895  3F2D 3F           .db 63
13896  3F2E 25           .db 37
13897  3F2F 1B           .db 27
13898  3F30 24           .db 36
13899  3F31 1B           .db 27
13900  3F32 20           .db 32
13901  3F33 1F           .db 31
13902  3F34 36           .db 54
13903  3F35 09           .db 9
13904  3F36 00           .db 0
13905  3F37 00           .db 0
13906  3F38 00           .db 0
13907  3F39 00           .db 0
13908  3F3A 00           .db 0
13909  3F3B 00           .db 0
13910  3F3C 00           .db 0
13911  3F3D 00           .db 0
13912  3F3E 00           .db 0
13913  3F3F 00           .db 0
13914  3F40 00           .db 0
13915  3F41 00           .db 0
13916  3F42 00           .db 0
13917  3F43 00           .db 0
13918  3F44 00           .db 0
13919  3F45 80           .db 128
13920  3F46 00           .db 0
13921  3F47 80           .db 128
13922  3F48 36           .db 54
13923  3F49 80           .db 128
13924  3F4A 09           .db 9
13925  3F4B 80           .db 128
13926  3F4C 24           .db 36
13927  3F4D 80           .db 128
13928  3F4E 1B           .db 27
13929  3F4F 80           .db 128
13930  3F50 00           .db 0
13931  3F51 80           .db 128
13932  3F52 3F           .db 63
13933  3F53 80           .db 128
13934  3F54 20           .db 32
13935  3F55 80           .db 128
13936  3F56 1F           .db 31
13937  3F57 80           .db 128
13938  3F58 00           .db 0
13939  3F59 80           .db 128
13940  3F5A 36           .db 54
13941  3F5B 80           .db 128
13942  3F5C 3D           .db 61
13943  3F5D 80           .db 128
13944  3F5E 09           .db 9
13945  3F5F 80           .db 128
13946  3F60 00           .db 0
13947  3F61 80           .db 128
13948  3F62 00           .db 0
13949  3F63 80           .db 128
13950  3F64 24           .db 36
13951  3F65 3F           .db 63
13952  3F66 00           .db 0
13953  3F67 00           .db 0
13954  3F68 24           .db 36
13955  3F69 3F           .db 63
13956  3F6A 27           .db 39
13957  3F6B 3F           .db 63
13958  3F6C 00           .db 0
13959  3F6D 24           .db 36
13960  3F6E 3B           .db 59
13961  3F6F 2E           .db 46
13962  3F70 1B           .db 27
13963  3F71 00           .db 0
13964  3F72 3F           .db 63
13965  3F73 00           .db 0
13966  3F74 24           .db 36
13967  3F75 1B           .db 27
13968  3F76 00           .db 0
13969  3F77 00           .db 0
13970  3F78 00           .db 0
13971  3F79 00           .db 0
13972  3F7A 00           .db 0
13973  3F7B 3F           .db 63
13974  3F7C 00           .db 0
13975  3F7D 3F           .db 63
13976  3F7E 00           .db 0
13977  3F7F 3F           .db 63
13978  3F80 34           .db 52
13979  3F81 1B           .db 27
13980  3F82 36           .db 54
13981  3F83 09           .db 9
13982  3F84 24           .db 36
13983  3F85 3F           .db 63
13984  3F86 3C           .db 60
13985  3F87 3F           .db 63
13986  3F88 00           .db 0
13987  3F89 3F           .db 63
13988  3F8A 00           .db 0
13989  3F8B 3F           .db 63
13990  3F8C 24           .db 36
13991  3F8D 1B           .db 27
13992  3F8E 24           .db 36
13993  3F8F 1B           .db 27
13994  3F90 24           .db 36
13995  3F91 1B           .db 27
13996  3F92 36           .db 54
13997  3F93 09           .db 9
13998  3F94 00           .db 0
13999  3F95 00           .db 0
14000  3F96 00           .db 0
14001  3F97 00           .db 0
14002  3F98 00           .db 0
14003  3F99 00           .db 0
14004  3F9A 00           .db 0
14005  3F9B 00           .db 0
14006  3F9C 00           .db 0
14007  3F9D 00           .db 0
14008  3F9E 00           .db 0
14009  3F9F 00           .db 0
14010  3FA0 00           .db 0
14011  3FA1 00           .db 0
14012  3FA2 00           .db 0
14013  3FA3 80           .db 128
14014  3FA4 00           .db 0
14015  3FA5 84           .db 132
14016  3FA6 36           .db 54
14017  3FA7 84           .db 132
14018  3FA8 09           .db 9
14019  3FA9 84           .db 132
14020  3FAA 24           .db 36
14021  3FAB 84           .db 132
14022  3FAC 1B           .db 27
14023  3FAD 84           .db 132
14024  3FAE 00           .db 0
14025  3FAF 84           .db 132
14026  3FB0 3F           .db 63
14027  3FB1 84           .db 132
14028  3FB2 27           .db 39
14029  3FB3 84           .db 132
14030  3FB4 1B           .db 27
14031  3FB5 84           .db 132
14032  3FB6 00           .db 0
14033  3FB7 84           .db 132
14034  3FB8 36           .db 54
14035  3FB9 84           .db 132
14036  3FBA 09           .db 9
14037  3FBB 84           .db 132
14038  3FBC 00           .db 0
14039  3FBD 84           .db 132
14040  3FBE 00           .db 0
14041  3FBF 84           .db 132
14042  3FC0 00           .db 0
14043  3FC1 84           .db 132
14044  3FC2 24           .db 36
14045  3FC3 3F           .db 63
14046  3FC4 00           .db 0
14047  3FC5 00           .db 0
14048  3FC6 24           .db 36
14049  3FC7 1B           .db 27
14050  3FC8 00           .db 0
14051  3FC9 3F           .db 63
14052  3FCA 00           .db 0
14053  3FCB 24           .db 36
14054  3FCC 1B           .db 27
14055  3FCD 24           .db 36
14056  3FCE 1B           .db 27
14057  3FCF 00           .db 0
14058  3FD0 3F           .db 63
14059  3FD1 00           .db 0
14060  3FD2 24           .db 36
14061  3FD3 1B           .db 27
14062  3FD4 34           .db 52
14063  3FD5 08           .db 8
14064  3FD6 00           .db 0
14065  3FD7 00           .db 0
14066  3FD8 20           .db 32
14067  3FD9 3F           .db 63
14068  3FDA 00           .db 0
14069  3FDB 3F           .db 63
14070  3FDC 00           .db 0
14071  3FDD 3F           .db 63
14072  3FDE 36           .db 54
14073  3FDF 09           .db 9
14074  3FE0 36           .db 54
14075  3FE1 09           .db 9
14076  3FE2 24           .db 36
14077  3FE3 1F           .db 31
14078  3FE4 04           .db 4
14079  3FE5 3F           .db 63
14080  3FE6 00           .db 0
14081  3FE7 3F           .db 63
14082  3FE8 24           .db 36
14083  3FE9 1B           .db 27
14084  3FEA 24           .db 36
14085  3FEB 1B           .db 27
14086  3FEC 24           .db 36
14087  3FED 1B           .db 27
14088  3FEE 34           .db 52
14089  3FEF 1B           .db 27
14090  3FF0 36           .db 54
14091  3FF1 09           .db 9
14092  3FF2 00           .db 0
14093  3FF3 00           .db 0
14094  3FF4 00           .db 0
14095  3FF5 00           .db 0
14096  3FF6 00           .db 0
14097  3FF7 00           .db 0
14098  3FF8 00           .db 0
14099  3FF9 00           .db 0
14100  3FFA 00           .db 0
14101  3FFB 00           .db 0
14102  3FFC 00           .db 0
14103  3FFD 00           .db 0
14104  3FFE 00           .db 0
14105  3FFF 00           .db 0
14106  4000 00           .db 0
14107  4001 80           .db 128
14108  4002 00           .db 0
14109  4003 84           .db 132
14110  4004 36           .db 54
14111  4005 84           .db 132
14112  4006 09           .db 9
14113  4007 84           .db 132
14114  4008 24           .db 36
14115  4009 84           .db 132
14116  400A 1B           .db 27
14117  400B 84           .db 132
14118  400C 00           .db 0
14119  400D 84           .db 132
14120  400E 3F           .db 63
14121  400F 84           .db 132
14122  4010 00           .db 0
14123  4011 84           .db 132
14124  4012 3F           .db 63
14125  4013 84           .db 132
14126  4014 00           .db 0
14127  4015 84           .db 132
14128  4016 26           .db 38
14129  4017 84           .db 132
14130  4018 09           .db 9
14131  4019 84           .db 132
14132  401A 34           .db 52
14133  401B 84           .db 132
14134  401C 08           .db 8
14135  401D 84           .db 132
14136  401E 00           .db 0
14137  401F 84           .db 132
14138  4020 24           .db 36
14139  4021 3F           .db 63
14140  4022 00           .db 0
14141  4023 00           .db 0
14142  4024 24           .db 36
14143  4025 1B           .db 27
14144  4026 00           .db 0
14145  4027 3F           .db 63
14146  4028 00           .db 0
14147  4029 24           .db 36
14148  402A 1B           .db 27
14149  402B 24           .db 36
14150  402C 1B           .db 27
14151  402D 00           .db 0
14152  402E 3F           .db 63
14153  402F 00           .db 0
14154  4030 24           .db 36
14155  4031 1B           .db 27
14156  4032 24           .db 36
14157  4033 09           .db 9
14158  4034 00           .db 0
14159  4035 00           .db 0
14160  4036 24           .db 36
14161  4037 1B           .db 27
14162  4038 00           .db 0
14163  4039 3F           .db 63
14164  403A 00           .db 0
14165  403B 3F           .db 63
14166  403C 36           .db 54
14167  403D 01           .db 1
14168  403E 36           .db 54
14169  403F 09           .db 9
14170  4040 24           .db 36
14171  4041 1B           .db 27
14172  4042 00           .db 0
14173  4043 3F           .db 63
14174  4044 00           .db 0
14175  4045 3F           .db 63
14176  4046 24           .db 36
14177  4047 1B           .db 27
14178  4048 24           .db 36
14179  4049 1B           .db 27
14180  404A 24           .db 36
14181  404B 1B           .db 27
14182  404C 36           .db 54
14183  404D 09           .db 9
14184  404E 36           .db 54
14185  404F 09           .db 9
14186  4050 00           .db 0
14187  4051 00           .db 0
14188  4052 00           .db 0
14189  4053 00           .db 0
14190  4054 00           .db 0
14191  4055 00           .db 0
14192  4056 00           .db 0
14193  4057 00           .db 0
14194  4058 00           .db 0
14195  4059 00           .db 0
14196  405A 00           .db 0
14197  405B 00           .db 0
14198  405C 00           .db 0
14199  405D 00           .db 0
14200  405E 00           .db 0
14201  405F 80           .db 128
14202  4060 00           .db 0
14203  4061 84           .db 132
14204  4062 36           .db 54
14205  4063 84           .db 132
14206  4064 09           .db 9
14207  4065 84           .db 132
14208  4066 24           .db 36
14209  4067 84           .db 132
14210  4068 1B           .db 27
14211  4069 84           .db 132
14212  406A 00           .db 0
14213  406B 84           .db 132
14214  406C 3F           .db 63
14215  406D 84           .db 132
14216  406E 00           .db 0
14217  406F 3F           .db 63
14218  4070 00           .db 0
14219  4071 36           .db 54
14220  4072 09           .db 9
14221  4073 36           .db 54
14222  4074 00           .db 0
14223  4075 89           .db 137
14224  4076 3F           .db 63
14225  4077 84           .db 132
14226  4078 24           .db 36
14227  4079 3F           .db 63
14228  407A 89           .db 137
14229  407B 04           .db 4
14230  407C 1F           .db 31
14231  407D 84           .db 132
14232  407E 24           .db 36
14233  407F 1B           .db 27
14234  4080 00           .db 0
14235  4081 3F           .db 63
14236  4082 00           .db 0
14237  4083 34           .db 52
14238  4084 1B           .db 27
14239  4085 34           .db 52
14240  4086 1B           .db 27
14241  4087 00           .db 0
14242  4088 3F           .db 63
14243  4089 89           .db 137
14244  408A 04           .db 4
14245  408B 84           .db 132
14246  408C 24           .db 36
14247  408D 1B           .db 27
14248  408E 3C           .db 60
14249  408F 09           .db 9
14250  4090 89           .db 137
14251  4091 3F           .db 63
14252  4092 1F           .db 31
14253  4093 84           .db 132
14254  4094 24           .db 36
14255  4095 1B           .db 27
14256  4096 00           .db 0
14257  4097 3F           .db 63
14258  4098 00           .db 0
14259  4099 3F           .db 63
14260  409A 3E           .db 62
14261  409B 00           .db 0
14262  409C 36           .db 54
14263  409D 09           .db 9
14264  409E 24           .db 36
14265  409F 1B           .db 27
14266  40A0 00           .db 0
14267  40A1 3F           .db 63
14268  40A2 00           .db 0
14269  40A3 3F           .db 63
14270  40A4 36           .db 54
14271  40A5 09           .db 9
14272  40A6 24           .db 36
14273  40A7 1B           .db 27
14274  40A8 24           .db 36
14275  40A9 1B           .db 27
14276  40AA 3E           .db 62
14277  40AB 01           .db 1
14278  40AC 36           .db 54
14279  40AD 09           .db 9
14280  40AE 00           .db 0
14281  40AF 00           .db 0
14282  40B0 00           .db 0
14283  40B1 00           .db 0
14284  40B2 00           .db 0
14285  40B3 00           .db 0
14286  40B4 00           .db 0
14287  40B5 00           .db 0
14288  40B6 00           .db 0
14289  40B7 00           .db 0
14290  40B8 00           .db 0
14291  40B9 00           .db 0
14292  40BA 00           .db 0
14293  40BB 00           .db 0
14294  40BC 00           .db 0
14295  40BD 80           .db 128
14296  40BE 00           .db 0
14297  40BF 84           .db 132
14298  40C0 36           .db 54
14299  40C1 84           .db 132
14300  40C2 09           .db 9
14301  40C3 84           .db 132
14302  40C4 24           .db 36
14303  40C5 84           .db 132
14304  40C6 1B           .db 27
14305  40C7 84           .db 132
14306  40C8 00           .db 0
14307  40C9 84           .db 132
14308  40CA 3F           .db 63
14309  40CB 84           .db 132
14310  40CC 00           .db 0
14311  40CD 84           .db 132
14312  40CE 3F           .db 63
14313  40CF 84           .db 132
14314  40D0 08           .db 8
14315  40D1 84           .db 132
14316  40D2 36           .db 54
14317  40D3 84           .db 132
14318  40D4 19           .db 25
14319  40D5 3E           .db 62
14320  40D6 00           .db 0
14321  40D7 89           .db 137
14322  40D8 3F           .db 63
14323  40D9 84           .db 132
14324  40DA 24           .db 36
14325  40DB 3F           .db 63
14326  40DC 09           .db 9
14327  40DD 00           .db 0
14328  40DE 26           .db 38
14329  40DF 1F           .db 31
14330  40E0 04           .db 4
14331  40E1 3F           .db 63
14332  40E2 01           .db 1
14333  40E3 26           .db 38
14334  40E4 1F           .db 31
14335  40E5 07           .db 7
14336  40E6 01           .db 1
14337  40E7 04           .db 4
14338  40E8 3F           .db 63
14339  40E9 01           .db 1
14340  40EA 26           .db 38
14341  40EB 3F           .db 63
14342  40EC 01           .db 1
14343  40ED 89           .db 137
14344  40EE 20           .db 32
14345  40EF 3F           .db 63
14346  40F0 1B           .db 27
14347  40F1 84           .db 132
14348  40F2 26           .db 38
14349  40F3 1F           .db 31
14350  40F4 04           .db 4
14351  40F5 3F           .db 63
14352  40F6 01           .db 1
14353  40F7 37           .db 55
14354  40F8 1F           .db 31
14355  40F9 00           .db 0
14356  40FA 37           .db 55
14357  40FB 0B           .db 11
14358  40FC 34           .db 52
14359  40FD 3B           .db 59
14360  40FE 00           .db 0
14361  40FF 3F           .db 63
14362  4100 00           .db 0
14363  4101 3F           .db 63
14364  4102 3E           .db 62
14365  4103 09           .db 9
14366  4104 24           .db 36
14367  4105 1B           .db 27
14368  4106 24           .db 36
14369  4107 1B           .db 27
14370  4108 3F           .db 63
14371  4109 00           .db 0
14372  410A 36           .db 54
14373  410B 09           .db 9
14374  410C 00           .db 0
14375  410D 00           .db 0
14376  410E 00           .db 0
14377  410F 00           .db 0
14378  4110 00           .db 0
14379  4111 00           .db 0
14380  4112 00           .db 0
14381  4113 00           .db 0
14382  4114 00           .db 0
14383  4115 00           .db 0
14384  4116 00           .db 0
14385  4117 00           .db 0
14386  4118 00           .db 0
14387  4119 00           .db 0
14388  411A 00           .db 0
14389  411B 80           .db 128
14390  411C 00           .db 0
14391  411D 84           .db 132
14392  411E 36           .db 54
14393  411F 09           .db 9
14394  4120 24           .db 36
14395  4121 1B           .db 27
14396  4122 20           .db 32
14397  4123 3F           .db 63
14398  4124 3D           .db 61
14399  4125 3F           .db 63
14400  4126 00           .db 0
14401  4127 37           .db 55
14402  4128 3F           .db 63
14403  4129 37           .db 55
14404  412A 01           .db 1
14405  412B 89           .db 137
14406  412C 3F           .db 63
14407  412D 08           .db 8
14408  412E 84           .db 132
14409  412F 17           .db 23
14410  4130 00           .db 0
14411  4131 00           .db 0
14412  4132 00           .db 0
14413  4133 01           .db 1
14414  4134 00           .db 0
14415  4135 02           .db 2
14416  4136 00           .db 0
14417  4137 00           .db 0
14418  4138 01           .db 1
14419  4139 89           .db 137
14420  413A 38           .db 56
14421  413B 38           .db 56
14422  413C 18           .db 24
14423  413D 84           .db 132
14424  413E 02           .db 2
14425  413F 89           .db 137
14426  4140 34           .db 52
14427  4141 08           .db 8
14428  4142 84           .db 132
14429  4143 01           .db 1
14430  4144 89           .db 137
14431  4145 34           .db 52
14432  4146 3F           .db 63
14433  4147 3F           .db 63
14434  4148 3F           .db 63
14435  4149 08           .db 8
14436  414A 84           .db 132
14437  414B 01           .db 1
14438  414C 89           .db 137
14439  414D 18           .db 24
14440  414E 84           .db 132
14441  414F 02           .db 2
14442  4150 89           .db 137
14443  4151 38           .db 56
14444  4152 84           .db 132
14445  4153 04           .db 4
14446  4154 01           .db 1
14447  4155 89           .db 137
14448  4156 3A           .db 58
14449  4157 84           .db 132
14450  4158 04           .db 4
14451  4159 00           .db 0
14452  415A 04           .db 4
14453  415B 0B           .db 11
14454  415C 04           .db 4
14455  415D 3F           .db 63
14456  415E 01           .db 1
14457  415F 37           .db 55
14458  4160 3F           .db 63
14459  4161 01           .db 1
14460  4162 34           .db 52
14461  4163 1B           .db 27
14462  4164 24           .db 36
14463  4165 3F           .db 63
14464  4166 3F           .db 63
14465  4167 00           .db 0
14466  4168 36           .db 54
14467  4169 09           .db 9
14468  416A 00           .db 0
14469  416B 00           .db 0
14470  416C 00           .db 0
14471  416D 00           .db 0
14472  416E 00           .db 0
14473  416F 00           .db 0
14474  4170 00           .db 0
14475  4171 00           .db 0
14476  4172 00           .db 0
14477  4173 00           .db 0
14478  4174 00           .db 0
14479  4175 00           .db 0
14480  4176 00           .db 0
14481  4177 00           .db 0
14482  4178 00           .db 0
14483  4179 80           .db 128
14484  417A 00           .db 0
14485  417B 84           .db 132
14486  417C 3E           .db 62
14487  417D 84           .db 132
14488  417E 3B           .db 59
14489  417F 84           .db 132
14490  4180 3E           .db 62
14491  4181 84           .db 132
14492  4182 3F           .db 63
14493  4183 84           .db 132
14494  4184 04           .db 4
14495  4185 84           .db 132
14496  4186 3F           .db 63
14497  4187 84           .db 132
14498  4188 0F           .db 15
14499  4189 84           .db 132
14500  418A 00           .db 0
14501  418B 84           .db 132
14502  418C 00           .db 0
14503  418D 04           .db 4
14504  418E 0B           .db 11
14505  418F 00           .db 0
14506  4190 89           .db 137
14507  4191 34           .db 52
14508  4192 3F           .db 63
14509  4193 3B           .db 59
14510  4194 00           .db 0
14511  4195 3E           .db 62
14512  4196 3F           .db 63
14513  4197 3B           .db 59
14514  4198 3C           .db 60
14515  4199 3F           .db 63
14516  419A 38           .db 56
14517  419B 3F           .db 63
14518  419C 3B           .db 59
14519  419D 3E           .db 62
14520  419E 3F           .db 63
14521  419F 3F           .db 63
14522  41A0 3F           .db 63
14523  41A1 39           .db 57
14524  41A2 3F           .db 63
14525  41A3 3B           .db 59
14526  41A4 3C           .db 60
14527  41A5 3F           .db 63
14528  41A6 3F           .db 63
14529  41A7 3F           .db 63
14530  41A8 3F           .db 63
14531  41A9 3B           .db 59
14532  41AA 3C           .db 60
14533  41AB 3B           .db 59
14534  41AC 3C           .db 60
14535  41AD 3F           .db 63
14536  41AE 3B           .db 59
14537  41AF 3C           .db 60
14538  41B0 3F           .db 63
14539  41B1 09           .db 9
14540  41B2 3E           .db 62
14541  41B3 08           .db 8
14542  41B4 20           .db 32
14543  41B5 08           .db 8
14544  41B6 84           .db 132
14545  41B7 02           .db 2
14546  41B8 89           .db 137
14547  41B9 3E           .db 62
14548  41BA 84           .db 132
14549  41BB 04           .db 4
14550  41BC 03           .db 3
14551  41BD 89           .db 137
14552  41BE 30           .db 48
14553  41BF 84           .db 132
14554  41C0 04           .db 4
14555  41C1 0B           .db 11
14556  41C2 00           .db 0
14557  41C3 37           .db 55
14558  41C4 0B           .db 11
14559  41C5 00           .db 0
14560  41C6 3E           .db 62
14561  41C7 19           .db 25
14562  41C8 00           .db 0
14563  41C9 00           .db 0
14564  41CA 00           .db 0
14565  41CB 00           .db 0
14566  41CC 00           .db 0
14567  41CD 00           .db 0
14568  41CE 00           .db 0
14569  41CF 00           .db 0
14570  41D0 00           .db 0
14571  41D1 00           .db 0
14572  41D2 00           .db 0
14573  41D3 00           .db 0
14574  41D4 00           .db 0
14575  41D5 00           .db 0
14576  41D6 00           .db 0
14577  41D7 80           .db 128
14578  41D8 00           .db 0
14579  41D9 80           .db 128
14580  41DA 00           .db 0
14581  41DB 84           .db 132
14582  41DC 37           .db 55
14583  41DD 84           .db 132
14584  41DE 0F           .db 15
14585  41DF 84           .db 132
14586  41E0 37           .db 55
14587  41E1 84           .db 132
14588  41E2 00           .db 0
14589  41E3 84           .db 132
14590  41E4 06           .db 6
14591  41E5 89           .db 137
14592  41E6 20           .db 32
14593  41E7 89           .db 137
14594  41E8 3F           .db 63
14595  41E9 89           .db 137
14596  41EA 3F           .db 63
14597  41EB 89           .db 137
14598  41EC 08           .db 8
14599  41ED 89           .db 137
14600  41EE 00           .db 0
14601  41EF 89           .db 137
14602  41F0 3E           .db 62
14603  41F1 89           .db 137
14604  41F2 3F           .db 63
14605  41F3 89           .db 137
14606  41F4 3F           .db 63
14607  41F5 3F           .db 63
14608  41F6 3F           .db 63
14609  41F7 3F           .db 63
14610  41F8 3F           .db 63
14611  41F9 3F           .db 63
14612  41FA 3F           .db 63
14613  41FB 3F           .db 63
14614  41FC 3F           .db 63
14615  41FD 3F           .db 63
14616  41FE 3F           .db 63
14617  41FF 3F           .db 63
14618  4200 3F           .db 63
14619  4201 3F           .db 63
14620  4202 3F           .db 63
14621  4203 3F           .db 63
14622  4204 3F           .db 63
14623  4205 3F           .db 63
14624  4206 3F           .db 63
14625  4207 3F           .db 63
14626  4208 3F           .db 63
14627  4209 3F           .db 63
14628  420A 3F           .db 63
14629  420B 3F           .db 63
14630  420C 3F           .db 63
14631  420D 3F           .db 63
14632  420E 3F           .db 63
14633  420F 3F           .db 63
14634  4210 3F           .db 63
14635  4211 3F           .db 63
14636  4212 3F           .db 63
14637  4213 3F           .db 63
14638  4214 3F           .db 63
14639  4215 3F           .db 63
14640  4216 3E           .db 62
14641  4217 3B           .db 59
14642  4218 3C           .db 60
14643  4219 3F           .db 63
14644  421A 19           .db 25
14645  421B 20           .db 32
14646  421C 3F           .db 63
14647  421D 09           .db 9
14648  421E 20           .db 32
14649  421F 3B           .db 59
14650  4220 00           .db 0
14651  4221 20           .db 32
14652  4222 19           .db 25
14653  4223 84           .db 132
14654  4224 26           .db 38
14655  4225 01           .db 1
14656  4226 00           .db 0
14657  4227 00           .db 0
14658  4228 00           .db 0
14659  4229 00           .db 0
14660  422A 00           .db 0
14661  422B 00           .db 0
14662  422C 00           .db 0
14663  422D 00           .db 0
14664  422E 00           .db 0
14665  422F 00           .db 0
14666  4230 00           .db 0
14667  4231 00           .db 0
14668  4232 00           .db 0
14669  4233 00           .db 0
14670  4234 00           .db 0
14671  4235 80           .db 128
14672  4236 00           .db 0
14673  4237 80           .db 128
14674  4238 00           .db 0
14675  4239 84           .db 132
14676  423A 04           .db 4
14677  423B 89           .db 137
14678  423C 20           .db 32
14679  423D 84           .db 132
14680  423E 04           .db 4
14681  423F 89           .db 137
14682  4240 24           .db 36
14683  4241 89           .db 137
14684  4242 38           .db 56
14685  4243 89           .db 137
14686  4244 3E           .db 62
14687  4245 89           .db 137
14688  4246 3F           .db 63
14689  4247 89           .db 137
14690  4248 3F           .db 63
14691  4249 89           .db 137
14692  424A 3F           .db 63
14693  424B 89           .db 137
14694  424C 3F           .db 63
14695  424D 89           .db 137
14696  424E 3F           .db 63
14697  424F 89           .db 137
14698  4250 3F           .db 63
14699  4251 89           .db 137
14700  4252 3F           .db 63
14701  4253 89           .db 137
14702  4254 3F           .db 63
14703  4255 3F           .db 63
14704  4256 3F           .db 63
14705  4257 3F           .db 63
14706  4258 3F           .db 63
14707  4259 3F           .db 63
14708  425A 3F           .db 63
14709  425B 3F           .db 63
14710  425C 3F           .db 63
14711  425D 3F           .db 63
14712  425E 3F           .db 63
14713  425F 3F           .db 63
14714  4260 3F           .db 63
14715  4261 3F           .db 63
14716  4262 3F           .db 63
14717  4263 3F           .db 63
14718  4264 3F           .db 63
14719  4265 3F           .db 63
14720  4266 3F           .db 63
14721  4267 3F           .db 63
14722  4268 3F           .db 63
14723  4269 3F           .db 63
14724  426A 3F           .db 63
14725  426B 3F           .db 63
14726  426C 3F           .db 63
14727  426D 3F           .db 63
14728  426E 3F           .db 63
14729  426F 3F           .db 63
14730  4270 3F           .db 63
14731  4271 3F           .db 63
14732  4272 3F           .db 63
14733  4273 3F           .db 63
14734  4274 3F           .db 63
14735  4275 3F           .db 63
14736  4276 3F           .db 63
14737  4277 3F           .db 63
14738  4278 3F           .db 63
14739  4279 3F           .db 63
14740  427A 3F           .db 63
14741  427B 3F           .db 63
14742  427C 3F           .db 63
14743  427D 3E           .db 62
14744  427E 3F           .db 63
14745  427F 08           .db 8
14746  4280 3E           .db 62
14747  4281 1B           .db 27
14748  4282 00           .db 0
14749  4283 00           .db 0
14750  4284 00           .db 0
14751  4285 00           .db 0
14752  4286 00           .db 0
14753  4287 00           .db 0
14754  4288 00           .db 0
14755  4289 00           .db 0
14756  428A 00           .db 0
14757  428B 00           .db 0
14758  428C 00           .db 0
14759  428D 00           .db 0
14760  428E 00           .db 0
14761  428F 00           .db 0
14762  4290 00           .db 0
14763  4291 00           .db 0
14764  4292 00           .db 0
14765  4293 80           .db 128
14766  4294 00           .db 0
14767  4295 80           .db 128
14768  4296 00           .db 0
14769  4297 80           .db 128
14770  4298 00           .db 0
14771  4299 89           .db 137
14772  429A 3C           .db 60
14773  429B 89           .db 137
14774  429C 3B           .db 59
14775  429D 89           .db 137
14776  429E 3C           .db 60
14777  429F 89           .db 137
14778  42A0 3F           .db 63
14779  42A1 89           .db 137
14780  42A2 3F           .db 63
14781  42A3 89           .db 137
14782  42A4 3F           .db 63
14783  42A5 89           .db 137
14784  42A6 3F           .db 63
14785  42A7 89           .db 137
14786  42A8 3F           .db 63
14787  42A9 89           .db 137
14788  42AA 3F           .db 63
14789  42AB 89           .db 137
14790  42AC 3F           .db 63
14791  42AD 89           .db 137
14792  42AE 3F           .db 63
14793  42AF 89           .db 137
14794  42B0 3F           .db 63
14795  42B1 89           .db 137
14796  42B2 3F           .db 63
14797  42B3 3F           .db 63
14798  42B4 3F           .db 63
14799  42B5 3F           .db 63
14800  42B6 3F           .db 63
14801  42B7 3F           .db 63
14802  42B8 3F           .db 63
14803  42B9 3F           .db 63
14804  42BA 3F           .db 63
14805  42BB 3F           .db 63
14806  42BC 3F           .db 63
14807  42BD 3F           .db 63
14808  42BE 3F           .db 63
14809  42BF 3F           .db 63
14810  42C0 3F           .db 63
14811  42C1 3F           .db 63
14812  42C2 3F           .db 63
14813  42C3 3F           .db 63
14814  42C4 3F           .db 63
14815  42C5 3F           .db 63
14816  42C6 3F           .db 63
14817  42C7 3F           .db 63
14818  42C8 3F           .db 63
14819  42C9 3F           .db 63
14820  42CA 3F           .db 63
14821  42CB 3F           .db 63
14822  42CC 3F           .db 63
14823  42CD 3F           .db 63
14824  42CE 3F           .db 63
14825  42CF 3F           .db 63
14826  42D0 3F           .db 63
14827  42D1 3F           .db 63
14828  42D2 3F           .db 63
14829  42D3 3F           .db 63
14830  42D4 3F           .db 63
14831  42D5 3F           .db 63
14832  42D6 3F           .db 63
14833  42D7 3F           .db 63
14834  42D8 3F           .db 63
14835  42D9 3F           .db 63
14836  42DA 3F           .db 63
14837  42DB 3F           .db 63
14838  42DC 3F           .db 63
14839  42DD 3F           .db 63
14840  42DE 3F           .db 63
14841  42DF 1B           .db 27
14842  42E0 00           .db 0
14843  42E1 00           .db 0
14844  42E2 00           .db 0
14845  42E3 00           .db 0
14846  42E4 00           .db 0
14847  42E5 00           .db 0
14848  42E6 00           .db 0
14849  42E7 00           .db 0
14850  42E8 00           .db 0
14851  42E9 00           .db 0
14852  42EA 00           .db 0
14853  42EB 00           .db 0
14854  42EC 00           .db 0
14855  42ED 00           .db 0
14856  42EE 00           .db 0
14857  42EF 00           .db 0
14858  42F0 00           .db 0
14859  42F1 80           .db 128
14860  42F2 00           .db 0
14861  42F3 80           .db 128
14862  42F4 00           .db 0
14863  42F5 80           .db 128
14864  42F6 00           .db 0
14865  42F7 89           .db 137
14866  42F8 3F           .db 63
14867  42F9 89           .db 137
14868  42FA 3F           .db 63
14869  42FB 89           .db 137
14870  42FC 3F           .db 63
14871  42FD 89           .db 137
14872  42FE 3F           .db 63
14873  42FF 89           .db 137
14874  4300 3F           .db 63
14875  4301 89           .db 137
14876  4302 3F           .db 63
14877  4303 89           .db 137
14878  4304 3F           .db 63
14879  4305 89           .db 137
14880  4306 3F           .db 63
14881  4307 89           .db 137
14882  4308 3F           .db 63
14883  4309 89           .db 137
14884  430A 3F           .db 63
14885  430B 89           .db 137
14886  430C 3F           .db 63
14887  430D 89           .db 137
14888  430E 3F           .db 63
14889  430F 89           .db 137
14890  4310 3F           .db 63
14891  4311 3F           .db 63
14892  4312 3F           .db 63
14893  4313 3F           .db 63
14894  4314 3F           .db 63
14895  4315 3F           .db 63
14896  4316 3F           .db 63
14897  4317 3F           .db 63
14898  4318 3F           .db 63
14899  4319 3F           .db 63
14900  431A 3F           .db 63
14901  431B 3F           .db 63
14902  431C 3F           .db 63
14903  431D 3F           .db 63
14904  431E 3F           .db 63
14905  431F 3F           .db 63
14906  4320 3F           .db 63
14907  4321 3F           .db 63
14908  4322 3F           .db 63
14909  4323 3F           .db 63
14910  4324 2D           .db 45
14911  4325 3F           .db 63
14912  4326 3F           .db 63
14913  4327 3F           .db 63
14914  4328 3F           .db 63
14915  4329 3F           .db 63
14916  432A 3F           .db 63
14917  432B 3F           .db 63
14918  432C 3F           .db 63
14919  432D 3F           .db 63
14920  432E 3F           .db 63
14921  432F 3F           .db 63
14922  4330 3F           .db 63
14923  4331 3F           .db 63
14924  4332 3F           .db 63
14925  4333 3F           .db 63
14926  4334 3F           .db 63
14927  4335 3F           .db 63
14928  4336 3F           .db 63
14929  4337 3F           .db 63
14930  4338 3F           .db 63
14931  4339 3F           .db 63
14932  433A 3F           .db 63
14933  433B 3F           .db 63
14934  433C 3F           .db 63
14935  433D 1B           .db 27
14936  433E 00           .db 0
14937  433F 00           .db 0
14938  4340 00           .db 0
14939  4341 00           .db 0
14940  4342 00           .db 0
14941  4343 00           .db 0
14942  4344 00           .db 0
14943  4345 00           .db 0
14944  4346 00           .db 0
14945  4347 00           .db 0
14946  4348 00           .db 0
14947  4349 00           .db 0
14948  434A 00           .db 0
14949  434B 00           .db 0
14950  434C 00           .db 0
14951  434D 00           .db 0
14952  434E 00           .db 0
14953  434F 80           .db 128
14954  4350 00           .db 0
14955  4351 80           .db 128
14956  4352 00           .db 0
14957  4353 80           .db 128
14958  4354 00           .db 0
14959  4355 89           .db 137
14960  4356 3F           .db 63
14961  4357 89           .db 137
14962  4358 3F           .db 63
14963  4359 89           .db 137
14964  435A 3F           .db 63
14965  435B 89           .db 137
14966  435C 3F           .db 63
14967  435D 89           .db 137
14968  435E 3F           .db 63
14969  435F 89           .db 137
14970  4360 3F           .db 63
14971  4361 89           .db 137
14972  4362 3F           .db 63
14973  4363 89           .db 137
14974  4364 3F           .db 63
14975  4365 89           .db 137
14976  4366 3F           .db 63
14977  4367 89           .db 137
14978  4368 3F           .db 63
14979  4369 89           .db 137
14980  436A 3F           .db 63
14981  436B 89           .db 137
14982  436C 3F           .db 63
14983  436D 89           .db 137
14984  436E 3F           .db 63
14985  436F 3F           .db 63
14986  4370 3F           .db 63
14987  4371 3F           .db 63
14988  4372 3F           .db 63
14989  4373 3F           .db 63
14990  4374 3F           .db 63
14991  4375 3F           .db 63
14992  4376 3F           .db 63
14993  4377 3F           .db 63
14994  4378 3F           .db 63
14995  4379 3F           .db 63
14996  437A 3F           .db 63
14997  437B 3F           .db 63
14998  437C 3F           .db 63
14999  437D 3F           .db 63
15000  437E 3F           .db 63
15001  437F 3F           .db 63
15002  4380 3F           .db 63
15003  4381 3F           .db 63
15004  4382 05           .db 5
15005  4383 3F           .db 63
15006  4384 3F           .db 63
15007  4385 3F           .db 63
15008  4386 3F           .db 63
15009  4387 3F           .db 63
15010  4388 3F           .db 63
15011  4389 3F           .db 63
15012  438A 3F           .db 63
15013  438B 3F           .db 63
15014  438C 3F           .db 63
15015  438D 3F           .db 63
15016  438E 3F           .db 63
15017  438F 3F           .db 63
15018  4390 3F           .db 63
15019  4391 3F           .db 63
15020  4392 3F           .db 63
15021  4393 3F           .db 63
15022  4394 3F           .db 63
15023  4395 3F           .db 63
15024  4396 3F           .db 63
15025  4397 3F           .db 63
15026  4398 3F           .db 63
15027  4399 3F           .db 63
15028  439A 3F           .db 63
15029  439B 1B           .db 27
15030  439C 00           .db 0
15031  439D 00           .db 0
15032  439E 00           .db 0
15033  439F 00           .db 0
15034  43A0 00           .db 0
15035  43A1 00           .db 0
15036  43A2 00           .db 0
15037  43A3 00           .db 0
15038  43A4 00           .db 0
15039  43A5 00           .db 0
15040  43A6 00           .db 0
15041  43A7 00           .db 0
15042  43A8 00           .db 0
15043  43A9 00           .db 0
15044  43AA 00           .db 0
15045  43AB 00           .db 0
15046  43AC 00           .db 0
15047  43AD 80           .db 128
15048  43AE 00           .db 0
15049  43AF 80           .db 128
15050  43B0 00           .db 0
15051  43B1 80           .db 128
15052  43B2 00           .db 0
15053  43B3 89           .db 137
15054  43B4 3F           .db 63
15055  43B5 89           .db 137
15056  43B6 3F           .db 63
15057  43B7 89           .db 137
15058  43B8 3F           .db 63
15059  43B9 89           .db 137
15060  43BA 3F           .db 63
15061  43BB 89           .db 137
15062  43BC 3F           .db 63
15063  43BD 89           .db 137
15064  43BE 3F           .db 63
15065  43BF 89           .db 137
15066  43C0 3F           .db 63
15067  43C1 89           .db 137
15068  43C2 3F           .db 63
15069  43C3 89           .db 137
15070  43C4 3F           .db 63
15071  43C5 89           .db 137
15072  43C6 3F           .db 63
15073  43C7 89           .db 137
15074  43C8 3F           .db 63
15075  43C9 89           .db 137
15076  43CA 3F           .db 63
15077  43CB 89           .db 137
15078  43CC 3F           .db 63
15079  43CD 3F           .db 63
15080  43CE 3F           .db 63
15081  43CF 3F           .db 63
15082  43D0 3F           .db 63
15083  43D1 3F           .db 63
15084  43D2 3F           .db 63
15085  43D3 3F           .db 63
15086  43D4 3F           .db 63
15087  43D5 3F           .db 63
15088  43D6 3F           .db 63
15089  43D7 3F           .db 63
15090  43D8 3F           .db 63
15091  43D9 3F           .db 63
15092  43DA 3F           .db 63
15093  43DB 3F           .db 63
15094  43DC 3F           .db 63
15095  43DD 3F           .db 63
15096  43DE 3F           .db 63
15097  43DF 3F           .db 63
15098  43E0 00           .db 0
15099  43E1 3F           .db 63
15100  43E2 3F           .db 63
15101  43E3 3F           .db 63
15102  43E4 3F           .db 63
15103  43E5 3F           .db 63
15104  43E6 3F           .db 63
15105  43E7 3F           .db 63
15106  43E8 3F           .db 63
15107  43E9 3F           .db 63
15108  43EA 3F           .db 63
15109  43EB 3F           .db 63
15110  43EC 3F           .db 63
15111  43ED 3F           .db 63
15112  43EE 3F           .db 63
15113  43EF 3F           .db 63
15114  43F0 3F           .db 63
15115  43F1 3F           .db 63
15116  43F2 3F           .db 63
15117  43F3 3F           .db 63
15118  43F4 3F           .db 63
15119  43F5 3F           .db 63
15120  43F6 3F           .db 63
15121  43F7 3F           .db 63
15122  43F8 3F           .db 63
15123  43F9 1B           .db 27
15124  43FA 00           .db 0
15125  43FB 00           .db 0
15126  43FC 00           .db 0
15127  43FD 00           .db 0
15128  43FE 00           .db 0
15129  43FF 00           .db 0
15130  4400 00           .db 0
15131  4401 00           .db 0
15132  4402 00           .db 0
15133  4403 00           .db 0
15134  4404 00           .db 0
15135  4405 00           .db 0
15136  4406 00           .db 0
15137  4407 00           .db 0
15138  4408 00           .db 0
15139  4409 00           .db 0
15140  440A 00           .db 0
15141  440B 80           .db 128
15142  440C 00           .db 0
15143  440D 80           .db 128
15144  440E 00           .db 0
15145  440F 80           .db 128
15146  4410 00           .db 0
15147  4411 89           .db 137
15148  4412 3F           .db 63
15149  4413 89           .db 137
15150  4414 3F           .db 63
15151  4415 89           .db 137
15152  4416 3F           .db 63
15153  4417 89           .db 137
15154  4418 3F           .db 63
15155  4419 89           .db 137
15156  441A 3F           .db 63
15157  441B 89           .db 137
15158  441C 3F           .db 63
15159  441D 89           .db 137
15160  441E 3F           .db 63
15161  441F 89           .db 137
15162  4420 3F           .db 63
15163  4421 89           .db 137
15164  4422 3F           .db 63
15165  4423 89           .db 137
15166  4424 3F           .db 63
15167  4425 89           .db 137
15168  4426 3F           .db 63
15169  4427 89           .db 137
15170  4428 3F           .db 63
15171  4429 89           .db 137
15172  442A 3F           .db 63
15173  442B 3F           .db 63
15174  442C 3F           .db 63
15175  442D 3F           .db 63
15176  442E 3F           .db 63
15177  442F 3F           .db 63
15178  4430 3F           .db 63
15179  4431 3F           .db 63
15180  4432 3F           .db 63
15181  4433 3F           .db 63
15182  4434 3F           .db 63
15183  4435 3F           .db 63
15184  4436 3F           .db 63
15185  4437 3F           .db 63
15186  4438 3F           .db 63
15187  4439 3F           .db 63
15188  443A 3F           .db 63
15189  443B 3F           .db 63
15190  443C 3F           .db 63
15191  443D 1B           .db 27
15192  443E 00           .db 0
15193  443F 36           .db 54
15194  4440 3F           .db 63
15195  4441 3F           .db 63
15196  4442 3F           .db 63
15197  4443 3F           .db 63
15198  4444 3F           .db 63
15199  4445 3F           .db 63
15200  4446 1F           .db 31
15201  4447 3F           .db 63
15202  4448 3F           .db 63
15203  4449 36           .db 54
15204  444A 3F           .db 63
15205  444B 3F           .db 63
15206  444C 3F           .db 63
15207  444D 3F           .db 63
15208  444E 3F           .db 63
15209  444F 3F           .db 63
15210  4450 3F           .db 63
15211  4451 3F           .db 63
15212  4452 3F           .db 63
15213  4453 3F           .db 63
15214  4454 3F           .db 63
15215  4455 3F           .db 63
15216  4456 3F           .db 63
15217  4457 1B           .db 27
15218  4458 00           .db 0
15219  4459 00           .db 0
15220  445A 00           .db 0
15221  445B 00           .db 0
15222  445C 00           .db 0
15223  445D 00           .db 0
15224  445E 00           .db 0
15225  445F 00           .db 0
15226  4460 00           .db 0
15227  4461 00           .db 0
15228  4462 00           .db 0
15229  4463 00           .db 0
15230  4464 00           .db 0
15231  4465 00           .db 0
15232  4466 00           .db 0
15233  4467 00           .db 0
15234  4468 00           .db 0
15235  4469 80           .db 128
15236  446A 00           .db 0
15237  446B 80           .db 128
15238  446C 00           .db 0
15239  446D 80           .db 128
15240  446E 00           .db 0
15241  446F 80           .db 128
15242  4470 3F           .db 63
15243  4471 80           .db 128
15244  4472 3F           .db 63
15245  4473 80           .db 128
15246  4474 3F           .db 63
15247  4475 80           .db 128
15248  4476 3F           .db 63
15249  4477 80           .db 128
15250  4478 3F           .db 63
15251  4479 80           .db 128
15252  447A 3F           .db 63
15253  447B 80           .db 128
15254  447C 3F           .db 63
15255  447D 80           .db 128
15256  447E 3F           .db 63
15257  447F 80           .db 128
15258  4480 3F           .db 63
15259  4481 80           .db 128
15260  4482 3F           .db 63
15261  4483 80           .db 128
15262  4484 3F           .db 63
15263  4485 80           .db 128
15264  4486 3F           .db 63
15265  4487 80           .db 128
15266  4488 3F           .db 63
15267  4489 3F           .db 63
15268  448A 3F           .db 63
15269  448B 3F           .db 63
15270  448C 3F           .db 63
15271  448D 3F           .db 63
15272  448E 1F           .db 31
15273  448F 3F           .db 63
15274  4490 3F           .db 63
15275  4491 3F           .db 63
15276  4492 3F           .db 63
15277  4493 3F           .db 63
15278  4494 3F           .db 63
15279  4495 3F           .db 63
15280  4496 3F           .db 63
15281  4497 3F           .db 63
15282  4498 3F           .db 63
15283  4499 3F           .db 63
15284  449A 3F           .db 63
15285  449B 09           .db 9
15286  449C 00           .db 0
15287  449D 24           .db 36
15288  449E 3F           .db 63
15289  449F 3F           .db 63
15290  44A0 3F           .db 63
15291  44A1 3F           .db 63
15292  44A2 3F           .db 63
15293  44A3 3F           .db 63
15294  44A4 1B           .db 27
15295  44A5 3E           .db 62
15296  44A6 1F           .db 31
15297  44A7 26           .db 38
15298  44A8 3F           .db 63
15299  44A9 3F           .db 63
15300  44AA 3F           .db 63
15301  44AB 3F           .db 63
15302  44AC 3F           .db 63
15303  44AD 3F           .db 63
15304  44AE 3F           .db 63
15305  44AF 3F           .db 63
15306  44B0 3F           .db 63
15307  44B1 3F           .db 63
15308  44B2 3F           .db 63
15309  44B3 3F           .db 63
15310  44B4 3F           .db 63
15311  44B5 1B           .db 27
15312  44B6 00           .db 0
15313  44B7 00           .db 0
15314  44B8 00           .db 0
15315  44B9 00           .db 0
15316  44BA 00           .db 0
15317  44BB 00           .db 0
15318  44BC 00           .db 0
15319  44BD 00           .db 0
15320  44BE 00           .db 0
15321  44BF 00           .db 0
15322  44C0 00           .db 0
15323  44C1 00           .db 0
15324  44C2 00           .db 0
15325  44C3 00           .db 0
15326  44C4 00           .db 0
15327  44C5 00           .db 0
15328  44C6 00           .db 0
15329  44C7 80           .db 128
15330  44C8 00           .db 0
15331  44C9 80           .db 128
15332  44CA 00           .db 0
15333  44CB 80           .db 128
15334  44CC 00           .db 0
15335  44CD 80           .db 128
15336  44CE 3F           .db 63
15337  44CF 80           .db 128
15338  44D0 3F           .db 63
15339  44D1 80           .db 128
15340  44D2 3F           .db 63
15341  44D3 80           .db 128
15342  44D4 3F           .db 63
15343  44D5 80           .db 128
15344  44D6 3F           .db 63
15345  44D7 80           .db 128
15346  44D8 3F           .db 63
15347  44D9 80           .db 128
15348  44DA 3F           .db 63
15349  44DB 80           .db 128
15350  44DC 3F           .db 63
15351  44DD 80           .db 128
15352  44DE 3F           .db 63
15353  44DF 80           .db 128
15354  44E0 3F           .db 63
15355  44E1 80           .db 128
15356  44E2 3F           .db 63
15357  44E3 80           .db 128
15358  44E4 3F           .db 63
15359  44E5 80           .db 128
15360  44E6 3F           .db 63
15361  44E7 3F           .db 63
15362  44E8 3F           .db 63
15363  44E9 3F           .db 63
15364  44EA 3F           .db 63
15365  44EB 1F           .db 31
15366  44EC 19           .db 25
15367  44ED 3E           .db 62
15368  44EE 37           .db 55
15369  44EF 3F           .db 63
15370  44F0 3F           .db 63
15371  44F1 3F           .db 63
15372  44F2 3F           .db 63
15373  44F3 3F           .db 63
15374  44F4 3F           .db 63
15375  44F5 3F           .db 63
15376  44F6 3F           .db 63
15377  44F7 3F           .db 63
15378  44F8 3F           .db 63
15379  44F9 09           .db 9
15380  44FA 00           .db 0
15381  44FB 24           .db 36
15382  44FC 3F           .db 63
15383  44FD 3F           .db 63
15384  44FE 3F           .db 63
15385  44FF 3F           .db 63
15386  4500 3F           .db 63
15387  4501 0F           .db 15
15388  4502 00           .db 0
15389  4503 04           .db 4
15390  4504 01           .db 1
15391  4505 00           .db 0
15392  4506 37           .db 55
15393  4507 1F           .db 31
15394  4508 07           .db 7
15395  4509 07           .db 7
15396  450A 07           .db 7
15397  450B 07           .db 7
15398  450C 07           .db 7
15399  450D 07           .db 7
15400  450E 3F           .db 63
15401  450F 3F           .db 63
15402  4510 3F           .db 63
15403  4511 1F           .db 31
15404  4512 07           .db 7
15405  4513 03           .db 3
15406  4514 00           .db 0
15407  4515 00           .db 0
15408  4516 00           .db 0
15409  4517 00           .db 0
15410  4518 00           .db 0
15411  4519 00           .db 0
15412  451A 00           .db 0
15413  451B 00           .db 0
15414  451C 00           .db 0
15415  451D 00           .db 0
15416  451E 00           .db 0
15417  451F 00           .db 0
15418  4520 00           .db 0
15419  4521 00           .db 0
15420  4522 00           .db 0
15421  4523 00           .db 0
15422  4524 00           .db 0
15423  4525 80           .db 128
15424  4526 00           .db 0
15425  4527 80           .db 128
15426  4528 00           .db 0
15427  4529 80           .db 128
15428  452A 00           .db 0
15429  452B 80           .db 128
15430  452C 3F           .db 63
15431  452D 80           .db 128
15432  452E 3F           .db 63
15433  452F 80           .db 128
15434  4530 3F           .db 63
15435  4531 80           .db 128
15436  4532 3F           .db 63
15437  4533 80           .db 128
15438  4534 3F           .db 63
15439  4535 80           .db 128
15440  4536 3F           .db 63
15441  4537 80           .db 128
15442  4538 3F           .db 63
15443  4539 80           .db 128
15444  453A 3F           .db 63
15445  453B 80           .db 128
15446  453C 3F           .db 63
15447  453D 80           .db 128
15448  453E 3F           .db 63
15449  453F 80           .db 128
15450  4540 3F           .db 63
15451  4541 80           .db 128
15452  4542 3F           .db 63
15453  4543 80           .db 128
15454  4544 3F           .db 63
15455  4545 3F           .db 63
15456  4546 3F           .db 63
15457  4547 3F           .db 63
15458  4548 1F           .db 31
15459  4549 19           .db 25
15460  454A 08           .db 8
15461  454B 02           .db 2
15462  454C 04           .db 4
15463  454D 37           .db 55
15464  454E 3F           .db 63
15465  454F 3F           .db 63
15466  4550 3F           .db 63
15467  4551 3F           .db 63
15468  4552 34           .db 52
15469  4553 3F           .db 63
15470  4554 3F           .db 63
15471  4555 3F           .db 63
15472  4556 3F           .db 63
15473  4557 09           .db 9
15474  4558 00           .db 0
15475  4559 24           .db 36
15476  455A 3F           .db 63
15477  455B 3F           .db 63
15478  455C 0F           .db 15
15479  455D 00           .db 0
15480  455E 00           .db 0
15481  455F 00           .db 0
15482  4560 00           .db 0
15483  4561 00           .db 0
15484  4562 00           .db 0
15485  4563 00           .db 0
15486  4564 06           .db 6
15487  4565 00           .db 0
15488  4566 00           .db 0
15489  4567 00           .db 0
15490  4568 00           .db 0
15491  4569 00           .db 0
15492  456A 00           .db 0
15493  456B 00           .db 0
15494  456C 00           .db 0
15495  456D 00           .db 0
15496  456E 00           .db 0
15497  456F 00           .db 0
15498  4570 00           .db 0
15499  4571 00           .db 0
15500  4572 00           .db 0
15501  4573 00           .db 0
15502  4574 00           .db 0
15503  4575 00           .db 0
15504  4576 00           .db 0
15505  4577 00           .db 0
15506  4578 00           .db 0
15507  4579 00           .db 0
15508  457A 00           .db 0
15509  457B 00           .db 0
15510  457C 00           .db 0
15511  457D 00           .db 0
15512  457E 00           .db 0
15513  457F 00           .db 0
15514  4580 00           .db 0
15515  4581 00           .db 0
15516  4582 00           .db 0
15517  4583 80           .db 128
15518  4584 00           .db 0
15519  4585 80           .db 128
15520  4586 00           .db 0
15521  4587 80           .db 128
15522  4588 00           .db 0
15523  4589 80           .db 128
15524  458A 27           .db 39
15525  458B 80           .db 128
15526  458C 3F           .db 63
15527  458D 80           .db 128
15528  458E 3F           .db 63
15529  458F 80           .db 128
15530  4590 1F           .db 31
15531  4591 80           .db 128
15532  4592 07           .db 7
15533  4593 80           .db 128
15534  4594 37           .db 55
15535  4595 80           .db 128
15536  4596 3F           .db 63
15537  4597 80           .db 128
15538  4598 3F           .db 63
15539  4599 80           .db 128
15540  459A 3F           .db 63
15541  459B 80           .db 128
15542  459C 3F           .db 63
15543  459D 3F           .db 63
15544  459E 3F           .db 63
15545  459F 3F           .db 63
15546  45A0 3F           .db 63
15547  45A1 3F           .db 63
15548  45A2 3F           .db 63
15549  45A3 19           .db 25
15550  45A4 08           .db 8
15551  45A5 00           .db 0
15552  45A6 8C           .db 140
15553  45A7 30           .db 48
15554  45A8 3E           .db 62
15555  45A9 39           .db 57
15556  45AA 80           .db 128
15557  45AB 26           .db 38
15558  45AC 3F           .db 63
15559  45AD 3F           .db 63
15560  45AE 0B           .db 11
15561  45AF 04           .db 4
15562  45B0 07           .db 7
15563  45B1 07           .db 7
15564  45B2 01           .db 1
15565  45B3 00           .db 0
15566  45B4 00           .db 0
15567  45B5 00           .db 0
15568  45B6 00           .db 0
15569  45B7 85           .db 133
15570  45B8 20           .db 32
15571  45B9 38           .db 56
15572  45BA 18           .db 24
15573  45BB 00           .db 0
15574  45BC 00           .db 0
15575  45BD 00           .db 0
15576  45BE 00           .db 0
15577  45BF 00           .db 0
15578  45C0 00           .db 0
15579  45C1 00           .db 0
15580  45C2 00           .db 0
15581  45C3 00           .db 0
15582  45C4 00           .db 0
15583  45C5 00           .db 0
15584  45C6 00           .db 0
15585  45C7 00           .db 0
15586  45C8 00           .db 0
15587  45C9 00           .db 0
15588  45CA 00           .db 0
15589  45CB 00           .db 0
15590  45CC 00           .db 0
15591  45CD 00           .db 0
15592  45CE 00           .db 0
15593  45CF 00           .db 0
15594  45D0 00           .db 0
15595  45D1 00           .db 0
15596  45D2 00           .db 0
15597  45D3 00           .db 0
15598  45D4 00           .db 0
15599  45D5 00           .db 0
15600  45D6 00           .db 0
15601  45D7 00           .db 0
15602  45D8 00           .db 0
15603  45D9 00           .db 0
15604  45DA 00           .db 0
15605  45DB 00           .db 0
15606  45DC 00           .db 0
15607  45DD 00           .db 0
15608  45DE 00           .db 0
15609  45DF 00           .db 0
15610  45E0 00           .db 0
15611  45E1 80           .db 128
15612  45E2 00           .db 0
15613  45E3 80           .db 128
15614  45E4 00           .db 0
15615  45E5 80           .db 128
15616  45E6 00           .db 0
15617  45E7 80           .db 128
15618  45E8 04           .db 4
15619  45E9 80           .db 128
15620  45EA 00           .db 0
15621  45EB 80           .db 128
15622  45EC 04           .db 4
15623  45ED 80           .db 128
15624  45EE 03           .db 3
15625  45EF 80           .db 128
15626  45F0 00           .db 0
15627  45F1 80           .db 128
15628  45F2 36           .db 54
15629  45F3 80           .db 128
15630  45F4 1B           .db 27
15631  45F5 80           .db 128
15632  45F6 00           .db 0
15633  45F7 06           .db 6
15634  45F8 17           .db 23
15635  45F9 27           .db 39
15636  45FA 3F           .db 63
15637  45FB 07           .db 7
15638  45FC 37           .db 55
15639  45FD 3F           .db 63
15640  45FE 3F           .db 63
15641  45FF 09           .db 9
15642  4600 00           .db 0
15643  4601 8C           .db 140
15644  4602 20           .db 32
15645  4603 80           .db 128
15646  4604 3F           .db 63
15647  4605 8C           .db 140
15648  4606 3F           .db 63
15649  4607 3F           .db 63
15650  4608 09           .db 9
15651  4609 80           .db 128
15652  460A 37           .db 55
15653  460B 1F           .db 31
15654  460C 00           .db 0
15655  460D 00           .db 0
15656  460E 00           .db 0
15657  460F 00           .db 0
15658  4610 00           .db 0
15659  4611 00           .db 0
15660  4612 00           .db 0
15661  4613 00           .db 0
15662  4614 85           .db 133
15663  4615 20           .db 32
15664  4616 3F           .db 63
15665  4617 3F           .db 63
15666  4618 3F           .db 63
15667  4619 09           .db 9
15668  461A 00           .db 0
15669  461B 00           .db 0
15670  461C 00           .db 0
15671  461D 00           .db 0
15672  461E 00           .db 0
15673  461F 00           .db 0
15674  4620 00           .db 0
15675  4621 00           .db 0
15676  4622 00           .db 0
15677  4623 00           .db 0
15678  4624 00           .db 0
15679  4625 00           .db 0
15680  4626 00           .db 0
15681  4627 00           .db 0
15682  4628 00           .db 0
15683  4629 00           .db 0
15684  462A 00           .db 0
15685  462B 00           .db 0
15686  462C 00           .db 0
15687  462D 00           .db 0
15688  462E 00           .db 0
15689  462F 00           .db 0
15690  4630 00           .db 0
15691  4631 00           .db 0
15692  4632 00           .db 0
15693  4633 00           .db 0
15694  4634 00           .db 0
15695  4635 00           .db 0
15696  4636 00           .db 0
15697  4637 00           .db 0
15698  4638 00           .db 0
15699  4639 00           .db 0
15700  463A 00           .db 0
15701  463B 00           .db 0
15702  463C 00           .db 0
15703  463D 00           .db 0
15704  463E 00           .db 0
15705  463F 80           .db 128
15706  4640 00           .db 0
15707  4641 80           .db 128
15708  4642 00           .db 0
15709  4643 80           .db 128
15710  4644 00           .db 0
15711  4645 80           .db 128
15712  4646 00           .db 0
15713  4647 80           .db 128
15714  4648 00           .db 0
15715  4649 80           .db 128
15716  464A 00           .db 0
15717  464B 80           .db 128
15718  464C 00           .db 0
15719  464D 80           .db 128
15720  464E 00           .db 0
15721  464F 80           .db 128
15722  4650 06           .db 6
15723  4651 80           .db 128
15724  4652 03           .db 3
15725  4653 80           .db 128
15726  4654 00           .db 0
15727  4655 00           .db 0
15728  4656 02           .db 2
15729  4657 00           .db 0
15730  4658 07           .db 7
15731  4659 00           .db 0
15732  465A 36           .db 54
15733  465B 3F           .db 63
15734  465C 3F           .db 63
15735  465D 01           .db 1
15736  465E 00           .db 0
15737  465F 8C           .db 140
15738  4660 24           .db 36
15739  4661 3F           .db 63
15740  4662 3F           .db 63
15741  4663 3F           .db 63
15742  4664 00           .db 0
15743  4665 80           .db 128
15744  4666 36           .db 54
15745  4667 3F           .db 63
15746  4668 00           .db 0
15747  4669 00           .db 0
15748  466A 00           .db 0
15749  466B 00           .db 0
15750  466C 00           .db 0
15751  466D 00           .db 0
15752  466E 00           .db 0
15753  466F 00           .db 0
15754  4670 85           .db 133
15755  4671 3E           .db 62
15756  4672 80           .db 128
15757  4673 3F           .db 63
15758  4674 85           .db 133
15759  4675 3F           .db 63
15760  4676 3F           .db 63
15761  4677 1B           .db 27
15762  4678 00           .db 0
15763  4679 00           .db 0
15764  467A 00           .db 0
15765  467B 00           .db 0
15766  467C 00           .db 0
15767  467D 00           .db 0
15768  467E 00           .db 0
15769  467F 00           .db 0
15770  4680 00           .db 0
15771  4681 00           .db 0
15772  4682 00           .db 0
15773  4683 00           .db 0
15774  4684 00           .db 0
15775  4685 00           .db 0
15776  4686 00           .db 0
15777  4687 00           .db 0
15778  4688 00           .db 0
15779  4689 00           .db 0
15780  468A 00           .db 0
15781  468B 00           .db 0
15782  468C 00           .db 0
15783  468D 00           .db 0
15784  468E 00           .db 0
15785  468F 00           .db 0
15786  4690 00           .db 0
15787  4691 00           .db 0
15788  4692 00           .db 0
15789  4693 00           .db 0
15790  4694 00           .db 0
15791  4695 00           .db 0
15792  4696 00           .db 0
15793  4697 00           .db 0
15794  4698 00           .db 0
15795  4699 00           .db 0
15796  469A 00           .db 0
15797  469B 00           .db 0
15798  469C 00           .db 0
15799  469D 80           .db 128
15800  469E 00           .db 0
15801  469F 80           .db 128
15802  46A0 00           .db 0
15803  46A1 80           .db 128
15804  46A2 00           .db 0
15805  46A3 80           .db 128
15806  46A4 00           .db 0
15807  46A5 80           .db 128
15808  46A6 00           .db 0
15809  46A7 80           .db 128
15810  46A8 00           .db 0
15811  46A9 80           .db 128
15812  46AA 00           .db 0
15813  46AB 80           .db 128
15814  46AC 00           .db 0
15815  46AD 80           .db 128
15816  46AE 00           .db 0
15817  46AF 80           .db 128
15818  46B0 00           .db 0
15819  46B1 80           .db 128
15820  46B2 00           .db 0
15821  46B3 00           .db 0
15822  46B4 00           .db 0
15823  46B5 00           .db 0
15824  46B6 00           .db 0
15825  46B7 00           .db 0
15826  46B8 00           .db 0
15827  46B9 80           .db 128
15828  46BA 06           .db 6
15829  46BB 07           .db 7
15830  46BC 00           .db 0
15831  46BD 00           .db 0
15832  46BE 8C           .db 140
15833  46BF 04           .db 4
15834  46C0 37           .db 55
15835  46C1 3F           .db 63
15836  46C2 03           .db 3
15837  46C3 00           .db 0
15838  46C4 80           .db 128
15839  46C5 06           .db 6
15840  46C6 07           .db 7
15841  46C7 00           .db 0
15842  46C8 00           .db 0
15843  46C9 88           .db 136
15844  46CA 20           .db 32
15845  46CB 38           .db 56
15846  46CC 38           .db 56
15847  46CD 00           .db 0
15848  46CE 00           .db 0
15849  46CF 00           .db 0
15850  46D0 85           .db 133
15851  46D1 3F           .db 63
15852  46D2 3F           .db 63
15853  46D3 3F           .db 63
15854  46D4 3F           .db 63
15855  46D5 0B           .db 11
15856  46D6 00           .db 0
15857  46D7 00           .db 0
15858  46D8 00           .db 0
15859  46D9 00           .db 0
15860  46DA 00           .db 0
15861  46DB 00           .db 0
15862  46DC 00           .db 0
15863  46DD 00           .db 0
15864  46DE 00           .db 0
15865  46DF 00           .db 0
15866  46E0 00           .db 0
15867  46E1 00           .db 0
15868  46E2 00           .db 0
15869  46E3 00           .db 0
15870  46E4 00           .db 0
15871  46E5 00           .db 0
15872  46E6 00           .db 0
15873  46E7 00           .db 0
15874  46E8 00           .db 0
15875  46E9 00           .db 0
15876  46EA 00           .db 0
15877  46EB 00           .db 0
15878  46EC 00           .db 0
15879  46ED 00           .db 0
15880  46EE 00           .db 0
15881  46EF 00           .db 0
15882  46F0 00           .db 0
15883  46F1 00           .db 0
15884  46F2 00           .db 0
15885  46F3 00           .db 0
15886  46F4 00           .db 0
15887  46F5 00           .db 0
15888  46F6 00           .db 0
15889  46F7 00           .db 0
15890  46F8 00           .db 0
15891  46F9 00           .db 0
15892  46FA 00           .db 0
15893  46FB 80           .db 128
15894  46FC 00           .db 0
15895  46FD 80           .db 128
15896  46FE 00           .db 0
15897  46FF 80           .db 128
15898  4700 00           .db 0
15899  4701 80           .db 128
15900  4702 1F           .db 31
15901  4703 80           .db 128
15902  4704 23           .db 35
15903  4705 80           .db 128
15904  4706 18           .db 24
15905  4707 81           .db 129
15906  4708 27           .db 39
15907  4709 81           .db 129
15908  470A 3F           .db 63
15909  470B 81           .db 129
15910  470C 3F           .db 63
15911  470D 81           .db 129
15912  470E 3F           .db 63
15913  470F 81           .db 129
15914  4710 38           .db 56
15915  4711 81           .db 129
15916  4712 07           .db 7
15917  4713 37           .db 55
15918  4714 3F           .db 63
15919  4715 3F           .db 63
15920  4716 39           .db 57
15921  4717 1C           .db 28
15922  4718 07           .db 7
15923  4719 27           .db 39
15924  471A 3F           .db 63
15925  471B 3B           .db 59
15926  471C 38           .db 56
15927  471D 08           .db 8
15928  471E 00           .db 0
15929  471F 00           .db 0
15930  4720 34           .db 52
15931  4721 3F           .db 63
15932  4722 3F           .db 63
15933  4723 00           .db 0
15934  4724 88           .db 136
15935  4725 30           .db 48
15936  4726 3F           .db 63
15937  4727 3F           .db 63
15938  4728 3F           .db 63
15939  4729 1B           .db 27
15940  472A 00           .db 0
15941  472B 00           .db 0
15942  472C 85           .db 133
15943  472D 37           .db 55
15944  472E 3F           .db 63
15945  472F 3F           .db 63
15946  4730 3F           .db 63
15947  4731 00           .db 0
15948  4732 81           .db 129
15949  4733 30           .db 48
15950  4734 3C           .db 60
15951  4735 3F           .db 63
15952  4736 3F           .db 63
15953  4737 07           .db 7
15954  4738 07           .db 7
15955  4739 38           .db 56
15956  473A 3F           .db 63
15957  473B 3F           .db 63
15958  473C 3F           .db 63
15959  473D 07           .db 7
15960  473E 31           .db 49
15961  473F 3E           .db 62
15962  4740 3F           .db 63
15963  4741 3F           .db 63
15964  4742 1F           .db 31
15965  4743 03           .db 3
15966  4744 84           .db 132
15967  4745 1C           .db 28
15968  4746 07           .db 7
15969  4747 03           .db 3
15970  4748 00           .db 0
15971  4749 00           .db 0
15972  474A 00           .db 0
15973  474B 00           .db 0
15974  474C 00           .db 0
15975  474D 00           .db 0
15976  474E 00           .db 0
15977  474F 00           .db 0
15978  4750 00           .db 0
15979  4751 00           .db 0
15980  4752 00           .db 0
15981  4753 00           .db 0
15982  4754 00           .db 0
15983  4755 00           .db 0
15984  4756 00           .db 0
15985  4757 00           .db 0
15986  4758 00           .db 0
15987  4759 80           .db 128
15988  475A 00           .db 0
15989  475B 80           .db 128
15990  475C 00           .db 0
15991  475D 80           .db 128
15992  475E 00           .db 0
15993  475F 84           .db 132
15994  4760 3F           .db 63
15995  4761 84           .db 132
15996  4762 3B           .db 59
15997  4763 84           .db 132
15998  4764 1C           .db 28
15999  4765 80           .db 128
16000  4766 23           .db 35
16001  4767 80           .db 128
16002  4768 18           .db 24
16003  4769 81           .db 129
16004  476A 27           .db 39
16005  476B 3F           .db 63
16006  476C 3F           .db 63
16007  476D 3F           .db 63
16008  476E 39           .db 57
16009  476F 1C           .db 28
16010  4770 07           .db 7
16011  4771 07           .db 7
16012  4772 07           .db 7
16013  4773 07           .db 7
16014  4774 03           .db 3
16015  4775 00           .db 0
16016  4776 00           .db 0
16017  4777 07           .db 7
16018  4778 01           .db 1
16019  4779 00           .db 0
16020  477A 00           .db 0
16021  477B 30           .db 48
16022  477C 38           .db 56
16023  477D 38           .db 56
16024  477E 00           .db 0
16025  477F 88           .db 136
16026  4780 3F           .db 63
16027  4781 80           .db 128
16028  4782 3F           .db 63
16029  4783 3F           .db 63
16030  4784 88           .db 136
16031  4785 3F           .db 63
16032  4786 3F           .db 63
16033  4787 00           .db 0
16034  4788 81           .db 129
16035  4789 30           .db 48
16036  478A 08           .db 8
16037  478B 85           .db 133
16038  478C 06           .db 6
16039  478D 07           .db 7
16040  478E 00           .db 0
16041  478F 00           .db 0
16042  4790 00           .db 0
16043  4791 00           .db 0
16044  4792 81           .db 129
16045  4793 08           .db 8
16046  4794 00           .db 0
16047  4795 07           .db 7
16048  4796 27           .db 39
16049  4797 3F           .db 63
16050  4798 0F           .db 15
16051  4799 23           .db 35
16052  479A 38           .db 56
16053  479B 3F           .db 63
16054  479C 3F           .db 63
16055  479D 3F           .db 63
16056  479E 3F           .db 63
16057  479F 07           .db 7
16058  47A0 84           .db 132
16059  47A1 1C           .db 28
16060  47A2 03           .db 3
16061  47A3 00           .db 0
16062  47A4 00           .db 0
16063  47A5 00           .db 0
16064  47A6 00           .db 0
16065  47A7 00           .db 0
16066  47A8 00           .db 0
16067  47A9 00           .db 0
16068  47AA 00           .db 0
16069  47AB 00           .db 0
16070  47AC 00           .db 0
16071  47AD 00           .db 0
16072  47AE 00           .db 0
16073  47AF 00           .db 0
16074  47B0 00           .db 0
16075  47B1 00           .db 0
16076  47B2 00           .db 0
16077  47B3 00           .db 0
16078  47B4 00           .db 0
16079  47B5 00           .db 0
16080  47B6 00           .db 0
16081  47B7 80           .db 128
16082  47B8 00           .db 0
16083  47B9 80           .db 128
16084  47BA 00           .db 0
16085  47BB 80           .db 128
16086  47BC 00           .db 0
16087  47BD 84           .db 132
16088  47BE 04           .db 4
16089  47BF 84           .db 132
16090  47C0 37           .db 55
16091  47C1 84           .db 132
16092  47C2 3F           .db 63
16093  47C3 84           .db 132
16094  47C4 3B           .db 59
16095  47C5 84           .db 132
16096  47C6 1C           .db 28
16097  47C7 80           .db 128
16098  47C8 31           .db 49
16099  47C9 81           .db 129
16100  47CA 06           .db 6
16101  47CB 81           .db 129
16102  47CC 23           .db 35
16103  47CD 38           .db 56
16104  47CE 38           .db 56
16105  47CF 3C           .db 60
16106  47D0 3F           .db 63
16107  47D1 38           .db 56
16108  47D2 1C           .db 28
16109  47D3 07           .db 7
16110  47D4 3F           .db 63
16111  47D5 3F           .db 63
16112  47D6 3F           .db 63
16113  47D7 1F           .db 31
16114  47D8 00           .db 0
16115  47D9 00           .db 0
16116  47DA 00           .db 0
16117  47DB 04           .db 4
16118  47DC 07           .db 7
16119  47DD 07           .db 7
16120  47DE 88           .db 136
16121  47DF 24           .db 36
16122  47E0 3F           .db 63
16123  47E1 80           .db 128
16124  47E2 3F           .db 63
16125  47E3 3F           .db 63
16126  47E4 88           .db 136
16127  47E5 3F           .db 63
16128  47E6 3F           .db 63
16129  47E7 09           .db 9
16130  47E8 81           .db 129
16131  47E9 06           .db 6
16132  47EA 07           .db 7
16133  47EB 00           .db 0
16134  47EC 00           .db 0
16135  47ED 00           .db 0
16136  47EE 30           .db 48
16137  47EF 3F           .db 63
16138  47F0 3F           .db 63
16139  47F1 3F           .db 63
16140  47F2 3F           .db 63
16141  47F3 0F           .db 15
16142  47F4 03           .db 3
16143  47F5 38           .db 56
16144  47F6 38           .db 56
16145  47F7 38           .db 56
16146  47F8 38           .db 56
16147  47F9 38           .db 56
16148  47FA 38           .db 56
16149  47FB 00           .db 0
16150  47FC 84           .db 132
16151  47FD 38           .db 56
16152  47FE 03           .db 3
16153  47FF 00           .db 0
16154  4800 00           .db 0
16155  4801 00           .db 0
16156  4802 00           .db 0
16157  4803 00           .db 0
16158  4804 00           .db 0
16159  4805 00           .db 0
16160  4806 00           .db 0
16161  4807 00           .db 0
16162  4808 00           .db 0
16163  4809 00           .db 0
16164  480A 00           .db 0
16165  480B 00           .db 0
16166  480C 00           .db 0
16167  480D 00           .db 0
16168  480E 00           .db 0
16169  480F 00           .db 0
16170  4810 00           .db 0
16171  4811 00           .db 0
16172  4812 00           .db 0
16173  4813 00           .db 0
16174  4814 00           .db 0
16175  4815 80           .db 128
16176  4816 00           .db 0
16177  4817 80           .db 128
16178  4818 00           .db 0
16179  4819 80           .db 128
16180  481A 00           .db 0
16181  481B 80           .db 128
16182  481C 00           .db 0
16183  481D 80           .db 128
16184  481E 00           .db 0
16185  481F 84           .db 132
16186  4820 07           .db 7
16187  4821 84           .db 132
16188  4822 3F           .db 63
16189  4823 84           .db 132
16190  4824 3F           .db 63
16191  4825 84           .db 132
16192  4826 39           .db 57
16193  4827 80           .db 128
16194  4828 0E           .db 14
16195  4829 80           .db 128
16196  482A 33           .db 51
16197  482B 81           .db 129
16198  482C 04           .db 4
16199  482D 81           .db 129
16200  482E 27           .db 39
16201  482F 3F           .db 63
16202  4830 3F           .db 63
16203  4831 3F           .db 63
16204  4832 3F           .db 63
16205  4833 3F           .db 63
16206  4834 38           .db 56
16207  4835 0E           .db 14
16208  4836 07           .db 7
16209  4837 01           .db 1
16210  4838 00           .db 0
16211  4839 00           .db 0
16212  483A 00           .db 0
16213  483B 00           .db 0
16214  483C 36           .db 54
16215  483D 39           .db 57
16216  483E 88           .db 136
16217  483F 24           .db 36
16218  4840 3F           .db 63
16219  4841 3F           .db 63
16220  4842 3F           .db 63
16221  4843 3F           .db 63
16222  4844 3F           .db 63
16223  4845 00           .db 0
16224  4846 81           .db 129
16225  4847 30           .db 48
16226  4848 0B           .db 11
16227  4849 00           .db 0
16228  484A 00           .db 0
16229  484B 00           .db 0
16230  484C 20           .db 32
16231  484D 38           .db 56
16232  484E 18           .db 24
16233  484F 07           .db 7
16234  4850 30           .db 48
16235  4851 3C           .db 60
16236  4852 3F           .db 63
16237  4853 3F           .db 63
16238  4854 3F           .db 63
16239  4855 3F           .db 63
16240  4856 1F           .db 31
16241  4857 07           .db 7
16242  4858 84           .db 132
16243  4859 38           .db 56
16244  485A 07           .db 7
16245  485B 00           .db 0
16246  485C 00           .db 0
16247  485D 00           .db 0
16248  485E 00           .db 0
16249  485F 00           .db 0
16250  4860 00           .db 0
16251  4861 00           .db 0
16252  4862 00           .db 0
16253  4863 00           .db 0
16254  4864 00           .db 0
16255  4865 00           .db 0
16256  4866 00           .db 0
16257  4867 00           .db 0
16258  4868 00           .db 0
16259  4869 00           .db 0
16260  486A 00           .db 0
16261  486B 00           .db 0
16262  486C 00           .db 0
16263  486D 00           .db 0
16264  486E 00           .db 0
16265  486F 00           .db 0
16266  4870 00           .db 0
16267  4871 00           .db 0
16268  4872 00           .db 0
16269  4873 80           .db 128
16270  4874 00           .db 0
16271  4875 80           .db 128
16272  4876 00           .db 0
16273  4877 80           .db 128
16274  4878 00           .db 0
16275  4879 80           .db 128
16276  487A 00           .db 0
16277  487B 80           .db 128
16278  487C 00           .db 0
16279  487D 80           .db 128
16280  487E 00           .db 0
16281  487F 84           .db 132
16282  4880 04           .db 4
16283  4881 84           .db 132
16284  4882 37           .db 55
16285  4883 84           .db 132
16286  4884 3F           .db 63
16287  4885 84           .db 132
16288  4886 3F           .db 63
16289  4887 84           .db 132
16290  4888 39           .db 57
16291  4889 80           .db 128
16292  488A 0E           .db 14
16293  488B 33           .db 51
16294  488C 81           .db 129
16295  488D 04           .db 4
16296  488E 07           .db 7
16297  488F 3F           .db 63
16298  4890 07           .db 7
16299  4891 07           .db 7
16300  4892 38           .db 56
16301  4893 3C           .db 60
16302  4894 3B           .db 59
16303  4895 08           .db 8
16304  4896 00           .db 0
16305  4897 00           .db 0
16306  4898 00           .db 0
16307  4899 00           .db 0
16308  489A 36           .db 54
16309  489B 3F           .db 63
16310  489C 1B           .db 27
16311  489D 88           .db 136
16312  489E 3F           .db 63
16313  489F 3F           .db 63
16314  48A0 3F           .db 63
16315  48A1 3F           .db 63
16316  48A2 0B           .db 11
16317  48A3 00           .db 0
16318  48A4 81           .db 129
16319  48A5 0F           .db 15
16320  48A6 00           .db 0
16321  48A7 00           .db 0
16322  48A8 00           .db 0
16323  48A9 00           .db 0
16324  48AA 00           .db 0
16325  48AB 21           .db 33
16326  48AC 3C           .db 60
16327  48AD 3F           .db 63
16328  48AE 39           .db 57
16329  48AF 38           .db 56
16330  48B0 1C           .db 28
16331  48B1 07           .db 7
16332  48B2 17           .db 23
16333  48B3 03           .db 3
16334  48B4 84           .db 132
16335  48B5 3C           .db 60
16336  48B6 07           .db 7
16337  48B7 00           .db 0
16338  48B8 00           .db 0
16339  48B9 00           .db 0
16340  48BA 00           .db 0
16341  48BB 00           .db 0
16342  48BC 00           .db 0
16343  48BD 00           .db 0
16344  48BE 00           .db 0
16345  48BF 00           .db 0
16346  48C0 00           .db 0
16347  48C1 00           .db 0
16348  48C2 00           .db 0
16349  48C3 00           .db 0
16350  48C4 00           .db 0
16351  48C5 00           .db 0
16352  48C6 00           .db 0
16353  48C7 00           .db 0
16354  48C8 00           .db 0
16355  48C9 00           .db 0
16356  48CA 00           .db 0
16357  48CB 00           .db 0
16358  48CC 00           .db 0
16359  48CD 00           .db 0
16360  48CE 00           .db 0
16361  48CF 00           .db 0
16362  48D0 00           .db 0
16363  48D1 84           .db 132
16364  48D2 20           .db 32
16365  48D3 84           .db 132
16366  48D4 0F           .db 15
16367  48D5 84           .db 132
16368  48D6 3B           .db 59
16369  48D7 84           .db 132
16370  48D8 00           .db 0
16371  48D9 84           .db 132
16372  48DA 00           .db 0
16373  48DB 84           .db 132
16374  48DC 00           .db 0
16375  48DD 84           .db 132
16376  48DE 00           .db 0
16377  48DF 84           .db 132
16378  48E0 00           .db 0
16379  48E1 84           .db 132
16380  48E2 06           .db 6
16381  48E3 84           .db 132
16382  48E4 3F           .db 63
16383  48E5 84           .db 132
16384  48E6 3F           .db 63
16385  48E7 3F           .db 63
16386  48E8 39           .db 57
16387  48E9 80           .db 128
16388  48EA 0E           .db 14
16389  48EB 37           .db 55
16390  48EC 38           .db 56
16391  48ED 81           .db 129
16392  48EE 07           .db 7
16393  48EF 3F           .db 63
16394  48F0 3F           .db 63
16395  48F1 3F           .db 63
16396  48F2 3F           .db 63
16397  48F3 19           .db 25
16398  48F4 00           .db 0
16399  48F5 00           .db 0
16400  48F6 00           .db 0
16401  48F7 00           .db 0
16402  48F8 04           .db 4
16403  48F9 01           .db 1
16404  48FA 38           .db 56
16405  48FB 08           .db 8
16406  48FC 88           .db 136
16407  48FD 07           .db 7
16408  48FE 07           .db 7
16409  48FF 07           .db 7
16410  4900 00           .db 0
16411  4901 81           .db 129
16412  4902 30           .db 48
16413  4903 18           .db 24
16414  4904 00           .db 0
16415  4905 00           .db 0
16416  4906 00           .db 0
16417  4907 00           .db 0
16418  4908 00           .db 0
16419  4909 24           .db 36
16420  490A 3F           .db 63
16421  490B 3F           .db 63
16422  490C 3F           .db 63
16423  490D 3F           .db 63
16424  490E 1F           .db 31
16425  490F 03           .db 3
16426  4910 84           .db 132
16427  4911 3C           .db 60
16428  4912 07           .db 7
16429  4913 00           .db 0
16430  4914 00           .db 0
16431  4915 00           .db 0
16432  4916 00           .db 0
16433  4917 00           .db 0
16434  4918 00           .db 0
16435  4919 00           .db 0
16436  491A 00           .db 0
16437  491B 00           .db 0
16438  491C 00           .db 0
16439  491D 00           .db 0
16440  491E 3E           .db 62
16441  491F 27           .db 39
16442  4920 08           .db 8
16443  4921 00           .db 0
16444  4922 00           .db 0
16445  4923 00           .db 0
16446  4924 00           .db 0
16447  4925 00           .db 0
16448  4926 00           .db 0
16449  4927 00           .db 0
16450  4928 00           .db 0
16451  4929 00           .db 0
16452  492A 00           .db 0
16453  492B 00           .db 0
16454  492C 00           .db 0
16455  492D 00           .db 0
16456  492E 00           .db 0
16457  492F 84           .db 132
16458  4930 36           .db 54
16459  4931 84           .db 132
16460  4932 00           .db 0
16461  4933 84           .db 132
16462  4934 12           .db 18
16463  4935 84           .db 132
16464  4936 00           .db 0
16465  4937 84           .db 132
16466  4938 00           .db 0
16467  4939 84           .db 132
16468  493A 00           .db 0
16469  493B 84           .db 132
16470  493C 00           .db 0
16471  493D 84           .db 132
16472  493E 00           .db 0
16473  493F 84           .db 132
16474  4940 00           .db 0
16475  4941 84           .db 132
16476  4942 00           .db 0
16477  4943 84           .db 132
16478  4944 27           .db 39
16479  4945 84           .db 132
16480  4946 3F           .db 63
16481  4947 84           .db 132
16482  4948 3F           .db 63
16483  4949 3F           .db 63
16484  494A 39           .db 57
16485  494B 80           .db 128
16486  494C 0E           .db 14
16487  494D 37           .db 55
16488  494E 38           .db 56
16489  494F 81           .db 129
16490  4950 07           .db 7
16491  4951 3F           .db 63
16492  4952 3F           .db 63
16493  4953 3F           .db 63
16494  4954 39           .db 57
16495  4955 08           .db 8
16496  4956 20           .db 32
16497  4957 38           .db 56
16498  4958 3B           .db 59
16499  4959 38           .db 56
16500  495A 04           .db 4
16501  495B 27           .db 39
16502  495C 18           .db 24
16503  495D 00           .db 0
16504  495E 00           .db 0
16505  495F 3C           .db 60
16506  4960 07           .db 7
16507  4961 03           .db 3
16508  4962 00           .db 0
16509  4963 00           .db 0
16510  4964 00           .db 0
16511  4965 00           .db 0
16512  4966 00           .db 0
16513  4967 04           .db 4
16514  4968 3F           .db 63
16515  4969 3F           .db 63
16516  496A 0F           .db 15
16517  496B 01           .db 1
16518  496C 84           .db 132
16519  496D 3C           .db 60
16520  496E 07           .db 7
16521  496F 00           .db 0
16522  4970 00           .db 0
16523  4971 00           .db 0
16524  4972 00           .db 0
16525  4973 00           .db 0
16526  4974 00           .db 0
16527  4975 00           .db 0
16528  4976 00           .db 0
16529  4977 00           .db 0
16530  4978 00           .db 0
16531  4979 00           .db 0
16532  497A 00           .db 0
16533  497B 00           .db 0
16534  497C 12           .db 18
16535  497D 00           .db 0
16536  497E 1B           .db 27
16537  497F 00           .db 0
16538  4980 00           .db 0
16539  4981 00           .db 0
16540  4982 00           .db 0
16541  4983 00           .db 0
16542  4984 00           .db 0
16543  4985 00           .db 0
16544  4986 00           .db 0
16545  4987 00           .db 0
16546  4988 00           .db 0
16547  4989 00           .db 0
16548  498A 00           .db 0
16549  498B 00           .db 0
16550  498C 00           .db 0
16551  498D 84           .db 132
16552  498E 06           .db 6
16553  498F 84           .db 132
16554  4990 39           .db 57
16555  4991 84           .db 132
16556  4992 2B           .db 43
16557  4993 84           .db 132
16558  4994 18           .db 24
16559  4995 84           .db 132
16560  4996 00           .db 0
16561  4997 84           .db 132
16562  4998 00           .db 0
16563  4999 84           .db 132
16564  499A 00           .db 0
16565  499B 84           .db 132
16566  499C 00           .db 0
16567  499D 84           .db 132
16568  499E 00           .db 0
16569  499F 00           .db 0
16570  49A0 85           .db 133
16571  49A1 08           .db 8
16572  49A2 84           .db 132
16573  49A3 06           .db 6
16574  49A4 37           .db 55
16575  49A5 3F           .db 63
16576  49A6 3F           .db 63
16577  49A7 3F           .db 63
16578  49A8 39           .db 57
16579  49A9 80           .db 128
16580  49AA 0E           .db 14
16581  49AB 3F           .db 63
16582  49AC 38           .db 56
16583  49AD 81           .db 129
16584  49AE 07           .db 7
16585  49AF 23           .db 35
16586  49B0 38           .db 56
16587  49B1 3E           .db 62
16588  49B2 3F           .db 63
16589  49B3 3F           .db 63
16590  49B4 3F           .db 63
16591  49B5 3F           .db 63
16592  49B6 3F           .db 63
16593  49B7 01           .db 1
16594  49B8 00           .db 0
16595  49B9 00           .db 0
16596  49BA 00           .db 0
16597  49BB 00           .db 0
16598  49BC 20           .db 32
16599  49BD 3F           .db 63
16600  49BE 08           .db 8
16601  49BF 00           .db 0
16602  49C0 00           .db 0
16603  49C1 00           .db 0
16604  49C2 00           .db 0
16605  49C3 38           .db 56
16606  49C4 08           .db 8
16607  49C5 01           .db 1
16608  49C6 84           .db 132
16609  49C7 3E           .db 62
16610  49C8 0F           .db 15
16611  49C9 00           .db 0
16612  49CA 00           .db 0
16613  49CB 00           .db 0
16614  49CC 00           .db 0
16615  49CD 00           .db 0
16616  49CE 00           .db 0
16617  49CF 00           .db 0
16618  49D0 89           .db 137
16619  49D1 20           .db 32
16620  49D2 00           .db 0
16621  49D3 00           .db 0
16622  49D4 00           .db 0
16623  49D5 00           .db 0
16624  49D6 00           .db 0
16625  49D7 00           .db 0
16626  49D8 84           .db 132
16627  49D9 20           .db 32
16628  49DA 1E           .db 30
16629  49DB 3C           .db 60
16630  49DC 0B           .db 11
16631  49DD 00           .db 0
16632  49DE 00           .db 0
16633  49DF 00           .db 0
16634  49E0 00           .db 0
16635  49E1 00           .db 0
16636  49E2 00           .db 0
16637  49E3 00           .db 0
16638  49E4 00           .db 0
16639  49E5 00           .db 0
16640  49E6 00           .db 0
16641  49E7 00           .db 0
16642  49E8 00           .db 0
16643  49E9 00           .db 0
16644  49EA 00           .db 0
16645  49EB 80           .db 128
16646  49EC 00           .db 0
16647  49ED 80           .db 128
16648  49EE 00           .db 0
16649  49EF 84           .db 132
16650  49F0 20           .db 32
16651  49F1 84           .db 132
16652  49F2 27           .db 39
16653  49F3 84           .db 132
16654  49F4 18           .db 24
16655  49F5 85           .db 133
16656  49F6 20           .db 32
16657  49F7 85           .db 133
16658  49F8 0E           .db 14
16659  49F9 85           .db 133
16660  49FA 0F           .db 15
16661  49FB 85           .db 133
16662  49FC 18           .db 24
16663  49FD 85           .db 133
16664  49FE 04           .db 4
16665  49FF 01           .db 1
16666  4A00 00           .db 0
16667  4A01 00           .db 0
16668  4A02 84           .db 132
16669  4A03 27           .db 39
16670  4A04 3F           .db 63
16671  4A05 3F           .db 63
16672  4A06 3F           .db 63
16673  4A07 3F           .db 63
16674  4A08 38           .db 56
16675  4A09 80           .db 128
16676  4A0A 07           .db 7
16677  4A0B 3F           .db 63
16678  4A0C 38           .db 56
16679  4A0D 81           .db 129
16680  4A0E 06           .db 6
16681  4A0F 37           .db 55
16682  4A10 3F           .db 63
16683  4A11 3F           .db 63
16684  4A12 3F           .db 63
16685  4A13 3F           .db 63
16686  4A14 1B           .db 27
16687  4A15 00           .db 0
16688  4A16 00           .db 0
16689  4A17 00           .db 0
16690  4A18 00           .db 0
16691  4A19 00           .db 0
16692  4A1A 00           .db 0
16693  4A1B 3F           .db 63
16694  4A1C 3B           .db 59
16695  4A1D 00           .db 0
16696  4A1E 00           .db 0
16697  4A1F 00           .db 0
16698  4A20 04           .db 4
16699  4A21 01           .db 1
16700  4A22 84           .db 132
16701  4A23 3E           .db 62
16702  4A24 0F           .db 15
16703  4A25 01           .db 1
16704  4A26 00           .db 0
16705  4A27 00           .db 0
16706  4A28 00           .db 0
16707  4A29 00           .db 0
16708  4A2A 00           .db 0
16709  4A2B 00           .db 0
16710  4A2C 00           .db 0
16711  4A2D 00           .db 0
16712  4A2E 89           .db 137
16713  4A2F 04           .db 4
16714  4A30 01           .db 1
16715  4A31 30           .db 48
16716  4A32 27           .db 39
16717  4A33 23           .db 35
16718  4A34 08           .db 8
16719  4A35 84           .db 132
16720  4A36 30           .db 48
16721  4A37 0F           .db 15
16722  4A38 08           .db 8
16723  4A39 00           .db 0
16724  4A3A 00           .db 0
16725  4A3B 00           .db 0
16726  4A3C 00           .db 0
16727  4A3D 00           .db 0
16728  4A3E 00           .db 0
16729  4A3F 00           .db 0
16730  4A40 00           .db 0
16731  4A41 00           .db 0
16732  4A42 00           .db 0
16733  4A43 00           .db 0
16734  4A44 00           .db 0
16735  4A45 00           .db 0
16736  4A46 00           .db 0
16737  4A47 00           .db 0
16738  4A48 00           .db 0
16739  4A49 80           .db 128
16740  4A4A 00           .db 0
16741  4A4B 80           .db 128
16742  4A4C 00           .db 0
16743  4A4D 84           .db 132
16744  4A4E 24           .db 36
16745  4A4F 84           .db 132
16746  4A50 08           .db 8
16747  4A51 84           .db 132
16748  4A52 06           .db 6
16749  4A53 84           .db 132
16750  4A54 39           .db 57
16751  4A55 85           .db 133
16752  4A56 39           .db 57
16753  4A57 85           .db 133
16754  4A58 39           .db 57
16755  4A59 85           .db 133
16756  4A5A 3F           .db 63
16757  4A5B 85           .db 133
16758  4A5C 00           .db 0
16759  4A5D 00           .db 0
16760  4A5E 00           .db 0
16761  4A5F 00           .db 0
16762  4A60 00           .db 0
16763  4A61 84           .db 132
16764  4A62 04           .db 4
16765  4A63 37           .db 55
16766  4A64 3F           .db 63
16767  4A65 3F           .db 63
16768  4A66 3F           .db 63
16769  4A67 3F           .db 63
16770  4A68 38           .db 56
16771  4A69 80           .db 128
16772  4A6A 07           .db 7
16773  4A6B 3F           .db 63
16774  4A6C 39           .db 57
16775  4A6D 81           .db 129
16776  4A6E 06           .db 6
16777  4A6F 17           .db 23
16778  4A70 07           .db 7
16779  4A71 07           .db 7
16780  4A72 00           .db 0
16781  4A73 00           .db 0
16782  4A74 00           .db 0
16783  4A75 00           .db 0
16784  4A76 00           .db 0
16785  4A77 00           .db 0
16786  4A78 00           .db 0
16787  4A79 30           .db 48
16788  4A7A 06           .db 6
16789  4A7B 33           .db 51
16790  4A7C 00           .db 0
16791  4A7D 84           .db 132
16792  4A7E 38           .db 56
16793  4A7F 3F           .db 63
16794  4A80 0F           .db 15
16795  4A81 01           .db 1
16796  4A82 00           .db 0
16797  4A83 00           .db 0
16798  4A84 00           .db 0
16799  4A85 00           .db 0
16800  4A86 00           .db 0
16801  4A87 00           .db 0
16802  4A88 00           .db 0
16803  4A89 00           .db 0
16804  4A8A 00           .db 0
16805  4A8B 00           .db 0
16806  4A8C 00           .db 0
16807  4A8D 00           .db 0
16808  4A8E 89           .db 137
16809  4A8F 3F           .db 63
16810  4A90 3C           .db 60
16811  4A91 3C           .db 60
16812  4A92 03           .db 3
16813  4A93 84           .db 132
16814  4A94 03           .db 3
16815  4A95 20           .db 32
16816  4A96 09           .db 9
16817  4A97 00           .db 0
16818  4A98 00           .db 0
16819  4A99 00           .db 0
16820  4A9A 00           .db 0
16821  4A9B 00           .db 0
16822  4A9C 00           .db 0
16823  4A9D 00           .db 0
16824  4A9E 00           .db 0
16825  4A9F 00           .db 0
16826  4AA0 00           .db 0
16827  4AA1 00           .db 0
16828  4AA2 00           .db 0
16829  4AA3 00           .db 0
16830  4AA4 00           .db 0
16831  4AA5 00           .db 0
16832  4AA6 00           .db 0
16833  4AA7 80           .db 128
16834  4AA8 00           .db 0
16835  4AA9 80           .db 128
16836  4AAA 00           .db 0
16837  4AAB 00           .db 0
16838  4AAC 85           .db 133
16839  4AAD 3F           .db 63
16840  4AAE 84           .db 132
16841  4AAF 3C           .db 60
16842  4AB0 85           .db 133
16843  4AB1 39           .db 57
16844  4AB2 84           .db 132
16845  4AB3 3B           .db 59
16846  4AB4 85           .db 133
16847  4AB5 3F           .db 63
16848  4AB6 3F           .db 63
16849  4AB7 09           .db 9
16850  4AB8 00           .db 0
16851  4AB9 00           .db 0
16852  4ABA 00           .db 0
16853  4ABB 00           .db 0
16854  4ABC 00           .db 0
16855  4ABD 00           .db 0
16856  4ABE 84           .db 132
16857  4ABF 07           .db 7
16858  4AC0 3F           .db 63
16859  4AC1 3F           .db 63
16860  4AC2 3F           .db 63
16861  4AC3 3F           .db 63
16862  4AC4 3F           .db 63
16863  4AC5 38           .db 56
16864  4AC6 80           .db 128
16865  4AC7 07           .db 7
16866  4AC8 3F           .db 63
16867  4AC9 39           .db 57
16868  4ACA 08           .db 8
16869  4ACB 81           .db 129
16870  4ACC 37           .db 55
16871  4ACD 19           .db 25
16872  4ACE 00           .db 0
16873  4ACF 00           .db 0
16874  4AD0 00           .db 0
16875  4AD1 00           .db 0
16876  4AD2 00           .db 0
16877  4AD3 00           .db 0
16878  4AD4 3E           .db 62
16879  4AD5 07           .db 7
16880  4AD6 84           .db 132
16881  4AD7 38           .db 56
16882  4AD8 3F           .db 63
16883  4AD9 0F           .db 15
16884  4ADA 01           .db 1
16885  4ADB 00           .db 0
16886  4ADC 00           .db 0
16887  4ADD 00           .db 0
16888  4ADE 00           .db 0
16889  4ADF 00           .db 0
16890  4AE0 00           .db 0
16891  4AE1 00           .db 0
16892  4AE2 00           .db 0
16893  4AE3 00           .db 0
16894  4AE4 00           .db 0
16895  4AE5 00           .db 0
16896  4AE6 00           .db 0
16897  4AE7 00           .db 0
16898  4AE8 89           .db 137
16899  4AE9 24           .db 36
16900  4AEA 3F           .db 63
16901  4AEB 3F           .db 63
16902  4AEC 84           .db 132
16903  4AED 3E           .db 62
16904  4AEE 89           .db 137
16905  4AEF 3C           .db 60
16906  4AF0 84           .db 132
16907  4AF1 39           .db 57
16908  4AF2 89           .db 137
16909  4AF3 3F           .db 63
16910  4AF4 00           .db 0
16911  4AF5 00           .db 0
16912  4AF6 00           .db 0
16913  4AF7 00           .db 0
16914  4AF8 00           .db 0
16915  4AF9 00           .db 0
16916  4AFA 00           .db 0
16917  4AFB 00           .db 0
16918  4AFC 00           .db 0
16919  4AFD 00           .db 0
16920  4AFE 00           .db 0
16921  4AFF 00           .db 0
16922  4B00 00           .db 0
16923  4B01 00           .db 0
16924  4B02 00           .db 0
16925  4B03 00           .db 0
16926  4B04 00           .db 0
16927  4B05 80           .db 128
16928  4B06 00           .db 0
16929  4B07 80           .db 128
16930  4B08 00           .db 0
16931  4B09 80           .db 128
16932  4B0A 00           .db 0
16933  4B0B 85           .db 133
16934  4B0C 06           .db 6
16935  4B0D 85           .db 133
16936  4B0E 27           .db 39
16937  4B0F 85           .db 133
16938  4B10 3F           .db 63
16939  4B11 85           .db 133
16940  4B12 3F           .db 63
16941  4B13 85           .db 133
16942  4B14 3F           .db 63
16943  4B15 85           .db 133
16944  4B16 3F           .db 63
16945  4B17 85           .db 133
16946  4B18 2D           .db 45
16947  4B19 85           .db 133
16948  4B1A 39           .db 57
16949  4B1B 85           .db 133
16950  4B1C 00           .db 0
16951  4B1D 00           .db 0
16952  4B1E 00           .db 0
16953  4B1F 00           .db 0
16954  4B20 00           .db 0
16955  4B21 00           .db 0
16956  4B22 84           .db 132
16957  4B23 04           .db 4
16958  4B24 37           .db 55
16959  4B25 3F           .db 63
16960  4B26 3F           .db 63
16961  4B27 3F           .db 63
16962  4B28 3F           .db 63
16963  4B29 3F           .db 63
16964  4B2A 38           .db 56
16965  4B2B 80           .db 128
16966  4B2C 07           .db 7
16967  4B2D 3F           .db 63
16968  4B2E 39           .db 57
16969  4B2F 18           .db 24
16970  4B30 00           .db 0
16971  4B31 00           .db 0
16972  4B32 00           .db 0
16973  4B33 00           .db 0
16974  4B34 00           .db 0
16975  4B35 00           .db 0
16976  4B36 84           .db 132
16977  4B37 38           .db 56
16978  4B38 3F           .db 63
16979  4B39 0F           .db 15
16980  4B3A 01           .db 1
16981  4B3B 00           .db 0
16982  4B3C 00           .db 0
16983  4B3D 00           .db 0
16984  4B3E 00           .db 0
16985  4B3F 00           .db 0
16986  4B40 00           .db 0
16987  4B41 00           .db 0
16988  4B42 00           .db 0
16989  4B43 00           .db 0
16990  4B44 00           .db 0
16991  4B45 00           .db 0
16992  4B46 00           .db 0
16993  4B47 00           .db 0
16994  4B48 00           .db 0
16995  4B49 89           .db 137
16996  4B4A 3C           .db 60
16997  4B4B 2D           .db 45
16998  4B4C 3F           .db 63
16999  4B4D 3F           .db 63
17000  4B4E 3F           .db 63
17001  4B4F 3F           .db 63
17002  4B50 0F           .db 15
17003  4B51 03           .db 3
17004  4B52 00           .db 0
17005  4B53 00           .db 0
17006  4B54 00           .db 0
17007  4B55 00           .db 0
17008  4B56 00           .db 0
17009  4B57 00           .db 0
17010  4B58 00           .db 0
17011  4B59 00           .db 0
17012  4B5A 00           .db 0
17013  4B5B 00           .db 0
17014  4B5C 00           .db 0
17015  4B5D 00           .db 0
17016  4B5E 00           .db 0
17017  4B5F 00           .db 0
17018  4B60 00           .db 0
17019  4B61 00           .db 0
17020  4B62 00           .db 0
17021  4B63 80           .db 128
17022  4B64 00           .db 0
17023  4B65 80           .db 128
17024  4B66 00           .db 0
17025  4B67 80           .db 128
17026  4B68 00           .db 0
17027  4B69 80           .db 128
17028  4B6A 00           .db 0
17029  4B6B 85           .db 133
17030  4B6C 24           .db 36
17031  4B6D 85           .db 133
17032  4B6E 3F           .db 63
17033  4B6F 85           .db 133
17034  4B70 3F           .db 63
17035  4B71 85           .db 133
17036  4B72 3F           .db 63
17037  4B73 85           .db 133
17038  4B74 1B           .db 27
17039  4B75 85           .db 133
17040  4B76 38           .db 56
17041  4B77 85           .db 133
17042  4B78 1B           .db 27
17043  4B79 84           .db 132
17044  4B7A 20           .db 32
17045  4B7B 84           .db 132
17046  4B7C 0F           .db 15
17047  4B7D 3B           .db 59
17048  4B7E 00           .db 0
17049  4B7F 00           .db 0
17050  4B80 00           .db 0
17051  4B81 00           .db 0
17052  4B82 00           .db 0
17053  4B83 07           .db 7
17054  4B84 3F           .db 63
17055  4B85 3F           .db 63
17056  4B86 3F           .db 63
17057  4B87 3F           .db 63
17058  4B88 3F           .db 63
17059  4B89 3F           .db 63
17060  4B8A 1C           .db 28
17061  4B8B 80           .db 128
17062  4B8C 27           .db 39
17063  4B8D 3F           .db 63
17064  4B8E 3B           .db 59
17065  4B8F 18           .db 24
17066  4B90 00           .db 0
17067  4B91 84           .db 132
17068  4B92 20           .db 32
17069  4B93 3C           .db 60
17070  4B94 3F           .db 63
17071  4B95 1F           .db 31
17072  4B96 03           .db 3
17073  4B97 00           .db 0
17074  4B98 00           .db 0
17075  4B99 00           .db 0
17076  4B9A 00           .db 0
17077  4B9B 00           .db 0
17078  4B9C 00           .db 0
17079  4B9D 00           .db 0
17080  4B9E 00           .db 0
17081  4B9F 00           .db 0
17082  4BA0 00           .db 0
17083  4BA1 00           .db 0
17084  4BA2 00           .db 0
17085  4BA3 00           .db 0
17086  4BA4 3E           .db 62
17087  4BA5 27           .db 39
17088  4BA6 08           .db 8
17089  4BA7 89           .db 137
17090  4BA8 36           .db 54
17091  4BA9 38           .db 56
17092  4BAA 36           .db 54
17093  4BAB 3F           .db 63
17094  4BAC 3F           .db 63
17095  4BAD 3F           .db 63
17096  4BAE 09           .db 9
17097  4BAF 00           .db 0
17098  4BB0 00           .db 0
17099  4BB1 00           .db 0
17100  4BB2 00           .db 0
17101  4BB3 00           .db 0
17102  4BB4 00           .db 0
17103  4BB5 00           .db 0
17104  4BB6 00           .db 0
17105  4BB7 00           .db 0
17106  4BB8 00           .db 0
17107  4BB9 00           .db 0
17108  4BBA 00           .db 0
17109  4BBB 00           .db 0
17110  4BBC 00           .db 0
17111  4BBD 00           .db 0
17112  4BBE 00           .db 0
17113  4BBF 00           .db 0
17114  4BC0 00           .db 0
17115  4BC1 80           .db 128
17116  4BC2 00           .db 0
17117  4BC3 80           .db 128
17118  4BC4 00           .db 0
17119  4BC5 80           .db 128
17120  4BC6 00           .db 0
17121  4BC7 80           .db 128
17122  4BC8 00           .db 0
17123  4BC9 84           .db 132
17124  4BCA 04           .db 4
17125  4BCB 84           .db 132
17126  4BCC 3F           .db 63
17127  4BCD 84           .db 132
17128  4BCE 3F           .db 63
17129  4BCF 84           .db 132
17130  4BD0 3F           .db 63
17131  4BD1 84           .db 132
17132  4BD2 39           .db 57
17133  4BD3 84           .db 132
17134  4BD4 00           .db 0
17135  4BD5 84           .db 132
17136  4BD6 00           .db 0
17137  4BD7 84           .db 132
17138  4BD8 36           .db 54
17139  4BD9 84           .db 132
17140  4BDA 00           .db 0
17141  4BDB 84           .db 132
17142  4BDC 12           .db 18
17143  4BDD 00           .db 0
17144  4BDE 00           .db 0
17145  4BDF 00           .db 0
17146  4BE0 00           .db 0
17147  4BE1 00           .db 0
17148  4BE2 00           .db 0
17149  4BE3 04           .db 4
17150  4BE4 37           .db 55
17151  4BE5 3F           .db 63
17152  4BE6 3F           .db 63
17153  4BE7 3F           .db 63
17154  4BE8 3F           .db 63
17155  4BE9 3F           .db 63
17156  4BEA 3B           .db 59
17157  4BEB 1C           .db 28
17158  4BEC 80           .db 128
17159  4BED 27           .db 39
17160  4BEE 3F           .db 63
17161  4BEF 09           .db 9
17162  4BF0 84           .db 132
17163  4BF1 3F           .db 63
17164  4BF2 1F           .db 31
17165  4BF3 03           .db 3
17166  4BF4 00           .db 0
17167  4BF5 00           .db 0
17168  4BF6 00           .db 0
17169  4BF7 00           .db 0
17170  4BF8 00           .db 0
17171  4BF9 00           .db 0
17172  4BFA 00           .db 0
17173  4BFB 00           .db 0
17174  4BFC 00           .db 0
17175  4BFD 00           .db 0
17176  4BFE 00           .db 0
17177  4BFF 00           .db 0
17178  4C00 00           .db 0
17179  4C01 00           .db 0
17180  4C02 00           .db 0
17181  4C03 12           .db 18
17182  4C04 00           .db 0
17183  4C05 1B           .db 27
17184  4C06 00           .db 0
17185  4C07 00           .db 0
17186  4C08 3C           .db 60
17187  4C09 3F           .db 63
17188  4C0A 3F           .db 63
17189  4C0B 3F           .db 63
17190  4C0C 01           .db 1
17191  4C0D 00           .db 0
17192  4C0E 00           .db 0
17193  4C0F 00           .db 0
17194  4C10 00           .db 0
17195  4C11 00           .db 0
17196  4C12 00           .db 0
17197  4C13 00           .db 0
17198  4C14 00           .db 0
17199  4C15 00           .db 0
17200  4C16 00           .db 0
17201  4C17 00           .db 0
17202  4C18 00           .db 0
17203  4C19 00           .db 0
17204  4C1A 00           .db 0
17205  4C1B 00           .db 0
17206  4C1C 00           .db 0
17207  4C1D 00           .db 0
17208  4C1E 00           .db 0
17209  4C1F 80           .db 128
17210  4C20 00           .db 0
17211  4C21 80           .db 128
17212  4C22 00           .db 0
17213  4C23 80           .db 128
17214  4C24 00           .db 0
17215  4C25 80           .db 128
17216  4C26 00           .db 0
17217  4C27 80           .db 128
17218  4C28 00           .db 0
17219  4C29 85           .db 133
17220  4C2A 26           .db 38
17221  4C2B 85           .db 133
17222  4C2C 3F           .db 63
17223  4C2D 85           .db 133
17224  4C2E 0B           .db 11
17225  4C2F 00           .db 0
17226  4C30 84           .db 132
17227  4C31 37           .db 55
17228  4C32 00           .db 0
17229  4C33 06           .db 6
17230  4C34 39           .db 57
17231  4C35 2B           .db 43
17232  4C36 18           .db 24
17233  4C37 00           .db 0
17234  4C38 00           .db 0
17235  4C39 00           .db 0
17236  4C3A 00           .db 0
17237  4C3B 00           .db 0
17238  4C3C 00           .db 0
17239  4C3D 8C           .db 140
17240  4C3E 08           .db 8
17241  4C3F 84           .db 132
17242  4C40 06           .db 6
17243  4C41 3F           .db 63
17244  4C42 3F           .db 63
17245  4C43 3F           .db 63
17246  4C44 3F           .db 63
17247  4C45 3F           .db 63
17248  4C46 3F           .db 63
17249  4C47 3B           .db 59
17250  4C48 1C           .db 28
17251  4C49 80           .db 128
17252  4C4A 01           .db 1
17253  4C4B 84           .db 132
17254  4C4C 03           .db 3
17255  4C4D 00           .db 0
17256  4C4E 00           .db 0
17257  4C4F 00           .db 0
17258  4C50 00           .db 0
17259  4C51 00           .db 0
17260  4C52 00           .db 0
17261  4C53 00           .db 0
17262  4C54 00           .db 0
17263  4C55 00           .db 0
17264  4C56 88           .db 136
17265  4C57 20           .db 32
17266  4C58 00           .db 0
17267  4C59 00           .db 0
17268  4C5A 00           .db 0
17269  4C5B 00           .db 0
17270  4C5C 00           .db 0
17271  4C5D 00           .db 0
17272  4C5E 84           .db 132
17273  4C5F 30           .db 48
17274  4C60 2E           .db 46
17275  4C61 3C           .db 60
17276  4C62 03           .db 3
17277  4C63 00           .db 0
17278  4C64 1F           .db 31
17279  4C65 00           .db 0
17280  4C66 89           .db 137
17281  4C67 26           .db 38
17282  4C68 3F           .db 63
17283  4C69 0B           .db 11
17284  4C6A 00           .db 0
17285  4C6B 00           .db 0
17286  4C6C 00           .db 0
17287  4C6D 00           .db 0
17288  4C6E 00           .db 0
17289  4C6F 00           .db 0
17290  4C70 00           .db 0
17291  4C71 00           .db 0
17292  4C72 00           .db 0
17293  4C73 00           .db 0
17294  4C74 00           .db 0
17295  4C75 00           .db 0
17296  4C76 00           .db 0
17297  4C77 00           .db 0
17298  4C78 00           .db 0
17299  4C79 00           .db 0
17300  4C7A 00           .db 0
17301  4C7B 00           .db 0
17302  4C7C 00           .db 0
17303  4C7D 80           .db 128
17304  4C7E 00           .db 0
17305  4C7F 80           .db 128
17306  4C80 00           .db 0
17307  4C81 80           .db 128
17308  4C82 00           .db 0
17309  4C83 80           .db 128
17310  4C84 00           .db 0
17311  4C85 80           .db 128
17312  4C86 00           .db 0
17313  4C87 80           .db 128
17314  4C88 00           .db 0
17315  4C89 85           .db 133
17316  4C8A 21           .db 33
17317  4C8B 85           .db 133
17318  4C8C 00           .db 0
17319  4C8D 85           .db 133
17320  4C8E 18           .db 24
17321  4C8F 85           .db 133
17322  4C90 00           .db 0
17323  4C91 00           .db 0
17324  4C92 00           .db 0
17325  4C93 00           .db 0
17326  4C94 84           .db 132
17327  4C95 20           .db 32
17328  4C96 27           .db 39
17329  4C97 18           .db 24
17330  4C98 8C           .db 140
17331  4C99 20           .db 32
17332  4C9A 0E           .db 14
17333  4C9B 0F           .db 15
17334  4C9C 18           .db 24
17335  4C9D 04           .db 4
17336  4C9E 01           .db 1
17337  4C9F 00           .db 0
17338  4CA0 00           .db 0
17339  4CA1 84           .db 132
17340  4CA2 27           .db 39
17341  4CA3 3F           .db 63
17342  4CA4 3F           .db 63
17343  4CA5 3F           .db 63
17344  4CA6 3F           .db 63
17345  4CA7 3F           .db 63
17346  4CA8 3F           .db 63
17347  4CA9 09           .db 9
17348  4CAA 00           .db 0
17349  4CAB 00           .db 0
17350  4CAC 00           .db 0
17351  4CAD 00           .db 0
17352  4CAE 00           .db 0
17353  4CAF 00           .db 0
17354  4CB0 00           .db 0
17355  4CB1 00           .db 0
17356  4CB2 00           .db 0
17357  4CB3 00           .db 0
17358  4CB4 88           .db 136
17359  4CB5 04           .db 4
17360  4CB6 01           .db 1
17361  4CB7 30           .db 48
17362  4CB8 27           .db 39
17363  4CB9 23           .db 35
17364  4CBA 08           .db 8
17365  4CBB 84           .db 132
17366  4CBC 30           .db 48
17367  4CBD 0F           .db 15
17368  4CBE 08           .db 8
17369  4CBF 00           .db 0
17370  4CC0 00           .db 0
17371  4CC1 00           .db 0
17372  4CC2 00           .db 0
17373  4CC3 89           .db 137
17374  4CC4 30           .db 48
17375  4CC5 00           .db 0
17376  4CC6 0C           .db 12
17377  4CC7 00           .db 0
17378  4CC8 00           .db 0
17379  4CC9 00           .db 0
17380  4CCA 00           .db 0
17381  4CCB 00           .db 0
17382  4CCC 00           .db 0
17383  4CCD 00           .db 0
17384  4CCE 00           .db 0
17385  4CCF 00           .db 0
17386  4CD0 00           .db 0
17387  4CD1 00           .db 0
17388  4CD2 00           .db 0
17389  4CD3 00           .db 0
17390  4CD4 00           .db 0
17391  4CD5 00           .db 0
17392  4CD6 00           .db 0
17393  4CD7 00           .db 0
17394  4CD8 00           .db 0
17395  4CD9 00           .db 0
17396  4CDA 00           .db 0
17397  4CDB 80           .db 128
17398  4CDC 00           .db 0
17399  4CDD 80           .db 128
17400  4CDE 00           .db 0
17401  4CDF 80           .db 128
17402  4CE0 00           .db 0
17403  4CE1 80           .db 128
17404  4CE2 00           .db 0
17405  4CE3 85           .db 133
17406  4CE4 20           .db 32
17407  4CE5 85           .db 133
17408  4CE6 3F           .db 63
17409  4CE7 85           .db 133
17410  4CE8 3C           .db 60
17411  4CE9 85           .db 133
17412  4CEA 00           .db 0
17413  4CEB 85           .db 133
17414  4CEC 3F           .db 63
17415  4CED 85           .db 133
17416  4CEE 3C           .db 60
17417  4CEF 1B           .db 27
17418  4CF0 00           .db 0
17419  4CF1 00           .db 0
17420  4CF2 84           .db 132
17421  4CF3 24           .db 36
17422  4CF4 08           .db 8
17423  4CF5 06           .db 6
17424  4CF6 39           .db 57
17425  4CF7 8C           .db 140
17426  4CF8 39           .db 57
17427  4CF9 39           .db 57
17428  4CFA 3F           .db 63
17429  4CFB 00           .db 0
17430  4CFC 00           .db 0
17431  4CFD 00           .db 0
17432  4CFE 00           .db 0
17433  4CFF 00           .db 0
17434  4D00 84           .db 132
17435  4D01 04           .db 4
17436  4D02 37           .db 55
17437  4D03 3F           .db 63
17438  4D04 3F           .db 63
17439  4D05 3F           .db 63
17440  4D06 3F           .db 63
17441  4D07 09           .db 9
17442  4D08 00           .db 0
17443  4D09 00           .db 0
17444  4D0A 00           .db 0
17445  4D0B 00           .db 0
17446  4D0C 00           .db 0
17447  4D0D 00           .db 0
17448  4D0E 00           .db 0
17449  4D0F 00           .db 0
17450  4D10 00           .db 0
17451  4D11 00           .db 0
17452  4D12 00           .db 0
17453  4D13 00           .db 0
17454  4D14 88           .db 136
17455  4D15 3F           .db 63
17456  4D16 3C           .db 60
17457  4D17 3C           .db 60
17458  4D18 03           .db 3
17459  4D19 84           .db 132
17460  4D1A 03           .db 3
17461  4D1B 20           .db 32
17462  4D1C 09           .db 9
17463  4D1D 00           .db 0
17464  4D1E 00           .db 0
17465  4D1F 89           .db 137
17466  4D20 36           .db 54
17467  4D21 39           .db 57
17468  4D22 3F           .db 63
17469  4D23 00           .db 0
17470  4D24 39           .db 57
17471  4D25 3F           .db 63
17472  4D26 08           .db 8
17473  4D27 00           .db 0
17474  4D28 00           .db 0
17475  4D29 00           .db 0
17476  4D2A 00           .db 0
17477  4D2B 00           .db 0
17478  4D2C 00           .db 0
17479  4D2D 00           .db 0
17480  4D2E 00           .db 0
17481  4D2F 00           .db 0
17482  4D30 00           .db 0
17483  4D31 00           .db 0
17484  4D32 00           .db 0
17485  4D33 00           .db 0
17486  4D34 00           .db 0
17487  4D35 00           .db 0
17488  4D36 00           .db 0
17489  4D37 00           .db 0
17490  4D38 00           .db 0
17491  4D39 80           .db 128
17492  4D3A 00           .db 0
17493  4D3B 80           .db 128
17494  4D3C 00           .db 0
17495  4D3D 80           .db 128
17496  4D3E 00           .db 0
17497  4D3F 00           .db 0
17498  4D40 00           .db 0
17499  4D41 85           .db 133
17500  4D42 01           .db 1
17501  4D43 00           .db 0
17502  4D44 00           .db 0
17503  4D45 00           .db 0
17504  4D46 00           .db 0
17505  4D47 00           .db 0
17506  4D48 00           .db 0
17507  4D49 00           .db 0
17508  4D4A 00           .db 0
17509  4D4B 8C           .db 140
17510  4D4C 3F           .db 63
17511  4D4D 84           .db 132
17512  4D4E 3C           .db 60
17513  4D4F 8C           .db 140
17514  4D50 39           .db 57
17515  4D51 84           .db 132
17516  4D52 3B           .db 59
17517  4D53 8C           .db 140
17518  4D54 3F           .db 63
17519  4D55 3F           .db 63
17520  4D56 09           .db 9
17521  4D57 00           .db 0
17522  4D58 00           .db 0
17523  4D59 00           .db 0
17524  4D5A 00           .db 0
17525  4D5B 00           .db 0
17526  4D5C 00           .db 0
17527  4D5D 84           .db 132
17528  4D5E 06           .db 6
17529  4D5F 3F           .db 63
17530  4D60 3F           .db 63
17531  4D61 3F           .db 63
17532  4D62 09           .db 9
17533  4D63 00           .db 0
17534  4D64 00           .db 0
17535  4D65 00           .db 0
17536  4D66 00           .db 0
17537  4D67 00           .db 0
17538  4D68 00           .db 0
17539  4D69 00           .db 0
17540  4D6A 00           .db 0
17541  4D6B 00           .db 0
17542  4D6C 00           .db 0
17543  4D6D 00           .db 0
17544  4D6E 88           .db 136
17545  4D6F 24           .db 36
17546  4D70 3F           .db 63
17547  4D71 3F           .db 63
17548  4D72 84           .db 132
17549  4D73 3E           .db 62
17550  4D74 88           .db 136
17551  4D75 3C           .db 60
17552  4D76 84           .db 132
17553  4D77 39           .db 57
17554  4D78 88           .db 136
17555  4D79 3F           .db 63
17556  4D7A 00           .db 0
17557  4D7B 00           .db 0
17558  4D7C 00           .db 0
17559  4D7D 00           .db 0
17560  4D7E 00           .db 0
17561  4D7F 00           .db 0
17562  4D80 00           .db 0
17563  4D81 00           .db 0
17564  4D82 89           .db 137
17565  4D83 04           .db 4
17566  4D84 00           .db 0
17567  4D85 00           .db 0
17568  4D86 00           .db 0
17569  4D87 00           .db 0
17570  4D88 00           .db 0
17571  4D89 00           .db 0
17572  4D8A 00           .db 0
17573  4D8B 00           .db 0
17574  4D8C 00           .db 0
17575  4D8D 00           .db 0
17576  4D8E 00           .db 0
17577  4D8F 00           .db 0
17578  4D90 00           .db 0
17579  4D91 00           .db 0
17580  4D92 00           .db 0
17581  4D93 00           .db 0
17582  4D94 00           .db 0
17583  4D95 00           .db 0
17584  4D96 00           .db 0
17585  4D97 80           .db 128
17586  4D98 00           .db 0
17587  4D99 80           .db 128
17588  4D9A 00           .db 0
17589  4D9B 80           .db 128
17590  4D9C 00           .db 0
17591  4D9D 80           .db 128
17592  4D9E 00           .db 0
17593  4D9F 80           .db 128
17594  4DA0 00           .db 0
17595  4DA1 80           .db 128
17596  4DA2 00           .db 0
17597  4DA3 80           .db 128
17598  4DA4 00           .db 0
17599  4DA5 80           .db 128
17600  4DA6 00           .db 0
17601  4DA7 80           .db 128
17602  4DA8 00           .db 0
17603  4DA9 80           .db 128
17604  4DAA 00           .db 0
17605  4DAB 80           .db 128
17606  4DAC 00           .db 0
17607  4DAD 80           .db 128
17608  4DAE 00           .db 0
17609  4DAF 80           .db 128
17610  4DB0 00           .db 0
17611  4DB1 00           .db 0
17612  4DB2 8C           .db 140
17613  4DB3 06           .db 6
17614  4DB4 27           .db 39
17615  4DB5 3F           .db 63
17616  4DB6 3F           .db 63
17617  4DB7 3F           .db 63
17618  4DB8 3F           .db 63
17619  4DB9 2D           .db 45
17620  4DBA 39           .db 57
17621  4DBB 00           .db 0
17622  4DBC 00           .db 0
17623  4DBD 00           .db 0
17624  4DBE 00           .db 0
17625  4DBF 00           .db 0
17626  4DC0 00           .db 0
17627  4DC1 84           .db 132
17628  4DC2 04           .db 4
17629  4DC3 27           .db 39
17630  4DC4 3F           .db 63
17631  4DC5 09           .db 9
17632  4DC6 00           .db 0
17633  4DC7 00           .db 0
17634  4DC8 00           .db 0
17635  4DC9 00           .db 0
17636  4DCA 00           .db 0
17637  4DCB 00           .db 0
17638  4DCC 00           .db 0
17639  4DCD 00           .db 0
17640  4DCE 00           .db 0
17641  4DCF 00           .db 0
17642  4DD0 88           .db 136
17643  4DD1 3C           .db 60
17644  4DD2 2D           .db 45
17645  4DD3 3F           .db 63
17646  4DD4 3F           .db 63
17647  4DD5 3F           .db 63
17648  4DD6 3F           .db 63
17649  4DD7 0F           .db 15
17650  4DD8 03           .db 3
17651  4DD9 00           .db 0
17652  4DDA 00           .db 0
17653  4DDB 00           .db 0
17654  4DDC 00           .db 0
17655  4DDD 00           .db 0
17656  4DDE 00           .db 0
17657  4DDF 00           .db 0
17658  4DE0 00           .db 0
17659  4DE1 00           .db 0
17660  4DE2 00           .db 0
17661  4DE3 00           .db 0
17662  4DE4 00           .db 0
17663  4DE5 00           .db 0
17664  4DE6 00           .db 0
17665  4DE7 00           .db 0
17666  4DE8 00           .db 0
17667  4DE9 00           .db 0
17668  4DEA 00           .db 0
17669  4DEB 00           .db 0
17670  4DEC 00           .db 0
17671  4DED 00           .db 0
17672  4DEE 00           .db 0
17673  4DEF 00           .db 0
17674  4DF0 00           .db 0
17675  4DF1 00           .db 0
17676  4DF2 00           .db 0
17677  4DF3 00           .db 0
17678  4DF4 00           .db 0
17679  4DF5 80           .db 128
17680  4DF6 00           .db 0
17681  4DF7 80           .db 128
17682  4DF8 00           .db 0
17683  4DF9 80           .db 128
17684  4DFA 00           .db 0
17685  4DFB 80           .db 128
17686  4DFC 00           .db 0
17687  4DFD 80           .db 128
17688  4DFE 00           .db 0
17689  4DFF 80           .db 128
17690  4E00 00           .db 0
17691  4E01 80           .db 128
17692  4E02 00           .db 0
17693  4E03 80           .db 128
17694  4E04 00           .db 0
17695  4E05 80           .db 128
17696  4E06 00           .db 0
17697  4E07 80           .db 128
17698  4E08 00           .db 0
17699  4E09 80           .db 128
17700  4E0A 00           .db 0
17701  4E0B 80           .db 128
17702  4E0C 00           .db 0
17703  4E0D 80           .db 128
17704  4E0E 00           .db 0
17705  4E0F 00           .db 0
17706  4E10 00           .db 0
17707  4E11 8C           .db 140
17708  4E12 24           .db 36
17709  4E13 3F           .db 63
17710  4E14 3F           .db 63
17711  4E15 3F           .db 63
17712  4E16 1B           .db 27
17713  4E17 38           .db 56
17714  4E18 1B           .db 27
17715  4E19 00           .db 0
17716  4E1A 00           .db 0
17717  4E1B 00           .db 0
17718  4E1C 00           .db 0
17719  4E1D 00           .db 0
17720  4E1E 00           .db 0
17721  4E1F 00           .db 0
17722  4E20 00           .db 0
17723  4E21 84           .db 132
17724  4E22 06           .db 6
17725  4E23 19           .db 25
17726  4E24 00           .db 0
17727  4E25 00           .db 0
17728  4E26 00           .db 0
17729  4E27 00           .db 0
17730  4E28 00           .db 0
17731  4E29 00           .db 0
17732  4E2A 00           .db 0
17733  4E2B 00           .db 0
17734  4E2C 00           .db 0
17735  4E2D 00           .db 0
17736  4E2E 88           .db 136
17737  4E2F 36           .db 54
17738  4E30 38           .db 56
17739  4E31 36           .db 54
17740  4E32 3F           .db 63
17741  4E33 3F           .db 63
17742  4E34 3F           .db 63
17743  4E35 09           .db 9
17744  4E36 00           .db 0
17745  4E37 00           .db 0
17746  4E38 00           .db 0
17747  4E39 00           .db 0
17748  4E3A 00           .db 0
17749  4E3B 00           .db 0
17750  4E3C 00           .db 0
17751  4E3D 00           .db 0
17752  4E3E 00           .db 0
17753  4E3F 00           .db 0
17754  4E40 00           .db 0
17755  4E41 00           .db 0
17756  4E42 00           .db 0
17757  4E43 00           .db 0
17758  4E44 00           .db 0
17759  4E45 00           .db 0
17760  4E46 00           .db 0
17761  4E47 00           .db 0
17762  4E48 00           .db 0
17763  4E49 00           .db 0
17764  4E4A 00           .db 0
17765  4E4B 00           .db 0
17766  4E4C 00           .db 0
17767  4E4D 00           .db 0
17768  4E4E 00           .db 0
17769  4E4F 00           .db 0
17770  4E50 00           .db 0
17771  4E51 00           .db 0
17772  4E52 00           .db 0
17773  4E53 80           .db 128
17774  4E54 00           .db 0
17775  4E55 80           .db 128
17776  4E56 00           .db 0
17777  4E57 80           .db 128
17778  4E58 00           .db 0
17779  4E59 80           .db 128
17780  4E5A 00           .db 0
17781  4E5B 80           .db 128
17782  4E5C 00           .db 0
17783  4E5D 80           .db 128
17784  4E5E 00           .db 0
17785  4E5F 80           .db 128
17786  4E60 00           .db 0
17787  4E61 80           .db 128
17788  4E62 00           .db 0
17789  4E63 80           .db 128
17790  4E64 00           .db 0
17791  4E65 80           .db 128
17792  4E66 00           .db 0
17793  4E67 80           .db 128
17794  4E68 00           .db 0
17795  4E69 80           .db 128
17796  4E6A 00           .db 0
17797  4E6B 80           .db 128
17798  4E6C 00           .db 0
17799  4E6D 80           .db 128
17800  4E6E 00           .db 0
17801  4E6F 80           .db 128
17802  4E70 00           .db 0
17803  4E71 84           .db 132
17804  4E72 04           .db 4
17805  4E73 3F           .db 63
17806  4E74 3F           .db 63
17807  4E75 3F           .db 63
17808  4E76 39           .db 57
17809  4E77 00           .db 0
17810  4E78 00           .db 0
17811  4E79 00           .db 0
17812  4E7A 00           .db 0
17813  4E7B 00           .db 0
17814  4E7C 00           .db 0
17815  4E7D 00           .db 0
17816  4E7E 00           .db 0
17817  4E7F 00           .db 0
17818  4E80 00           .db 0
17819  4E81 00           .db 0
17820  4E82 00           .db 0
17821  4E83 00           .db 0
17822  4E84 00           .db 0
17823  4E85 00           .db 0
17824  4E86 00           .db 0
17825  4E87 00           .db 0
17826  4E88 00           .db 0
17827  4E89 00           .db 0
17828  4E8A 00           .db 0
17829  4E8B 00           .db 0
17830  4E8C 00           .db 0
17831  4E8D 00           .db 0
17832  4E8E 00           .db 0
17833  4E8F 3C           .db 60
17834  4E90 3F           .db 63
17835  4E91 3F           .db 63
17836  4E92 3F           .db 63
17837  4E93 01           .db 1
17838  4E94 00           .db 0
17839  4E95 00           .db 0
17840  4E96 00           .db 0
17841  4E97 00           .db 0
17842  4E98 00           .db 0
17843  4E99 00           .db 0
17844  4E9A 00           .db 0
17845  4E9B 00           .db 0
17846  4E9C 00           .db 0
17847  4E9D 00           .db 0
17848  4E9E 00           .db 0
17849  4E9F 00           .db 0
17850  4EA0 00           .db 0
17851  4EA1 00           .db 0
17852  4EA2 00           .db 0
17853  4EA3 00           .db 0
17854  4EA4 00           .db 0
17855  4EA5 00           .db 0
17856  4EA6 00           .db 0
17857  4EA7 00           .db 0
17858  4EA8 00           .db 0
17859  4EA9 00           .db 0
17860  4EAA 00           .db 0
17861  4EAB 00           .db 0
17862  4EAC 00           .db 0
17863  4EAD 00           .db 0
17864  4EAE 00           .db 0
17865  4EAF 00           .db 0
17866  4EB0 00           .db 0
17867  4EB1 80           .db 128
17868  4EB2 00           .db 0
17869  4EB3 80           .db 128
17870  4EB4 00           .db 0
17871  4EB5 80           .db 128
17872  4EB6 00           .db 0
17873  4EB7 80           .db 128
17874  4EB8 00           .db 0
17875  4EB9 80           .db 128
17876  4EBA 00           .db 0
17877  4EBB 80           .db 128
17878  4EBC 00           .db 0
17879  4EBD 80           .db 128
17880  4EBE 00           .db 0
17881  4EBF 80           .db 128
17882  4EC0 00           .db 0
17883  4EC1 80           .db 128
17884  4EC2 00           .db 0
17885  4EC3 80           .db 128
17886  4EC4 00           .db 0
17887  4EC5 80           .db 128
17888  4EC6 00           .db 0
17889  4EC7 80           .db 128
17890  4EC8 00           .db 0
17891  4EC9 80           .db 128
17892  4ECA 00           .db 0
17893  4ECB 00           .db 0
17894  4ECC 00           .db 0
17895  4ECD 00           .db 0
17896  4ECE 8C           .db 140
17897  4ECF 26           .db 38
17898  4ED0 3F           .db 63
17899  4ED1 0B           .db 11
17900  4ED2 00           .db 0
17901  4ED3 84           .db 132
17902  4ED4 37           .db 55
17903  4ED5 00           .db 0
17904  4ED6 00           .db 0
17905  4ED7 00           .db 0
17906  4ED8 00           .db 0
17907  4ED9 00           .db 0
17908  4EDA 00           .db 0
17909  4EDB 00           .db 0
17910  4EDC 00           .db 0
17911  4EDD 00           .db 0
17912  4EDE 00           .db 0
17913  4EDF 00           .db 0
17914  4EE0 00           .db 0
17915  4EE1 00           .db 0
17916  4EE2 00           .db 0
17917  4EE3 00           .db 0
17918  4EE4 00           .db 0
17919  4EE5 00           .db 0
17920  4EE6 00           .db 0
17921  4EE7 00           .db 0
17922  4EE8 00           .db 0
17923  4EE9 00           .db 0
17924  4EEA 00           .db 0
17925  4EEB 1F           .db 31
17926  4EEC 00           .db 0
17927  4EED 88           .db 136
17928  4EEE 26           .db 38
17929  4EEF 3F           .db 63
17930  4EF0 0B           .db 11
17931  4EF1 00           .db 0
17932  4EF2 00           .db 0
17933  4EF3 00           .db 0
17934  4EF4 00           .db 0
17935  4EF5 00           .db 0
17936  4EF6 00           .db 0
17937  4EF7 00           .db 0
17938  4EF8 00           .db 0
17939  4EF9 00           .db 0
17940  4EFA 00           .db 0
17941  4EFB 00           .db 0
17942  4EFC 00           .db 0
17943  4EFD 00           .db 0
17944  4EFE 00           .db 0
17945  4EFF 00           .db 0
17946  4F00 00           .db 0
17947  4F01 00           .db 0
17948  4F02 00           .db 0
17949  4F03 00           .db 0
17950  4F04 00           .db 0
17951  4F05 00           .db 0
17952  4F06 00           .db 0
17953  4F07 00           .db 0
17954  4F08 00           .db 0
17955  4F09 00           .db 0
17956  4F0A 00           .db 0
17957  4F0B 00           .db 0
17958  4F0C 00           .db 0
17959  4F0D 00           .db 0
17960  4F0E 00           .db 0
17961  4F0F 80           .db 128
17962  4F10 00           .db 0
17963  4F11 80           .db 128
17964  4F12 00           .db 0
17965  4F13 80           .db 128
17966  4F14 00           .db 0
17967  4F15 80           .db 128
17968  4F16 00           .db 0
17969  4F17 80           .db 128
17970  4F18 00           .db 0
17971  4F19 80           .db 128
17972  4F1A 00           .db 0
17973  4F1B 80           .db 128
17974  4F1C 00           .db 0
17975  4F1D 80           .db 128
17976  4F1E 00           .db 0
17977  4F1F 80           .db 128
17978  4F20 00           .db 0
17979  4F21 80           .db 128
17980  4F22 00           .db 0
17981  4F23 80           .db 128
17982  4F24 00           .db 0
17983  4F25 80           .db 128
17984  4F26 00           .db 0
17985  4F27 80           .db 128
17986  4F28 00           .db 0
17987  4F29 80           .db 128
17988  4F2A 00           .db 0
17989  4F2B 00           .db 0
17990  4F2C 00           .db 0
17991  4F2D 00           .db 0
17992  4F2E 8C           .db 140
17993  4F2F 21           .db 33
17994  4F30 00           .db 0
17995  4F31 18           .db 24
17996  4F32 00           .db 0
17997  4F33 00           .db 0
17998  4F34 00           .db 0
17999  4F35 00           .db 0
18000  4F36 00           .db 0
18001  4F37 00           .db 0
18002  4F38 00           .db 0
18003  4F39 00           .db 0
18004  4F3A 00           .db 0
18005  4F3B 00           .db 0
18006  4F3C 00           .db 0
18007  4F3D 00           .db 0
18008  4F3E 00           .db 0
18009  4F3F 00           .db 0
18010  4F40 00           .db 0
18011  4F41 00           .db 0
18012  4F42 00           .db 0
18013  4F43 00           .db 0
18014  4F44 00           .db 0
18015  4F45 00           .db 0
18016  4F46 00           .db 0
18017  4F47 00           .db 0
18018  4F48 00           .db 0
18019  4F49 00           .db 0
18020  4F4A 88           .db 136
18021  4F4B 30           .db 48
18022  4F4C 00           .db 0
18023  4F4D 0C           .db 12
18024  4F4E 00           .db 0
18025  4F4F 00           .db 0
18026  4F50 00           .db 0
18027  4F51 00           .db 0
18028  4F52 00           .db 0
18029  4F53 00           .db 0
18030  4F54 00           .db 0
18031  4F55 00           .db 0
18032  4F56 00           .db 0
18033  4F57 00           .db 0
18034  4F58 00           .db 0
18035  4F59 00           .db 0
18036  4F5A 00           .db 0
18037  4F5B 00           .db 0
18038  4F5C 00           .db 0
18039  4F5D 00           .db 0
18040  4F5E 00           .db 0
18041  4F5F 00           .db 0
18042  4F60 00           .db 0
18043  4F61 00           .db 0
18044  4F62 00           .db 0
18045  4F63 00           .db 0
18046  4F64 00           .db 0
18047  4F65 00           .db 0
18048  4F66 00           .db 0
18049  4F67 00           .db 0
18050  4F68 00           .db 0
18051  4F69 00           .db 0
18052  4F6A 00           .db 0
18053  4F6B 00           .db 0
18054  4F6C 00           .db 0
18055  4F6D 80           .db 128
18056  4F6E 00           .db 0
18057  4F6F 80           .db 128
18058  4F70 00           .db 0
18059  4F71 80           .db 128
18060  4F72 00           .db 0
18061  4F73 80           .db 128
18062  4F74 00           .db 0
18063  4F75 80           .db 128
18064  4F76 00           .db 0
18065  4F77 80           .db 128
18066  4F78 00           .db 0
18067  4F79 80           .db 128
18068  4F7A 00           .db 0
18069  4F7B 80           .db 128
18070  4F7C 00           .db 0
18071  4F7D 80           .db 128
18072  4F7E 00           .db 0
18073  4F7F 80           .db 128
18074  4F80 00           .db 0
18075  4F81 80           .db 128
18076  4F82 00           .db 0
18077  4F83 80           .db 128
18078  4F84 00           .db 0
18079  4F85 80           .db 128
18080  4F86 00           .db 0
18081  4F87 80           .db 128
18082  4F88 00           .db 0
18083  4F89 00           .db 0
18084  4F8A 8C           .db 140
18085  4F8B 20           .db 32
18086  4F8C 3F           .db 63
18087  4F8D 3C           .db 60
18088  4F8E 00           .db 0
18089  4F8F 3F           .db 63
18090  4F90 3C           .db 60
18091  4F91 1B           .db 27
18092  4F92 00           .db 0
18093  4F93 00           .db 0
18094  4F94 00           .db 0
18095  4F95 00           .db 0
18096  4F96 00           .db 0
18097  4F97 00           .db 0
18098  4F98 00           .db 0
18099  4F99 00           .db 0
18100  4F9A 00           .db 0
18101  4F9B 00           .db 0
18102  4F9C 00           .db 0
18103  4F9D 00           .db 0
18104  4F9E 00           .db 0
18105  4F9F 00           .db 0
18106  4FA0 00           .db 0
18107  4FA1 00           .db 0
18108  4FA2 00           .db 0
18109  4FA3 00           .db 0
18110  4FA4 00           .db 0
18111  4FA5 00           .db 0
18112  4FA6 88           .db 136
18113  4FA7 36           .db 54
18114  4FA8 39           .db 57
18115  4FA9 3F           .db 63
18116  4FAA 00           .db 0
18117  4FAB 39           .db 57
18118  4FAC 3F           .db 63
18119  4FAD 08           .db 8
18120  4FAE 00           .db 0
18121  4FAF 00           .db 0
18122  4FB0 00           .db 0
18123  4FB1 00           .db 0
18124  4FB2 00           .db 0
18125  4FB3 00           .db 0
18126  4FB4 00           .db 0
18127  4FB5 00           .db 0
18128  4FB6 00           .db 0
18129  4FB7 00           .db 0
18130  4FB8 00           .db 0
18131  4FB9 00           .db 0
18132  4FBA 00           .db 0
18133  4FBB 00           .db 0
18134  4FBC 00           .db 0
18135  4FBD 00           .db 0
18136  4FBE 00           .db 0
18137  4FBF 00           .db 0
18138  4FC0 00           .db 0
18139  4FC1 00           .db 0
18140  4FC2 00           .db 0
18141  4FC3 00           .db 0
18142  4FC4 00           .db 0
18143  4FC5 00           .db 0
18144  4FC6 00           .db 0
18145  4FC7 00           .db 0
18146  4FC8 00           .db 0
18147  4FC9 00           .db 0
18148  4FCA 00           .db 0
18149  4FCB 80           .db 128
18150  4FCC 00           .db 0
18151  4FCD 80           .db 128
18152  4FCE 00           .db 0
18153  4FCF 80           .db 128
18154  4FD0 00           .db 0
18155  4FD1 80           .db 128
18156  4FD2 00           .db 0
18157  4FD3 80           .db 128
18158  4FD4 00           .db 0
18159  4FD5 80           .db 128
18160  4FD6 00           .db 0
18161  4FD7 80           .db 128
18162  4FD8 00           .db 0
18163  4FD9 80           .db 128
18164  4FDA 00           .db 0
18165  4FDB 80           .db 128
18166  4FDC 00           .db 0
18167  4FDD 80           .db 128
18168  4FDE 00           .db 0
18169  4FDF 80           .db 128
18170  4FE0 00           .db 0
18171  4FE1 80           .db 128
18172  4FE2 00           .db 0
18173  4FE3 80           .db 128
18174  4FE4 00           .db 0
18175  4FE5 80           .db 128
18176  4FE6 00           .db 0
18177  4FE7 00           .db 0
18178  4FE8 00           .db 0
18179  4FE9 8C           .db 140
18180  4FEA 01           .db 1
18181  4FEB 00           .db 0
18182  4FEC 00           .db 0
18183  4FED 00           .db 0
18184  4FEE 00           .db 0
18185  4FEF 00           .db 0
18186  4FF0 00           .db 0
18187  4FF1 00           .db 0
18188  4FF2 00           .db 0
18189  4FF3 00           .db 0
18190  4FF4 00           .db 0
18191  4FF5 00           .db 0
18192  4FF6 00           .db 0
18193  4FF7 00           .db 0
18194  4FF8 00           .db 0
18195  4FF9 00           .db 0
18196  4FFA 00           .db 0
18197  4FFB 00           .db 0
18198  4FFC 00           .db 0
18199  4FFD 00           .db 0
18200  4FFE 00           .db 0
18201  4FFF 00           .db 0
18202  5000 00           .db 0
18203  5001 00           .db 0
18204  5002 00           .db 0
18205  5003 00           .db 0
18206  5004 00           .db 0
18207  5005 00           .db 0
18208  5006 00           .db 0
18209  5007 00           .db 0
18210  5008 00           .db 0
18211  5009 88           .db 136
18212  500A 04           .db 4
18213  500B 00           .db 0
18214  500C 00           .db 0
18215  500D 00           .db 0
18216  500E 00           .db 0
18217  500F 00           .db 0
18218  5010 00           .db 0
18219  5011 00           .db 0
18220  5012 00           .db 0
18221  5013 00           .db 0
18222  5014 00           .db 0
18223  5015 00           .db 0
18224  5016 00           .db 0
18225  5017 00           .db 0
18226  5018 00           .db 0
18227  5019 00           .db 0
18228  501A 00           .db 0
18229  501B 00           .db 0
18230  501C 00           .db 0
18231  501D 00           .db 0
18232  501E 00           .db 0
18233  501F 00           .db 0
18234  5020 00           .db 0
18235  5021 FF           .db 255
18236  5022             
18237  5022             leftSprite:
18238  5022 80           .db 128
18239  5023 00           .db 0
18240  5024 80           .db 128
18241  5025 00           .db 0
18242  5026 80           .db 128
18243  5027 00           .db 0
18244  5028 80           .db 128
18245  5029 00           .db 0
18246  502A 00           .db 0
18247  502B 00           .db 0
18248  502C 00           .db 0
18249  502D 00           .db 0
18250  502E 00           .db 0
18251  502F 00           .db 0
18252  5030 00           .db 0
18253  5031 00           .db 0
18254  5032 00           .db 0
18255  5033 00           .db 0
18256  5034 80           .db 128
18257  5035 00           .db 0
18258  5036 80           .db 128
18259  5037 00           .db 0
18260  5038 80           .db 128
18261  5039 00           .db 0
18262  503A 00           .db 0
18263  503B 00           .db 0
18264  503C 00           .db 0
18265  503D 80           .db 128
18266  503E 1E           .db 30
18267  503F 00           .db 0
18268  5040 00           .db 0
18269  5041 00           .db 0
18270  5042 00           .db 0
18271  5043 00           .db 0
18272  5044 00           .db 0
18273  5045 00           .db 0
18274  5046 80           .db 128
18275  5047 00           .db 0
18276  5048 80           .db 128
18277  5049 00           .db 0
18278  504A 80           .db 128
18279  504B 00           .db 0
18280  504C 00           .db 0
18281  504D 00           .db 0
18282  504E 00           .db 0
18283  504F 80           .db 128
18284  5050 26           .db 38
18285  5051 00           .db 0
18286  5052 00           .db 0
18287  5053 00           .db 0
18288  5054 00           .db 0
18289  5055 00           .db 0
18290  5056 00           .db 0
18291  5057 00           .db 0
18292  5058 80           .db 128
18293  5059 00           .db 0
18294  505A 80           .db 128
18295  505B 00           .db 0
18296  505C 80           .db 128
18297  505D 00           .db 0
18298  505E 00           .db 0
18299  505F 00           .db 0
18300  5060 80           .db 128
18301  5061 20           .db 32
18302  5062 3E           .db 62
18303  5063 01           .db 1
18304  5064 00           .db 0
18305  5065 00           .db 0
18306  5066 00           .db 0
18307  5067 00           .db 0
18308  5068 00           .db 0
18309  5069 00           .db 0
18310  506A 80           .db 128
18311  506B 00           .db 0
18312  506C 80           .db 128
18313  506D 00           .db 0
18314  506E 80           .db 128
18315  506F 00           .db 0
18316  5070 00           .db 0
18317  5071 00           .db 0
18318  5072 80           .db 128
18319  5073 36           .db 54
18320  5074 01           .db 1
18321  5075 00           .db 0
18322  5076 00           .db 0
18323  5077 00           .db 0
18324  5078 00           .db 0
18325  5079 00           .db 0
18326  507A 00           .db 0
18327  507B 00           .db 0
18328  507C 80           .db 128
18329  507D 00           .db 0
18330  507E 80           .db 128
18331  507F 00           .db 0
18332  5080 80           .db 128
18333  5081 00           .db 0
18334  5082 00           .db 0
18335  5083 88           .db 136
18336  5084 1C           .db 28
18337  5085 27           .db 39
18338  5086 07           .db 7
18339  5087 39           .db 57
18340  5088 00           .db 0
18341  5089 00           .db 0
18342  508A 00           .db 0
18343  508B 00           .db 0
18344  508C 00           .db 0
18345  508D 00           .db 0
18346  508E 80           .db 128
18347  508F 00           .db 0
18348  5090 80           .db 128
18349  5091 00           .db 0
18350  5092 88           .db 136
18351  5093 20           .db 32
18352  5094 88           .db 136
18353  5095 3E           .db 62
18354  5096 2D           .db 45
18355  5097 01           .db 1
18356  5098 26           .db 38
18357  5099 36           .db 54
18358  509A 3B           .db 59
18359  509B 00           .db 0
18360  509C 00           .db 0
18361  509D 00           .db 0
18362  509E 00           .db 0
18363  509F 00           .db 0
18364  50A0 80           .db 128
18365  50A1 00           .db 0
18366  50A2 80           .db 128
18367  50A3 00           .db 0
18368  50A4 88           .db 136
18369  50A5 3E           .db 62
18370  50A6 88           .db 136
18371  50A7 3F           .db 63
18372  50A8 39           .db 57
18373  50A9 36           .db 54
18374  50AA 09           .db 9
18375  50AB 3E           .db 62
18376  50AC 3F           .db 63
18377  50AD 19           .db 25
18378  50AE 00           .db 0
18379  50AF 00           .db 0
18380  50B0 00           .db 0
18381  50B1 00           .db 0
18382  50B2 80           .db 128
18383  50B3 00           .db 0
18384  50B4 88           .db 136
18385  50B5 24           .db 36
18386  50B6 88           .db 136
18387  50B7 3F           .db 63
18388  50B8 88           .db 136
18389  50B9 3F           .db 63
18390  50BA 1B           .db 27
18391  50BB 3F           .db 63
18392  50BC 1A           .db 26
18393  50BD 3F           .db 63
18394  50BE 3F           .db 63
18395  50BF 3F           .db 63
18396  50C0 08           .db 8
18397  50C1 00           .db 0
18398  50C2 00           .db 0
18399  50C3 00           .db 0
18400  50C4 80           .db 128
18401  50C5 00           .db 0
18402  50C6 81           .db 129
18403  50C7 3A           .db 58
18404  50C8 88           .db 136
18405  50C9 07           .db 7
18406  50CA 88           .db 136
18407  50CB 3F           .db 63
18408  50CC 3F           .db 63
18409  50CD 38           .db 56
18410  50CE 3C           .db 60
18411  50CF 3F           .db 63
18412  50D0 3F           .db 63
18413  50D1 3F           .db 63
18414  50D2 3B           .db 59
18415  50D3 00           .db 0
18416  50D4 00           .db 0
18417  50D5 00           .db 0
18418  50D6 81           .db 129
18419  50D7 20           .db 32
18420  50D8 81           .db 129
18421  50D9 3F           .db 63
18422  50DA 81           .db 129
18423  50DB 3F           .db 63
18424  50DC 38           .db 56
18425  50DD 88           .db 136
18426  50DE 23           .db 35
18427  50DF 38           .db 56
18428  50E0 38           .db 56
18429  50E1 17           .db 23
18430  50E2 27           .db 39
18431  50E3 3F           .db 63
18432  50E4 37           .db 55
18433  50E5 00           .db 0
18434  50E6 00           .db 0
18435  50E7 00           .db 0
18436  50E8 81           .db 129
18437  50E9 34           .db 52
18438  50EA 81           .db 129
18439  50EB 3F           .db 63
18440  50EC 81           .db 129
18441  50ED 3F           .db 63
18442  50EE 3F           .db 63
18443  50EF 39           .db 57
18444  50F0 38           .db 56
18445  50F1 38           .db 56
18446  50F2 88           .db 136
18447  50F3 21           .db 33
18448  50F4 19           .db 25
18449  50F5 03           .db 3
18450  50F6 3E           .db 62
18451  50F7 00           .db 0
18452  50F8 00           .db 0
18453  50F9 00           .db 0
18454  50FA 81           .db 129
18455  50FB 36           .db 54
18456  50FC 1F           .db 31
18457  50FD 88           .db 136
18458  50FE 38           .db 56
18459  50FF 81           .db 129
18460  5100 07           .db 7
18461  5101 07           .db 7
18462  5102 07           .db 7
18463  5103 88           .db 136
18464  5104 38           .db 56
18465  5105 1C           .db 28
18466  5106 31           .db 49
18467  5107 2C           .db 44
18468  5108 0B           .db 11
18469  5109 00           .db 0
18470  510A 00           .db 0
18471  510B 00           .db 0
18472  510C 81           .db 129
18473  510D 3F           .db 63
18474  510E 81           .db 129
18475  510F 3B           .db 59
18476  5110 88           .db 136
18477  5111 37           .db 55
18478  5112 88           .db 136
18479  5113 19           .db 25
18480  5114 37           .db 55
18481  5115 3F           .db 63
18482  5116 3F           .db 63
18483  5117 0B           .db 11
18484  5118 3F           .db 63
18485  5119 01           .db 1
18486  511A 00           .db 0
18487  511B 00           .db 0
18488  511C 00           .db 0
18489  511D 00           .db 0
18490  511E 81           .db 129
18491  511F 3F           .db 63
18492  5120 81           .db 129
18493  5121 0F           .db 15
18494  5122 88           .db 136
18495  5123 04           .db 4
18496  5124 88           .db 136
18497  5125 03           .db 3
18498  5126 26           .db 38
18499  5127 3F           .db 63
18500  5128 3F           .db 63
18501  5129 05           .db 5
18502  512A 03           .db 3
18503  512B 00           .db 0
18504  512C 00           .db 0
18505  512D 00           .db 0
18506  512E 00           .db 0
18507  512F 00           .db 0
18508  5130 81           .db 129
18509  5131 1F           .db 31
18510  5132 81           .db 129
18511  5133 00           .db 0
18512  5134 81           .db 129
18513  5135 00           .db 0
18514  5136 88           .db 136
18515  5137 36           .db 54
18516  5138 09           .db 9
18517  5139 00           .db 0
18518  513A 00           .db 0
18519  513B 3E           .db 62
18520  513C 01           .db 1
18521  513D 00           .db 0
18522  513E 00           .db 0
18523  513F 00           .db 0
18524  5140 00           .db 0
18525  5141 00           .db 0
18526  5142 80           .db 128
18527  5143 00           .db 0
18528  5144 80           .db 128
18529  5145 08           .db 8
18530  5146 80           .db 128
18531  5147 00           .db 0
18532  5148 80           .db 128
18533  5149 00           .db 0
18534  514A 00           .db 0
18535  514B 00           .db 0
18536  514C 00           .db 0
18537  514D 00           .db 0
18538  514E 00           .db 0
18539  514F 00           .db 0
18540  5150 10           .db 16
18541  5151 00           .db 0
18542  5152 00           .db 0
18543  5153 00           .db 0
18544  5154 80           .db 128
18545  5155 00           .db 0
18546  5156 80           .db 128
18547  5157 3F           .db 63
18548  5158 80           .db 128
18549  5159 3F           .db 63
18550  515A 80           .db 128
18551  515B 38           .db 56
18552  515C 38           .db 56
18553  515D 38           .db 56
18554  515E 38           .db 56
18555  515F 38           .db 56
18556  5160 3C           .db 60
18557  5161 3F           .db 63
18558  5162 1B           .db 27
18559  5163 00           .db 0
18560  5164 00           .db 0
18561  5165 00           .db 0
18562  5166             
18563  5166             rightSprite:
18564  5166 80           .db 128
18565  5167 00           .db 0
18566  5168 80           .db 128
18567  5169 00           .db 0
18568  516A 80           .db 128
18569  516B 00           .db 0
18570  516C 00           .db 0
18571  516D 00           .db 0
18572  516E 00           .db 0
18573  516F 00           .db 0
18574  5170 00           .db 0
18575  5171 00           .db 0
18576  5172 00           .db 0
18577  5173 00           .db 0
18578  5174 00           .db 0
18579  5175 00           .db 0
18580  5176 00           .db 0
18581  5177 80           .db 128
18582  5178 00           .db 0
18583  5179 80           .db 128
18584  517A 00           .db 0
18585  517B 00           .db 0
18586  517C 00           .db 0
18587  517D 00           .db 0
18588  517E 00           .db 0
18589  517F 00           .db 0
18590  5180 8C           .db 140
18591  5181 20           .db 32
18592  5182 00           .db 0
18593  5183 00           .db 0
18594  5184 00           .db 0
18595  5185 00           .db 0
18596  5186 00           .db 0
18597  5187 00           .db 0
18598  5188 80           .db 128
18599  5189 00           .db 0
18600  518A 80           .db 128
18601  518B 00           .db 0
18602  518C 00           .db 0
18603  518D 00           .db 0
18604  518E 00           .db 0
18605  518F 00           .db 0
18606  5190 00           .db 0
18607  5191 8C           .db 140
18608  5192 26           .db 38
18609  5193 01           .db 1
18610  5194 00           .db 0
18611  5195 00           .db 0
18612  5196 00           .db 0
18613  5197 00           .db 0
18614  5198 00           .db 0
18615  5199 80           .db 128
18616  519A 00           .db 0
18617  519B 80           .db 128
18618  519C 00           .db 0
18619  519D 00           .db 0
18620  519E 00           .db 0
18621  519F 00           .db 0
18622  51A0 84           .db 132
18623  51A1 20           .db 32
18624  51A2 3F           .db 63
18625  51A3 28           .db 40
18626  51A4 34           .db 52
18627  51A5 3B           .db 59
18628  51A6 00           .db 0
18629  51A7 00           .db 0
18630  51A8 00           .db 0
18631  51A9 00           .db 0
18632  51AA 80           .db 128
18633  51AB 00           .db 0
18634  51AC 80           .db 128
18635  51AD 00           .db 0
18636  51AE 00           .db 0
18637  51AF 00           .db 0
18638  51B0 00           .db 0
18639  51B1 84           .db 132
18640  51B2 36           .db 54
18641  51B3 2F           .db 47
18642  51B4 2D           .db 45
18643  51B5 36           .db 54
18644  51B6 37           .db 55
18645  51B7 09           .db 9
18646  51B8 00           .db 0
18647  51B9 00           .db 0
18648  51BA 00           .db 0
18649  51BB 80           .db 128
18650  51BC 00           .db 0
18651  51BD 80           .db 128
18652  51BE 00           .db 0
18653  51BF 00           .db 0
18654  51C0 00           .db 0
18655  51C1 00           .db 0
18656  51C2 84           .db 132
18657  51C3 24           .db 36
18658  51C4 28           .db 40
18659  51C5 2D           .db 45
18660  51C6 32           .db 50
18661  51C7 34           .db 52
18662  51C8 00           .db 0
18663  51C9 00           .db 0
18664  51CA 00           .db 0
18665  51CB 00           .db 0
18666  51CC 80           .db 128
18667  51CD 00           .db 0
18668  51CE 80           .db 128
18669  51CF 20           .db 32
18670  51D0 09           .db 9
18671  51D1 00           .db 0
18672  51D2 00           .db 0
18673  51D3 00           .db 0
18674  51D4 84           .db 132
18675  51D5 07           .db 7
18676  51D6 05           .db 5
18677  51D7 06           .db 6
18678  51D8 03           .db 3
18679  51D9 00           .db 0
18680  51DA 00           .db 0
18681  51DB 00           .db 0
18682  51DC 00           .db 0
18683  51DD 80           .db 128
18684  51DE 00           .db 0
18685  51DF 80           .db 128
18686  51E0 24           .db 36
18687  51E1 09           .db 9
18688  51E2 00           .db 0
18689  51E3 00           .db 0
18690  51E4 00           .db 0
18691  51E5 84           .db 132
18692  51E6 26           .db 38
18693  51E7 3F           .db 63
18694  51E8 3F           .db 63
18695  51E9 0B           .db 11
18696  51EA 00           .db 0
18697  51EB 00           .db 0
18698  51EC 00           .db 0
18699  51ED 00           .db 0
18700  51EE 80           .db 128
18701  51EF 00           .db 0
18702  51F0 80           .db 128
18703  51F1 24           .db 36
18704  51F2 09           .db 9
18705  51F3 00           .db 0
18706  51F4 00           .db 0
18707  51F5 00           .db 0
18708  51F6 88           .db 136
18709  51F7 20           .db 32
18710  51F8 3F           .db 63
18711  51F9 3F           .db 63
18712  51FA 08           .db 8
18713  51FB 00           .db 0
18714  51FC 00           .db 0
18715  51FD 00           .db 0
18716  51FE 00           .db 0
18717  51FF 80           .db 128
18718  5200 00           .db 0
18719  5201 80           .db 128
18720  5202 24           .db 36
18721  5203 09           .db 9
18722  5204 00           .db 0
18723  5205 00           .db 0
18724  5206 88           .db 136
18725  5207 30           .db 48
18726  5208 1F           .db 31
18727  5209 18           .db 24
18728  520A 21           .db 33
18729  520B 2E           .db 46
18730  520C 18           .db 24
18731  520D 00           .db 0
18732  520E 00           .db 0
18733  520F 00           .db 0
18734  5210 80           .db 128
18735  5211 00           .db 0
18736  5212 80           .db 128
18737  5213 24           .db 36
18738  5214 09           .db 9
18739  5215 00           .db 0
18740  5216 88           .db 136
18741  5217 20           .db 32
18742  5218 3F           .db 63
18743  5219 1B           .db 27
18744  521A 21           .db 33
18745  521B 18           .db 24
18746  521C 25           .db 37
18747  521D 3F           .db 63
18748  521E 19           .db 25
18749  521F 00           .db 0
18750  5220 00           .db 0
18751  5221 80           .db 128
18752  5222 00           .db 0
18753  5223 80           .db 128
18754  5224 3D           .db 61
18755  5225 3D           .db 61
18756  5226 00           .db 0
18757  5227 88           .db 136
18758  5228 36           .db 54
18759  5229 3F           .db 63
18760  522A 3F           .db 63
18761  522B 14           .db 20
18762  522C 3B           .db 59
18763  522D 37           .db 55
18764  522E 3F           .db 63
18765  522F 3F           .db 63
18766  5230 08           .db 8
18767  5231 00           .db 0
18768  5232 80           .db 128
18769  5233 00           .db 0
18770  5234 88           .db 136
18771  5235 20           .db 32
18772  5236 88           .db 136
18773  5237 18           .db 24
18774  5238 20           .db 32
18775  5239 3F           .db 63
18776  523A 3F           .db 63
18777  523B 3F           .db 63
18778  523C 0E           .db 14
18779  523D 07           .db 7
18780  523E 3E           .db 62
18781  523F 3F           .db 63
18782  5240 3F           .db 63
18783  5241 01           .db 1
18784  5242 00           .db 0
18785  5243 80           .db 128
18786  5244 00           .db 0
18787  5245 88           .db 136
18788  5246 36           .db 54
18789  5247 3F           .db 63
18790  5248 34           .db 52
18791  5249 3F           .db 63
18792  524A 07           .db 7
18793  524B 3B           .db 59
18794  524C 07           .db 7
18795  524D 07           .db 7
18796  524E 35           .db 53
18797  524F 1F           .db 31
18798  5250 85           .db 133
18799  5251 38           .db 56
18800  5252 3F           .db 63
18801  5253 00           .db 0
18802  5254 80           .db 128
18803  5255 00           .db 0
18804  5256 88           .db 136
18805  5257 04           .db 4
18806  5258 37           .db 55
18807  5259 1F           .db 31
18808  525A 0B           .db 11
18809  525B 3A           .db 58
18810  525C 06           .db 6
18811  525D 07           .db 7
18812  525E 07           .db 7
18813  525F 07           .db 7
18814  5260 85           .db 133
18815  5261 3C           .db 60
18816  5262 3F           .db 63
18817  5263 3F           .db 63
18818  5264 09           .db 9
18819  5265 00           .db 0
18820  5266 80           .db 128
18821  5267 06           .db 6
18822  5268 03           .db 3
18823  5269 00           .db 0
18824  526A 88           .db 136
18825  526B 11           .db 17
18826  526C 17           .db 23
18827  526D 85           .db 133
18828  526E 04           .db 4
18829  526F 07           .db 7
18830  5270 3F           .db 63
18831  5271 3F           .db 63
18832  5272 3F           .db 63
18833  5273 3F           .db 63
18834  5274 3F           .db 63
18835  5275 1B           .db 27
18836  5276 80           .db 128
18837  5277 00           .db 0
18838  5278 00           .db 0
18839  5279 00           .db 0
18840  527A 00           .db 0
18841  527B 88           .db 136
18842  527C 04           .db 4
18843  527D 38           .db 56
18844  527E 3F           .db 63
18845  527F 3F           .db 63
18846  5280 38           .db 56
18847  5281 38           .db 56
18848  5282 38           .db 56
18849  5283 85           .db 133
18850  5284 27           .db 39
18851  5285 3F           .db 63
18852  5286 1B           .db 27
18853  5287 80           .db 128
18854  5288 00           .db 0
18855  5289 00           .db 0
18856  528A 00           .db 0
18857  528B 00           .db 0
18858  528C 00           .db 0
18859  528D 88           .db 136
18860  528E 04           .db 4
18861  528F 3F           .db 63
18862  5290 3F           .db 63
18863  5291 3F           .db 63
18864  5292 3F           .db 63
18865  5293 03           .db 3
18866  5294 00           .db 0
18867  5295 85           .db 133
18868  5296 27           .db 39
18869  5297 3B           .db 59
18870  5298 80           .db 128
18871  5299 00           .db 0
18872  529A 00           .db 0
18873  529B 00           .db 0
18874  529C 00           .db 0
18875  529D 88           .db 136
18876  529E 30           .db 48
18877  529F 00           .db 0
18878  52A0 24           .db 36
18879  52A1 09           .db 9
18880  52A2 36           .db 54
18881  52A3 00           .db 0
18882  52A4 20           .db 32
18883  52A5 08           .db 8
18884  52A6 00           .db 0
18885  52A7 85           .db 133
18886  52A8 37           .db 55
18887  52A9 80           .db 128
18888  52AA 00           .db 0
18889  52AB 00           .db 0
18890  52AC 00           .db 0
18891  52AD 88           .db 136
18892  52AE 20           .db 32
18893  52AF 27           .db 39
18894  52B0 39           .db 57
18895  52B1 3E           .db 62
18896  52B2 1B           .db 27
18897  52B3 3F           .db 63
18898  52B4 39           .db 57
18899  52B5 3E           .db 62
18900  52B6 23           .db 35
18901  52B7 00           .db 0
18902  52B8 85           .db 133
18903  52B9 26           .db 38
18904  52BA 80           .db 128
18905  52BB 00           .db 0
18906  52BC 80           .db 128
18907  52BD 00           .db 0
18908  52BE 00           .db 0
18909  52BF 88           .db 136
18910  52C0 04           .db 4
18911  52C1 3F           .db 63
18912  52C2 3F           .db 63
18913  52C3 3F           .db 63
18914  52C4 0B           .db 11
18915  52C5 37           .db 55
18916  52C6 3F           .db 63
18917  52C7 3F           .db 63
18918  52C8 1F           .db 31
18919  52C9 00           .db 0
18920  52CA 00           .db 0
18921  52CB 80           .db 128
18922  52CC 00           .db 0
18923  52CD 80           .db 128
18924  52CE 00           .db 0
18925  52CF 00           .db 0
18926  52D0 80           .db 128
18927  52D1 08           .db 8
18928  52D2 00           .db 0
18929  52D3 00           .db 0
18930  52D4 00           .db 0
18931  52D5 00           .db 0
18932  52D6 00           .db 0
18933  52D7 00           .db 0
18934  52D8 00           .db 0
18935  52D9 00           .db 0
18936  52DA 10           .db 16
18937  52DB 00           .db 0
18938  52DC 80           .db 128
18939  52DD 00           .db 0
18940  52DE 80           .db 128
18941  52DF 00           .db 0
18942  52E0 00           .db 0
18943  52E1 80           .db 128
18944  52E2 17           .db 23
18945  52E3 3F           .db 63
18946  52E4 38           .db 56
18947  52E5 38           .db 56
18948  52E6 38           .db 56
18949  52E7 38           .db 56
18950  52E8 38           .db 56
18951  52E9 38           .db 56
18952  52EA 1F           .db 31
18953  52EB 0B           .db 11
18954  52EC 00           .db 0
18955  52ED 80           .db 128
18956  52EE 00           .db 0
18957  52EF 80           .db 128
18958  52F0 00           .db 0
18959  52F1 00           .db 0
18960  52F2 80           .db 128
18961  52F3 1D           .db 29
18962  52F4 3A           .db 58
18963  52F5 3F           .db 63
18964  52F6 3F           .db 63
18965  52F7 3F           .db 63
18966  52F8 3F           .db 63
18967  52F9 3F           .db 63
18968  52FA 3B           .db 59
18969  52FB 1D           .db 29
18970  52FC 1A           .db 26
18971  52FD 00           .db 0
18972  52FE             
18973  52FE             fontSpace:
18974  52FE 00           .db 0
18975  52FF 00           .db 0
18976  5300 00           .db 0
18977  5301 00           .db 0
18978  5302 00           .db 0
18979  5303 00           .db 0
18980  5304             
18981  5304              .ds 10
18982  530E             font:
18983  530E 0E           .db 14
18984  530F 11           .db 17
18985  5310 09           .db 9
18986  5311 12           .db 18
18987  5312 31           .db 49
18988  5313 0A           .db 10
18989  5314 34           .db 52
18990  5315 00           .db 0
18991  5316 25           .db 37
18992  5317 00           .db 0
18993  5318 3C           .db 60
18994  5319 18           .db 24
18995  531A 0E           .db 14
18996  531B 11           .db 17
18997  531C 30           .db 48
18998  531D 0A           .db 10
18999  531E 39           .db 57
19000  531F 18           .db 24
19001  5320 07           .db 7
19002  5321 11           .db 17
19003  5322 06           .db 6
19004  5323 11           .db 17
19005  5324 38           .db 56
19006  5325 0A           .db 10
19007  5326 09           .db 9
19008  5327 12           .db 18
19009  5328 07           .db 7
19010  5329 13           .db 19
19011  532A 00           .db 0
19012  532B 12           .db 18
19013  532C 0F           .db 15
19014  532D 03           .db 3
19015  532E 07           .db 7
19016  532F 11           .db 17
19017  5330 31           .db 49
19018  5331 0A           .db 10
19019  5332 0E           .db 14
19020  5333 01           .db 1
19021  5334 0F           .db 15
19022  5335 11           .db 17
19023  5336 31           .db 49
19024  5337 0A           .db 10
19025  5338 07           .db 7
19026  5339 13           .db 19
19027  533A 00           .db 0
19028  533B 09           .db 9
19029  533C 24           .db 36
19030  533D 00           .db 0
19031  533E 0E           .db 14
19032  533F 11           .db 17
19033  5340 0E           .db 14
19034  5341 11           .db 17
19035  5342 31           .db 49
19036  5343 0A           .db 10
19037  5344 0E           .db 14
19038  5345 11           .db 17
19039  5346 31           .db 49
19040  5347 1A           .db 26
19041  5348 30           .db 48
19042  5349 0A           .db 10
19043  534A             
19044  534A             font2:
19045  534A 29           .db 41
19046  534B 11           .db 17
19047  534C 2F           .db 47
19048  534D 12           .db 18
19049  534E 0D           .db 13
19050  534F 0A           .db 10
19051  5350 0E           .db 14
19052  5351 11           .db 17
19053  5352 39           .db 57
19054  5353 1A           .db 26
19055  5354 09           .db 9
19056  5355 12           .db 18
19057  5356 0F           .db 15
19058  5357 03           .db 3
19059  5358 0F           .db 15
19060  5359 11           .db 17
19061  535A 39           .db 57
19062  535B 0A           .db 10
19063  535C 09           .db 9
19064  535D 12           .db 18
19065  535E 09           .db 9
19066  535F 12           .db 18
19067  5360 39           .db 57
19068  5361 3A           .db 58
19069  5362 14           .db 20
19070  5363 11           .db 17
19071  5364 12           .db 18
19072  5365 12           .db 18
19073  5366 3A           .db 58
19074  5367 3A           .db 58
19075  5368 0F           .db 15
19076  5369 03           .db 3
19077  536A 0F           .db 15
19078  536B 01           .db 1
19079  536C 39           .db 57
19080  536D 18           .db 24
19081  536E 2E           .db 46
19082  536F 11           .db 17
19083  5370 35           .db 53
19084  5371 0A           .db 10
19085  5372 24           .db 36
19086  5373 00           .db 0
19087  5374 0F           .db 15
19088  5375 03           .db 3
19089  5376 09           .db 9
19090  5377 00           .db 0
19091  5378 09           .db 9
19092  5379 00           .db 0
19093  537A 11           .db 17
19094  537B 0A           .db 10
19095  537C 14           .db 20
19096  537D 08           .db 8
19097  537E 09           .db 9
19098  537F 12           .db 18
19099  5380 09           .db 9
19100  5381 12           .db 18
19101  5382 29           .db 41
19102  5383 13           .db 19
19103  5384 0B           .db 11
19104  5385 12           .db 18
19105  5386 0D           .db 13
19106  5387 12           .db 18
19107  5388 29           .db 41
19108  5389 13           .db 19
19109  538A 0B           .db 11
19110  538B 12           .db 18
19111  538C 09           .db 9
19112  538D 0A           .db 10
19113  538E 0F           .db 15
19114  538F 08           .db 8
19115  5390 09           .db 9
19116  5391 12           .db 18
19117  5392 14           .db 20
19118  5393 13           .db 19
19119  5394 09           .db 9
19120  5395 12           .db 18
19121  5396 09           .db 9
19122  5397 12           .db 18
19123  5398 19           .db 25
19124  5399 1A           .db 26
19125  539A 0D           .db 13
19126  539B 12           .db 18
19127  539C 09           .db 9
19128  539D 12           .db 18
19129  539E 09           .db 9
19130  539F 12           .db 18
19131  53A0 0F           .db 15
19132  53A1 13           .db 19
19133  53A2 09           .db 9
19134  53A3 12           .db 18
19135  53A4 0E           .db 14
19136  53A5 11           .db 17
19137  53A6 09           .db 9
19138  53A7 12           .db 18
19139  53A8 31           .db 49
19140  53A9 0A           .db 10
19141  53AA 0F           .db 15
19142  53AB 13           .db 19
19143  53AC 09           .db 9
19144  53AD 12           .db 18
19145  53AE 09           .db 9
19146  53AF 12           .db 18
19147  53B0 0E           .db 14
19148  53B1 13           .db 19
19149  53B2 31           .db 49
19150  53B3 1A           .db 26
19151  53B4 0A           .db 10
19152  53B5 12           .db 18
19153  53B6 0F           .db 15
19154  53B7 11           .db 17
19155  53B8 39           .db 57
19156  53B9 0A           .db 10
19157  53BA 09           .db 9
19158  53BB 00           .db 0
19159  53BC 0E           .db 14
19160  53BD 11           .db 17
19161  53BE 09           .db 9
19162  53BF 00           .db 0
19163  53C0 31           .db 49
19164  53C1 0A           .db 10
19165  53C2 27           .db 39
19166  53C3 03           .db 3
19167  53C4 24           .db 36
19168  53C5 00           .db 0
19169  53C6 24           .db 36
19170  53C7 00           .db 0
19171  53C8 09           .db 9
19172  53C9 12           .db 18
19173  53CA 31           .db 49
19174  53CB 1A           .db 26
19175  53CC 30           .db 48
19176  53CD 0A           .db 10
19177  53CE 2D           .db 45
19178  53CF 12           .db 18
19179  53D0 2E           .db 46
19180  53D1 11           .db 17
19181  53D2 2D           .db 45
19182  53D3 12           .db 18
19183  53D4 0F           .db 15
19184  53D5 11           .db 17
19185  53D6 0F           .db 15
19186  53D7 11           .db 17
19187  53D8 39           .db 57
19188  53D9 0A           .db 10
19189  53DA 09           .db 9
19190  53DB 00           .db 0
19191  53DC 0F           .db 15
19192  53DD 11           .db 17
19193  53DE 39           .db 57
19194  53DF 0A           .db 10
19195  53E0 09           .db 9
19196  53E1 12           .db 18
19197  53E2 2B           .db 43
19198  53E3 12           .db 18
19199  53E4 1D           .db 29
19200  53E5 12           .db 18
19201  53E6 0E           .db 14
19202  53E7 11           .db 17
19203  53E8 00           .db 0
19204  53E9 11           .db 17
19205  53EA 31           .db 49
19206  53EB 0A           .db 10
19207  53EC 29           .db 41
19208  53ED 12           .db 18
19209  53EE 2D           .db 45
19210  53EF 12           .db 18
19211  53F0 3D           .db 61
19212  53F1 1A           .db 26
19213  53F2 0E           .db 14
19214  53F3 11           .db 17
19215  53F4 04           .db 4
19216  53F5 13           .db 19
19217  53F6 31           .db 49
19218  53F7 0A           .db 10
19219  53F8 29           .db 41
19220  53F9 12           .db 18
19221  53FA 2D           .db 45
19222  53FB 12           .db 18
19223  53FC 3D           .db 61
19224  53FD 3A           .db 58
19225  53FE 0E           .db 14
19226  53FF 11           .db 17
19227  5400 00           .db 0
19228  5401 11           .db 17
19229  5402 31           .db 49
19230  5403 0A           .db 10
19231  5404 09           .db 9
19232  5405 12           .db 18
19233  5406 39           .db 57
19234  5407 1A           .db 26
19235  5408 00           .db 0
19236  5409 12           .db 18
19237  540A             
19238  540A             fontEng:
19239  540A 0E           .db 14
19240  540B 11           .db 17
19241  540C 39           .db 57
19242  540D 1A           .db 26
19243  540E 09           .db 9
19244  540F 12           .db 18
19245  5410 0F           .db 15
19246  5411 11           .db 17
19247  5412 0F           .db 15
19248  5413 11           .db 17
19249  5414 39           .db 57
19250  5415 0A           .db 10
19251  5416 0E           .db 14
19252  5417 11           .db 17
19253  5418 09           .db 9
19254  5419 00           .db 0
19255  541A 31           .db 49
19256  541B 0A           .db 10
19257  541C 0F           .db 15
19258  541D 11           .db 17
19259  541E 09           .db 9
19260  541F 12           .db 18
19261  5420 39           .db 57
19262  5421 0A           .db 10
19263  5422 0F           .db 15
19264  5423 03           .db 3
19265  5424 0F           .db 15
19266  5425 01           .db 1
19267  5426 39           .db 57
19268  5427 18           .db 24
19269  5428 0F           .db 15
19270  5429 03           .db 3
19271  542A 0F           .db 15
19272  542B 01           .db 1
19273  542C 09           .db 9
19274  542D 00           .db 0
19275  542E 0E           .db 14
19276  542F 11           .db 17
19277  5430 29           .db 41
19278  5431 18           .db 24
19279  5432 31           .db 49
19280  5433 0A           .db 10
19281  5434 09           .db 9
19282  5435 12           .db 18
19283  5436 0F           .db 15
19284  5437 13           .db 19
19285  5438 09           .db 9
19286  5439 12           .db 18
19287  543A 26           .db 38
19288  543B 01           .db 1
19289  543C 24           .db 36
19290  543D 00           .db 0
19291  543E 34           .db 52
19292  543F 08           .db 8
19293  5440 04           .db 4
19294  5441 13           .db 19
19295  5442 00           .db 0
19296  5443 12           .db 18
19297  5444 31           .db 49
19298  5445 0A           .db 10
19299  5446 09           .db 9
19300  5447 0A           .db 10
19301  5448 0F           .db 15
19302  5449 08           .db 8
19303  544A 09           .db 9
19304  544B 12           .db 18
19305  544C 09           .db 9
19306  544D 00           .db 0
19307  544E 09           .db 9
19308  544F 00           .db 0
19309  5450 39           .db 57
19310  5451 18           .db 24
19311  5452 19           .db 25
19312  5453 1A           .db 26
19313  5454 0D           .db 13
19314  5455 12           .db 18
19315  5456 09           .db 9
19316  5457 12           .db 18
19317  5458 19           .db 25
19318  5459 12           .db 18
19319  545A 0D           .db 13
19320  545B 1A           .db 26
19321  545C 09           .db 9
19322  545D 12           .db 18
19323  545E 0E           .db 14
19324  545F 11           .db 17
19325  5460 09           .db 9
19326  5461 12           .db 18
19327  5462 31           .db 49
19328  5463 0A           .db 10
19329  5464 0F           .db 15
19330  5465 11           .db 17
19331  5466 39           .db 57
19332  5467 0A           .db 10
19333  5468 09           .db 9
19334  5469 00           .db 0
19335  546A 0E           .db 14
19336  546B 11           .db 17
19337  546C 29           .db 41
19338  546D 12           .db 18
19339  546E 31           .db 49
19340  546F 0B           .db 11
19341  5470 0F           .db 15
19342  5471 11           .db 17
19343  5472 39           .db 57
19344  5473 0A           .db 10
19345  5474 09           .db 9
19346  5475 11           .db 17
19347  5476 0E           .db 14
19348  5477 01           .db 1
19349  5478 06           .db 6
19350  5479 11           .db 17
19351  547A 30           .db 48
19352  547B 0A           .db 10
19353  547C 27           .db 39
19354  547D 03           .db 3
19355  547E 24           .db 36
19356  547F 00           .db 0
19357  5480 24           .db 36
19358  5481 00           .db 0
19359  5482 09           .db 9
19360  5483 12           .db 18
19361  5484 09           .db 9
19362  5485 12           .db 18
19363  5486 31           .db 49
19364  5487 0A           .db 10
19365  5488 09           .db 9
19366  5489 12           .db 18
19367  548A 12           .db 18
19368  548B 09           .db 9
19369  548C 24           .db 36
19370  548D 00           .db 0
19371  548E 09           .db 9
19372  548F 12           .db 18
19373  5490 2D           .db 45
19374  5491 12           .db 18
19375  5492 12           .db 18
19376  5493 09           .db 9
19377  5494 11           .db 17
19378  5495 0A           .db 10
19379  5496 14           .db 20
19380  5497 08           .db 8
19381  5498 09           .db 9
19382  5499 12           .db 18
19383  549A 09           .db 9
19384  549B 12           .db 18
19385  549C 22           .db 34
19386  549D 01           .db 1
19387  549E 24           .db 36
19388  549F 00           .db 0
19389  54A0 07           .db 7
19390  54A1 0B           .db 11
19391  54A2 14           .db 20
19392  54A3 00           .db 0
19393  54A4 39           .db 57
19394  54A5 18           .db 24
19395  54A6             
19396  54A6             colors:
19397  54A6 81           .db 129
19398  54A7 84           .db 132
19399  54A8 85           .db 133
19400  54A9 88           .db 136
19401  54AA 89           .db 137
19402  54AB 8C           .db 140
19403  54AC 80           .db 128
19404  54AD 8D           .db 141
19405  54AE             
19406  54AE             drawChar_1:
19407  54AE              .ds 2
19408  54B0             drawChar_2:
19409  54B0              .ds 1
19410  54B1             drawText_1:
19411  54B1              .ds 2
19412  54B3             drawText_2:
19413  54B3              .ds 2
19414  54B5             drawText_c:
19415  54B5              .ds 1
19416  54B6             drawSprite0_1:
19417  54B6              .ds 2
19418  54B8             drawSprite0_2:
19419  54B8              .ds 1
19420  54B9             drawSprite0_3:
19421  54B9              .ds 2
19422  54BB             drawSprite_1:
19423  54BB              .ds 1
19424  54BC             drawSprite_2:
19425  54BC              .ds 1
19426  54BD             drawSprite_3:
19427  54BD              .ds 1
19428  54BE             drawSprite_4:
19429  54BE              .ds 2
19430  54C0             fillScreen_1:
19431  54C0              .ds 2
19432  54C2             fillScreen_i:
19433  54C2              .ds 1
19434  54C3             fillScreen_d:
19435  54C3              .ds 2
19436  54C5             i2s_1:
19437  54C5              .ds 2
19438  54C7             i2s_2:
19439  54C7              .ds 2
19440  54C9             i2s_i:
19441  54C9              .ds 1
19442  54CA             drawNumber_1:
19443  54CA              .ds 2
19444  54CC             drawNumber_2:
19445  54CC              .ds 2
19446  54CE             drawNumber_buf:
19447  54CE              .ds 16
19448  54DE             playerSpriteTop:
19449  54DE              .ds 1
19450  54DF             kingSprite:
19451  54DF              .ds 1
19452  54E0             superDraw_1:
19453  54E0              .ds 2
19454  54E2             superDraw_2:
19455  54E2              .ds 1
19456  54E3             superDraw_3:
19457  54E3              .ds 1
19458  54E4             superDraw_4:
19459  54E4              .ds 1
19460  54E5             superDraw_5:
19461  54E5              .ds 2
19462  54E7             superDraw_6:
19463  54E7              .ds 1
19464  54E8             superDraw_7:
19465  54E8              .ds 1
19466  54E9             drawScore_1:
19467  54E9              .ds 2
19468  54EB             drawScore_n:
19469  54EB              .ds 1
19470  54EC             redrawNewBall_1:
19471  54EC              .ds 2
19472  54EE             redrawNewBall_2:
19473  54EE              .ds 1
19474  54EF             redrawNewBalls_1:
19475  54EF              .ds 1
19476  54F0             redrawNewBalls_2:
19477  54F0              .ds 1
19478  54F1             redrawNewBalls_3:
19479  54F1              .ds 1
19480  54F2             drawOnOff_1:
19481  54F2              .ds 1
19482  54F3             drawOnOff_2:
19483  54F3              .ds 1
19484  54F4             drawOnOff_i:
19485  54F4              .ds 1
19486  54F5             drawOnOff_addr:
19487  54F5              .ds 2
19488  54F7             delayX_1:
19489  54F7              .ds 2
19490  54F9             soundBadMove_i:
19491  54F9              .ds 1
19492  54FA             delayHS_1:
19493  54FA              .ds 1
19494  54FB             demo_p:
19495  54FB              .ds 2
19496  54FD             demo_x:
19497  54FD              .ds 2
19498  54FF             demo_s:
19499  54FF              .ds 2
19500  5501             demo_d:
19501  5501              .ds 1
19502  5502             printCenter_1:
19503  5502              .ds 1
19504  5503             printCenter_2:
19505  5503              .ds 2
19506  5505             printCenter_3:
19507  5505              .ds 2
19508  5507             printCenter_4:
19509  5507              .ds 1
19510  5508             printCenter_c:
19511  5508              .ds 1
19512  5509             showRecordScreen_1:
19513  5509              .ds 1
19514  550A             showRecordScreen_h:
19515  550A              .ds 2
19516  550C             showRecordScreen_c:
19517  550C              .ds 1
19518  550D             showRecordScreen_i:
19519  550D              .ds 1
19520  550E             showRecordScreen_x:
19521  550E              .ds 1
19522  550F             showRecordScreen_y:
19523  550F              .ds 1
19524  5510             showRecordScreen_buf:
19525  5510              .ds 7
19526  5517             showRecordScreen_text:
19527  5517              .ds 2
19528  5519             topScoreNamePos:
19529  5519 03           .db 3
19530  551A 03           .db 3
19531  551B 03           .db 3
19532  551C 02           .db 2
19533  551D 02           .db 2
19534  551E             
19535  551E              .ds 1
19536  551F             musicFreq:
19537  551F 61 13        .dw 4961
19538  5521 45 11        .dw 4421
19539  5523 63 0F        .dw 3939
19540  5525 8C 0E        .dw 3724
19541  5527 F4 0C        .dw 3316
19542  5529 8A 0B        .dw 2954
19543  552B B5 09        .dw 2485
19544  552D             
19545  552D             music:
19546  552D 04           .db 4
19547  552E 08           .db 8
19548  552F 06           .db 6
19549  5530 04           .db 4
19550  5531 07           .db 7
19551  5532 04           .db 4
19552  5533 06           .db 6
19553  5534 04           .db 4
19554  5535 04           .db 4
19555  5536 08           .db 8
19556  5537 01           .db 1
19557  5538 04           .db 4
19558  5539 02           .db 2
19559  553A 04           .db 4
19560  553B 03           .db 3
19561  553C 04           .db 4
19562  553D 04           .db 4
19563  553E 08           .db 8
19564  553F 06           .db 6
19565  5540 04           .db 4
19566  5541 07           .db 7
19567  5542 04           .db 4
19568  5543 06           .db 6
19569  5544 04           .db 4
19570  5545 05           .db 5
19571  5546 08           .db 8
19572  5547 01           .db 1
19573  5548 04           .db 4
19574  5549 02           .db 2
19575  554A 04           .db 4
19576  554B 03           .db 3
19577  554C 04           .db 4
19578  554D 03           .db 3
19579  554E 08           .db 8
19580  554F 01           .db 1
19581  5550 04           .db 4
19582  5551 02           .db 2
19583  5552 04           .db 4
19584  5553 03           .db 3
19585  5554 04           .db 4
19586  5555 04           .db 4
19587  5556 10           .db 16
19588  5557 04           .db 4
19589  5558 08           .db 8
19590  5559 06           .db 6
19591  555A 04           .db 4
19592  555B 07           .db 7
19593  555C 04           .db 4
19594  555D 06           .db 6
19595  555E 04           .db 4
19596  555F 05           .db 5
19597  5560 08           .db 8
19598  5561 01           .db 1
19599  5562 04           .db 4
19600  5563 02           .db 2
19601  5564 04           .db 4
19602  5565 03           .db 3
19603  5566 04           .db 4
19604  5567 03           .db 3
19605  5568 08           .db 8
19606  5569 01           .db 1
19607  556A 04           .db 4
19608  556B 02           .db 2
19609  556C 04           .db 4
19610  556D 03           .db 3
19611  556E 04           .db 4
19612  556F 04           .db 4
19613  5570 10           .db 16
19614  5571 00           .db 0
19615  5572             
19616  5572             rand_seed:
19617  5572 FA           .db 250
19618  5573             
19619  5573             op_div_mod:
19620  5573              .ds 1
19621  5574             memset_1:
19622  5574              .ds 2
19623  5576             memset_2:
19624  5576              .ds 1
19625  5577             memset_3:
19626  5577              .ds 2
19627  5579             memcpy_1:
19628  5579              .ds 2
19629  557B             memcpy_2:
19630  557B              .ds 2
19631  557D             memcpy_3:
19632  557D              .ds 2
19633  557F             apogeyVideoMem:
19634  557F C2 E2        .dw 58050
19635  5581             
19636  5581             apogeyVideoBpl:
19637  5581 4E           .db 78
19638  5582             
19639  5582             op_div16_mod:
19640  5582              .ds 2
19641  5584             apogeyScreen3c_i:
19642  5584              .ds 1
19643  5585             string8:
19644  5585 42 32 4D 00  .db 66,50,77,0
19645  5589             string1:
19646  5589 45 4C 54 41  .db 69,76,84,65,82,79,0
19646  558D 52 4F 00 
19647  5590             string2:
19648  5590 45 52 52 34  .db 69,82,82,52,48,52,0
19648  5594 30 34 00 
19649  5597             string4:
19650  5597 4D 49 43 4B  .db 77,73,67,75,0
19650  559B 00 
19651  559C             string5:
19652  559C 53 43 4C 20  .db 83,67,76,32,77,67,0
19652  55A0 4D 43 00 
19653  55A3             string6:
19654  55A3 53 56 4F 46  .db 83,86,79,70,83,75,0
19654  55A7 53 4B 00 
19655  55AA             string3:
19656  55AA 53 59 53 43  .db 83,89,83,67,65,84,0
19656  55AE 41 54 00 
19657  55B1             string7:
19658  55B1 54 49 54 55  .db 84,73,84,85,83,0
19658  55B5 53 00 
19659  55B7             string0:
19660  55B7 56 49 4E 58  .db 86,73,78,88,82,85,0
19660  55BB 52 55 00 
19661  55BE             string13:
19662  55BE 63 20 20 00  .db 99,32,32,0
19663  55C2             string12:
19664  55C2 65 00        .db 101,0
19665  55C4             string9:
19666  55C4 6B 00        .db 107,0
19667  55C6             string11:
19668  55C6 6E 00        .db 110,0
19669  55C8             string10:
19670  55C8 6F 00        .db 111,0
19671  55CA               .end
tasm: Number of errors = 0
